 quake3

 Timestamp is 4440be4a (Sat Apr 15 02:35:06 2006)

 Preferred load address is 00400000

 Start         Length     Name                   Class
 0001:00000000 00160dbdH .text                   CODE
 0001:00160dbd 00098403H .textbss                CODE
 0002:00000000 0001e5deH .rdata                  DATA
 0002:0001e5de 00000000H .edata                  DATA
 0003:00000000 00000104H .CRT$XCA                DATA
 0003:00000104 00000104H .CRT$XCZ                DATA
 0003:00000208 00000104H .CRT$XIA                DATA
 0003:0000030c 0000010eH .CRT$XIC                DATA
 0003:0000041c 00000104H .CRT$XIZ                DATA
 0003:00000520 00000104H .CRT$XPA                DATA
 0003:00000624 00000104H .CRT$XPX                DATA
 0003:00000728 00000104H .CRT$XPZ                DATA
 0003:0000082c 00000104H .CRT$XTA                DATA
 0003:00000930 00000104H .CRT$XTZ                DATA
 0003:00000a40 0000750eH .data                   DATA
 0003:00007f50 008fd760H .bss                    DATA
 0004:00000000 0000008cH .idata$2                DATA
 0004:0000008c 00000014H .idata$3                DATA
 0004:000000a0 000004d0H .idata$4                DATA
 0004:00000570 000004d0H .idata$5                DATA
 0004:00000a40 00000e9cH .idata$6                DATA
 0005:00000000 00000216H .rsrc$01                DATA
 0005:00000220 000004d3H .rsrc$02                DATA

  Address         Publics by Value              Rva+Base     Lib:Object

 0001:00002900       _CL_GetGameState           00403900 f   cl_cgame.obj
 0001:00002940       _CL_GetGlconfig            00403940 f   cl_cgame.obj
 0001:00002980       _CL_GetUserCmd             00403980 f   cl_cgame.obj
 0001:00002a20       _CL_GetCurrentCmdNumber    00403a20 f   cl_cgame.obj
 0001:00002a50       _CL_GetParseEntityState    00403a50 f   cl_cgame.obj
 0001:00002b00       _CL_GetCurrentSnapshotNumber 00403b00 f   cl_cgame.obj
 0001:00002b50       _CL_GetSnapshot            00403b50 f   cl_cgame.obj
 0001:00002d50       _CL_SetUserCmdValue        00403d50 f   cl_cgame.obj
 0001:00002d90       _CL_AddCgameCommand        00403d90 f   cl_cgame.obj
 0001:00002de0       _CL_CgameError             00403de0 f   cl_cgame.obj
 0001:00002e30       _CL_ConfigstringModified   00403e30 f   cl_cgame.obj
 0001:00003050       _CL_GetServerCommand       00404050 f   cl_cgame.obj
 0001:00003410       _CL_CM_LoadMap             00404410 f   cl_cgame.obj
 0001:00003460       _CL_ShutdownCGame          00404460 f   cl_cgame.obj
 0001:00003500       _CL_CgameSystemCalls       00404500 f   cl_cgame.obj
 0001:00004db0       _CL_InitCGame              00405db0 f   cl_cgame.obj
 0001:00004f60       _CL_GameCommand            00405f60 f   cl_cgame.obj
 0001:00004fc0       _CL_CGameRendering         00405fc0 f   cl_cgame.obj
 0001:00005030       _CL_AdjustTimeDelta        00406030 f   cl_cgame.obj
 0001:00005210       _CL_FirstSnapshot          00406210 f   cl_cgame.obj
 0001:000052e0       _CL_SetCGameTime           004062e0 f   cl_cgame.obj
 0001:00005570       _CIN_CloseAllVideos        00406570 f   cl_cin.obj
 0001:000055f0       _RllDecodeMonoToMono       004065f0 f   cl_cin.obj
 0001:000056b0       _RllDecodeMonoToStereo     004066b0 f   cl_cin.obj
 0001:00005780       _RllDecodeStereoToStereo   00406780 f   cl_cin.obj
 0001:000058d0       _RllDecodeStereoToMono     004068d0 f   cl_cin.obj
 0001:00005a00       _CIN_StopCinematic         00406a00 f   cl_cin.obj
 0001:00005cf0       _CIN_RunCinematic          00406cf0 f   cl_cin.obj
 0001:0000a7b0       _CIN_PlayCinematic         0040b7b0 f   cl_cin.obj
 0001:0000bed0       _CIN_SetExtents            0040ced0 f   cl_cin.obj
 0001:0000bf90       _CIN_SetLooping            0040cf90 f   cl_cin.obj
 0001:0000c000       _CIN_DrawCinematic         0040d000 f   cl_cin.obj
 0001:0000c5e0       _CL_PlayCinematic_f        0040d5e0 f   cl_cin.obj
 0001:0000c760       _SCR_DrawCinematic         0040d760 f   cl_cin.obj
 0001:0000c7c0       _SCR_RunCinematic          0040d7c0 f   cl_cin.obj
 0001:0000c820       _SCR_StopCinematic         0040d820 f   cl_cin.obj
 0001:0000c890       _CIN_UploadCinematic       0040d890 f   cl_cin.obj
 0001:0000ca50       _Con_ToggleConsole_f       0040da50 f   cl_console.obj
 0001:0000cae0       _Con_MessageMode_f         0040dae0 f   cl_console.obj
 0001:0000cb60       _Con_MessageMode2_f        0040db60 f   cl_console.obj
 0001:0000cbe0       _Con_MessageMode3_f        0040dbe0 f   cl_console.obj
 0001:0000cc90       _Con_MessageMode4_f        0040dc90 f   cl_console.obj
 0001:0000cd40       _Con_Clear_f               0040dd40 f   cl_console.obj
 0001:0000cdb0       _Con_Dump_f                0040ddb0 f   cl_console.obj
 0001:0000d060       _Con_ClearNotify           0040e060 f   cl_console.obj
 0001:0000d0c0       _Con_CheckResize           0040e0c0 f   cl_console.obj
 0001:0000d310       _Con_Init                  0040e310 f   cl_console.obj
 0001:0000d4a0       _Con_Linefeed              0040e4a0 f   cl_console.obj
 0001:0000d5c0       _CL_ConsolePrint           0040e5c0 f   cl_console.obj
 0001:0000d8e0       _Con_DrawInput             0040e8e0 f   cl_console.obj
 0001:0000d9c0       _Con_DrawNotify            0040e9c0 f   cl_console.obj
 0001:0000dcf0       _Con_DrawSolidConsole      0040ecf0 f   cl_console.obj
 0001:0000e160       _Con_DrawConsole           0040f160 f   cl_console.obj
 0001:0000e210       _Con_RunConsole            0040f210 f   cl_console.obj
 0001:0000e340       _Con_PageUp                0040f340 f   cl_console.obj
 0001:0000e3b0       _Con_PageDown              0040f3b0 f   cl_console.obj
 0001:0000e410       _Con_Top                   0040f410 f   cl_console.obj
 0001:0000e480       _Con_Bottom                0040f480 f   cl_console.obj
 0001:0000e4c0       _Con_Close                 0040f4c0 f   cl_console.obj
 0001:0000e550       _IN_MLookDown              0040f550 f   cl_input.obj
 0001:0000e590       _IN_MLookUp                0040f590 f   cl_input.obj
 0001:0000e5f0       _IN_KeyDown                0040f5f0 f   cl_input.obj
 0001:0000e710       _IN_KeyUp                  0040f710 f   cl_input.obj
 0001:0000e870       _CL_KeyState               0040f870 f   cl_input.obj
 0001:0000e960       _IN_UpDown                 0040f960 f   cl_input.obj
 0001:0000e9b0       _IN_UpUp                   0040f9b0 f   cl_input.obj
 0001:0000ea00       _IN_DownDown               0040fa00 f   cl_input.obj
 0001:0000ea50       _IN_DownUp                 0040fa50 f   cl_input.obj
 0001:0000eaa0       _IN_LeftDown               0040faa0 f   cl_input.obj
 0001:0000eaf0       _IN_LeftUp                 0040faf0 f   cl_input.obj
 0001:0000eb40       _IN_RightDown              0040fb40 f   cl_input.obj
 0001:0000eb90       _IN_RightUp                0040fb90 f   cl_input.obj
 0001:0000ebe0       _IN_ForwardDown            0040fbe0 f   cl_input.obj
 0001:0000ec30       _IN_ForwardUp              0040fc30 f   cl_input.obj
 0001:0000ec80       _IN_BackDown               0040fc80 f   cl_input.obj
 0001:0000ecd0       _IN_BackUp                 0040fcd0 f   cl_input.obj
 0001:0000ed20       _IN_LookupDown             0040fd20 f   cl_input.obj
 0001:0000ed70       _IN_LookupUp               0040fd70 f   cl_input.obj
 0001:0000edc0       _IN_LookdownDown           0040fdc0 f   cl_input.obj
 0001:0000ee10       _IN_LookdownUp             0040fe10 f   cl_input.obj
 0001:0000ee60       _IN_MoveleftDown           0040fe60 f   cl_input.obj
 0001:0000eeb0       _IN_MoveleftUp             0040feb0 f   cl_input.obj
 0001:0000ef00       _IN_MoverightDown          0040ff00 f   cl_input.obj
 0001:0000ef50       _IN_MoverightUp            0040ff50 f   cl_input.obj
 0001:0000efa0       _IN_SpeedDown              0040ffa0 f   cl_input.obj
 0001:0000eff0       _IN_SpeedUp                0040fff0 f   cl_input.obj
 0001:0000f040       _IN_StrafeDown             00410040 f   cl_input.obj
 0001:0000f090       _IN_StrafeUp               00410090 f   cl_input.obj
 0001:0000f0e0       _IN_Button0Down            004100e0 f   cl_input.obj
 0001:0000f130       _IN_Button0Up              00410130 f   cl_input.obj
 0001:0000f180       _IN_Button1Down            00410180 f   cl_input.obj
 0001:0000f1d0       _IN_Button1Up              004101d0 f   cl_input.obj
 0001:0000f220       _IN_Button2Down            00410220 f   cl_input.obj
 0001:0000f270       _IN_Button2Up              00410270 f   cl_input.obj
 0001:0000f2c0       _IN_Button3Down            004102c0 f   cl_input.obj
 0001:0000f310       _IN_Button3Up              00410310 f   cl_input.obj
 0001:0000f360       _IN_Button4Down            00410360 f   cl_input.obj
 0001:0000f3b0       _IN_Button4Up              004103b0 f   cl_input.obj
 0001:0000f400       _IN_Button5Down            00410400 f   cl_input.obj
 0001:0000f450       _IN_Button5Up              00410450 f   cl_input.obj
 0001:0000f4a0       _IN_Button6Down            004104a0 f   cl_input.obj
 0001:0000f4f0       _IN_Button6Up              004104f0 f   cl_input.obj
 0001:0000f540       _IN_Button7Down            00410540 f   cl_input.obj
 0001:0000f590       _IN_Button7Up              00410590 f   cl_input.obj
 0001:0000f5e0       _IN_Button8Down            004105e0 f   cl_input.obj
 0001:0000f630       _IN_Button8Up              00410630 f   cl_input.obj
 0001:0000f680       _IN_Button9Down            00410680 f   cl_input.obj
 0001:0000f6d0       _IN_Button9Up              004106d0 f   cl_input.obj
 0001:0000f720       _IN_Button10Down           00410720 f   cl_input.obj
 0001:0000f770       _IN_Button10Up             00410770 f   cl_input.obj
 0001:0000f7c0       _IN_Button11Down           004107c0 f   cl_input.obj
 0001:0000f810       _IN_Button11Up             00410810 f   cl_input.obj
 0001:0000f860       _IN_Button12Down           00410860 f   cl_input.obj
 0001:0000f8b0       _IN_Button12Up             004108b0 f   cl_input.obj
 0001:0000f900       _IN_Button13Down           00410900 f   cl_input.obj
 0001:0000f950       _IN_Button13Up             00410950 f   cl_input.obj
 0001:0000f9a0       _IN_Button14Down           004109a0 f   cl_input.obj
 0001:0000f9f0       _IN_Button14Up             004109f0 f   cl_input.obj
 0001:0000fa40       _IN_Button15Down           00410a40 f   cl_input.obj
 0001:0000fa90       _IN_Button15Up             00410a90 f   cl_input.obj
 0001:0000fae0       _IN_ButtonDown             00410ae0 f   cl_input.obj
 0001:0000fb30       _IN_ButtonUp               00410b30 f   cl_input.obj
 0001:0000fb80       _IN_CenterView             00410b80 f   cl_input.obj
 0001:0000fbc0       _CL_AdjustAngles           00410bc0 f   cl_input.obj
 0001:0000fd20       _CL_KeyMove                00410d20 f   cl_input.obj
 0001:0000ffa0       _CL_MouseEvent             00410fa0 f   cl_input.obj
 0001:00010080       _CL_JoystickEvent          00411080 f   cl_input.obj
 0001:000100f0       _CL_JoystickMove           004110f0 f   cl_input.obj
 0001:00010270       _CL_MouseMove              00411270 f   cl_input.obj
 0001:00010540       _CL_CmdButtons             00411540 f   cl_input.obj
 0001:00010630       _CL_FinishMove             00411630 f   cl_input.obj
 0001:000106d0       _CL_CreateCmd              004116d0 f   cl_input.obj
 0001:000108a0       _CL_CreateNewCommands      004118a0 f   cl_input.obj
 0001:00010980       _CL_ReadyToSendPacket      00411980 f   cl_input.obj
 0001:00010b30       _CL_WritePacket            00411b30 f   cl_input.obj
 0001:00011000       _CL_SendCmd                00412000 f   cl_input.obj
 0001:000110b0       _CL_InitInput              004120b0 f   cl_input.obj
 0001:00011660       _Field_VariableSizeDraw    00412660 f   cl_keys.obj
 0001:00011910       _Field_Draw                00412910 f   cl_keys.obj
 0001:00011970       _Field_BigDraw             00412970 f   cl_keys.obj
 0001:000119d0       _Field_Paste               004129d0 f   cl_keys.obj
 0001:00011a80       _Field_KeyDownEvent        00412a80 f   cl_keys.obj
 0001:00011ca0       _Field_CharEvent           00412ca0 f   cl_keys.obj
 0001:00011f00       _Console_Key               00412f00 f   cl_keys.obj
 0001:00012390       _Message_Key               00413390 f   cl_keys.obj
 0001:00012520       _Key_GetOverstrikeMode     00413520 f   cl_keys.obj
 0001:00012550       _Key_SetOverstrikeMode     00413550 f   cl_keys.obj
 0001:00012580       _Key_IsDown                00413580 f   cl_keys.obj
 0001:000125d0       _Key_StringToKeynum        004135d0 f   cl_keys.obj
 0001:00012780       _Key_KeynumToString        00413780 f   cl_keys.obj
 0001:000128e0       _Key_SetBinding            004138e0 f   cl_keys.obj
 0001:00012980       _Key_GetBinding            00413980 f   cl_keys.obj
 0001:000129d0       _Key_GetKey                004139d0 f   cl_keys.obj
 0001:00012a70       _Key_Unbind_f              00413a70 f   cl_keys.obj
 0001:00012b20       _Key_Unbindall_f           00413b20 f   cl_keys.obj
 0001:00012ba0       _Key_Bind_f                00413ba0 f   cl_keys.obj
 0001:00012d50       _Key_WriteBindings         00413d50 f   cl_keys.obj
 0001:00012e20       _Key_Bindlist_f            00413e20 f   cl_keys.obj
 0001:00012ee0       _CL_InitKeyCommands        00413ee0 f   cl_keys.obj
 0001:00012f70       _CL_AddKeyUpCommands       00413f70 f   cl_keys.obj
 0001:00013150       _CL_KeyEvent               00414150 f   cl_keys.obj
 0001:00013790       _CL_CharEvent              00414790 f   cl_keys.obj
 0001:00013880       _Key_ClearStates           00414880 f   cl_keys.obj
 0001:00013940       _CL_CDDialog               00414940 f   cl_main.obj
 0001:00013980       _CL_AddReliableCommand     00414980 f   cl_main.obj
 0001:00013a30       _CL_ChangeReliableCommand  00414a30 f   cl_main.obj
 0001:00013b10       _CL_WriteDemoMessage       00414b10 f   cl_main.obj
 0001:00013bd0       _CL_StopRecord_f           00414bd0 f   cl_main.obj
 0001:00013cb0       _CL_DemoFilename           00414cb0 f   cl_main.obj
 0001:00013dc0       _CL_Record_f               00414dc0 f   cl_main.obj
 0001:00014340       _CL_DemoCompleted          00415340 f   cl_main.obj
 0001:00014400       _CL_ReadDemoMessage        00415400 f   cl_main.obj
 0001:00014590       _CL_PlayDemo_f             00415590 f   cl_main.obj
 0001:00014a10       _CL_StartDemoLoop          00415a10 f   cl_main.obj
 0001:00014a60       _CL_NextDemo               00415a60 f   cl_main.obj
 0001:00014b40       _CL_ShutdownAll            00415b40 f   cl_main.obj
 0001:00014be0       _CL_FlushMemory            00415be0 f   cl_main.obj
 0001:00014c50       _CL_MapLoading             00415c50 f   cl_main.obj
 0001:00014dd0       _CL_ClearState             00415dd0 f   cl_main.obj
 0001:00014e20       _CL_Disconnect             00415e20 f   cl_main.obj
 0001:00014fd0       _CL_ForwardCommandToServer 00415fd0 f   cl_main.obj
 0001:00015090       _CL_RequestMotd            00416090 f   cl_main.obj
 0001:000152d0       _CL_RequestAuthorization   004162d0 f   cl_main.obj
 0001:00015430       _CL_ForwardToServer_f      00416430 f   cl_main.obj
 0001:000154b0       _CL_Setenv_f               004164b0 f   cl_main.obj
 0001:00015650       _CL_Disconnect_f           00416650 f   cl_main.obj
 0001:000156d0       _CL_Reconnect_f            004166d0 f   cl_main.obj
 0001:00015780       _CL_Connect_f              00416780 f   cl_main.obj
 0001:000159d0       _CL_Rcon_f                 004169d0 f   cl_main.obj
 0001:00015bb0       _CL_SendPureChecksums      00416bb0 f   cl_main.obj
 0001:00015cd0       _CL_ResetPureClientAtServer 00416cd0 f   cl_main.obj
 0001:00015d20       _CL_Vid_Restart_f          00416d20 f   cl_main.obj
 0001:00015e40       _CL_Snd_Restart_f          00416e40 f   cl_main.obj
 0001:00015e90       _CL_OpenedPK3List_f        00416e90 f   cl_main.obj
 0001:00015ee0       _CL_ReferencedPK3List_f    00416ee0 f   cl_main.obj
 0001:00015f30       _CL_Configstrings_f        00416f30 f   cl_main.obj
 0001:00015fe0       _CL_Clientinfo_f           00416fe0 f   cl_main.obj
 0001:00016090       _CL_DownloadsComplete      00417090 f   cl_main.obj
 0001:00016170       _CL_BeginDownload          00417170 f   cl_main.obj
 0001:000162a0       _CL_NextDownload           004172a0 f   cl_main.obj
 0001:000163f0       _CL_InitDownloads          004173f0 f   cl_main.obj
 0001:000164e0       _CL_CheckForResend         004174e0 f   cl_main.obj
 0001:000167d0       _CL_DisconnectPacket       004177d0 f   cl_main.obj
 0001:000168a0       _CL_MotdPacket             004178a0 f   cl_main.obj
 0001:000169a0       _CL_InitServerInfo         004179a0 f   cl_main.obj
 0001:00016aa0       _CL_ServersResponsePacket  00417aa0 f   cl_main.obj
 0001:000170b0       _CL_ConnectionlessPacket   004180b0 f   cl_main.obj
 0001:00017590       _CL_PacketEvent            00418590 f   cl_main.obj
 0001:00017750       _CL_CheckTimeout           00418750 f   cl_main.obj
 0001:00017840       _CL_CheckUserinfo          00418840 f   cl_main.obj
 0001:000178e0       _CL_Frame                  004188e0 f   cl_main.obj
 0001:00017ad0       _CL_RefPrintf              00418ad0 f   cl_main.obj
 0001:00017bb0       _CL_ShutdownRef            00418bb0 f   cl_main.obj
 0001:00017c20       _CL_InitRenderer           00418c20 f   cl_main.obj
 0001:00017d10       _CL_StartHunkUsers         00418d10 f   cl_main.obj
 0001:00017de0       _CL_RefMalloc              00418de0 f   cl_main.obj
 0001:00017e40       _CL_ScaledMilliseconds     00418e40 f   cl_main.obj
 0001:00017ea0       _CL_InitRef                00418ea0 f   cl_main.obj
 0001:00018040       _CL_SetModel_f             00419040 f   cl_main.obj
 0001:00018100       _CL_Init                   00419100 f   cl_main.obj
 0001:000189d0       _CL_Shutdown               004199d0 f   cl_main.obj
 0001:00018bf0       _CL_ServerInfoPacket       00419bf0 f   cl_main.obj
 0001:00019620       _CL_GetServerStatus        0041a620 f   cl_main.obj
 0001:000197e0       _CL_ServerStatus           0041a7e0 f   cl_main.obj
 0001:00019ac0       _CL_ServerStatusResponse   0041aac0 f   cl_main.obj
 0001:0001a030       _CL_LocalServers_f         0041b030 f   cl_main.obj
 0001:0001a210       _CL_GlobalServers_f        0041b210 f   cl_main.obj
 0001:0001a440       _CL_GetPing                0041b440 f   cl_main.obj
 0001:0001a5d0       _CL_UpdateServerInfo       0041b5d0 f   cl_main.obj
 0001:0001a680       _CL_GetPingInfo            0041b680 f   cl_main.obj
 0001:0001a710       _CL_ClearPing              0041b710 f   cl_main.obj
 0001:0001a760       _CL_GetPingQueueCount      0041b760 f   cl_main.obj
 0001:0001a7f0       _CL_GetFreePing            0041b7f0 f   cl_main.obj
 0001:0001a920       _CL_Ping_f                 0041b920 f   cl_main.obj
 0001:0001aa40       _CL_UpdateVisiblePings_f   0041ba40 f   cl_main.obj
 0001:0001af20       _CL_ServerStatus_f         0041bf20 f   cl_main.obj
 0001:0001b070       _CL_ShowIP_f               0041c070 f   cl_main.obj
 0001:0001b0b0       _CL_CDKeyValidate          0041c0b0 f   cl_main.obj
 0001:0001b270       _CL_Netchan_TransmitNextFragment 0041c270 f   cl_net_chan.obj
 0001:0001b2c0       _CL_Netchan_Transmit       0041c2c0 f   cl_net_chan.obj
 0001:0001b540       _CL_Netchan_Process        0041c540 f   cl_net_chan.obj
 0001:0001b790       _SHOWNET                   0041c790 f   cl_parse.obj
 0001:0001b800       _CL_DeltaEntity            0041c800 f   cl_parse.obj
 0001:0001b8d0       _CL_ParsePacketEntities    0041c8d0 f   cl_parse.obj
 0001:0001bca0       _CL_ParseSnapshot          0041cca0 f   cl_parse.obj
 0001:0001c0c0       _CL_SystemInfoChanged      0041d0c0 f   cl_parse.obj
 0001:0001c300       _CL_ParseGamestate         0041d300 f   cl_parse.obj
 0001:0001c5e0       _CL_ParseDownload          0041d5e0 f   cl_parse.obj
 0001:0001c8c0       _CL_ParseCommandString     0041d8c0 f   cl_parse.obj
 0001:0001c970       _CL_ParseServerMessage     0041d970 f   cl_parse.obj
 0001:0001cbb0       _SCR_DrawNamedPic          0041dbb0 f   cl_scrn.obj
 0001:0001cca0       _SCR_AdjustFrom640         0041dca0 f   cl_scrn.obj
 0001:0001cd50       _SCR_FillRect              0041dd50 f   cl_scrn.obj
 0001:0001ce20       _SCR_DrawPic               0041de20 f   cl_scrn.obj
 0001:0001cec0       _SCR_DrawSmallChar         0041dec0 f   cl_scrn.obj
 0001:0001cfc0       _SCR_DrawStringExt         0041dfc0 f   cl_scrn.obj
 0001:0001d350       _SCR_DrawBigString         0041e350 f   cl_scrn.obj
 0001:0001d3d0       _SCR_DrawBigStringColor    0041e3d0 f   cl_scrn.obj
 0001:0001d430       _SCR_DrawSmallStringExt    0041e430 f   cl_scrn.obj
 0001:0001d590       _SCR_GetBigStringWidth     0041e590 f   cl_scrn.obj
 0001:0001d680       _SCR_DrawDemoRecording     0041e680 f   cl_scrn.obj
 0001:0001d780       _SCR_DebugGraph            0041e780 f   cl_scrn.obj
 0001:0001d7f0       _SCR_DrawDebugGraph        0041e7f0 f   cl_scrn.obj
 0001:0001da40       _SCR_Init                  0041ea40 f   cl_scrn.obj
 0001:0001db30       _SCR_DrawScreenField       0041eb30 f   cl_scrn.obj
 0001:0001de10       _SCR_UpdateScreen          0041ee10 f   cl_scrn.obj
 0001:0001df20       _LAN_LoadCachedServers     0041ef20 f   cl_ui.obj
 0001:0001e0b0       _LAN_SaveServersToCache    0041f0b0 f   cl_ui.obj
 0001:0001e1c0       _LAN_UpdateVisiblePings    0041f1c0 f   cl_ui.obj
 0001:0001e210       _LAN_GetServerStatus       0041f210 f   cl_ui.obj
 0001:0001e260       _Key_GetCatcher            0041f260 f   cl_ui.obj
 0001:0001e290       _Key_SetCatcher            0041f290 f   cl_ui.obj
 0001:0001e2c0       _CL_UISystemCalls          0041f2c0 f   cl_ui.obj
 0001:00021020       _CL_ShutdownUI             00422020 f   cl_ui.obj
 0001:000210c0       _CL_InitUI                 004220c0 f   cl_ui.obj
 0001:00021240       _UI_usesUniqueCDKey        00422240 f   cl_ui.obj
 0001:000212b0       _UI_GameCommand            004222b0 f   cl_ui.obj
 0001:00021310       _CMod_LoadShaders          00422310 f   cm_load.obj
 0001:00021480       _CMod_LoadSubmodels        00422480 f   cm_load.obj
 0001:00021780       _CMod_LoadNodes            00422780 f   cm_load.obj
 0001:00021900       _CM_BoundBrush             00422900 f   cm_load.obj
 0001:000219c0       _CMod_LoadBrushes          004229c0 f   cm_load.obj
 0001:00021b70       _CMod_LoadLeafs            00422b70 f   cm_load.obj
 0001:00021dc0       _CMod_LoadPlanes           00422dc0 f   cm_load.obj
 0001:00022000       _CMod_LoadLeafBrushes      00423000 f   cm_load.obj
 0001:00022120       _CMod_LoadLeafSurfaces     00423120 f   cm_load.obj
 0001:00022230       _CMod_LoadBrushSides       00423230 f   cm_load.obj
 0001:000223d0       _CMod_LoadEntityString     004233d0 f   cm_load.obj
 0001:00022480       _CMod_LoadVisibility       00423480 f   cm_load.obj
 0001:000225d0       _CMod_LoadPatches          004235d0 f   cm_load.obj
 0001:000228c0       _CM_LumpChecksum           004238c0 f   cm_load.obj
 0001:00022920       _CM_Checksum               00423920 f   cm_load.obj
 0001:00022a70       _CM_LoadMap                00423a70 f   cm_load.obj
 0001:00022e10       _CM_ClearMap               00423e10 f   cm_load.obj
 0001:00022e70       _CM_ClipHandleToModel      00423e70 f   cm_load.obj
 0001:00022f50       _CM_InlineModel            00423f50 f   cm_load.obj
 0001:00022fb0       _CM_NumClusters            00423fb0 f   cm_load.obj
 0001:00022fe0       _CM_NumInlineModels        00423fe0 f   cm_load.obj
 0001:00023010       _CM_EntityString           00424010 f   cm_load.obj
 0001:00023040       _CM_LeafCluster            00424040 f   cm_load.obj
 0001:000230b0       _CM_LeafArea               004240b0 f   cm_load.obj
 0001:00023120       _CM_InitBoxHull            00424120 f   cm_load.obj
 0001:00023360       _CM_TempBoxModel           00424360 f   cm_load.obj
 0001:00023560       _CM_ModelBounds            00424560 f   cm_load.obj
 0001:00023600       _CM_ClearLevelPatches      00424600 f   cm_patch.obj
 0001:00023640       _CM_PlaneEqual             00424640 f   cm_patch.obj
 0001:00023850       _CM_SnapVector             00424850 f   cm_patch.obj
 0001:00023990       _CM_FindPlane2             00424990 f   cm_patch.obj
 0001:00023b80       _CM_AddFacetBevels         00424b80 f   cm_patch.obj
 0001:000245b0       _CM_GeneratePatchCollide   004255b0 f   cm_patch.obj
 0001:00027d10       _CM_TracePointThroughPatchCollide 00428d10 f   cm_patch.obj
 0001:000283c0       _CM_CheckFacetPlane        004293c0 f   cm_patch.obj
 0001:000285a0       _CM_TraceThroughPatchCollide 004295a0 f   cm_patch.obj
 0001:00028db0       _CM_PositionTestInPatchCollide 00429db0 f   cm_patch.obj
 0001:000292d0       _CM_DrawDebugSurface       0042a2d0 f   cm_patch.obj
 0001:000299f0       _pw                        0042a9f0 f   cm_polylib.obj
 0001:00029aa0       _AllocWinding              0042aaa0 f   cm_polylib.obj
 0001:00029b80       _FreeWinding               0042ab80 f   cm_polylib.obj
 0001:00029c00       _RemoveColinearPoints      0042ac00 f   cm_polylib.obj
 0001:00029ea0       _WindingPlane              0042aea0 f   cm_polylib.obj
 0001:0002a050       _WindingArea               0042b050 f   cm_polylib.obj
 0001:0002a230       _WindingBounds             0042b230 f   cm_polylib.obj
 0001:0002a360       _WindingCenter             0042b360 f   cm_polylib.obj
 0001:0002a480       _BaseWindingForPlane       0042b480 f   cm_polylib.obj
 0001:0002a860       _CopyWinding               0042b860 f   cm_polylib.obj
 0001:0002a8e0       _ReverseWinding            0042b8e0 f   cm_polylib.obj
 0001:0002a9e0       _ClipWindingEpsilon        0042b9e0 f   cm_polylib.obj
 0001:0002b260       _ChopWindingInPlace        0042c260 f   cm_polylib.obj
 0001:0002b8e0       _ChopWinding               0042c8e0 f   cm_polylib.obj
 0001:0002b970       _CheckWinding              0042c970 f   cm_polylib.obj
 0001:0002bd00       _WindingOnPlaneSide        0042cd00 f   cm_polylib.obj
 0001:0002be40       _AddWindingToConvexHull    0042ce40 f   cm_polylib.obj
 0001:0002c350       _CM_PointLeafnum_r         0042d350 f   cm_test.obj
 0001:0002c460       _CM_PointLeafnum           0042d460 f   cm_test.obj
 0001:0002c4c0       _CM_StoreLeafs             0042d4c0 f   cm_test.obj
 0001:0002c560       _CM_StoreBrushes           0042d560 f   cm_test.obj
 0001:0002c6f0       _CM_BoxLeafnums_r          0042d6f0 f   cm_test.obj
 0001:0002c800       _CM_BoxLeafnums            0042d800 f   cm_test.obj
 0001:0002c8e0       _CM_BoxBrushes             0042d8e0 f   cm_test.obj
 0001:0002c9b0       _CM_PointContents          0042d9b0 f   cm_test.obj
 0001:0002cb90       _CM_TransformedPointContents 0042db90 f   cm_test.obj
 0001:0002cd00       _CM_ClusterPVS             0042dd00 f   cm_test.obj
 0001:0002cd70       _CM_FloodArea_r            0042dd70 f   cm_test.obj
 0001:0002ce70       _CM_FloodAreaConnections   0042de70 f   cm_test.obj
 0001:0002cf30       _CM_AdjustAreaPortalState  0042df30 f   cm_test.obj
 0001:0002d0e0       _CM_AreasConnected         0042e0e0 f   cm_test.obj
 0001:0002d1a0       _CM_WriteAreaBits          0042e1a0 f   cm_test.obj
 0001:0002d2b0       _RotatePoint               0042e2b0 f   cm_trace.obj
 0001:0002d380       _TransposeMatrix           0042e380 f   cm_trace.obj
 0001:0002d420       _CreateRotationMatrix      0042e420 f   cm_trace.obj
 0001:0002d490       _CM_ProjectPointOntoVector 0042e490 f   cm_trace.obj
 0001:0002d5a0       _CM_DistanceFromLineSquared 0042e5a0 f   cm_trace.obj
 0001:0002d870       _CM_VectorDistanceSquared  0042e870 f   cm_trace.obj
 0001:0002d8f0       _SquareRootFloat           0042e8f0 f   cm_trace.obj
 0001:0002d990       _CM_TestBoxInBrush         0042e990 f   cm_trace.obj
 0001:0002dd60       _CM_TestInLeaf             0042ed60 f   cm_trace.obj
 0001:0002df70       _CM_TestCapsuleInCapsule   0042ef70 f   cm_trace.obj
 0001:0002e430       _CM_TestBoundingBoxInCapsule 0042f430 f   cm_trace.obj
 0001:0002e620       _CM_PositionTest           0042f620 f   cm_trace.obj
 0001:0002e870       _CM_TraceThroughPatch      0042f870 f   cm_trace.obj
 0001:0002e920       _CM_TraceThroughBrush      0042f920 f   cm_trace.obj
 0001:0002f0c0       _CM_TraceThroughLeaf       004300c0 f   cm_trace.obj
 0001:0002f2b0       _CM_TraceThroughSphere     004302b0 f   cm_trace.obj
 0001:0002f7b0       _CM_TraceThroughVerticalCylinder 004307b0 f   cm_trace.obj
 0001:0002fd30       _CM_TraceCapsuleThroughCapsule 00430d30 f   cm_trace.obj
 0001:00030190       _CM_TraceBoundingBoxThroughCapsule 00431190 f   cm_trace.obj
 0001:00030380       _CM_TraceThroughTree       00431380 f   cm_trace.obj
 0001:00030870       _CM_Trace                  00431870 f   cm_trace.obj
 0001:000311d0       _CM_BoxTrace               004321d0 f   cm_trace.obj
 0001:00031240       _CM_TransformedBoxTrace    00432240 f   cm_trace.obj
 0001:000316b0       _Cmd_Wait_f                004326b0 f   cmd.obj
 0001:00031720       _Cbuf_Init                 00432720 f   cmd.obj
 0001:00031770       _Cbuf_AddText              00432770 f   cmd.obj
 0001:00031820       _Cbuf_InsertText           00432820 f   cmd.obj
 0001:00031920       _Cbuf_ExecuteText          00432920 f   cmd.obj
 0001:000319e0       _Cbuf_Execute              004329e0 f   cmd.obj
 0001:00031bb0       _Cmd_Exec_f                00432bb0 f   cmd.obj
 0001:00031cd0       _Cmd_Vstr_f                00432cd0 f   cmd.obj
 0001:00031d60       _Cmd_Echo_f                00432d60 f   cmd.obj
 0001:00031df0       _Cmd_Argc                  00432df0 f   cmd.obj
 0001:00031e20       _Cmd_Argv                  00432e20 f   cmd.obj
 0001:00031e70       _Cmd_ArgvBuffer            00432e70 f   cmd.obj
 0001:00031ed0       _Cmd_Args                  00432ed0 f   cmd.obj
 0001:00031f80       _Cmd_ArgsFrom              00432f80 f   cmd.obj
 0001:00032040       _Cmd_ArgsBuffer            00433040 f   cmd.obj
 0001:00032090       _Cmd_Cmd                   00433090 f   cmd.obj
 0001:000320c0       _Cmd_TokenizeString        004330c0 f   cmd.obj
 0001:000323e0       _Cmd_AddCommand            004333e0 f   cmd.obj
 0001:000324e0       _Cmd_RemoveCommand         004334e0 f   cmd.obj
 0001:000325a0       _Cmd_CommandCompletion     004335a0 f   cmd.obj
 0001:00032610       _Cmd_ExecuteString         00433610 f   cmd.obj
 0001:00032790       _Cmd_List_f                00433790 f   cmd.obj
 0001:00032880       _Cmd_Init                  00433880 f   cmd.obj
 0001:00032930       _Com_BeginRedirect         00433930 f   common.obj
 0001:000329a0       _Com_EndRedirect           004339a0 f   common.obj
 0001:00032a30       _Com_Printf                00433a30 f   common.obj
 0001:00032cc0       _Com_DPrintf               00433cc0 f   common.obj
 0001:00032d70       _Com_Error                 00433d70 f   common.obj
 0001:00033040       _Com_Quit_f                00434040 f   common.obj
 0001:000330b0       _Com_ParseCommandLine      004340b0 f   common.obj
 0001:000331b0       _Com_SafeMode              004341b0 f   common.obj
 0001:00033290       _Com_StartupVariable       00434290 f   common.obj
 0001:000333b0       _Com_AddStartupCommands    004343b0 f   common.obj
 0001:000334a0       _Info_Print                004344a0 f   common.obj
 0001:000336b0       _Com_StringContains        004346b0 f   common.obj
 0001:000337f0       _Com_Filter                004347f0 f   common.obj
 0001:00033c80       _Com_FilterPath            00434c80 f   common.obj
 0001:00033de0       _Com_HashKey               00434de0 f   common.obj
 0001:00033e90       _Com_RealTime              00434e90 f   common.obj
 0001:00033f90       _Z_ClearZone               00434f90 f   common.obj
 0001:00034070       _Z_AvailableZoneMemory     00435070 f   common.obj
 0001:000340b0       _Z_AvailableMemory         004350b0 f   common.obj
 0001:00034100       _Z_Free                    00435100 f   common.obj
 0001:00034310       _Z_FreeTags                00435310 f   common.obj
 0001:000343e0       _Z_TagMallocDebug          004353e0 f   common.obj
 0001:00034640       _Z_MallocDebug             00435640 f   common.obj
 0001:000346c0       _S_MallocDebug             004356c0 f   common.obj
 0001:00034720       _Z_CheckHeap               00435720 f   common.obj
 0001:00034810       _Z_LogZoneHeap             00435810 f   common.obj
 0001:00034b80       _Z_LogHeap                 00435b80 f   common.obj
 0001:00034bf0       _CopyString                00435bf0 f   common.obj
 0001:00034cd0       _Com_Meminfo_f             00435cd0 f   common.obj
 0001:00035130       _Com_TouchMemory           00436130 f   common.obj
 0001:000352d0       _Com_InitSmallZoneMemory   004362d0 f   common.obj
 0001:00035380       _Com_InitZoneMemory        00436380 f   common.obj
 0001:00035470       _Hunk_Log                  00436470 f   common.obj
 0001:000356b0       _Hunk_SmallLog             004366b0 f   common.obj
 0001:000359d0       _Com_InitHunkMemory        004369d0 f   common.obj
 0001:00035bb0       _Hunk_MemoryRemaining      00436bb0 f   common.obj
 0001:00035c50       _Hunk_SetMark              00436c50 f   common.obj
 0001:00035ca0       _Hunk_ClearToMark          00436ca0 f   common.obj
 0001:00035d00       _Hunk_CheckMark            00436d00 f   common.obj
 0001:00035d50       _Hunk_Clear                00436d50 f   common.obj
 0001:00035e40       _Hunk_AllocDebug           00436e40 f   common.obj
 0001:00036100       _Hunk_AllocateTempMemory   00437100 f   common.obj
 0001:000362a0       _Hunk_FreeTempMemory       004372a0 f   common.obj
 0001:000363e0       _Hunk_ClearTempMemory      004373e0 f   common.obj
 0001:00036430       _Hunk_Trash                00437430 f   common.obj
 0001:000364b0       _Com_InitJournaling        004374b0 f   common.obj
 0001:00036620       _Com_GetRealEvent          00437620 f   common.obj
 0001:000367e0       _Com_InitPushEvent         004377e0 f   common.obj
 0001:00036850       _Com_PushEvent             00437850 f   common.obj
 0001:00036940       _Com_GetEvent              00437940 f   common.obj
 0001:000369f0       _Com_RunAndTimeServerPacket 004379f0 f   common.obj
 0001:00036ab0       _Com_EventLoop             00437ab0 f   common.obj
 0001:00036e10       _Com_Milliseconds          00437e10 f   common.obj
 0001:00036e90       _Com_ReadCDKey             00437e90 f   common.obj
 0001:00036ed0       _Com_AppendCDKey           00437ed0 f   common.obj
 0001:00036ff0       _Com_Init                  00437ff0 f   common.obj
 0001:00037780       _Com_WriteConfigToFile     00438780 f   common.obj
 0001:00037830       _Com_WriteConfiguration    00438830 f   common.obj
 0001:00037a60       _Com_WriteConfig_f         00438a60 f   common.obj
 0001:00037b20       _Com_ModifyMsec            00438b20 f   common.obj
 0001:00037c70       _Com_Frame                 00438c70 f   common.obj
 0001:00038090       _Com_Shutdown              00439090 f   common.obj
 0001:00038120       __copyDWord                00439120 f   common.obj
 0001:00038200       _Com_Memcpy                00439200 f   common.obj
 0001:00038370       _Com_Memset                00439370 f   common.obj
 0001:00038480       _Com_Memcmp                00439480 f   common.obj
 0001:000385e0       _Com_Prefetch              004395e0 f   common.obj
 0001:00038670       _Q_acos                    00439670 f   common.obj
 0001:00038700       _Field_Clear               00439700 f   common.obj
 0001:00038770       _Field_CompleteCommand     00439770 f   common.obj
 0001:00038d70       _Cvar_VariableValue        00439d70 f   cvar.obj
 0001:00038f20       _Cvar_VariableIntegerValue 00439f20 f   cvar.obj
 0001:00038f80       _Cvar_VariableString       00439f80 f   cvar.obj
 0001:00038fe0       _Cvar_VariableStringBuffer 00439fe0 f   cvar.obj
 0001:00039060       _Cvar_CommandCompletion    0043a060 f   cvar.obj
 0001:000390d0       _Cvar_Get                  0043a0d0 f   cvar.obj
 0001:000394c0       _Cvar_Set2                 0043a4c0 f   cvar.obj
 0001:00039860       _Cvar_Set                  0043a860 f   cvar.obj
 0001:000398b0       _Cvar_SetLatched           0043a8b0 f   cvar.obj
 0001:00039900       _Cvar_SetValue             0043a900 f   cvar.obj
 0001:000399b0       _Cvar_Reset                0043a9b0 f   cvar.obj
 0001:00039a00       _Cvar_SetCheatState        0043aa00 f   cvar.obj
 0001:00039ad0       _Cvar_Command              0043aad0 f   cvar.obj
 0001:00039bc0       _Cvar_Toggle_f             0043abc0 f   cvar.obj
 0001:00039c80       _Cvar_Set_f                0043ac80 f   cvar.obj
 0001:00039dd0       _Cvar_SetU_f               0043add0 f   cvar.obj
 0001:00039e70       _Cvar_SetS_f               0043ae70 f   cvar.obj
 0001:00039f10       _Cvar_SetA_f               0043af10 f   cvar.obj
 0001:00039fb0       _Cvar_Reset_f              0043afb0 f   cvar.obj
 0001:0003a020       _Cvar_WriteVariables       0043b020 f   cvar.obj
 0001:0003a150       _Cvar_List_f               0043b150 f   cvar.obj
 0001:0003a3d0       _Cvar_Restart_f            0043b3d0 f   cvar.obj
 0001:0003a540       _Cvar_InfoString           0043b540 f   cvar.obj
 0001:0003a5e0       _Cvar_InfoString_Big       0043b5e0 f   cvar.obj
 0001:0003a680       _Cvar_InfoStringBuffer     0043b680 f   cvar.obj
 0001:0003a6e0       _Cvar_Register             0043b6e0 f   cvar.obj
 0001:0003a770       _Cvar_Update               0043b770 f   cvar.obj
 0001:0003a8e0       _Cvar_Init                 0043b8e0 f   cvar.obj
 0001:0003a9f0       _FS_Initialized            0043b9f0 f   files.obj
 0001:0003aa30       _FS_PakIsPure              0043ba30 f   files.obj
 0001:0003aac0       _FS_LoadStack              0043bac0 f   files.obj
 0001:0003aaf0       _FS_ForceFlush             0043baf0 f   files.obj
 0001:0003ac10       _FS_filelength             0043bc10 f   files.obj
 0001:0003acb0       _FS_BuildOSPath            0043bcb0 f   files.obj
 0001:0003ae10       _FS_FileExists             0043be10 f   files.obj
 0001:0003aeb0       _FS_SV_FileExists          0043beb0 f   files.obj
 0001:0003af60       _FS_SV_FOpenFileWrite      0043bf60 f   files.obj
 0001:0003b270       _FS_SV_FOpenFileRead       0043c270 f   files.obj
 0001:0003b5d0       _FS_SV_Rename              0043c5d0 f   files.obj
 0001:0003b940       _FS_Rename                 0043c940 f   files.obj
 0001:0003ba50       _FS_FCloseFile             0043ca50 f   files.obj
 0001:0003bbc0       _FS_FOpenFileWrite         0043cbc0 f   files.obj
 0001:0003bd30       _FS_FOpenFileAppend        0043cd30 f   files.obj
 0001:0003bea0       _FS_FilenameCompare        0043cea0 f   files.obj
 0001:0003bf80       _FS_ShiftedStrStr          0043cf80 f   files.obj
 0001:0003c050       _FS_FOpenFileRead          0043d050 f   files.obj
 0001:0003cca0       _FS_Read2                  0043dca0 f   files.obj
 0001:0003cd90       _FS_Read                   0043dd90 f   files.obj
 0001:0003cf00       _FS_Write                  0043df00 f   files.obj
 0001:0003d050       _FS_Printf                 0043e050 f   files.obj
 0001:0003d100       _FS_Seek                   0043e100 f   files.obj
 0001:0003d390       _FS_FileIsInPAK            0043e390 f   files.obj
 0001:0003d580       _FS_ReadFile               0043e580 f   files.obj
 0001:0003d9b0       _FS_FreeFile               0043e9b0 f   files.obj
 0001:0003da50       _FS_WriteFile              0043ea50 f   files.obj
 0001:0003db20       _FS_ListFilteredFiles      0043eb20 f   files.obj
 0001:0003e250       _FS_ListFiles              0043f250 f   files.obj
 0001:0003e2a0       _FS_FreeFileList           0043f2a0 f   files.obj
 0001:0003e350       _FS_GetFileList            0043f350 f   files.obj
 0001:0003e4a0       _FS_GetModList             0043f4a0 f   files.obj
 0001:0003ec50       _FS_Dir_f                  0043fc50 f   files.obj
 0001:0003eda0       _FS_ConvertPath            0043fda0 f   files.obj
 0001:0003ee10       _FS_PathCmp                0043fe10 f   files.obj
 0001:0003ef00       _FS_SortFileList           0043ff00 f   files.obj
 0001:0003f080       _FS_NewDir_f               00440080 f   files.obj
 0001:0003f1c0       _FS_Path_f                 004401c0 f   files.obj
 0001:0003f350       _FS_TouchFile_f            00440350 f   files.obj
 0001:0003f3e0       _FS_idPak                  004403e0 f   files.obj
 0001:0003f480       _FS_ComparePaks            00440480 f   files.obj
 0001:0003f7f0       _FS_Shutdown               004407f0 f   files.obj
 0001:0003f960       _FS_GamePureChecksum       00440960 f   files.obj
 0001:0003fa20       _FS_LoadedPakChecksums     00440a20 f   files.obj
 0001:0003fad0       _FS_LoadedPakNames         00440ad0 f   files.obj
 0001:0003fb90       _FS_LoadedPakPureChecksums 00440b90 f   files.obj
 0001:0003fc40       _FS_ReferencedPakChecksums 00440c40 f   files.obj
 0001:0003fd40       _FS_ReferencedPakPureChecksums 00440d40 f   files.obj
 0001:0003ff50       _FS_ReferencedPakNames     00440f50 f   files.obj
 0001:000400b0       _FS_ClearPakReferences     004410b0 f   files.obj
 0001:00040140       _FS_PureServerSetLoadedPaks 00441140 f   files.obj
 0001:00040330       _FS_PureServerSetReferencedPaks 00441330 f   files.obj
 0001:000404d0       _FS_InitFilesystem         004414d0 f   files.obj
 0001:00041820       _FS_Restart                00442820 f   files.obj
 0001:000419e0       _FS_ConditionalRestart     004429e0 f   files.obj
 0001:00041a50       _FS_FOpenFileByMode        00442a50 f   files.obj
 0001:00041ca0       _FS_FTell                  00442ca0 f   files.obj
 0001:00041d40       _FS_Flush                  00442d40 f   files.obj
 0001:00041da0       _Huff_putBit               00442da0 f   huffman.obj
 0001:00041e50       _Huff_getBit               00442e50 f   huffman.obj
 0001:00041ee0       _Huff_addRef               00442ee0 f   huffman.obj
 0001:00042700       _Huff_Receive              00443700 f   huffman.obj
 0001:00042810       _Huff_offsetReceive        00443810 f   huffman.obj
 0001:000428d0       _Huff_transmit             004438d0 f   huffman.obj
 0001:00042ad0       _Huff_offsetTransmit       00443ad0 f   huffman.obj
 0001:00042b40       _Huff_Decompress           00443b40 f   huffman.obj
 0001:00042e20       _Huff_Compress             00443e20 f   huffman.obj
 0001:00043070       _Huff_Init                 00444070 f   huffman.obj
 0001:000432c0       _MD4Init                   004442c0 f   md4.obj
 0001:00043330       _MD4Update                 00444330 f   md4.obj
 0001:000434a0       _MD4Final                  004444a0 f   md4.obj
 0001:00044330       _Com_BlockChecksum         00445330 f   md4.obj
 0001:000443d0       _Com_BlockChecksumKey      004453d0 f   md4.obj
 0001:00044480       _MSG_Init                  00445480 f   msg.obj
 0001:000444f0       _MSG_InitOOB               004454f0 f   msg.obj
 0001:00044570       _MSG_Clear                 00445570 f   msg.obj
 0001:000445c0       _MSG_Bitstream             004455c0 f   msg.obj
 0001:00044600       _MSG_BeginReading          00445600 f   msg.obj
 0001:00044650       _MSG_BeginReadingOOB       00445650 f   msg.obj
 0001:000446a0       _MSG_Copy                  004456a0 f   msg.obj
 0001:00044740       _MSG_WriteBits             00445740 f   msg.obj
 0001:00044a90       _MSG_ReadBits              00445a90 f   msg.obj
 0001:00044d50       _MSG_WriteChar             00445d50 f   msg.obj
 0001:00044da0       _MSG_WriteByte             00445da0 f   msg.obj
 0001:00044df0       _MSG_WriteData             00445df0 f   msg.obj
 0001:00044e70       _MSG_WriteShort            00445e70 f   msg.obj
 0001:00044ec0       _MSG_WriteLong             00445ec0 f   msg.obj
 0001:00044f10       _MSG_WriteFloat            00445f10 f   msg.obj
 0001:00044f70       _MSG_WriteString           00445f70 f   msg.obj
 0001:000450b0       _MSG_WriteBigString        004460b0 f   msg.obj
 0001:000451f0       _MSG_WriteAngle            004461f0 f   msg.obj
 0001:00045260       _MSG_WriteAngle16          00446260 f   msg.obj
 0001:000452d0       _MSG_ReadChar              004462d0 f   msg.obj
 0001:00045340       _MSG_ReadByte              00446340 f   msg.obj
 0001:000453b0       _MSG_ReadShort             004463b0 f   msg.obj
 0001:00045420       _MSG_ReadLong              00446420 f   msg.obj
 0001:00045490       _MSG_ReadFloat             00446490 f   msg.obj
 0001:00045500       _MSG_ReadString            00446500 f   msg.obj
 0001:000455c0       _MSG_ReadBigString         004465c0 f   msg.obj
 0001:00045670       _MSG_ReadStringLine        00446670 f   msg.obj
 0001:00045720       _MSG_ReadAngle16           00446720 f   msg.obj
 0001:00045780       _MSG_ReadData              00446780 f   msg.obj
 0001:000457f0       _MSG_WriteDelta            004467f0 f   msg.obj
 0001:00045870       _MSG_ReadDelta             00446870 f   msg.obj
 0001:000458e0       _MSG_WriteDeltaFloat       004468e0 f   msg.obj
 0001:00045970       _MSG_ReadDeltaFloat        00446970 f   msg.obj
 0001:000459e0       _MSG_WriteDeltaKey         004469e0 f   msg.obj
 0001:00045a70       _MSG_ReadDeltaKey          00446a70 f   msg.obj
 0001:00045af0       _MSG_WriteDeltaKeyFloat    00446af0 f   msg.obj
 0001:00045b80       _MSG_ReadDeltaKeyFloat     00446b80 f   msg.obj
 0001:00045bf0       _MSG_WriteDeltaUsercmd     00446bf0 f   msg.obj
 0001:00045dd0       _MSG_ReadDeltaUsercmd      00446dd0 f   msg.obj
 0001:00045f70       _MSG_WriteDeltaUsercmdKey  00446f70 f   msg.obj
 0001:00046270       _MSG_ReadDeltaUsercmdKey   00447270 f   msg.obj
 0001:000464e0       _MSG_ReportChangeVectors_f 004474e0 f   msg.obj
 0001:00046570       _MSG_WriteDeltaEntity      00447570 f   msg.obj
 0001:000469a0       _MSG_ReadDeltaEntity       004479a0 f   msg.obj
 0001:00046e10       _MSG_WriteDeltaPlayerstate 00447e10 f   msg.obj
 0001:00047630       _MSG_ReadDeltaPlayerstate  00448630 f   msg.obj
 0001:00047c50       _MSG_initHuffman           00448c50 f   msg.obj
 0001:00047d20       _Netchan_Init              00448d20 f   net_chan.obj
 0001:00047de0       _Netchan_Setup             00448de0 f   net_chan.obj
 0001:00047e70       _Netchan_TransmitNextFragment 00448e70 f   net_chan.obj
 0001:000480b0       _Netchan_Transmit          004490b0 f   net_chan.obj
 0001:00048290       _Netchan_Process           00449290 f   net_chan.obj
 0001:00048750       _NET_CompareBaseAdr        00449750 f   net_chan.obj
 0001:00048870       _NET_AdrToString           00449870 f   net_chan.obj
 0001:00048a60       _NET_CompareAdr            00449a60 f   net_chan.obj
 0001:00048bc0       _NET_IsLocalAddress        00449bc0 f   net_chan.obj
 0001:00048c00       _NET_GetLoopPacket         00449c00 f   net_chan.obj
 0001:00048d60       _NET_SendLoopPacket        00449d60 f   net_chan.obj
 0001:00048e20       _NET_SendPacket            00449e20 f   net_chan.obj
 0001:00048ef0       _NET_OutOfBandPrint        00449ef0 f   net_chan.obj
 0001:00048fd0       _NET_OutOfBandData         00449fd0 f   net_chan.obj
 0001:000490f0       _NET_StringToAdr           0044a0f0 f   net_chan.obj
 0001:000492d0       _Q_rand                    0044a2d0 f   q_math.obj
 0001:00049320       _Q_random                  0044a320 f   q_math.obj
 0001:00049380       _Q_crandom                 0044a380 f   q_math.obj
 0001:000493d0       _ClampChar                 0044a3d0 f   q_math.obj
 0001:00049420       _ClampShort                0044a420 f   q_math.obj
 0001:00049480       _DirToByte                 0044a480 f   q_math.obj
 0001:00049560       _ByteToDir                 0044a560 f   q_math.obj
 0001:00049610       _ColorBytes3               0044a610 f   q_math.obj
 0001:00049680       _ColorBytes4               0044a680 f   q_math.obj
 0001:00049700       _NormalizeColor            0044a700 f   q_math.obj
 0001:000497f0       _PlaneFromPoints           0044a7f0 f   q_math.obj
 0001:000499b0       _RotatePointAroundVector   0044a9b0 f   q_math.obj
 0001:00049c90       _RotateAroundDirection     0044ac90 f   q_math.obj
 0001:00049d60       _vectoangles               0044ad60 f   q_math.obj
 0001:00049f50       _AnglesToAxis              0044af50 f   q_math.obj
 0001:00049fe0       _AxisClear                 0044afe0 f   q_math.obj
 0001:0004a080       _AxisCopy                  0044b080 f   q_math.obj
 0001:0004a130       _ProjectPointOnPlane       0044b130 f   q_math.obj
 0001:0004a290       _MakeNormalVectors         0044b290 f   q_math.obj
 0001:0004a3a0       _VectorRotate              0044b3a0 f   q_math.obj
 0001:0004a470       _Q_rsqrt                   0044b470 f   q_math.obj
 0001:0004a4f0       _Q_fabs                    0044b4f0 f   q_math.obj
 0001:0004a540       _LerpAngle                 0044b540 f   q_math.obj
 0001:0004a5d0       _AngleSubtract             0044b5d0 f   q_math.obj
 0001:0004a650       _AnglesSubtract            0044b650 f   q_math.obj
 0001:0004a6f0       _AngleMod                  0044b6f0 f   q_math.obj
 0001:0004a750       _AngleNormalize360         0044b750 f   q_math.obj
 0001:0004a7b0       _AngleNormalize180         0044b7b0 f   q_math.obj
 0001:0004a820       _AngleDelta                0044b820 f   q_math.obj
 0001:0004a870       _SetPlaneSignbits          0044b870 f   q_math.obj
 0001:0004a900       _BoxOnPlaneSide            0044b900 f   q_math.obj
 0001:0004abd0       _RadiusFromBounds          0044bbd0 f   q_math.obj
 0001:0004ad30       _ClearBounds               0044bd30 f   q_math.obj
 0001:0004ada0       _AddPointToBounds          0044bda0 f   q_math.obj
 0001:0004aeb0       _VectorNormalize           0044beb0 f   q_math.obj
 0001:0004af90       _VectorNormalize2          0044bf90 f   q_math.obj
 0001:0004b090       __VectorMA                 0044c090 f   q_math.obj
 0001:0004b110       __DotProduct               0044c110 f   q_math.obj
 0001:0004b170       __VectorSubtract           0044c170 f   q_math.obj
 0001:0004b1e0       __VectorAdd                0044c1e0 f   q_math.obj
 0001:0004b250       __VectorCopy               0044c250 f   q_math.obj
 0001:0004b2b0       __VectorScale              0044c2b0 f   q_math.obj
 0001:0004b310       _Vector4Scale              0044c310 f   q_math.obj
 0001:0004b380       _Q_log2                    0044c380 f   q_math.obj
 0001:0004b3e0       _MatrixMultiply            0044c3e0 f   q_math.obj
 0001:0004b610       _AngleVectors              0044c610 f   q_math.obj
 0001:0004b890       _PerpendicularVector       0044c890 f   q_math.obj
 0001:0004b9a0       _Com_Clamp                 0044c9a0 f   q_shared.obj
 0001:0004ba00       _COM_SkipPath              0044ca00 f   q_shared.obj
 0001:0004ba70       _COM_StripExtension        0044ca70 f   q_shared.obj
 0001:0004bae0       _COM_DefaultExtension      0044cae0 f   q_shared.obj
 0001:0004bbb0       _ShortSwap                 0044cbb0 f   q_shared.obj
 0001:0004bc20       _ShortNoSwap               0044cc20 f   q_shared.obj
 0001:0004bc50       _LongSwap                  0044cc50 f   q_shared.obj
 0001:0004bd00       _LongNoSwap                0044cd00 f   q_shared.obj
 0001:0004bd30       _Long64Swap                0044cd30 f   q_shared.obj
 0001:0004bda0       _Long64NoSwap              0044cda0 f   q_shared.obj
 0001:0004bdd0       _FloatSwap                 0044cdd0 f   q_shared.obj
 0001:0004be30       _FloatNoSwap               0044ce30 f   q_shared.obj
 0001:0004be60       _COM_BeginParseSession     0044ce60 f   q_shared.obj
 0001:0004bed0       _COM_GetCurrentParseLine   0044ced0 f   q_shared.obj
 0001:0004bf00       _COM_Parse                 0044cf00 f   q_shared.obj
 0001:0004bf50       _COM_ParseError            0044cf50 f   q_shared.obj
 0001:0004bfe0       _COM_ParseWarning          0044cfe0 f   q_shared.obj
 0001:0004c070       _COM_Compress              0044d070 f   q_shared.obj
 0001:0004c310       _COM_ParseExt              0044d310 f   q_shared.obj
 0001:0004c670       _COM_MatchToken            0044d670 f   q_shared.obj
 0001:0004c6f0       _SkipBracedSection         0044d6f0 f   q_shared.obj
 0001:0004c7a0       _SkipRestOfLine            0044d7a0 f   q_shared.obj
 0001:0004c820       _Parse1DMatrix             0044d820 f   q_shared.obj
 0001:0004c8d0       _Parse2DMatrix             0044d8d0 f   q_shared.obj
 0001:0004c980       _Parse3DMatrix             0044d980 f   q_shared.obj
 0001:0004ca30       _Q_isprint                 0044da30 f   q_shared.obj
 0001:0004ca80       _Q_islower                 0044da80 f   q_shared.obj
 0001:0004cad0       _Q_isupper                 0044dad0 f   q_shared.obj
 0001:0004cb20       _Q_isalpha                 0044db20 f   q_shared.obj
 0001:0004cb70       _Q_strrchr                 0044db70 f   q_shared.obj
 0001:0004cc00       _Q_strncpyz                0044dc00 f   q_shared.obj
 0001:0004ccb0       _Q_stricmpn                0044dcb0 f   q_shared.obj
 0001:0004cdd0       _Q_strncmp                 0044ddd0 f   q_shared.obj
 0001:0004ce70       _Q_stricmp                 0044de70 f   q_shared.obj
 0001:0004cee0       _Q_strlwr                  0044dee0 f   q_shared.obj
 0001:0004cf60       _Q_strupr                  0044df60 f   q_shared.obj
 0001:0004cfe0       _Q_strcat                  0044dfe0 f   q_shared.obj
 0001:0004d070       _Q_PrintStrlen             0044e070 f   q_shared.obj
 0001:0004d120       _Q_CleanStr                0044e120 f   q_shared.obj
 0001:0004d1f0       _Com_sprintf               0044e1f0 f   q_shared.obj
 0001:0004d2d0       _va                        0044e2d0 f   q_shared.obj
 0001:0004d360       _Info_ValueForKey          0044e360 f   q_shared.obj
 0001:0004d570       _Info_NextPair             0044e570 f   q_shared.obj
 0001:0004d690       _Info_RemoveKey            0044e690 f   q_shared.obj
 0001:0004d880       _Info_RemoveKey_Big        0044e880 f   q_shared.obj
 0001:0004da70       _Info_Validate             0044ea70 f   q_shared.obj
 0001:0004dae0       _Info_SetValueForKey       0044eae0 f   q_shared.obj
 0001:0004dcf0       _Info_SetValueForKey_Big   0044ecf0 f   q_shared.obj
 0001:0004dee0       _S_AdpcmEncode             0044eee0 f   snd_adpcm.obj
 0001:0004e170       _S_AdpcmDecode             0044f170 f   snd_adpcm.obj
 0001:0004e390       _S_AdpcmMemoryNeeded       0044f390 f   snd_adpcm.obj
 0001:0004e440       _S_AdpcmGetSamples         0044f440 f   snd_adpcm.obj
 0001:0004e4c0       _S_AdpcmEncodeSound        0044f4c0 f   snd_adpcm.obj
 0001:0004e5f0       _S_SoundInfo_f             0044f5f0 f   snd_dma.obj
 0001:0004e750       _S_Init                    0044f750 f   snd_dma.obj
 0001:0004e9f0       _S_ChannelFree             0044f9f0 f   snd_dma.obj
 0001:0004ea40       _S_ChannelMalloc           0044fa40 f   snd_dma.obj
 0001:0004eab0       _S_ChannelSetup            0044fab0 f   snd_dma.obj
 0001:0004eb70       _S_Shutdown                0044fb70 f   snd_dma.obj
 0001:0004ec20       _S_DefaultSound            0044fc20 f   snd_dma.obj
 0001:0004ecc0       _S_DisableSounds           0044fcc0 f   snd_dma.obj
 0001:0004ed10       _S_BeginRegistration       0044fd10 f   snd_dma.obj
 0001:0004edc0       _S_RegisterSound           0044fdc0 f   snd_dma.obj
 0001:0004f1b0       _S_memoryLoad              004501b0 f   snd_dma.obj
 0001:0004f210       _S_SpatializeOrigin        00450210 f   snd_dma.obj
 0001:0004f3f0       _S_StartSound              004503f0 f   snd_dma.obj
 0001:0004f860       _S_StartLocalSound         00450860 f   snd_dma.obj
 0001:0004f900       _S_ClearSoundBuffer        00450900 f   snd_dma.obj
 0001:0004fa00       _S_StopAllSounds           00450a00 f   snd_dma.obj
 0001:0004fa50       _S_StopLoopingSound        00450a50 f   snd_dma.obj
 0001:0004faa0       _S_ClearLoopingSounds      00450aa0 f   snd_dma.obj
 0001:0004fb70       _S_AddLoopingSound         00450b70 f   snd_dma.obj
 0001:0004fff0       _S_AddRealLoopingSound     00450ff0 f   snd_dma.obj
 0001:000501a0       _S_AddLoopSounds           004511a0 f   snd_dma.obj
 0001:00050470       _S_ByteSwapRawSamples      00451470 f   snd_dma.obj
 0001:00050500       _S_GetRawSamplePointer     00451500 f   snd_dma.obj
 0001:00050530       _S_RawSamples              00451530 f   snd_dma.obj
 0001:000509c0       _S_UpdateEntityPosition    004519c0 f   snd_dma.obj
 0001:00050a60       _S_Respatialize            00451a60 f   snd_dma.obj
 0001:00050c90       _S_ScanChannelStarts       00451c90 f   snd_dma.obj
 0001:00050d70       _S_Update                  00451d70 f   snd_dma.obj
 0001:00050eb0       _S_GetSoundtime            00451eb0 f   snd_dma.obj
 0001:00050fd0       _S_Update_                 00451fd0 f   snd_dma.obj
 0001:00051180       _S_Play_f                  00452180 f   snd_dma.obj
 0001:000512a0       _S_Music_f                 004522a0 f   snd_dma.obj
 0001:00051360       _S_SoundList_f             00452360 f   snd_dma.obj
 0001:000514e0       _FGetLittleLong            004524e0 f   snd_dma.obj
 0001:00051530       _FGetLittleShort           00452530 f   snd_dma.obj
 0001:00051580       _S_FindWavChunk            00452580 f   snd_dma.obj
 0001:00051650       _S_StopBackgroundTrack     00452650 f   snd_dma.obj
 0001:000516d0       _S_StartBackgroundTrack    004526d0 f   snd_dma.obj
 0001:00051a40       _S_UpdateBackgroundTrack   00452a40 f   snd_dma.obj
 0001:00051d10       _S_FreeOldestSound         00452d10 f   snd_dma.obj
 0001:00051e40       _SND_free                  00452e40 f   snd_mem.obj
 0001:00051ea0       _SND_malloc                00452ea0 f   snd_mem.obj
 0001:00051f40       _SND_setup                 00452f40 f   snd_mem.obj
 0001:00052080       _S_LoadSound               00453080 f   snd_mem.obj
 0001:000529f0       _S_DisplayFreeMemory       004539f0 f   snd_mem.obj
 0001:00052a50       _S_WriteLinearBlastStereo16 00453a50 f   snd_mix.obj
 0001:00052af0       _S_TransferStereo16        00453af0 f   snd_mix.obj
 0001:00052c00       _S_TransferPaintBuffer     00453c00 f   snd_mix.obj
 0001:00052ea0       _S_PaintChannelFromWavelet 00453ea0 f   snd_mix.obj
 0001:00053090       _S_PaintChannelFromADPCM   00454090 f   snd_mix.obj
 0001:000532a0       _S_PaintChannelFromMuLaw   004542a0 f   snd_mix.obj
 0001:00053530       _S_PaintChannels           00454530 f   snd_mix.obj
 0001:00053dd0       _daub4                     00454dd0 f   snd_wavelet.obj
 0001:00054370       _wt1                       00455370 f   snd_wavelet.obj
 0001:00054440       _MuLawEncode               00455440 f   snd_wavelet.obj
 0001:00054530       _MuLawDecode               00455530 f   snd_wavelet.obj
 0001:000545f0       _NXPutc                    004555f0 f   snd_wavelet.obj
 0001:00054640       _encodeWavelet             00455640 f   snd_wavelet.obj
 0001:00054960       _decodeWavelet             00455960 f   snd_wavelet.obj
 0001:00054ac0       _encodeMuLaw               00455ac0 f   snd_wavelet.obj
 0001:00054cb0       _decodeMuLaw               00455cb0 f   snd_wavelet.obj
 0001:00054d40       _SV_BotAllocateClient      00455d40 f   sv_bot.obj
 0001:00054e50       _SV_BotFreeClient          00455e50 f   sv_bot.obj
 0001:00054f20       _BotDrawDebugPolygons      00455f20 f   sv_bot.obj
 0001:00055190       _BotImport_Print           00456190 f   sv_bot.obj
 0001:00055300       _BotImport_Trace           00456300 f   sv_bot.obj
 0001:00055430       _BotImport_EntityTrace     00456430 f   sv_bot.obj
 0001:00055560       _BotImport_PointContents   00456560 f   sv_bot.obj
 0001:000555b0       _BotImport_inPVS           004565b0 f   sv_bot.obj
 0001:00055600       _BotImport_BSPEntityData   00456600 f   sv_bot.obj
 0001:00055640       _BotImport_BSPModelMinsMaxsOrigin 00456640 f   sv_bot.obj
 0001:000557c0       _BotImport_GetMemory       004567c0 f   sv_bot.obj
 0001:00055830       _BotImport_FreeMemory      00456830 f   sv_bot.obj
 0001:00055880       _BotImport_HunkAlloc       00456880 f   sv_bot.obj
 0001:00055900       _BotImport_DebugPolygonCreate 00456900 f   sv_bot.obj
 0001:00055a00       _BotImport_DebugPolygonShow 00456a00 f   sv_bot.obj
 0001:00055aa0       _BotImport_DebugPolygonDelete 00456aa0 f   sv_bot.obj
 0001:00055af0       _BotImport_DebugLineCreate 00456af0 f   sv_bot.obj
 0001:00055b40       _BotImport_DebugLineDelete 00456b40 f   sv_bot.obj
 0001:00055b90       _BotImport_DebugLineShow   00456b90 f   sv_bot.obj
 0001:00055ec0       _BotClientCommand          00456ec0 f   sv_bot.obj
 0001:00055f20       _SV_BotFrame               00456f20 f   sv_bot.obj
 0001:00055f90       _SV_BotLibSetup            00456f90 f   sv_bot.obj
 0001:00056010       _SV_BotLibShutdown         00457010 f   sv_bot.obj
 0001:00056070       _SV_BotInitCvars           00457070 f   sv_bot.obj
 0001:000563c0       _SV_BotInitBotLib          004573c0 f   sv_bot.obj
 0001:000565c0       _SV_BotGetConsoleMessage   004575c0 f   sv_bot.obj
 0001:000566c0       _SV_BotGetSnapshotEntity   004576c0 f   sv_bot.obj
 0001:00056770       _SV_Heartbeat_f            00457770 f   sv_ccmds.obj
 0001:000567b0       _SV_AddOperatorCommands    004577b0 f   sv_ccmds.obj
 0001:00058070       _SV_RemoveOperatorCommands 00459070 f   sv_ccmds.obj
 0001:000580a0       _SV_GetChallenge           004590a0 f   sv_client.obj
 0001:00058580       _SV_AuthorizeIpPacket      00459580 f   sv_client.obj
 0001:00058980       _SV_DirectConnect          00459980 f   sv_client.obj
 0001:00059640       _SV_DropClient             0045a640 f   sv_client.obj
 0001:000598c0       _SV_SendClientGameState    0045a8c0 f   sv_client.obj
 0001:00059ba0       _SV_ClientEnterWorld       0045aba0 f   sv_client.obj
 0001:00059d90       _SV_StopDownload_f         0045ad90 f   sv_client.obj
 0001:00059e20       _SV_DoneDownload_f         0045ae20 f   sv_client.obj
 0001:00059e80       _SV_NextDownload_f         0045ae80 f   sv_client.obj
 0001:00059fd0       _SV_BeginDownload_f        0045afd0 f   sv_client.obj
 0001:0005a040       _SV_WriteDownloadToClient  0045b040 f   sv_client.obj
 0001:0005af30       _SV_UserinfoChanged        0045bf30 f   sv_client.obj
 0001:0005b310       _SV_ExecuteClientCommand   0045c310 f   sv_client.obj
 0001:0005b450       _SV_ClientThink            0045c450 f   sv_client.obj
 0001:0005b4e0       _SV_ExecuteClientMessage   0045c4e0 f   sv_client.obj
 0001:0005bc90       _SV_GameError              0045cc90 f   sv_game.obj
 0001:0005bce0       _SV_GamePrint              0045cce0 f   sv_game.obj
 0001:0005bd30       _SV_NumForGentity          0045cd30 f   sv_game.obj
 0001:0005bd80       _SV_GentityNum             0045cd80 f   sv_game.obj
 0001:0005bdd0       _SV_GameClientNum          0045cdd0 f   sv_game.obj
 0001:0005be20       _SV_SvEntityForGentity     0045ce20 f   sv_game.obj
 0001:0005bea0       _SV_GEntityForSvEntity     0045cea0 f   sv_game.obj
 0001:0005bf00       _SV_GameSendServerCommand  0045cf00 f   sv_game.obj
 0001:0005bfa0       _SV_GameDropClient         0045cfa0 f   sv_game.obj
 0001:0005c020       _SV_SetBrushModel          0045d020 f   sv_game.obj
 0001:0005c170       _SV_inPVS                  0045d170 f   sv_game.obj
 0001:0005c280       _SV_inPVSIgnorePortals     0045d280 f   sv_game.obj
 0001:0005c380       _SV_AdjustAreaPortalState  0045d380 f   sv_game.obj
 0001:0005c400       _SV_EntityContact          0045d400 f   sv_game.obj
 0001:0005c4b0       _SV_GetServerinfo          0045d4b0 f   sv_game.obj
 0001:0005c530       _SV_LocateGameData         0045d530 f   sv_game.obj
 0001:0005c590       _SV_GetUsercmd             0045d590 f   sv_game.obj
 0001:0005c620       _SV_GameSystemCalls        0045d620 f   sv_game.obj
 0001:0005fe00       _SV_ShutdownGameProgs      00460e00 f   sv_game.obj
 0001:0005fe80       _SV_RestartGameProgs       00460e80 f   sv_game.obj
 0001:0005ffe0       _SV_InitGameProgs          00460fe0 f   sv_game.obj
 0001:000600c0       _SV_GameCommand            004610c0 f   sv_game.obj
 0001:00060120       _SV_SetConfigstring        00461120 f   sv_init.obj
 0001:000603b0       _SV_GetConfigstring        004613b0 f   sv_init.obj
 0001:00060470       _SV_SetUserinfo            00461470 f   sv_init.obj
 0001:00060550       _SV_GetUserinfo            00461550 f   sv_init.obj
 0001:00060600       _SV_CreateBaseline         00461600 f   sv_init.obj
 0001:000606b0       _SV_BoundMaxClients        004616b0 f   sv_init.obj
 0001:00060780       _SV_Startup                00461780 f   sv_init.obj
 0001:00060890       _SV_ChangeMaxClients       00461890 f   sv_init.obj
 0001:00060b50       _SV_ClearServer            00461b50 f   sv_init.obj
 0001:00060bf0       _SV_TouchCGame             00461bf0 f   sv_init.obj
 0001:00060c80       _SV_SpawnServer            00461c80 f   sv_init.obj
 0001:000613b0       _SV_Init                   004623b0 f   sv_init.obj
 0001:000618c0       _SV_FinalMessage           004628c0 f   sv_init.obj
 0001:000619d0       _SV_Shutdown               004629d0 f   sv_init.obj
 0001:00061b00       _SV_ExpandNewlines         00462b00 f   sv_main.obj
 0001:00061bd0       _SV_ReplacePendingServerCommands 00462bd0 f   sv_main.obj
 0001:00061d10       _SV_AddServerCommand       00462d10 f   sv_main.obj
 0001:00061e70       _SV_SendServerCommand      00462e70 f   sv_main.obj
 0001:00061ff0       _SV_MasterHeartbeat        00462ff0 f   sv_main.obj
 0001:00062310       _SV_MasterShutdown         00463310 f   sv_main.obj
 0001:00062370       _SVC_Status                00463370 f   sv_main.obj
 0001:00062640       _SVC_Info                  00463640 f   sv_main.obj
 0001:000629a0       _SV_FlushRedirect          004639a0 f   sv_main.obj
 0001:00062a00       _SVC_RemoteCommand         00463a00 f   sv_main.obj
 0001:00062cb0       _SV_ConnectionlessPacket   00463cb0 f   sv_main.obj
 0001:00062f60       _SV_PacketEvent            00463f60 f   sv_main.obj
 0001:00063170       _SV_CalcPings              00464170 f   sv_main.obj
 0001:00063380       _SV_CheckTimeouts          00464380 f   sv_main.obj
 0001:00063520       _SV_CheckPaused            00464520 f   sv_main.obj
 0001:00063640       _SV_Frame                  00464640 f   sv_main.obj
 0001:00063980       _SV_Netchan_TransmitNextFragment 00464980 f   sv_net_chan.obj
 0001:00063cc0       _SV_Netchan_Transmit       00464cc0 f   sv_net_chan.obj
 0001:00063e10       _SV_Netchan_Process        00464e10 f   sv_net_chan.obj
 0001:00064080       _SV_UpdateServerCommandsToClient 00465080 f   sv_snapshot.obj
 0001:00064150       _SV_SendMessageToClient    00465150 f   sv_snapshot.obj
 0001:00064410       _SV_SendClientSnapshot     00465410 f   sv_snapshot.obj
 0001:00065400       _SV_SendClientMessages     00466400 f   sv_snapshot.obj
 0001:00065510       _SV_ClipHandleForEntity    00466510 f   sv_world.obj
 0001:000655d0       _SV_SectorList_f           004665d0 f   sv_world.obj
 0001:00065690       _SV_CreateworldSector      00466690 f   sv_world.obj
 0001:000658b0       _SV_ClearWorld             004668b0 f   sv_world.obj
 0001:00065950       _SV_UnlinkEntity           00466950 f   sv_world.obj
 0001:00065a40       _SV_LinkEntity             00466a40 f   sv_world.obj
 0001:000662e0       _SV_AreaEntities_r         004672e0 f   sv_world.obj
 0001:00066500       _SV_AreaEntities           00467500 f   sv_world.obj
 0001:00066580       _SV_ClipToEntity           00467580 f   sv_world.obj
 0001:000666b0       _SV_ClipMoveToEntities     004676b0 f   sv_world.obj
 0001:000669e0       _SV_Trace                  004679e0 f   sv_world.obj
 0001:00066c30       _SV_PointContents          00467c30 f   sv_world.obj
 0001:00066de0       _unzStringFileNameCompare  00467de0 f   unzip.obj
 0001:00066f60       _unzlocal_SearchCentralDir 00467f60 f   unzip.obj
 0001:000671a0       _unzReOpen                 004681a0 f   unzip.obj
 0001:00067250       _unzOpen                   00468250 f   unzip.obj
 0001:00067660       _unzClose                  00468660 f   unzip.obj
 0001:000676f0       _unzGetGlobalInfo          004686f0 f   unzip.obj
 0001:00067750       _unzGetCurrentFileInfo     00468750 f   unzip.obj
 0001:00067e00       _unzGoToFirstFile          00468e00 f   unzip.obj
 0001:00067ec0       _unzGoToNextFile           00468ec0 f   unzip.obj
 0001:00067fd0       _unzGetCurrentFileInfoPosition 00468fd0 f   unzip.obj
 0001:00068020       _unzSetCurrentFileInfoPosition 00469020 f   unzip.obj
 0001:000680c0       _unzLocateFile             004690c0 f   unzip.obj
 0001:00068210       _unzOpenCurrentFile        00469210 f   unzip.obj
 0001:00068820       _unzReadCurrentFile        00469820 f   unzip.obj
 0001:00068bc0       _unztell                   00469bc0 f   unzip.obj
 0001:00068c30       _unzeof                    00469c30 f   unzip.obj
 0001:00068ca0       _unzGetLocalExtrafield     00469ca0 f   unzip.obj
 0001:00068dc0       _unzCloseCurrentFile       00469dc0 f   unzip.obj
 0001:00068eb0       _unzGetGlobalComment       00469eb0 f   unzip.obj
 0001:0006e660       _VM_VM2C                   0046f660 f   vm.obj
 0001:0006e690       _VM_Debug                  0046f690 f   vm.obj
 0001:0006e6c0       _VM_Init                   0046f6c0 f   vm.obj
 0001:0006e790       _VM_ValueToSymbol          0046f790 f   vm.obj
 0001:0006e860       _VM_ValueToFunctionSymbol  0046f860 f   vm.obj
 0001:0006e8d0       _VM_SymbolToValue          0046f8d0 f   vm.obj
 0001:0006e950       _VM_SymbolForCompiledPointer 0046f950 f   vm.obj
 0001:0006ea20       _ParseHex                  0046fa20 f   vm.obj
 0001:0006eaf0       _VM_LoadSymbols            0046faf0 f   vm.obj
 0001:0006ee40       _VM_DllSyscall             0046fe40 f   vm.obj
 0001:0006eea0       _VM_Restart                0046fea0 f   vm.obj
 0001:0006f160       _VM_Create                 00470160 f   vm.obj
 0001:0006f6c0       _VM_Free                   004706c0 f   vm.obj
 0001:0006f760       _VM_Clear                  00470760 f   vm.obj
 0001:0006f830       _VM_ArgPtr                 00470830 f   vm.obj
 0001:0006f8b0       _VM_ExplicitArgPtr         004708b0 f   vm.obj
 0001:0006f930       _VM_Call                   00470930 f   vm.obj
 0001:0006faf0       _VM_VmProfile_f            00470af0 f   vm.obj
 0001:0006fd40       _VM_VmInfo_f               00470d40 f   vm.obj
 0001:0006fe90       _VM_LogSyscalls            00470e90 f   vm.obj
 0001:0006ff60       _VM_Indent                 00470f60 f   vm_interpreted.obj
 0001:0006ffc0       _VM_StackTrace             00470fc0 f   vm_interpreted.obj
 0001:00070070       _VM_PrepareInterpreter     00471070 f   vm_interpreted.obj
 0001:00070360       _VM_CallInterpreted        00471360 f   vm_interpreted.obj
 0001:00071970       _AsmCall                   00472970 f   vm_x86.obj
 0001:00071a30       _EmitMovEBXEDI             00472a30 f   vm_x86.obj
 0001:00071e40       _VM_Compile                00472e40 f   vm_x86.obj
 0001:00074570       _VM_CallCompiled           00475570 f   vm_x86.obj
 0001:00074830       _IN_InitWin32Mouse         00475830 f   win_input.obj
 0001:00074860       _IN_ShutdownWin32Mouse     00475860 f   win_input.obj
 0001:00074890       _IN_ActivateWin32Mouse     00475890 f   win_input.obj
 0001:00074a00       _IN_DeactivateWin32Mouse   00475a00 f   win_input.obj
 0001:00074a80       _IN_Win32Mouse             00475a80 f   win_input.obj
 0001:00074b20       _IN_InitDIMouse            00475b20 f   win_input.obj
 0001:00074e00       _IN_ShutdownDIMouse        00475e00 f   win_input.obj
 0001:00074eb0       _IN_ActivateDIMouse        00475eb0 f   win_input.obj
 0001:00074f50       _IN_DeactivateDIMouse      00475f50 f   win_input.obj
 0001:00074fc0       _IN_DIMouse                00475fc0 f   win_input.obj
 0001:00075350       _IN_ActivateMouse          00476350 f   win_input.obj
 0001:000753f0       _IN_DeactivateMouse        004763f0 f   win_input.obj
 0001:00075460       _IN_StartupMouse           00476460 f   win_input.obj
 0001:000755a0       _IN_MouseEvent             004765a0 f   win_input.obj
 0001:000756d0       _IN_MouseMove              004766d0 f   win_input.obj
 0001:00075770       _IN_Startup                00476770 f   win_input.obj
 0001:00075800       _IN_Shutdown               00476800 f   win_input.obj
 0001:00075860       _IN_Init                   00476860 f   win_input.obj
 0001:000759f0       _IN_Activate               004769f0 f   win_input.obj
 0001:00075a40       _IN_Frame                  00476a40 f   win_input.obj
 0001:00075b40       _IN_ClearStates            00476b40 f   win_input.obj
 0001:00075b80       _IN_StartupJoystick        00476b80 f   win_input.obj
 0001:00075e50       _JoyToF                    00476e50 f   win_input.obj
 0001:00075ed0       _JoyToI                    00476ed0 f   win_input.obj
 0001:00075f10       _IN_JoyMove                00476f10 f   win_input.obj
 0001:00076a10       _Spk_Open                  00477a10 f   win_main.obj
 0001:00076a70       _Spk_Close                 00477a70 f   win_main.obj
 0001:00076ad0       _Spk_Printf                00477ad0 f   win_main.obj
 0001:00076b90       _Sys_LowPhysicalMemory     00477b90 f   win_main.obj
 0001:00076bf0       _Sys_BeginProfiling        00477bf0 f   win_main.obj
 0001:00076c20       _Sys_Error                 00477c20 f   win_main.obj
 0001:00076d80       _Sys_Quit                  00477d80 f   win_main.obj
 0001:00076de0       _Sys_Print                 00477de0 f   win_main.obj
 0001:00076e30       _Sys_Mkdir                 00477e30 f   win_main.obj
 0001:00076e80       _Sys_Cwd                   00477e80 f   win_main.obj
 0001:00076ee0       _Sys_DefaultCDPath         00477ee0 f   win_main.obj
 0001:00076f10       _Sys_DefaultBasePath       00477f10 f   win_main.obj
 0001:00076f50       _Sys_ListFilteredFiles     00477f50 f   win_main.obj
 0001:000771f0       _Sys_ListFiles             004781f0 f   win_main.obj
 0001:000777c0       _Sys_FreeFileList          004787c0 f   win_main.obj
 0001:00077850       _Sys_ScanForCD             00478850 f   win_main.obj
 0001:00077a00       _Sys_CheckCD               00478a00 f   win_main.obj
 0001:00077a30       _Sys_GetClipboardData      00478a30 f   win_main.obj
 0001:00077b90       _Sys_UnloadDll             00478b90 f   win_main.obj
 0001:00077c00       _Sys_LoadDll               00478c00 f   win_main.obj
 0001:00077eb0       _Sys_InitStreamThread      00478eb0 f   win_main.obj
 0001:00077ee0       _Sys_ShutdownStreamThread  00478ee0 f   win_main.obj
 0001:00077f10       _Sys_BeginStreamedFile     00478f10 f   win_main.obj
 0001:00077f40       _Sys_EndStreamedFile       00478f40 f   win_main.obj
 0001:00077f70       _Sys_StreamedRead          00478f70 f   win_main.obj
 0001:00077fd0       _Sys_StreamSeek            00478fd0 f   win_main.obj
 0001:00078020       _Sys_QueEvent              00479020 f   win_main.obj
 0001:00078130       _Sys_GetEvent              00479130 f   win_main.obj
 0001:00078440       _Sys_In_Restart_f          00479440 f   win_main.obj
 0001:00078480       _Sys_Net_Restart_f         00479480 f   win_main.obj
 0001:000784c0       _Sys_Init                  004794c0 f   win_main.obj
 0001:00078a50       _WinMain@16                00479a50 f   win_main.obj
 0001:00078c10       _NET_ErrorString           00479c10 f   win_net.obj
 0001:00079050       _NetadrToSockadr           0047a050 f   win_net.obj
 0001:000791d0       _SockadrToNetadr           0047a1d0 f   win_net.obj
 0001:000792b0       _Sys_StringToSockaddr      0047a2b0 f   win_net.obj
 0001:000796a0       _Sys_StringToAdr           0047a6a0 f   win_net.obj
 0001:00079710       _Sys_GetPacket             0047a710 f   win_net.obj
 0001:000799e0       _Sys_SendPacket            0047a9e0 f   win_net.obj
 0001:00079bb0       _Sys_IsLANAddress          0047abb0 f   win_net.obj
 0001:00079ee0       _Sys_ShowIP                0047aee0 f   win_net.obj
 0001:00079f90       _NET_IPSocket              0047af90 f   win_net.obj
 0001:0007a1a0       _NET_OpenSocks             0047b1a0 f   win_net.obj
 0001:0007a7e0       _NET_GetLocalAddress       0047b7e0 f   win_net.obj
 0001:0007aa70       _NET_OpenIP                0047ba70 f   win_net.obj
 0001:0007aba0       _NET_IPXSocket             0047bba0 f   win_net.obj
 0001:0007ad50       _NET_OpenIPX               0047bd50 f   win_net.obj
 0001:0007add0       _NET_Config                0047bdd0 f   win_net.obj
 0001:0007b1a0       _NET_Init                  0047c1a0 f   win_net.obj
 0001:0007b240       _NET_Shutdown              0047c240 f   win_net.obj
 0001:0007b2a0       _NET_Sleep                 0047c2a0 f   win_net.obj
 0001:0007b2d0       _NET_Restart               0047c2d0 f   win_net.obj
 0001:0007b320       _Sys_Milliseconds          0047c320 f   win_shared.obj
 0001:0007b3b0       _fastftol                  0047c3b0 f   win_shared.obj
 0001:0007b400       _Sys_SnapVector            0047c400 f   win_shared.obj
 0001:0007b4a0       _Sys_GetProcessorId        0047c4a0 f   win_shared.obj
 0001:0007b7f0       _Sys_GetCurrentUser        0047c7f0 f   win_shared.obj
 0001:0007b890       _Sys_DefaultHomePath       0047c890 f   win_shared.obj
 0001:0007b8c0       _Sys_DefaultInstallPath    0047c8c0 f   win_shared.obj
 0001:0007b900       _SNDDMA_Shutdown           0047c900 f   win_snd.obj
 0001:0007bb50       _SNDDMA_Init               0047cb50 f   win_snd.obj
 0001:0007bbf0       _SNDDMA_InitDS             0047cbf0 f   win_snd.obj
 0001:0007c0f0       _SNDDMA_GetDMAPos          0047d0f0 f   win_snd.obj
 0001:0007c1a0       _SNDDMA_BeginPainting      0047d1a0 f   win_snd.obj
 0001:0007c400       _SNDDMA_Submit             0047d400 f   win_snd.obj
 0001:0007c480       _SNDDMA_Activate           0047d480 f   win_snd.obj
 0001:0007c510       _InputLineWndProc@16       0047d510 f   win_syscon.obj
 0001:0007c6c0       _Sys_CreateConsole         0047d6c0 f   win_syscon.obj
 0001:0007d290       _Sys_DestroyConsole        0047e290 f   win_syscon.obj
 0001:0007d330       _Sys_ShowConsole           0047e330 f   win_syscon.obj
 0001:0007d460       _Sys_ConsoleInput          0047e460 f   win_syscon.obj
 0001:0007d4d0       _Conbuf_AppendText         0047e4d0 f   win_syscon.obj
 0001:0007d880       _Sys_SetErrorText          0047e880 f   win_syscon.obj
 0001:0007d9a0       _MainWndProc@16            0047e9a0 f   win_wndproc.obj
 0001:0007e676       _GetProcAddress@8          0047f676 f   kernel32:KERNEL32.dll
 0001:0007e67c       _LoadLibraryA@4            0047f67c f   kernel32:KERNEL32.dll
 0001:0007e682       _GlobalMemoryStatus@4      0047f682 f   kernel32:KERNEL32.dll
 0001:0007e688       _GetDriveTypeA@4           0047f688 f   kernel32:KERNEL32.dll
 0001:0007e68e       _GlobalUnlock@4            0047f68e f   kernel32:KERNEL32.dll
 0001:0007e694       _GlobalSize@4              0047f694 f   kernel32:KERNEL32.dll
 0001:0007e69a       _GlobalLock@4              0047f69a f   kernel32:KERNEL32.dll
 0001:0007e6a0       _FreeLibrary@4             0047f6a0 f   kernel32:KERNEL32.dll
 0001:0007e6a6       _GetVersionExA@4           0047f6a6 f   kernel32:KERNEL32.dll
 0001:0007e6ac       _Sleep@4                   0047f6ac f   kernel32:KERNEL32.dll
 0001:0007e6b2       _SetErrorMode@4            0047f6b2 f   kernel32:KERNEL32.dll
 0001:0007e6b8       _MulDiv@12                 0047f6b8 f   kernel32:KERNEL32.dll
 0001:0007e6be       _ShowCursor@4              0047f6be f   user32:USER32.dll
 0001:0007e6c4       _ClipCursor@4              0047f6c4 f   user32:USER32.dll
 0001:0007e6ca       _SetCapture@4              0047f6ca f   user32:USER32.dll
 0001:0007e6d0       _SetCursorPos@8            0047f6d0 f   user32:USER32.dll
 0001:0007e6d6       _GetWindowRect@8           0047f6d6 f   user32:USER32.dll
 0001:0007e6dc       _GetSystemMetrics@4        0047f6dc f   user32:USER32.dll
 0001:0007e6e2       _ReleaseCapture@0          0047f6e2 f   user32:USER32.dll
 0001:0007e6e8       _GetCursorPos@4            0047f6e8 f   user32:USER32.dll
 0001:0007e6ee       _DispatchMessageA@4        0047f6ee f   user32:USER32.dll
 0001:0007e6f4       _TranslateMessage@4        0047f6f4 f   user32:USER32.dll
 0001:0007e6fa       _GetMessageA@16            0047f6fa f   user32:USER32.dll
 0001:0007e700       _CloseClipboard@0          0047f700 f   user32:USER32.dll
 0001:0007e706       _GetClipboardData@4        0047f706 f   user32:USER32.dll
 0001:0007e70c       _OpenClipboard@4           0047f70c f   user32:USER32.dll
 0001:0007e712       _PeekMessageA@20           0047f712 f   user32:USER32.dll
 0001:0007e718       _CallWindowProcA@20        0047f718 f   user32:USER32.dll
 0001:0007e71e       _SetWindowTextA@8          0047f71e f   user32:USER32.dll
 0001:0007e724       _GetWindowTextA@12         0047f724 f   user32:USER32.dll
 0001:0007e72a       _SetFocus@4                0047f72a f   user32:USER32.dll
 0001:0007e730       _SetForegroundWindow@4     0047f730 f   user32:USER32.dll
 0001:0007e736       _UpdateWindow@4            0047f736 f   user32:USER32.dll
 0001:0007e73c       _ShowWindow@8              0047f73c f   user32:USER32.dll
 0001:0007e742       _SetWindowLongA@12         0047f742 f   user32:USER32.dll
 0001:0007e748       _SendMessageA@16           0047f748 f   user32:USER32.dll
 0001:0007e74e       _CreateWindowExA@48        0047f74e f   user32:USER32.dll
 0001:0007e754       _ReleaseDC@8               0047f754 f   user32:USER32.dll
 0001:0007e75a       _GetDC@4                   0047f75a f   user32:USER32.dll
 0001:0007e760       _GetDesktopWindow@0        0047f760 f   user32:USER32.dll
 0001:0007e766       _AdjustWindowRect@12       0047f766 f   user32:USER32.dll
 0001:0007e76c       _RegisterClassA@4          0047f76c f   user32:USER32.dll
 0001:0007e772       _LoadCursorA@8             0047f772 f   user32:USER32.dll
 0001:0007e778       _LoadIconA@8               0047f778 f   user32:USER32.dll
 0001:0007e77e       _InvalidateRect@12         0047f77e f   user32:USER32.dll
 0001:0007e784       _DefWindowProcA@16         0047f784 f   user32:USER32.dll
 0001:0007e78a       _SetTimer@16               0047f78a f   user32:USER32.dll
 0001:0007e790       _PostQuitMessage@4         0047f790 f   user32:USER32.dll
 0001:0007e796       _DestroyWindow@4           0047f796 f   user32:USER32.dll
 0001:0007e79c       _CloseWindow@4             0047f79c f   user32:USER32.dll
 0001:0007e7a2       _GetWindowLongA@8          0047f7a2 f   user32:USER32.dll
 0001:0007e7a8       _RegisterWindowMessageA@4  0047f7a8 f   user32:USER32.dll
 0001:0007e7ae       _SystemParametersInfoA@16  0047f7ae f   user32:USER32.dll
 0001:0007e7b4       _RegisterHotKey@16         0047f7b4 f   user32:USER32.dll
 0001:0007e7ba       _UnregisterHotKey@8        0047f7ba f   user32:USER32.dll
 0001:0007e7c0       _CreateFontA@56            0047f7c0 f   gdi32:GDI32.dll
 0001:0007e7c6       _GetDeviceCaps@8           0047f7c6 f   gdi32:GDI32.dll
 0001:0007e7cc       _CreateSolidBrush@4        0047f7cc f   gdi32:GDI32.dll
 0001:0007e7d2       _SetTextColor@8            0047f7d2 f   gdi32:GDI32.dll
 0001:0007e7d8       _SetBkColor@8              0047f7d8 f   gdi32:GDI32.dll
 0001:0007e7de       _GetUserNameA@8            0047f7de f   advapi32:ADVAPI32.dll
 0001:0007e7e4       _CoUninitialize@0          0047f7e4 f   ole32:ole32.dll
 0001:0007e7ea       _CoInitialize@4            0047f7ea f   ole32:ole32.dll
 0001:0007e7f0       _CoCreateInstance@20       0047f7f0 f   ole32:ole32.dll
 0001:0007e7f6       _joyGetDevCapsA@12         0047f7f6 f   winmm:WINMM.dll
 0001:0007e7fc       _joyGetPosEx@8             0047f7fc f   winmm:WINMM.dll
 0001:0007e802       _joyGetNumDevs@0           0047f802 f   winmm:WINMM.dll
 0001:0007e808       _midiInStart@4             0047f808 f   winmm:WINMM.dll
 0001:0007e80e       _midiInOpen@20             0047f80e f   winmm:WINMM.dll
 0001:0007e814       _midiInGetDevCapsA@12      0047f814 f   winmm:WINMM.dll
 0001:0007e81a       _midiInGetNumDevs@0        0047f81a f   winmm:WINMM.dll
 0001:0007e820       _midiInClose@4             0047f820 f   winmm:WINMM.dll
 0001:0007e826       _timeEndPeriod@4           0047f826 f   winmm:WINMM.dll
 0001:0007e82c       _timeGetTime@0             0047f82c f   winmm:WINMM.dll
 0001:0007e832       _timeBeginPeriod@4         0047f832 f   winmm:WINMM.dll
 0001:0007e838       _WSAGetLastError@0         0047f838 f   wsock32:WSOCK32.dll
 0001:0007e83e       _gethostbyname@4           0047f83e f   wsock32:WSOCK32.dll
 0001:0007e844       _inet_addr@4               0047f844 f   wsock32:WSOCK32.dll
 0001:0007e84a       _recvfrom@24               0047f84a f   wsock32:WSOCK32.dll
 0001:0007e850       _sendto@24                 0047f850 f   wsock32:WSOCK32.dll
 0001:0007e856       _closesocket@4             0047f856 f   wsock32:WSOCK32.dll
 0001:0007e85c       _bind@12                   0047f85c f   wsock32:WSOCK32.dll
 0001:0007e862       _htons@4                   0047f862 f   wsock32:WSOCK32.dll
 0001:0007e868       _setsockopt@20             0047f868 f   wsock32:WSOCK32.dll
 0001:0007e86e       _ioctlsocket@12            0047f86e f   wsock32:WSOCK32.dll
 0001:0007e874       _socket@12                 0047f874 f   wsock32:WSOCK32.dll
 0001:0007e87a       _recv@16                   0047f87a f   wsock32:WSOCK32.dll
 0001:0007e880       _send@16                   0047f880 f   wsock32:WSOCK32.dll
 0001:0007e886       _connect@12                0047f886 f   wsock32:WSOCK32.dll
 0001:0007e88c       _ntohl@4                   0047f88c f   wsock32:WSOCK32.dll
 0001:0007e892       _gethostname@8             0047f892 f   wsock32:WSOCK32.dll
 0001:0007e898       _WSAStartup@8              0047f898 f   wsock32:WSOCK32.dll
 0001:0007e89e       _WSACleanup@0              0047f89e f   wsock32:WSOCK32.dll
 0001:0007e8b0       _Sys_MilliSeconds          0047f8b0 f   botlib:be_interface.obj
 0001:0007e8f0       _ValidClientNumber         0047f8f0 f   botlib:be_interface.obj
 0001:0007e960       _ValidEntityNumber         0047f960 f   botlib:be_interface.obj
 0001:0007e9d0       _BotLibSetup               0047f9d0 f   botlib:be_interface.obj
 0001:0007ea30       _Export_BotLibSetup        0047fa30 f   botlib:be_interface.obj
 0001:0007eb70       _Export_BotLibShutdown     0047fb70 f   botlib:be_interface.obj
 0001:0007ec10       _Export_BotLibVarSet       0047fc10 f   botlib:be_interface.obj
 0001:0007ec50       _Export_BotLibVarGet       0047fc50 f   botlib:be_interface.obj
 0001:0007ecb0       _Export_BotLibStartFrame   0047fcb0 f   botlib:be_interface.obj
 0001:0007ed00       _Export_BotLibLoadMap      0047fd00 f   botlib:be_interface.obj
 0001:0007edd0       _Export_BotLibUpdateEntity 0047fdd0 f   botlib:be_interface.obj
 0001:0007ee40       _BotExportTest             0047fe40 f   botlib:be_interface.obj
 0001:0007f4f0       _GetBotLibAPI              004804f0 f   botlib:be_interface.obj
 0001:0007fc00       _BotAllocMoveState         00480c00 f   botlib:be_ai_move.obj
 0001:0007fc70       _BotFreeMoveState          00480c70 f   botlib:be_ai_move.obj
 0001:0007fd20       _BotMoveStateFromHandle    00480d20 f   botlib:be_ai_move.obj
 0001:0007fdb0       _BotInitMoveState          00480db0 f   botlib:be_ai_move.obj
 0001:0007ff90       _AngleDiff                 00480f90 f   botlib:be_ai_move.obj
 0001:00080010       _BotFuzzyPointReachabilityArea 00481010 f   botlib:be_ai_move.obj
 0001:00080350       _BotReachabilityArea       00481350 f   botlib:be_ai_move.obj
 0001:000805b0       _BotOnMover                004815b0 f   botlib:be_ai_move.obj
 0001:000807b0       _MoverDown                 004817b0 f   botlib:be_ai_move.obj
 0001:00080870       _BotSetBrushModelTypes     00481870 f   botlib:be_ai_move.obj
 0001:00080a30       _BotOnTopOfEntity          00481a30 f   botlib:be_ai_move.obj
 0001:00080b20       _BotValidTravel            00481b20 f   botlib:be_ai_move.obj
 0001:00080b90       _BotAddToAvoidReach        00481b90 f   botlib:be_ai_move.obj
 0001:00080ca0       _DistanceFromLineSquared   00481ca0 f   botlib:be_ai_move.obj
 0001:00080ea0       _VectorDistanceSquared     00481ea0 f   botlib:be_ai_move.obj
 0001:00080f00       _BotAvoidSpots             00481f00 f   botlib:be_ai_move.obj
 0001:000811c0       _BotAddAvoidSpot           004821c0 f   botlib:be_ai_move.obj
 0001:000812d0       _BotGetReachabilityToGoal  004822d0 f   botlib:be_ai_move.obj
 0001:000814e0       _BotAddToTarget            004824e0 f   botlib:be_ai_move.obj
 0001:000815e0       _BotMovementViewTarget     004825e0 f   botlib:be_ai_move.obj
 0001:00081800       _BotVisible                00482800 f   botlib:be_ai_move.obj
 0001:00081880       _BotPredictVisiblePosition 00482880 f   botlib:be_ai_move.obj
 0001:00081a70       _MoverBottomCenter         00482a70 f   botlib:be_ai_move.obj
 0001:00081b80       _BotGapDistance            00482b80 f   botlib:be_ai_move.obj
 0001:00081d70       _BotCheckBarrierJump       00482d70 f   botlib:be_ai_move.obj
 0001:00081fc0       _BotSwimInDirection        00482fc0 f   botlib:be_ai_move.obj
 0001:00082030       _BotWalkInDirection        00483030 f   botlib:be_ai_move.obj
 0001:000823c0       _BotMoveInDirection        004833c0 f   botlib:be_ai_move.obj
 0001:00082450       _Intersection              00483450 f   botlib:be_ai_move.obj
 0001:00082540       _BotCheckBlocked           00483540 f   botlib:be_ai_move.obj
 0001:00082780       _BotClearMoveResult        00483780 f   botlib:be_ai_move.obj
 0001:000827e0       _BotTravel_Walk            004837e0 f   botlib:be_ai_move.obj
 0001:000829c0       _BotFinishTravel_Walk      004839c0 f   botlib:be_ai_move.obj
 0001:00082aa0       _BotTravel_Crouch          00483aa0 f   botlib:be_ai_move.obj
 0001:00082b80       _BotTravel_BarrierJump     00483b80 f   botlib:be_ai_move.obj
 0001:00082c90       _BotFinishTravel_BarrierJump 00483c90 f   botlib:be_ai_move.obj
 0001:00082d70       _BotTravel_Swim            00483d70 f   botlib:be_ai_move.obj
 0001:00082e50       _BotTravel_WaterJump       00483e50 f   botlib:be_ai_move.obj
 0001:00082f90       _BotFinishTravel_WaterJump 00483f90 f   botlib:be_ai_move.obj
 0001:00083170       _BotTravel_WalkOffLedge    00484170 f   botlib:be_ai_move.obj
 0001:00083390       _BotAirControl             00484390 f   botlib:be_ai_move.obj
 0001:00083570       _BotFinishTravel_WalkOffLedge 00484570 f   botlib:be_ai_move.obj
 0001:00083720       _BotTravel_Jump            00484720 f   botlib:be_ai_move.obj
 0001:00083aa0       _BotFinishTravel_Jump      00484aa0 f   botlib:be_ai_move.obj
 0001:00083bf0       _BotTravel_Ladder          00484bf0 f   botlib:be_ai_move.obj
 0001:00083d00       _BotTravel_Teleport        00484d00 f   botlib:be_ai_move.obj
 0001:00083e40       _BotTravel_Elevator        00484e40 f   botlib:be_ai_move.obj
 0001:00084400       _BotFinishTravel_Elevator  00485400 f   botlib:be_ai_move.obj
 0001:00084530       _BotFuncBobStartEnd        00485530 f   botlib:be_ai_move.obj
 0001:00084780       _BotTravel_FuncBobbing     00485780 f   botlib:be_ai_move.obj
 0001:00084dd0       _BotFinishTravel_FuncBobbing 00485dd0 f   botlib:be_ai_move.obj
 0001:00085010       _GrappleState              00486010 f   botlib:be_ai_move.obj
 0001:000850d0       _BotResetGrapple           004860d0 f   botlib:be_ai_move.obj
 0001:00085190       _BotTravel_Grapple         00486190 f   botlib:be_ai_move.obj
 0001:00085760       _BotTravel_RocketJump      00486760 f   botlib:be_ai_move.obj
 0001:000859a0       _BotTravel_BFGJump         004869a0 f   botlib:be_ai_move.obj
 0001:00085bc0       _BotFinishTravel_WeaponJump 00486bc0 f   botlib:be_ai_move.obj
 0001:00085cd0       _BotTravel_JumpPad         00486cd0 f   botlib:be_ai_move.obj
 0001:00085da0       _BotFinishTravel_JumpPad   00486da0 f   botlib:be_ai_move.obj
 0001:00085e90       _BotReachabilityTime       00486e90 f   botlib:be_ai_move.obj
 0001:00085fc0       _BotMoveInGoalArea         00486fc0 f   botlib:be_ai_move.obj
 0001:00086160       _BotMoveToGoal             00487160 f   botlib:be_ai_move.obj
 0001:00087240       _BotResetAvoidReach        00488240 f   botlib:be_ai_move.obj
 0001:000872c0       _BotResetLastAvoidReach    004882c0 f   botlib:be_ai_move.obj
 0001:000873a0       _BotResetMoveState         004883a0 f   botlib:be_ai_move.obj
 0001:00087400       _BotSetupMoveAI            00488400 f   botlib:be_ai_move.obj
 0001:00087520       _BotShutdownMoveAI         00488520 f   botlib:be_ai_move.obj
 0001:000875a0       _BotChatStateFromHandle    004885a0 f   botlib:be_ai_chat.obj
 0001:00087630       _InitConsoleMessageHeap    00488630 f   botlib:be_ai_chat.obj
 0001:00087790       _AllocConsoleMessage       00488790 f   botlib:be_ai_chat.obj
 0001:000877f0       _FreeConsoleMessage        004887f0 f   botlib:be_ai_chat.obj
 0001:00087850       _BotRemoveConsoleMessage   00488850 f   botlib:be_ai_chat.obj
 0001:00087970       _BotQueueConsoleMessage    00488970 f   botlib:be_ai_chat.obj
 0001:00087ae0       _BotNextConsoleMessage     00488ae0 f   botlib:be_ai_chat.obj
 0001:00087b70       _BotNumConsoleMessages     00488b70 f   botlib:be_ai_chat.obj
 0001:00087bc0       _IsWhiteSpace              00488bc0 f   botlib:be_ai_chat.obj
 0001:00087cb0       _BotRemoveTildes           00488cb0 f   botlib:be_ai_chat.obj
 0001:00087d40       _UnifyWhiteSpaces          00488d40 f   botlib:be_ai_chat.obj
 0001:00087e30       _StringContains            00488e30 f   botlib:be_ai_chat.obj
 0001:00087f50       _StringContainsWord        00488f50 f   botlib:be_ai_chat.obj
 0001:000880f0       _StringReplaceWords        004890f0 f   botlib:be_ai_chat.obj
 0001:00088230       _BotDumpSynonymList        00489230 f   botlib:be_ai_chat.obj
 0001:00088310       _BotLoadSynonyms           00489310 f   botlib:be_ai_chat.obj
 0001:00088900       _BotReplaceSynonyms        00489900 f   botlib:be_ai_chat.obj
 0001:00088990       _BotReplaceWeightedSynonyms 00489990 f   botlib:be_ai_chat.obj
 0001:00088aa0       _BotReplaceReplySynonyms   00489aa0 f   botlib:be_ai_chat.obj
 0001:00088c70       _BotLoadChatMessage        00489c70 f   botlib:be_ai_chat.obj
 0001:00088e70       _BotDumpRandomStringList   00489e70 f   botlib:be_ai_chat.obj
 0001:00088f40       _BotLoadRandomStrings      00489f40 f   botlib:be_ai_chat.obj
 0001:000892f0       _RandomString              0048a2f0 f   botlib:be_ai_chat.obj
 0001:000893b0       _BotDumpMatchTemplates     0048a3b0 f   botlib:be_ai_chat.obj
 0001:000894f0       _BotFreeMatchPieces        0048a4f0 f   botlib:be_ai_chat.obj
 0001:00089580       _BotLoadMatchPieces        0048a580 f   botlib:be_ai_chat.obj
 0001:00089940       _BotFreeMatchTemplates     0048a940 f   botlib:be_ai_chat.obj
 0001:000899a0       _BotLoadMatchTemplates     0048a9a0 f   botlib:be_ai_chat.obj
 0001:00089d00       _StringsMatch              0048ad00 f   botlib:be_ai_chat.obj
 0001:00089ee0       _BotFindMatch              0048aee0 f   botlib:be_ai_chat.obj
 0001:00089ff0       _BotMatchVariable          0048aff0 f   botlib:be_ai_chat.obj
 0001:0008a110       _BotFindStringInList       0048b110 f   botlib:be_ai_chat.obj
 0001:0008a170       _BotCheckChatMessageIntegrety 0048b170 f   botlib:be_ai_chat.obj
 0001:0008a380       _BotCheckInitialChatIntegrety 0048b380 f   botlib:be_ai_chat.obj
 0001:0008a430       _BotCheckReplyChatIntegrety 0048b430 f   botlib:be_ai_chat.obj
 0001:0008a4e0       _BotDumpReplyChat          0048b4e0 f   botlib:be_ai_chat.obj
 0001:0008a7b0       _BotFreeReplyChat          0048b7b0 f   botlib:be_ai_chat.obj
 0001:0008a8a0       _BotCheckValidReplyChatKeySet 0048b8a0 f   botlib:be_ai_chat.obj
 0001:0008abc0       _BotLoadReplyChat          0048bbc0 f   botlib:be_ai_chat.obj
 0001:0008b350       _BotDumpInitialChat        0048c350 f   botlib:be_ai_chat.obj
 0001:0008b420       _BotLoadInitialChat        0048c420 f   botlib:be_ai_chat.obj
 0001:0008b9d0       _BotFreeChatFile           0048c9d0 f   botlib:be_ai_chat.obj
 0001:0008ba40       _BotLoadChatFile           0048ca40 f   botlib:be_ai_chat.obj
 0001:0008bc50       _BotExpandChatMessage      0048cc50 f   botlib:be_ai_chat.obj
 0001:0008c050       _BotConstructChatMessage   0048d050 f   botlib:be_ai_chat.obj
 0001:0008c130       _BotChooseInitialChatMessage 0048d130 f   botlib:be_ai_chat.obj
 0001:0008c2d0       _BotNumInitialChats        0048d2d0 f   botlib:be_ai_chat.obj
 0001:0008c3b0       _BotInitialChat            0048d3b0 f   botlib:be_ai_chat.obj
 0001:0008c6b0       _BotPrintReplyChatKeys     0048d6b0 f   botlib:be_ai_chat.obj
 0001:0008c970       _BotReplyChat              0048d970 f   botlib:be_ai_chat.obj
 0001:0008d090       _BotChatLength             0048e090 f   botlib:be_ai_chat.obj
 0001:0008d0f0       _BotEnterChat              0048e0f0 f   botlib:be_ai_chat.obj
 0001:0008d240       _BotGetChatMessage         0048e240 f   botlib:be_ai_chat.obj
 0001:0008d2d0       _BotSetChatGender          0048e2d0 f   botlib:be_ai_chat.obj
 0001:0008d350       _BotSetChatName            0048e350 f   botlib:be_ai_chat.obj
 0001:0008d3d0       _BotResetChatAI            0048e3d0 f   botlib:be_ai_chat.obj
 0001:0008d430       _BotAllocChatState         0048e430 f   botlib:be_ai_chat.obj
 0001:0008d4a0       _BotFreeChatState          0048e4a0 f   botlib:be_ai_chat.obj
 0001:0008d5e0       _BotSetupChatAI            0048e5e0 f   botlib:be_ai_chat.obj
 0001:0008d700       _BotShutdownChatAI         0048e700 f   botlib:be_ai_chat.obj
 0001:0008d870       _BotGoalStateFromHandle    0048e870 f   botlib:be_ai_goal.obj
 0001:0008d900       _BotInterbreedGoalFuzzyLogic 0048e900 f   botlib:be_ai_goal.obj
 0001:0008d970       _BotSaveGoalFuzzyLogic     0048e970 f   botlib:be_ai_goal.obj
 0001:0008d9b0       _BotMutateGoalFuzzyLogic   0048e9b0 f   botlib:be_ai_goal.obj
 0001:0008da00       _LoadItemConfig            0048ea00 f   botlib:be_ai_goal.obj
 0001:0008dd60       _ItemWeightIndex           0048ed60 f   botlib:be_ai_goal.obj
 0001:0008de20       _InitLevelItemHeap         0048ee20 f   botlib:be_ai_goal.obj
 0001:0008def0       _AllocLevelItem            0048eef0 f   botlib:be_ai_goal.obj
 0001:0008df70       _FreeLevelItem             0048ef70 f   botlib:be_ai_goal.obj
 0001:0008dfb0       _AddLevelItemToList        0048efb0 f   botlib:be_ai_goal.obj
 0001:0008e010       _RemoveLevelItemFromList   0048f010 f   botlib:be_ai_goal.obj
 0001:0008e070       _BotFreeInfoEntities       0048f070 f   botlib:be_ai_goal.obj
 0001:0008e110       _BotInitInfoEntities       0048f110 f   botlib:be_ai_goal.obj
 0001:0008e450       _BotInitLevelItems         0048f450 f   botlib:be_ai_goal.obj
 0001:0008eb20       _BotGoalName               0048fb20 f   botlib:be_ai_goal.obj
 0001:0008ebd0       _BotResetAvoidGoals        0048fbd0 f   botlib:be_ai_goal.obj
 0001:0008ec50       _BotDumpAvoidGoals         0048fc50 f   botlib:be_ai_goal.obj
 0001:0008ed20       _BotAddToAvoidGoals        0048fd20 f   botlib:be_ai_goal.obj
 0001:0008ee00       _BotRemoveFromAvoidGoals   0048fe00 f   botlib:be_ai_goal.obj
 0001:0008eea0       _BotAvoidGoalTime          0048fea0 f   botlib:be_ai_goal.obj
 0001:0008ef50       _BotSetAvoidGoalTime       0048ff50 f   botlib:be_ai_goal.obj
 0001:0008f060       _BotGetLevelItemGoal       00490060 f   botlib:be_ai_goal.obj
 0001:0008f2b0       _BotGetMapLocationGoal     004902b0 f   botlib:be_ai_goal.obj
 0001:0008f3c0       _BotGetNextCampSpotGoal    004903c0 f   botlib:be_ai_goal.obj
 0001:0008f4d0       _BotFindEntityForLevelItem 004904d0 f   botlib:be_ai_goal.obj
 0001:0008f670       _BotUpdateEntityItems      00490670 f   botlib:be_ai_goal.obj
 0001:0008fc10       _BotDumpGoalStack          00490c10 f   botlib:be_ai_goal.obj
 0001:0008fcb0       _BotPushGoal               00490cb0 f   botlib:be_ai_goal.obj
 0001:0008fd60       _BotPopGoal                00490d60 f   botlib:be_ai_goal.obj
 0001:0008fdd0       _BotEmptyGoalStack         00490dd0 f   botlib:be_ai_goal.obj
 0001:0008fe20       _BotGetTopGoal             00490e20 f   botlib:be_ai_goal.obj
 0001:0008fea0       _BotGetSecondGoal          00490ea0 f   botlib:be_ai_goal.obj
 0001:0008ff20       _BotChooseLTGItem          00490f20 f   botlib:be_ai_goal.obj
 0001:00090320       _BotChooseNBGItem          00491320 f   botlib:be_ai_goal.obj
 0001:000907b0       _BotTouchingGoal           004917b0 f   botlib:be_ai_goal.obj
 0001:00090940       _BotItemGoalInVisButNotVisible 00491940 f   botlib:be_ai_goal.obj
 0001:00090ac0       _BotResetGoalState         00491ac0 f   botlib:be_ai_goal.obj
 0001:00090b30       _BotLoadItemWeights        00491b30 f   botlib:be_ai_goal.obj
 0001:00090be0       _BotFreeItemWeights        00491be0 f   botlib:be_ai_goal.obj
 0001:00090c50       _BotAllocGoalState         00491c50 f   botlib:be_ai_goal.obj
 0001:00090cd0       _BotFreeGoalState          00491cd0 f   botlib:be_ai_goal.obj
 0001:00090d80       _BotSetupGoalAI            00491d80 f   botlib:be_ai_goal.obj
 0001:00090e30       _BotShutdownGoalAI         00491e30 f   botlib:be_ai_goal.obj
 0001:00090f00       _BotValidWeaponNumber      00491f00 f   botlib:be_ai_weap.obj
 0001:00090f60       _BotWeaponStateFromHandle  00491f60 f   botlib:be_ai_weap.obj
 0001:00090ff0       _LoadWeaponConfig          00491ff0 f   botlib:be_ai_weap.obj
 0001:000916d0       _WeaponWeightIndex         004926d0 f   botlib:be_ai_weap.obj
 0001:00091760       _BotFreeWeaponWeights      00492760 f   botlib:be_ai_weap.obj
 0001:000917d0       _BotLoadWeaponWeights      004927d0 f   botlib:be_ai_weap.obj
 0001:00091890       _BotGetWeaponInfo          00492890 f   botlib:be_ai_weap.obj
 0001:00091920       _BotChooseBestFightWeapon  00492920 f   botlib:be_ai_weap.obj
 0001:00091a20       _BotResetWeaponState       00492a20 f   botlib:be_ai_weap.obj
 0001:00091a90       _BotAllocWeaponState       00492a90 f   botlib:be_ai_weap.obj
 0001:00091b00       _BotFreeWeaponState        00492b00 f   botlib:be_ai_weap.obj
 0001:00091bb0       _BotSetupWeaponAI          00492bb0 f   botlib:be_ai_weap.obj
 0001:00091c30       _BotShutdownWeaponAI       00492c30 f   botlib:be_ai_weap.obj
 0001:00091cb0       _EA_Say                    00492cb0 f   botlib:be_ea.obj
 0001:00091d10       _EA_SayTeam                00492d10 f   botlib:be_ea.obj
 0001:00091d70       _EA_Tell                   00492d70 f   botlib:be_ea.obj
 0001:00091dd0       _EA_UseItem                00492dd0 f   botlib:be_ea.obj
 0001:00091e30       _EA_DropItem               00492e30 f   botlib:be_ea.obj
 0001:00091e90       _EA_UseInv                 00492e90 f   botlib:be_ea.obj
 0001:00091ef0       _EA_DropInv                00492ef0 f   botlib:be_ea.obj
 0001:00091f50       _EA_Gesture                00492f50 f   botlib:be_ea.obj
 0001:00091fa0       _EA_Command                00492fa0 f   botlib:be_ea.obj
 0001:00091ff0       _EA_SelectWeapon           00492ff0 f   botlib:be_ea.obj
 0001:00092030       _EA_Attack                 00493030 f   botlib:be_ea.obj
 0001:00092070       _EA_Talk                   00493070 f   botlib:be_ea.obj
 0001:000920c0       _EA_Use                    004930c0 f   botlib:be_ea.obj
 0001:00092100       _EA_Respawn                00493100 f   botlib:be_ea.obj
 0001:00092140       _EA_Jump                   00493140 f   botlib:be_ea.obj
 0001:000921a0       _EA_DelayedJump            004931a0 f   botlib:be_ea.obj
 0001:00092200       _EA_Crouch                 00493200 f   botlib:be_ea.obj
 0001:00092240       _EA_Walk                   00493240 f   botlib:be_ea.obj
 0001:00092290       _EA_Action                 00493290 f   botlib:be_ea.obj
 0001:000922d0       _EA_MoveUp                 004932d0 f   botlib:be_ea.obj
 0001:00092310       _EA_MoveDown               00493310 f   botlib:be_ea.obj
 0001:00092350       _EA_MoveForward            00493350 f   botlib:be_ea.obj
 0001:00092390       _EA_MoveBack               00493390 f   botlib:be_ea.obj
 0001:000923d0       _EA_MoveLeft               004933d0 f   botlib:be_ea.obj
 0001:00092410       _EA_MoveRight              00493410 f   botlib:be_ea.obj
 0001:00092450       _EA_Move                   00493450 f   botlib:be_ea.obj
 0001:000924e0       _EA_View                   004934e0 f   botlib:be_ea.obj
 0001:00092540       _EA_EndRegular             00493540 f   botlib:be_ea.obj
 0001:00092560       _EA_GetInput               00493560 f   botlib:be_ea.obj
 0001:000925c0       _EA_ResetInput             004935c0 f   botlib:be_ea.obj
 0001:00092670       _EA_Setup                  00493670 f   botlib:be_ea.obj
 0001:000926c0       _EA_Shutdown               004936c0 f   botlib:be_ea.obj
 0001:00092710       _AAS_Error                 00493710 f   botlib:be_aas_main.obj
 0001:00092790       _AAS_StringFromIndex       00493790 f   botlib:be_aas_main.obj
 0001:00092870       _AAS_IndexFromString       00493870 f   botlib:be_aas_main.obj
 0001:00092920       _AAS_ModelFromIndex        00493920 f   botlib:be_aas_main.obj
 0001:00092970       _AAS_IndexFromModel        00493970 f   botlib:be_aas_main.obj
 0001:000929c0       _AAS_UpdateStringIndexes   004939c0 f   botlib:be_aas_main.obj
 0001:00092a60       _AAS_Loaded                00493a60 f   botlib:be_aas_main.obj
 0001:00092a90       _AAS_Initialized           00493a90 f   botlib:be_aas_main.obj
 0001:00092ac0       _AAS_SetInitialized        00493ac0 f   botlib:be_aas_main.obj
 0001:00092b10       _AAS_ContinueInit          00493b10 f   botlib:be_aas_main.obj
 0001:00092c10       _AAS_StartFrame            00493c10 f   botlib:be_aas_main.obj
 0001:00092d40       _AAS_Time                  00493d40 f   botlib:be_aas_main.obj
 0001:00092d70       _AAS_ProjectPointOntoVector 00493d70 f   botlib:be_aas_main.obj
 0001:00092e70       _AAS_LoadFiles             00493e70 f   botlib:be_aas_main.obj
 0001:00092f20       _AAS_LoadMap               00493f20 f   botlib:be_aas_main.obj
 0001:00092fb0       _AAS_Setup                 00493fb0 f   botlib:be_aas_main.obj
 0001:00093070       _AAS_Shutdown              00494070 f   botlib:be_aas_main.obj
 0001:00093110       _LibVarStringValue         00494110 f   botlib:l_libvar.obj
 0001:000931e0       _LibVarAlloc               004941e0 f   botlib:l_libvar.obj
 0001:00093270       _LibVarDeAlloc             00494270 f   botlib:l_libvar.obj
 0001:000932c0       _LibVarDeAllocAll          004942c0 f   botlib:l_libvar.obj
 0001:00093330       _LibVarGet                 00494330 f   botlib:l_libvar.obj
 0001:000933a0       _LibVarGetString           004943a0 f   botlib:l_libvar.obj
 0001:000933f0       _LibVarGetValue            004943f0 f   botlib:l_libvar.obj
 0001:00093440       _LibVar                    00494440 f   botlib:l_libvar.obj
 0001:000934f0       _LibVarString              004944f0 f   botlib:l_libvar.obj
 0001:00093540       _LibVarValue               00494540 f   botlib:l_libvar.obj
 0001:00093590       _LibVarSet                 00494590 f   botlib:l_libvar.obj
 0001:00093640       _LibVarChanged             00494640 f   botlib:l_libvar.obj
 0001:00093690       _LibVarSetNotModified      00494690 f   botlib:l_libvar.obj
 0001:000936e0       _Log_Open                  004946e0 f   botlib:l_log.obj
 0001:00093800       _Log_Close                 00494800 f   botlib:l_log.obj
 0001:00093890       _Log_Shutdown              00494890 f   botlib:l_log.obj
 0001:000938d0       _Log_Write                 004948d0 f   botlib:l_log.obj
 0001:00093940       _Log_WriteTimeStamped      00494940 f   botlib:l_log.obj
 0001:00093a40       _Log_FilePointer           00494a40 f   botlib:l_log.obj
 0001:00093a70       _Log_Flush                 00494a70 f   botlib:l_log.obj
 0001:00093ab0       _SourceError               00494ab0 f   botlib:l_precomp.obj
 0001:00093b50       _SourceWarning             00494b50 f   botlib:l_precomp.obj
 0001:00093bf0       _PC_PushIndent             00494bf0 f   botlib:l_precomp.obj
 0001:00093c80       _PC_PopIndent              00494c80 f   botlib:l_precomp.obj
 0001:00093d40       _PC_PushScript             00494d40 f   botlib:l_precomp.obj
 0001:00093de0       _PC_InitTokenHeap          00494de0 f   botlib:l_precomp.obj
 0001:00093e00       _PC_CopyToken              00494e00 f   botlib:l_precomp.obj
 0001:00093e90       _PC_FreeToken              00494e90 f   botlib:l_precomp.obj
 0001:00093ee0       _PC_ReadSourceToken        00494ee0 f   botlib:l_precomp.obj
 0001:00094040       _PC_UnreadSourceToken      00495040 f   botlib:l_precomp.obj
 0001:000940a0       _PC_ReadDefineParms        004950a0 f   botlib:l_precomp.obj
 0001:00094410       _PC_StringizeTokens        00495410 f   botlib:l_precomp.obj
 0001:000944f0       _PC_MergeTokens            004954f0 f   botlib:l_precomp.obj
 0001:000945a0       _PC_PrintDefineHashTable   004955a0 f   botlib:l_precomp.obj
 0001:00094640       _PC_NameHash               00495640 f   botlib:l_precomp.obj
 0001:000946c0       _PC_AddDefineToHash        004956c0 f   botlib:l_precomp.obj
 0001:00094720       _PC_FindHashedDefine       00495720 f   botlib:l_precomp.obj
 0001:000947a0       _PC_FindDefine             004957a0 f   botlib:l_precomp.obj
 0001:00094800       _PC_FindDefineParm         00495800 f   botlib:l_precomp.obj
 0001:00094880       _PC_FreeDefine             00495880 f   botlib:l_precomp.obj
 0001:00094920       _PC_AddBuiltinDefines      00495920 f   botlib:l_precomp.obj
 0001:00094a40       _PC_ExpandBuiltinDefine    00495a40 f   botlib:l_precomp.obj
 0001:00094cd0       _PC_ExpandDefine           00495cd0 f   botlib:l_precomp.obj
 0001:00095180       _PC_ExpandDefineIntoSource 00496180 f   botlib:l_precomp.obj
 0001:00095200       _PC_ConvertPath            00496200 f   botlib:l_precomp.obj
 0001:000952c0       _PC_Directive_include      004962c0 f   botlib:l_precomp.obj
 0001:00095520       _PC_ReadLine               00496520 f   botlib:l_precomp.obj
 0001:000955b0       _PC_WhiteSpaceBeforeToken  004965b0 f   botlib:l_precomp.obj
 0001:000955f0       _PC_ClearTokenWhiteSpace   004965f0 f   botlib:l_precomp.obj
 0001:00095640       _PC_Directive_undef        00496640 f   botlib:l_precomp.obj
 0001:000957f0       _PC_Directive_define       004967f0 f   botlib:l_precomp.obj
 0001:00095d20       _PC_DefineFromString       00496d20 f   botlib:l_precomp.obj
 0001:00095ec0       _PC_AddDefine              00496ec0 f   botlib:l_precomp.obj
 0001:00095f20       _PC_AddGlobalDefine        00496f20 f   botlib:l_precomp.obj
 0001:00095f80       _PC_RemoveGlobalDefine     00496f80 f   botlib:l_precomp.obj
 0001:00095fe0       _PC_RemoveAllGlobalDefines 00496fe0 f   botlib:l_precomp.obj
 0001:00096040       _PC_CopyDefine             00497040 f   botlib:l_precomp.obj
 0001:000961c0       _PC_AddGlobalDefinesToSource 004971c0 f   botlib:l_precomp.obj
 0001:00096230       _PC_Directive_if_def       00497230 f   botlib:l_precomp.obj
 0001:00096330       _PC_Directive_ifdef        00497330 f   botlib:l_precomp.obj
 0001:00096370       _PC_Directive_ifndef       00497370 f   botlib:l_precomp.obj
 0001:000963b0       _PC_Directive_else         004973b0 f   botlib:l_precomp.obj
 0001:00096440       _PC_Directive_endif        00497440 f   botlib:l_precomp.obj
 0001:000964a0       _PC_OperatorPriority       004974a0 f   botlib:l_precomp.obj
 0001:00096620       _PC_EvaluateTokens         00497620 f   botlib:l_precomp.obj
 0001:000975a0       _PC_Evaluate               004985a0 f   botlib:l_precomp.obj
 0001:000978d0       _PC_DollarEvaluate         004988d0 f   botlib:l_precomp.obj
 0001:00097c60       _PC_Directive_elif         00498c60 f   botlib:l_precomp.obj
 0001:00097d00       _PC_Directive_if           00498d00 f   botlib:l_precomp.obj
 0001:00097d70       _PC_Directive_line         00498d70 f   botlib:l_precomp.obj
 0001:00097db0       _PC_Directive_error        00498db0 f   botlib:l_precomp.obj
 0001:00097e30       _PC_Directive_pragma       00498e30 f   botlib:l_precomp.obj
 0001:00097ea0       _UnreadSignToken           00498ea0 f   botlib:l_precomp.obj
 0001:00097f50       _PC_Directive_eval         00498f50 f   botlib:l_precomp.obj
 0001:00098040       _PC_Directive_evalfloat    00499040 f   botlib:l_precomp.obj
 0001:00098140       _PC_ReadDirective          00499140 f   botlib:l_precomp.obj
 0001:00098260       _PC_DollarDirective_evalint 00499260 f   botlib:l_precomp.obj
 0001:00098360       _PC_DollarDirective_evalfloat 00499360 f   botlib:l_precomp.obj
 0001:00098470       _PC_ReadDollarDirective    00499470 f   botlib:l_precomp.obj
 0001:000985b0       _PC_ReadToken              004995b0 f   botlib:l_precomp.obj
 0001:000987a0       _PC_ExpectTokenString      004997a0 f   botlib:l_precomp.obj
 0001:00098840       _PC_ExpectTokenType        00499840 f   botlib:l_precomp.obj
 0001:00098af0       _PC_ExpectAnyToken         00499af0 f   botlib:l_precomp.obj
 0001:00098b50       _PC_CheckTokenString       00499b50 f   botlib:l_precomp.obj
 0001:00098bd0       _PC_CheckTokenType         00499bd0 f   botlib:l_precomp.obj
 0001:00098c70       _PC_SkipUntilString        00499c70 f   botlib:l_precomp.obj
 0001:00098ce0       _PC_UnreadLastToken        00499ce0 f   botlib:l_precomp.obj
 0001:00098d20       _PC_UnreadToken            00499d20 f   botlib:l_precomp.obj
 0001:00098d60       _PC_SetIncludePath         00499d60 f   botlib:l_precomp.obj
 0001:00098e00       _PC_SetPunctuations        00499e00 f   botlib:l_precomp.obj
 0001:00098e30       _LoadSourceFile            00499e30 f   botlib:l_precomp.obj
 0001:00098f30       _LoadSourceMemory          00499f30 f   botlib:l_precomp.obj
 0001:00099030       _FreeSource                0049a030 f   botlib:l_precomp.obj
 0001:000991b0       _PC_LoadSourceHandle       0049a1b0 f   botlib:l_precomp.obj
 0001:00099250       _PC_FreeSourceHandle       0049a250 f   botlib:l_precomp.obj
 0001:000992c0       _PC_ReadTokenHandle        0049a2c0 f   botlib:l_precomp.obj
 0001:00099390       _PC_SourceFileAndLine      0049a390 f   botlib:l_precomp.obj
 0001:00099430       _PC_SetBaseFolder          0049a430 f   botlib:l_precomp.obj
 0001:00099470       _PC_CheckOpenSourceHandles 0049a470 f   botlib:l_precomp.obj
 0001:000994f0       _GetMemory                 0049a4f0 f   botlib:l_memory.obj
 0001:00099560       _GetClearedMemory          0049a560 f   botlib:l_memory.obj
 0001:000995b0       _GetHunkMemory             0049a5b0 f   botlib:l_memory.obj
 0001:00099620       _GetClearedHunkMemory      0049a620 f   botlib:l_memory.obj
 0001:00099670       _FreeMemory                0049a670 f   botlib:l_memory.obj
 0001:000996d0       _AvailableMemory           0049a6d0 f   botlib:l_memory.obj
 0001:00099710       _PrintUsedMemorySize       0049a710 f   botlib:l_memory.obj
 0001:00099730       _PrintMemoryLabels         0049a730 f   botlib:l_memory.obj
 0001:00099750       _BotCharacterFromHandle    0049a750 f   botlib:be_ai_char.obj
 0001:000997e0       _BotDumpCharacter          0049a7e0 f   botlib:be_ai_char.obj
 0001:000998f0       _BotFreeCharacterStrings   0049a8f0 f   botlib:be_ai_char.obj
 0001:00099960       _BotFreeCharacter2         0049a960 f   botlib:be_ai_char.obj
 0001:00099a20       _BotFreeCharacter          0049aa20 f   botlib:be_ai_char.obj
 0001:00099a80       _BotDefaultCharacteristics 0049aa80 f   botlib:be_ai_char.obj
 0001:00099bb0       _BotLoadCharacterFromFile  0049abb0 f   botlib:be_ai_char.obj
 0001:0009a0c0       _BotFindCachedCharacter    0049b0c0 f   botlib:be_ai_char.obj
 0001:0009a170       _BotLoadCachedCharacter    0049b170 f   botlib:be_ai_char.obj
 0001:0009a4f0       _BotLoadCharacterSkill     0049b4f0 f   botlib:be_ai_char.obj
 0001:0009a590       _BotInterpolateCharacters  0049b590 f   botlib:be_ai_char.obj
 0001:0009a790       _BotLoadCharacter          0049b790 f   botlib:be_ai_char.obj
 0001:0009a940       _CheckCharacteristicIndex  0049b940 f   botlib:be_ai_char.obj
 0001:0009a9f0       _Characteristic_Float      0049b9f0 f   botlib:be_ai_char.obj
 0001:0009aab0       _Characteristic_BFloat     0049bab0 f   botlib:be_ai_char.obj
 0001:0009ab80       _Characteristic_Integer    0049bb80 f   botlib:be_ai_char.obj
 0001:0009ac40       _Characteristic_BInteger   0049bc40 f   botlib:be_ai_char.obj
 0001:0009acf0       _Characteristic_String     0049bcf0 f   botlib:be_ai_char.obj
 0001:0009ada0       _BotShutdownCharacters     0049bda0 f   botlib:be_ai_char.obj
 0001:0009ae00       _ReadValue                 0049be00 f   botlib:be_ai_weight.obj
 0001:0009aed0       _ReadFuzzyWeight           0049bed0 f   botlib:be_ai_weight.obj
 0001:0009b040       _FreeFuzzySeperators_r     0049c040 f   botlib:be_ai_weight.obj
 0001:0009b0b0       _FreeWeightConfig2         0049c0b0 f   botlib:be_ai_weight.obj
 0001:0009b140       _FreeWeightConfig          0049c140 f   botlib:be_ai_weight.obj
 0001:0009b1a0       _ReadFuzzySeperators_r     0049c1a0 f   botlib:be_ai_weight.obj
 0001:0009b640       _ReadWeightConfig          0049c640 f   botlib:be_ai_weight.obj
 0001:0009bc20       _FindFuzzyWeight           0049cc20 f   botlib:be_ai_weight.obj
 0001:0009bc90       _FuzzyWeight_r             0049cc90 f   botlib:be_ai_weight.obj
 0001:0009bde0       _FuzzyWeightUndecided_r    0049cde0 f   botlib:be_ai_weight.obj
 0001:0009bfa0       _FuzzyWeight               0049cfa0 f   botlib:be_ai_weight.obj
 0001:0009bfe0       _FuzzyWeightUndecided      0049cfe0 f   botlib:be_ai_weight.obj
 0001:0009c020       _EvolveFuzzySeperator_r    0049d020 f   botlib:be_ai_weight.obj
 0001:0009c180       _EvolveWeightConfig        0049d180 f   botlib:be_ai_weight.obj
 0001:0009c1e0       _ScaleFuzzySeperator_r     0049d1e0 f   botlib:be_ai_weight.obj
 0001:0009c2b0       _ScaleWeight               0049d2b0 f   botlib:be_ai_weight.obj
 0001:0009c360       _ScaleFuzzySeperatorBalanceRange_r 0049d360 f   botlib:be_ai_weight.obj
 0001:0009c430       _ScaleFuzzyBalanceRange    0049d430 f   botlib:be_ai_weight.obj
 0001:0009c4c0       _InterbreedFuzzySeperator_r 0049d4c0 f   botlib:be_ai_weight.obj
 0001:0009c650       _InterbreedWeightConfigs   0049d650 f   botlib:be_ai_weight.obj
 0001:0009c700       _BotShutdownWeights        0049d700 f   botlib:be_ai_weight.obj
 0001:0009c780       _AAS_UpdateEntity          0049d780 f   botlib:be_aas_entity.obj
 0001:0009cc10       _AAS_EntityInfo            0049dc10 f   botlib:be_aas_entity.obj
 0001:0009cce0       _AAS_EntityOrigin          0049dce0 f   botlib:be_aas_entity.obj
 0001:0009cda0       _AAS_EntityModelindex      0049dda0 f   botlib:be_aas_entity.obj
 0001:0009ce10       _AAS_EntityType            0049de10 f   botlib:be_aas_entity.obj
 0001:0009ce90       _AAS_EntityModelNum        0049de90 f   botlib:be_aas_entity.obj
 0001:0009cf10       _AAS_OriginOfMoverWithModelNum 0049df10 f   botlib:be_aas_entity.obj
 0001:0009cfb0       _AAS_EntitySize            0049dfb0 f   botlib:be_aas_entity.obj
 0001:0009d070       _AAS_EntityBSPData         0049e070 f   botlib:be_aas_entity.obj
 0001:0009d180       _AAS_ResetEntityLinks      0049e180 f   botlib:be_aas_entity.obj
 0001:0009d200       _AAS_InvalidateEntities    0049e200 f   botlib:be_aas_entity.obj
 0001:0009d270       _AAS_UnlinkInvalidEntities 0049e270 f   botlib:be_aas_entity.obj
 0001:0009d320       _AAS_NearestEntity         0049e320 f   botlib:be_aas_entity.obj
 0001:0009d480       _AAS_BestReachableEntityArea 0049e480 f   botlib:be_aas_entity.obj
 0001:0009d4d0       _AAS_NextEntity            0049e4d0 f   botlib:be_aas_entity.obj
 0001:0009d540       _AAS_ClearShownPolygons    0049e540 f   botlib:be_aas_debug.obj
 0001:0009d5c0       _AAS_ShowPolygon           0049e5c0 f   botlib:be_aas_debug.obj
 0001:0009d640       _AAS_ClearShownDebugLines  0049e640 f   botlib:be_aas_debug.obj
 0001:0009d6d0       _AAS_DebugLine             0049e6d0 f   botlib:be_aas_debug.obj
 0001:0009d7b0       _AAS_PermanentLine         0049e7b0 f   botlib:be_aas_debug.obj
 0001:0009d810       _AAS_DrawPermanentCross    0049e810 f   botlib:be_aas_debug.obj
 0001:0009d900       _AAS_DrawPlaneCross        0049e900 f   botlib:be_aas_debug.obj
 0001:0009dc50       _AAS_ShowBoundingBox       0049ec50 f   botlib:be_aas_debug.obj
 0001:0009df00       _AAS_ShowFace              0049ef00 f   botlib:be_aas_debug.obj
 0001:0009e110       _AAS_ShowFacePolygon       0049f110 f   botlib:be_aas_debug.obj
 0001:0009e380       _AAS_ShowArea              0049f380 f   botlib:be_aas_debug.obj
 0001:0009e770       _AAS_ShowAreaPolygons      0049f770 f   botlib:be_aas_debug.obj
 0001:0009e8a0       _AAS_DrawCross             0049f8a0 f   botlib:be_aas_debug.obj
 0001:0009e950       _AAS_PrintTravelType       0049f950 f   botlib:be_aas_debug.obj
 0001:0009eab0       _AAS_DrawArrow             0049fab0 f   botlib:be_aas_debug.obj
 0001:0009ecf0       _AAS_ShowReachability      0049fcf0 f   botlib:be_aas_debug.obj
 0001:0009f040       _AAS_ShowReachableAreas    004a0040 f   botlib:be_aas_debug.obj
 0001:0009f150       _AAS_FloodAreas_r          004a0150 f   botlib:be_aas_debug.obj
 0001:0009f340       _AAS_FloodAreas            004a0340 f   botlib:be_aas_debug.obj
 0001:0009f3b0       _AAS_RoutingInfo           004a03b0 f   botlib:be_aas_route.obj
 0001:0009f440       _AAS_InitTravelFlagFromType 004a0440 f   botlib:be_aas_route.obj
 0001:0009f550       _AAS_TravelFlagForType     004a0550 f   botlib:be_aas_route.obj
 0001:0009f590       _AAS_TravelFlagForType_inline 004a0590 f i botlib:be_aas_route.obj
 0001:0009f620       _AAS_UnlinkCache           004a0620 f   botlib:be_aas_route.obj
 0001:0009f6a0       _AAS_LinkCache             004a06a0 f   botlib:be_aas_route.obj
 0001:0009f710       _AAS_FreeRoutingCache      004a0710 f   botlib:be_aas_route.obj
 0001:0009f770       _AAS_RemoveRoutingCacheInCluster 004a0770 f   botlib:be_aas_route.obj
 0001:0009f830       _AAS_RemoveRoutingCacheUsingArea 004a0830 f   botlib:be_aas_route.obj
 0001:0009f920       _AAS_EnableRoutingArea     004a0920 f   botlib:be_aas_route.obj
 0001:0009fa30       _AAS_GetAreaContentsTravelFlags 004a0a30 f   botlib:be_aas_route.obj
 0001:0009fb30       _AAS_AreaContentsTravelFlags 004a0b30 f   botlib:be_aas_route.obj
 0001:0009fb60       _AAS_InitAreaContentsTravelFlags 004a0b60 f   botlib:be_aas_route.obj
 0001:0009fbf0       _AAS_CreateReversedReachability 004a0bf0 f   botlib:be_aas_route.obj
 0001:0009fdb0       _AAS_AreaTravelTime        004a0db0 f   botlib:be_aas_route.obj
 0001:0009fee0       _AAS_CalculateAreaTravelTimes 004a0ee0 f   botlib:be_aas_route.obj
 0001:000a0140       _AAS_PortalMaxTravelTime   004a1140 f   botlib:be_aas_route.obj
 0001:000a0220       _AAS_InitPortalMaxTravelTimes 004a1220 f   botlib:be_aas_route.obj
 0001:000a02b0       _AAS_FreeOldestCache       004a12b0 f   botlib:be_aas_route.obj
 0001:000a03f0       _AAS_ClusterAreaNum        004a13f0 f i botlib:be_aas_route.obj
 0001:000a0470       _AAS_AllocRoutingCache     004a1470 f   botlib:be_aas_route.obj
 0001:000a04e0       _AAS_FreeAllClusterAreaCache 004a14e0 f   botlib:be_aas_route.obj
 0001:000a05e0       _AAS_InitClusterAreaCache  004a15e0 f   botlib:be_aas_route.obj
 0001:000a06c0       _AAS_FreeAllPortalCache    004a16c0 f   botlib:be_aas_route.obj
 0001:000a0770       _AAS_InitPortalCache       004a1770 f   botlib:be_aas_route.obj
 0001:000a07b0       _AAS_InitRoutingUpdate     004a17b0 f   botlib:be_aas_route.obj
 0001:000a0890       _AAS_CreateAllRoutingCache 004a1890 f   botlib:be_aas_route.obj
 0001:000a0980       _AAS_WriteRouteCache       004a1980 f   botlib:be_aas_route.obj
 0001:000a0cd0       _AAS_ReadCache             004a1cd0 f   botlib:be_aas_route.obj
 0001:000a0d70       _AAS_ReadRouteCache        004a1d70 f   botlib:be_aas_route.obj
 0001:000a1010       _AAS_InitReachabilityAreas 004a2010 f   botlib:be_aas_route.obj
 0001:000a12b0       _AAS_InitRouting           004a22b0 f   botlib:be_aas_route.obj
 0001:000a1350       _AAS_FreeRoutingCaches     004a2350 f   botlib:be_aas_route.obj
 0001:000a1490       _AAS_UpdateAreaRoutingCache 004a2490 f   botlib:be_aas_route.obj
 0001:000a18a0       _AAS_AreaContentsTravelFlags_inline 004a28a0 f i botlib:be_aas_route.obj
 0001:000a18d0       _AAS_GetAreaRoutingCache   004a28d0 f   botlib:be_aas_route.obj
 0001:000a1a50       _AAS_RoutingTime           004a2a50 f i botlib:be_aas_route.obj
 0001:000a1a80       _AAS_UpdatePortalRoutingCache 004a2a80 f   botlib:be_aas_route.obj
 0001:000a1d50       _AAS_GetPortalRoutingCache 004a2d50 f   botlib:be_aas_route.obj
 0001:000a1eb0       _AAS_AreaRouteToGoalArea   004a2eb0 f   botlib:be_aas_route.obj
 0001:000a23e0       _AAS_AreaTravelTimeToGoalArea 004a33e0 f   botlib:be_aas_route.obj
 0001:000a2440       _AAS_AreaReachabilityToGoalArea 004a3440 f   botlib:be_aas_route.obj
 0001:000a24a0       _AAS_PredictRoute          004a34a0 f   botlib:be_aas_route.obj
 0001:000a2980       _AAS_BridgeWalkable        004a3980 f   botlib:be_aas_route.obj
 0001:000a29b0       _AAS_ReachabilityFromNum   004a39b0 f   botlib:be_aas_route.obj
 0001:000a2a40       _AAS_NextAreaReachability  004a3a40 f   botlib:be_aas_route.obj
 0001:000a2b20       _AAS_NextModelReachability 004a3b20 f   botlib:be_aas_route.obj
 0001:000a2c00       _AAS_RandomGoalArea        004a3c00 f   botlib:be_aas_route.obj
 0001:000a2e90       _AAS_AreaVisible           004a3e90 f   botlib:be_aas_route.obj
 0001:000a2ec0       _DistancePointToLine       004a3ec0 f   botlib:be_aas_route.obj
 0001:000a2f30       _AAS_NearestHideArea       004a3f30 f   botlib:be_aas_route.obj
 0001:000a3420       _AAS_PresenceTypeBoundingBox 004a4420 f   botlib:be_aas_sample.obj
 0001:000a3570       _AAS_InitAASLinkHeap       004a4570 f   botlib:be_aas_sample.obj
 0001:000a36c0       _AAS_FreeAASLinkHeap       004a46c0 f   botlib:be_aas_sample.obj
 0001:000a3720       _AAS_AllocAASLink          004a4720 f   botlib:be_aas_sample.obj
 0001:000a37c0       _AAS_DeAllocAASLink        004a47c0 f   botlib:be_aas_sample.obj
 0001:000a3840       _AAS_InitAASLinkedEntities 004a4840 f   botlib:be_aas_sample.obj
 0001:000a38b0       _AAS_FreeAASLinkedEntities 004a48b0 f   botlib:be_aas_sample.obj
 0001:000a3900       _AAS_PointAreaNum          004a4900 f   botlib:be_aas_sample.obj
 0001:000a39f0       _AAS_PointReachabilityAreaIndex 004a49f0 f   botlib:be_aas_sample.obj
 0001:000a3b40       _AAS_AreaCluster           004a4b40 f   botlib:be_aas_sample.obj
 0001:000a3bb0       _AAS_AreaPresenceType      004a4bb0 f   botlib:be_aas_sample.obj
 0001:000a3c30       _AAS_PointPresenceType     004a4c30 f   botlib:be_aas_sample.obj
 0001:000a3ca0       _AAS_BoxOriginDistanceFromPlane 004a4ca0 f   botlib:be_aas_sample.obj
 0001:000a3e50       _AAS_AreaEntityCollision   004a4e50 f   botlib:be_aas_sample.obj
 0001:000a3f70       _AAS_TraceClientBBox       004a4f70 f   botlib:be_aas_sample.obj
 0001:000a4b00       _AAS_TraceAreas            004a5b00 f   botlib:be_aas_sample.obj
 0001:000a5070       _AAS_InsideFace            004a6070 f   botlib:be_aas_sample.obj
 0001:000a5250       _AAS_PointInsideFace       004a6250 f   botlib:be_aas_sample.obj
 0001:000a5460       _AAS_AreaGroundFace        004a6460 f   botlib:be_aas_sample.obj
 0001:000a5590       _AAS_FacePlane             004a6590 f   botlib:be_aas_sample.obj
 0001:000a5600       _AAS_TraceEndFace          004a6600 f   botlib:be_aas_sample.obj
 0001:000a5700       _AAS_BoxOnPlaneSide2       004a6700 f   botlib:be_aas_sample.obj
 0001:000a5820       _AAS_UnlinkFromAreas       004a6820 f   botlib:be_aas_sample.obj
 0001:000a58c0       _AAS_AASLinkEntity         004a68c0 f   botlib:be_aas_sample.obj
 0001:000a5bc0       _AAS_LinkEntityClientBBox  004a6bc0 f   botlib:be_aas_sample.obj
 0001:000a5c60       _AAS_BBoxAreas             004a6c60 f   botlib:be_aas_sample.obj
 0001:000a5cf0       _AAS_AreaInfo              004a6cf0 f   botlib:be_aas_sample.obj
 0001:000a5e70       _AAS_PlaneFromNum          004a6e70 f   botlib:be_aas_sample.obj
 0001:000a5eb0       _AAS_DropToFloor           004a6eb0 f   botlib:be_aas_move.obj
 0001:000a5f60       _AAS_InitSettings          004a6f60 f   botlib:be_aas_move.obj
 0001:000a6310       _AAS_AgainstLadder         004a7310 f   botlib:be_aas_move.obj
 0001:000a6530       _AAS_OnGround              004a7530 f   botlib:be_aas_move.obj
 0001:000a6640       _AAS_Swimming              004a7640 f   botlib:be_aas_move.obj
 0001:000a66b0       _AAS_SetMovedir            004a76b0 f   botlib:be_aas_move.obj
 0001:000a67c0       _AAS_JumpReachRunStart     004a77c0 f   botlib:be_aas_move.obj
 0001:000a68e0       _AAS_WeaponJumpZVelocity   004a78e0 f   botlib:be_aas_move.obj
 0001:000a6c00       _AAS_RocketJumpZVelocity   004a7c00 f   botlib:be_aas_move.obj
 0001:000a6c40       _AAS_BFGJumpZVelocity      004a7c40 f   botlib:be_aas_move.obj
 0001:000a6c80       _AAS_Accelerate            004a7c80 f   botlib:be_aas_move.obj
 0001:000a6d40       _AAS_AirControl            004a7d40 f   botlib:be_aas_move.obj
 0001:000a6d90       _AAS_ApplyFriction         004a7d90 f   botlib:be_aas_move.obj
 0001:000a6e60       _AAS_ClipToBBox            004a7e60 f   botlib:be_aas_move.obj
 0001:000a7190       _AAS_ClientMovementPrediction 004a8190 f   botlib:be_aas_move.obj
 0001:000a89c0       _AAS_PredictClientMovement 004a99c0 f   botlib:be_aas_move.obj
 0001:000a8a30       _AAS_ClientMovementHitBBox 004a9a30 f   botlib:be_aas_move.obj
 0001:000a8aa0       _AAS_TestMovementPrediction 004a9aa0 f   botlib:be_aas_move.obj
 0001:000a8ba0       _AAS_HorizontalVelocityForJump 004a9ba0 f   botlib:be_aas_move.obj
 0001:000a8cf0       _AAS_AltRoutingFloodCluster_r 004a9cf0 f   botlib:be_aas_routealt.obj
 0001:000a8df0       _AAS_AlternativeRouteGoals 004a9df0 f   botlib:be_aas_routealt.obj
 0001:000a92f0       _AAS_InitAlternativeRouting 004aa2f0 f   botlib:be_aas_routealt.obj
 0001:000a9380       _AAS_ShutdownAlternativeRouting 004aa380 f   botlib:be_aas_routealt.obj
 0001:000a9400       _AAS_FaceArea              004aa400 f   botlib:be_aas_reach.obj
 0001:000a95f0       _AAS_AreaVolume            004aa5f0 f   botlib:be_aas_reach.obj
 0001:000a97f0       _AAS_BestReachableLinkArea 004aa7f0 f   botlib:be_aas_reach.obj
 0001:000a98b0       _AAS_GetJumpPadInfo        004aa8b0 f   botlib:be_aas_reach.obj
 0001:000a9cf0       _AAS_BestReachableFromJumpPadArea 004aacf0 f   botlib:be_aas_reach.obj
 0001:000a9fd0       _AAS_BestReachableArea     004aafd0 f   botlib:be_aas_reach.obj
 0001:000aa2c0       _AAS_SetupReachabilityHeap 004ab2c0 f   botlib:be_aas_reach.obj
 0001:000aa360       _AAS_ShutDownReachabilityHeap 004ab360 f   botlib:be_aas_reach.obj
 0001:000aa3b0       _AAS_AllocReachability     004ab3b0 f   botlib:be_aas_reach.obj
 0001:000aa430       _AAS_FreeReachability      004ab430 f   botlib:be_aas_reach.obj
 0001:000aa490       _AAS_AreaReachability      004ab490 f   botlib:be_aas_reach.obj
 0001:000aa4f0       _AAS_AreaGroundFaceArea    004ab4f0 f   botlib:be_aas_reach.obj
 0001:000aa5a0       _AAS_FaceCenter            004ab5a0 f   botlib:be_aas_reach.obj
 0001:000aa730       _AAS_FallDamageDistance    004ab730 f   botlib:be_aas_reach.obj
 0001:000aa790       _AAS_FallDelta             004ab790 f   botlib:be_aas_reach.obj
 0001:000aa800       _AAS_MaxJumpHeight         004ab800 f   botlib:be_aas_reach.obj
 0001:000aa850       _AAS_MaxJumpDistance       004ab850 f   botlib:be_aas_reach.obj
 0001:000aa8c0       _AAS_AreaCrouch            004ab8c0 f   botlib:be_aas_reach.obj
 0001:000aa900       _AAS_AreaSwim              004ab900 f   botlib:be_aas_reach.obj
 0001:000aa940       _AAS_AreaLiquid            004ab940 f   botlib:be_aas_reach.obj
 0001:000aa980       _AAS_AreaLava              004ab980 f   botlib:be_aas_reach.obj
 0001:000aa9c0       _AAS_AreaSlime             004ab9c0 f   botlib:be_aas_reach.obj
 0001:000aaa00       _AAS_AreaGrounded          004aba00 f   botlib:be_aas_reach.obj
 0001:000aaa40       _AAS_AreaLadder            004aba40 f   botlib:be_aas_reach.obj
 0001:000aaa80       _AAS_AreaJumpPad           004aba80 f   botlib:be_aas_reach.obj
 0001:000aaac0       _AAS_AreaTeleporter        004abac0 f   botlib:be_aas_reach.obj
 0001:000aab00       _AAS_AreaClusterPortal     004abb00 f   botlib:be_aas_reach.obj
 0001:000aab40       _AAS_AreaDoNotEnter        004abb40 f   botlib:be_aas_reach.obj
 0001:000aab80       _AAS_BarrierJumpTravelTime 004abb80 f   botlib:be_aas_reach.obj
 0001:000aabc0       _AAS_ReachabilityExists    004abbc0 f   botlib:be_aas_reach.obj
 0001:000aac20       _AAS_NearbySolidOrGap      004abc20 f   botlib:be_aas_reach.obj
 0001:000aad70       _AAS_Reachability_Swim     004abd70 f   botlib:be_aas_reach.obj
 0001:000ab080       _AAS_Reachability_EqualFloorHeight 004ac080 f   botlib:be_aas_reach.obj
 0001:000ab8b0       _AAS_Reachability_Step_Barrier_WaterJump_WalkOffLedge 004ac8b0 f   botlib:be_aas_reach.obj
 0001:000ad560       _VectorDistance            004ae560 f   botlib:be_aas_reach.obj
 0001:000ad5c0       _VectorBetweenVectors      004ae5c0 f   botlib:be_aas_reach.obj
 0001:000ad670       _VectorMiddle              004ae670 f   botlib:be_aas_reach.obj
 0001:000ad700       _AAS_ClosestEdgePoints     004ae700 f   botlib:be_aas_reach.obj
 0001:000ae5e0       _AAS_Reachability_Jump     004af5e0 f   botlib:be_aas_reach.obj
 0001:000af410       _AAS_Reachability_Ladder   004b0410 f   botlib:be_aas_reach.obj
 0001:000b0590       _AAS_TravelFlagsForTeam    004b1590 f   botlib:be_aas_reach.obj
 0001:000b0600       _AAS_Reachability_Teleport 004b1600 f   botlib:be_aas_reach.obj
 0001:000b0fb0       _AAS_Reachability_Elevator 004b1fb0 f   botlib:be_aas_reach.obj
 0001:000b1b80       _AAS_FindFaceReachabilities 004b2b80 f   botlib:be_aas_reach.obj
 0001:000b20e0       _AAS_Reachability_FuncBobbing 004b30e0 f   botlib:be_aas_reach.obj
 0001:000b2e50       _AAS_Reachability_JumpPad  004b3e50 f   botlib:be_aas_reach.obj
 0001:000b36f0       _AAS_Reachability_Grapple  004b46f0 f   botlib:be_aas_reach.obj
 0001:000b40f0       _AAS_SetWeaponJumpAreaFlags 004b50f0 f   botlib:be_aas_reach.obj
 0001:000b4440       _AAS_Reachability_WeaponJump 004b5440 f   botlib:be_aas_reach.obj
 0001:000b48c0       _AAS_Reachability_WalkOffLedge 004b58c0 f   botlib:be_aas_reach.obj
 0001:000b5130       _AAS_StoreReachability     004b6130 f   botlib:be_aas_reach.obj
 0001:000b52d0       _AAS_ContinueInitReachability 004b62d0 f   botlib:be_aas_reach.obj
 0001:000b58c0       _AAS_InitReachability      004b68c0 f   botlib:be_aas_reach.obj
 0001:000b5970       _AAS_Trace                 004b6970 f   botlib:be_aas_bspq3.obj
 0001:000b59e0       _AAS_PointContents         004b69e0 f   botlib:be_aas_bspq3.obj
 0001:000b5a20       _AAS_EntityCollision       004b6a20 f   botlib:be_aas_bspq3.obj
 0001:000b5ab0       _AAS_inPVS                 004b6ab0 f   botlib:be_aas_bspq3.obj
 0001:000b5b00       _AAS_inPHS                 004b6b00 f   botlib:be_aas_bspq3.obj
 0001:000b5b30       _AAS_BSPModelMinsMaxsOrigin 004b6b30 f   botlib:be_aas_bspq3.obj
 0001:000b5b80       _AAS_UnlinkFromBSPLeaves   004b6b80 f   botlib:be_aas_bspq3.obj
 0001:000b5ba0       _AAS_BSPLinkEntity         004b6ba0 f   botlib:be_aas_bspq3.obj
 0001:000b5bd0       _AAS_BoxEntities           004b6bd0 f   botlib:be_aas_bspq3.obj
 0001:000b5c00       _AAS_NextBSPEntity         004b6c00 f   botlib:be_aas_bspq3.obj
 0001:000b5c40       _AAS_BSPEntityInRange      004b6c40 f   botlib:be_aas_bspq3.obj
 0001:000b5ca0       _AAS_ValueForBSPEpairKey   004b6ca0 f   botlib:be_aas_bspq3.obj
 0001:000b5d50       _AAS_VectorForBSPEpairKey  004b6d50 f   botlib:be_aas_bspq3.obj
 0001:000b5e60       _AAS_FloatForBSPEpairKey   004b6e60 f   botlib:be_aas_bspq3.obj
 0001:000b5ee0       _AAS_IntForBSPEpairKey     004b6ee0 f   botlib:be_aas_bspq3.obj
 0001:000b5f60       _AAS_FreeBSPEntities       004b6f60 f   botlib:be_aas_bspq3.obj
 0001:000b6020       _AAS_ParseBSPEntities      004b7020 f   botlib:be_aas_bspq3.obj
 0001:000b6300       _AAS_BSPTraceLight         004b7300 f   botlib:be_aas_bspq3.obj
 0001:000b6330       _AAS_DumpBSPData           004b7330 f   botlib:be_aas_bspq3.obj
 0001:000b63b0       _AAS_LoadBSPFile           004b73b0 f   botlib:be_aas_bspq3.obj
 0001:000b6450       _GeneticSelection          004b7450 f   botlib:be_ai_gen.obj
 0001:000b65b0       _GeneticParentsAndChildSelection 004b75b0 f   botlib:be_ai_gen.obj
 0001:000b6840       _PS_CreatePunctuationTable 004b7840 f   botlib:l_script.obj
 0001:000b69a0       _PunctuationFromNum        004b79a0 f   botlib:l_script.obj
 0001:000b6a20       _ScriptError               004b7a20 f   botlib:l_script.obj
 0001:000b6ac0       _ScriptWarning             004b7ac0 f   botlib:l_script.obj
 0001:000b6b60       _SetScriptPunctuations     004b7b60 f   botlib:l_script.obj
 0001:000b6be0       _PS_ReadWhiteSpace         004b7be0 f   botlib:l_script.obj
 0001:000b6e30       _PS_ReadEscapeCharacter    004b7e30 f   botlib:l_script.obj
 0001:000b71a0       _PS_ReadString             004b81a0 f   botlib:l_script.obj
 0001:000b7440       _PS_ReadName               004b8440 f   botlib:l_script.obj
 0001:000b7550       _NumberValue               004b8550 f   botlib:l_script.obj
 0001:000b7820       _PS_ReadNumber             004b8820 f   botlib:l_script.obj
 0001:000b7d60       _PS_ReadLiteral            004b8d60 f   botlib:l_script.obj
 0001:000b7f20       _PS_ReadPunctuation        004b8f20 f   botlib:l_script.obj
 0001:000b8020       _PS_ReadPrimitive          004b9020 f   botlib:l_script.obj
 0001:000b8100       _PS_ReadToken              004b9100 f   botlib:l_script.obj
 0001:000b83f0       _PS_ExpectTokenString      004b93f0 f   botlib:l_script.obj
 0001:000b8490       _PS_ExpectTokenType        004b9490 f   botlib:l_script.obj
 0001:000b8770       _PS_ExpectAnyToken         004b9770 f   botlib:l_script.obj
 0001:000b87d0       _PS_CheckTokenString       004b97d0 f   botlib:l_script.obj
 0001:000b8850       _PS_CheckTokenType         004b9850 f   botlib:l_script.obj
 0001:000b88f0       _PS_SkipUntilString        004b98f0 f   botlib:l_script.obj
 0001:000b8960       _PS_UnreadLastToken        004b9960 f   botlib:l_script.obj
 0001:000b8990       _PS_UnreadToken            004b9990 f   botlib:l_script.obj
 0001:000b89f0       _PS_NextWhiteSpaceChar     004b99f0 f   botlib:l_script.obj
 0001:000b8a50       _StripDoubleQuotes         004b9a50 f   botlib:l_script.obj
 0001:000b8ad0       _StripSingleQuotes         004b9ad0 f   botlib:l_script.obj
 0001:000b8b50       _ReadSignedFloat           004b9b50 f   botlib:l_script.obj
 0001:000b8c20       _ReadSignedInt             004b9c20 f   botlib:l_script.obj
 0001:000b8ce0       _SetScriptFlags            004b9ce0 f   botlib:l_script.obj
 0001:000b8d10       _GetScriptFlags            004b9d10 f   botlib:l_script.obj
 0001:000b8d40       _ResetScript               004b9d40 f   botlib:l_script.obj
 0001:000b8df0       _EndOfScript               004b9df0 f   botlib:l_script.obj
 0001:000b8e30       _NumLinesCrossed           004b9e30 f   botlib:l_script.obj
 0001:000b8e70       _ScriptSkipTo              004b9e70 f   botlib:l_script.obj
 0001:000b8f20       _LoadScriptFile            004b9f20 f   botlib:l_script.obj
 0001:000b9100       _LoadScriptMemory          004ba100 f   botlib:l_script.obj
 0001:000b9220       _FreeScript                004ba220 f   botlib:l_script.obj
 0001:000b9280       _PS_SetBaseFolder          004ba280 f   botlib:l_script.obj
 0001:000b92c0       _FindField                 004ba2c0 f   botlib:l_struct.obj
 0001:000b9340       _ReadNumber                004ba340 f   botlib:l_struct.obj
 0001:000b9810       _ReadChar                  004ba810 f   botlib:l_struct.obj
 0001:000b98b0       _ReadString                004ba8b0 f   botlib:l_struct.obj
 0001:000b9940       _ReadStructure             004ba940 f   botlib:l_struct.obj
 0001:000b9ce0       _WriteIndent               004bace0 f   botlib:l_struct.obj
 0001:000b9d40       _WriteFloat                004bad40 f   botlib:l_struct.obj
 0001:000b9e30       _WriteStructWithIndent     004bae30 f   botlib:l_struct.obj
 0001:000ba150       _WriteStructure            004bb150 f   botlib:l_struct.obj
 0001:000ba190       _AAS_SwapAASData           004bb190 f   botlib:be_aas_file.obj
 0001:000baa90       _AAS_DumpAASData           004bba90 f   botlib:be_aas_file.obj
 0001:000bad50       _AAS_LoadAASLump           004bbd50 f   botlib:be_aas_file.obj
 0001:000bae50       _AAS_DData                 004bbe50 f   botlib:be_aas_file.obj
 0001:000baeb0       _AAS_LoadAASFile           004bbeb0 f   botlib:be_aas_file.obj
 0001:000bb630       _AAS_WriteAASLump          004bc630 f   botlib:be_aas_file.obj
 0001:000bb6c0       _AAS_WriteAASFile          004bc6c0 f   botlib:be_aas_file.obj
 0001:000bba80       _AAS_KeepEdge              004bca80 f   botlib:be_aas_optimize.obj
 0001:000bbab0       _AAS_OptimizeEdge          004bcab0 f   botlib:be_aas_optimize.obj
 0001:000bbca0       _AAS_KeepFace              004bcca0 f   botlib:be_aas_optimize.obj
 0001:000bbce0       _AAS_OptimizeFace          004bcce0 f   botlib:be_aas_optimize.obj
 0001:000bbe80       _AAS_OptimizeArea          004bce80 f   botlib:be_aas_optimize.obj
 0001:000bbf80       _AAS_OptimizeAlloc         004bcf80 f   botlib:be_aas_optimize.obj
 0001:000bc0c0       _AAS_OptimizeStore         004bd0c0 f   botlib:be_aas_optimize.obj
 0001:000bc230       _AAS_Optimize              004bd230 f   botlib:be_aas_optimize.obj
 0001:000bc410       _AAS_RemoveClusterAreas    004bd410 f   botlib:be_aas_cluster.obj
 0001:000bc470       _AAS_ClearCluster          004bd470 f   botlib:be_aas_cluster.obj
 0001:000bc4e0       _AAS_RemovePortalsClusterReference 004bd4e0 f   botlib:be_aas_cluster.obj
 0001:000bc570       _AAS_UpdatePortal          004bd570 f   botlib:be_aas_cluster.obj
 0001:000bc710       _AAS_FloodClusterAreas_r   004bd710 f   botlib:be_aas_cluster.obj
 0001:000bc990       _AAS_FloodClusterAreasUsingReachabilities 004bd990 f   botlib:be_aas_cluster.obj
 0001:000bcab0       _AAS_NumberClusterPortals  004bdab0 f   botlib:be_aas_cluster.obj
 0001:000bcb70       _AAS_NumberClusterAreas    004bdb70 f   botlib:be_aas_cluster.obj
 0001:000bce90       _AAS_FindClusters          004bde90 f   botlib:be_aas_cluster.obj
 0001:000bcfe0       _AAS_CreatePortals         004bdfe0 f   botlib:be_aas_cluster.obj
 0001:000bd0a0       _AAS_ConnectedAreas_r      004be0a0 f   botlib:be_aas_cluster.obj
 0001:000bd1e0       _AAS_ConnectedAreas        004be1e0 f   botlib:be_aas_cluster.obj
 0001:000bd2a0       _AAS_GetAdjacentAreasWithLessPresenceTypes_r 004be2a0 f   botlib:be_aas_cluster.obj
 0001:000bd420       _AAS_CheckAreaForPossiblePortals 004be420 f   botlib:be_aas_cluster.obj
 0001:000bdaa0       _AAS_FindPossiblePortals   004beaa0 f   botlib:be_aas_cluster.obj
 0001:000bdb20       _AAS_RemoveAllPortals      004beb20 f   botlib:be_aas_cluster.obj
 0001:000bdb80       _AAS_TestPortals           004beb80 f   botlib:be_aas_cluster.obj
 0001:000bdc70       _AAS_CountForcedClusterPortals 004bec70 f   botlib:be_aas_cluster.obj
 0001:000bdd10       _AAS_CreateViewPortals     004bed10 f   botlib:be_aas_cluster.obj
 0001:000bdd90       _AAS_SetViewPortalsAsClusterPortals 004bed90 f   botlib:be_aas_cluster.obj
 0001:000bde10       _AAS_InitClustering        004bee10 f   botlib:be_aas_cluster.obj
 0001:000be140       _CRC_Init                  004bf140 f   botlib:l_crc.obj
 0001:000be170       _CRC_ProcessByte           004bf170 f   botlib:l_crc.obj
 0001:000be1d0       _CRC_Value                 004bf1d0 f   botlib:l_crc.obj
 0001:000be200       _CRC_ProcessString         004bf200 f   botlib:l_crc.obj
 0001:000be2b0       _CRC_ContinueProcessString 004bf2b0 f   botlib:l_crc.obj
 0001:000be320       _GL_CheckErrors            004bf320 f   renderer:tr_init.obj
 0001:000be460       _R_GetModeInfo             004bf460 f   renderer:tr_init.obj
 0001:000be520       _RB_TakeScreenshot         004bf520 f   renderer:tr_init.obj
 0001:000be6b0       _RB_TakeScreenshotJPEG     004bf6b0 f   renderer:tr_init.obj
 0001:000be7b0       _RB_TakeScreenshotCmd      004bf7b0 f   renderer:tr_init.obj
 0001:000be850       _R_TakeScreenshot          004bf850 f   renderer:tr_init.obj
 0001:000be8f0       _R_ScreenshotFilename      004bf8f0 f   renderer:tr_init.obj
 0001:000be9d0       _R_ScreenshotFilenameJPEG  004bf9d0 f   renderer:tr_init.obj
 0001:000beab0       _R_LevelShot               004bfab0 f   renderer:tr_init.obj
 0001:000bee70       _R_ScreenShot_f            004bfe70 f   renderer:tr_init.obj
 0001:000bf050       _R_ScreenShotJPEG_f        004c0050 f   renderer:tr_init.obj
 0001:000bf230       _GL_SetDefaultState        004c0230 f   renderer:tr_init.obj
 0001:000bf3f0       _R_Register                004c03f0 f   renderer:tr_init.obj
 0001:000c0990       _R_Init                    004c1990 f   renderer:tr_init.obj
 0001:000c0de0       _RE_Shutdown               004c1de0 f   renderer:tr_init.obj
 0001:000c0f30       _RE_EndRegistration        004c1f30 f   renderer:tr_init.obj
 0001:000c0f70       _GetRefAPI                 004c1f70 f   renderer:tr_init.obj
 0001:000c1110       _R_CullLocalBox            004c2110 f   renderer:tr_main.obj
 0001:000c1430       _R_CullLocalPointAndRadius 004c2430 f   renderer:tr_main.obj
 0001:000c1480       _R_CullPointAndRadius      004c2480 f   renderer:tr_main.obj
 0001:000c1550       _R_LocalNormalToWorld      004c2550 f   renderer:tr_main.obj
 0001:000c1600       _R_LocalPointToWorld       004c2600 f   renderer:tr_main.obj
 0001:000c16c0       _R_WorldToLocal            004c26c0 f   renderer:tr_main.obj
 0001:000c1770       _R_TransformModelToClip    004c2770 f   renderer:tr_main.obj
 0001:000c1860       _R_TransformClipToWindow   004c2860 f   renderer:tr_main.obj
 0001:000c1950       _myGlMultMatrix            004c2950 f   renderer:tr_main.obj
 0001:000c1a20       _R_RotateForEntity         004c2a20 f   renderer:tr_main.obj
 0001:000c1cf0       _R_RotateForViewer         004c2cf0 f   renderer:tr_main.obj
 0001:000c1e80       _R_SetupProjection         004c2e80 f   renderer:tr_main.obj
 0001:000c2140       _R_SetupFrustum            004c3140 f   renderer:tr_main.obj
 0001:000c2430       _R_MirrorPoint             004c3430 f   renderer:tr_main.obj
 0001:000c2550       _R_MirrorVector            004c3550 f   renderer:tr_main.obj
 0001:000c2640       _R_PlaneForSurface         004c3640 f   renderer:tr_main.obj
 0001:000c27c0       _R_GetPortalOrientations   004c37c0 f   renderer:tr_main.obj
 0001:000c2de0       _R_MirrorViewBySurface     004c3de0 f   renderer:tr_main.obj
 0001:000c3520       _R_SpriteFogNum            004c4520 f   renderer:tr_main.obj
 0001:000c3610       _qsortFast                 004c4610 f   renderer:tr_main.obj
 0001:000c39a0       _R_AddDrawSurf             004c49a0 f   renderer:tr_main.obj
 0001:000c3a10       _R_DecomposeSort           004c4a10 f   renderer:tr_main.obj
 0001:000c3a80       _R_SortDrawSurfs           004c4a80 f   renderer:tr_main.obj
 0001:000c3bb0       _R_AddEntitySurfaces       004c4bb0 f   renderer:tr_main.obj
 0001:000c3e30       _R_GenerateDrawSurfs       004c4e30 f   renderer:tr_main.obj
 0001:000c3e70       _R_DebugPolygon            004c4e70 f   renderer:tr_main.obj
 0001:000c4000       _R_DebugGraphics           004c5000 f   renderer:tr_main.obj
 0001:000c4070       _R_RenderView              004c5070 f   renderer:tr_main.obj
 0001:000c4130       _QGL_Shutdown              004c5130 f   renderer:win_qgl.obj
 0001:000c4fb0       _QGL_Init                  004c5fb0 f   renderer:win_qgl.obj
 0001:000c8cb0       _QGL_EnableLogging         004c9cb0 f   renderer:win_qgl.obj
 0001:000d32e0       _R_GammaCorrect            004d42e0 f   renderer:tr_image.obj
 0001:000d3340       _GL_TextureMode            004d4340 f   renderer:tr_image.obj
 0001:000d34a0       _R_SumOfUsedImages         004d44a0 f   renderer:tr_image.obj
 0001:000d3520       _R_ImageList_f             004d4520 f   renderer:tr_image.obj
 0001:000d3890       _R_LightScaleTexture       004d4890 f   renderer:tr_image.obj
 0001:000d3a30       _R_CreateImage             004d4a30 f   renderer:tr_image.obj
 0001:000d4d50       _init_destination          004d5d50 f   renderer:tr_image.obj
 0001:000d4d90       _empty_output_buffer       004d5d90 f   renderer:tr_image.obj
 0001:000d4dc0       _jpeg_start_compress       004d5dc0 f   renderer:tr_image.obj
 0001:000d4ec0       _jpeg_write_scanlines      004d5ec0 f   renderer:tr_image.obj
 0001:000d5040       _term_destination          004d6040 f   renderer:tr_image.obj
 0001:000d5080       _jpegDest                  004d6080 f   renderer:tr_image.obj
 0001:000d5110       _SaveJPG                   004d6110 f   renderer:tr_image.obj
 0001:000d52c0       _R_LoadImage               004d62c0 f   renderer:tr_image.obj
 0001:000d6940       _R_FindImageFile           004d7940 f   renderer:tr_image.obj
 0001:000d6b70       _R_InitFogTable            004d7b70 f   renderer:tr_image.obj
 0001:000d6bf0       _R_FogFactor               004d7bf0 f   renderer:tr_image.obj
 0001:000d6cb0       _R_CreateBuiltinImages     004d7cb0 f   renderer:tr_image.obj
 0001:000d7290       _R_SetColorMappings        004d8290 f   renderer:tr_image.obj
 0001:000d7520       _R_InitImages              004d8520 f   renderer:tr_image.obj
 0001:000d7570       _R_DeleteTextures          004d8570 f   renderer:tr_image.obj
 0001:000d7670       _RE_RegisterSkin           004d8670 f   renderer:tr_image.obj
 0001:000d7bd0       _R_InitSkins               004d8bd0 f   renderer:tr_image.obj
 0001:000d7ca0       _R_GetSkinByHandle         004d8ca0 f   renderer:tr_image.obj
 0001:000d7cf0       _R_SkinList_f              004d8cf0 f   renderer:tr_image.obj
 0001:000d7df0       _R_PerformanceCounters     004d8df0 f   renderer:tr_cmds.obj
 0001:000d8090       _R_InitCommandBuffers      004d9090 f   renderer:tr_cmds.obj
 0001:000d8140       _R_ShutdownCommandBuffers  004d9140 f   renderer:tr_cmds.obj
 0001:000d8190       _R_IssueRenderCommands     004d9190 f   renderer:tr_cmds.obj
 0001:000d82d0       _R_SyncRenderThread        004d92d0 f   renderer:tr_cmds.obj
 0001:000d8320       _R_GetCommandBuffer        004d9320 f   renderer:tr_cmds.obj
 0001:000d83d0       _R_AddDrawSurfCmd          004d93d0 f   renderer:tr_cmds.obj
 0001:000d8460       _RE_SetColor               004d9460 f   renderer:tr_cmds.obj
 0001:000d84f0       _RE_StretchPic             004d94f0 f   renderer:tr_cmds.obj
 0001:000d85a0       _RE_BeginFrame             004d95a0 f   renderer:tr_cmds.obj
 0001:000d88c0       _RE_EndFrame               004d98c0 f   renderer:tr_cmds.obj
 0001:000d8960       _GL_Bind                   004d9960 f   renderer:tr_backend.obj
 0001:000d8a30       _GL_SelectTexture          004d9a30 f   renderer:tr_backend.obj
 0001:000d8b30       _GL_BindMultitexture       004d9b30 f   renderer:tr_backend.obj
 0001:000d8c20       _GL_Cull                   004d9c20 f   renderer:tr_backend.obj
 0001:000d8d10       _GL_TexEnv                 004d9d10 f   renderer:tr_backend.obj
 0001:000d8e40       _GL_State                  004d9e40 f   renderer:tr_backend.obj
 0001:000d9300       _RB_BeginDrawingView       004da300 f   renderer:tr_backend.obj
 0001:000d96a0       _RB_RenderDrawSurfList     004da6a0 f   renderer:tr_backend.obj
 0001:000d99f0       _RB_SetGL2D                004da9f0 f   renderer:tr_backend.obj
 0001:000d9b40       _RE_StretchRaw             004dab40 f   renderer:tr_backend.obj
 0001:000d9f70       _RE_UploadCinematic        004daf70 f   renderer:tr_backend.obj
 0001:000da100       _RB_SetColor               004db100 f   renderer:tr_backend.obj
 0001:000da190       _RB_StretchPic             004db190 f   renderer:tr_backend.obj
 0001:000da4b0       _RB_DrawSurfs              004db4b0 f   renderer:tr_backend.obj
 0001:000da540       _RB_DrawBuffer             004db540 f   renderer:tr_backend.obj
 0001:000da5d0       _RB_ShowImages             004db5d0 f   renderer:tr_backend.obj
 0001:000da840       _RB_SwapBuffers            004db840 f   renderer:tr_backend.obj
 0001:000da990       _RB_ExecuteRenderCommands  004db990 f   renderer:tr_backend.obj
 0001:000daad0       _RB_RenderThread           004dbad0 f   renderer:tr_backend.obj
 0001:000dab40       _R_GetModelByHandle        004dbb40 f   renderer:tr_model.obj
 0001:000dab90       _R_AllocModel              004dbb90 f   renderer:tr_model.obj
 0001:000dac30       _RE_RegisterModel          004dbc30 f   renderer:tr_model.obj
 0001:000dbb80       _RE_BeginRegistration      004dcb80 f   renderer:tr_model.obj
 0001:000dbc00       _R_ModelInit               004dcc00 f   renderer:tr_model.obj
 0001:000dbc50       _R_Modellist_f             004dcc50 f   renderer:tr_model.obj
 0001:000dbd60       _R_LerpTag                 004dcd60 f   renderer:tr_model.obj
 0001:000dbff0       _R_ModelBounds             004dcff0 f   renderer:tr_model.obj
 0001:000dc130       _R_RemapShader             004dd130 f   renderer:tr_shader.obj
 0001:000dc3c0       _ParseSort                 004dd3c0 f   renderer:tr_shader.obj
 0001:000dc580       _R_FindShaderByName        004dd580 f   renderer:tr_shader.obj
 0001:000dc630       _R_FindShader              004dd630 f   renderer:tr_shader.obj
 0001:000e0700       _RE_RegisterShaderFromImage 004e1700 f   renderer:tr_shader.obj
 0001:000e09d0       _RE_RegisterShaderLightMap 004e19d0 f   renderer:tr_shader.obj
 0001:000e0a50       _RE_RegisterShader         004e1a50 f   renderer:tr_shader.obj
 0001:000e0ad0       _RE_RegisterShaderNoMip    004e1ad0 f   renderer:tr_shader.obj
 0001:000e0b50       _R_GetShaderByHandle       004e1b50 f   renderer:tr_shader.obj
 0001:000e0be0       _R_ShaderList_f            004e1be0 f   renderer:tr_shader.obj
 0001:000e0f00       _R_InitShaders             004e1f00 f   renderer:tr_shader.obj
 0001:000e1640       _readInt                   004e2640 f   renderer:tr_font.obj
 0001:000e16d0       _readFloat                 004e26d0 f   renderer:tr_font.obj
 0001:000e1750       _RE_RegisterFont           004e2750 f   renderer:tr_font.obj
 0001:000e1ae0       _R_InitFreeType            004e2ae0 f   renderer:tr_font.obj
 0001:000e1b10       _R_DoneFreeType            004e2b10 f   renderer:tr_font.obj
 0001:000e1b40       _R_ToggleSmpFrame          004e2b40 f   renderer:tr_scene.obj
 0001:000e1bf0       _RE_ClearScene             004e2bf0 f   renderer:tr_scene.obj
 0001:000e1c40       _R_AddPolygonSurfaces      004e2c40 f   renderer:tr_scene.obj
 0001:000e1ce0       _RE_AddPolyToScene         004e2ce0 f   renderer:tr_scene.obj
 0001:000e1ff0       _RE_AddRefEntityToScene    004e2ff0 f   renderer:tr_scene.obj
 0001:000e20d0       _RE_AddDynamicLightToScene 004e30d0 f   renderer:tr_scene.obj
 0001:000e21c0       _RE_AddLightToScene        004e31c0 f   renderer:tr_scene.obj
 0001:000e2210       _RE_AddAdditiveLightToScene 004e3210 f   renderer:tr_scene.obj
 0001:000e2260       _RE_RenderScene            004e3260 f   renderer:tr_scene.obj
 0001:000e2740       _R_NoiseInit               004e3740 f   renderer:tr_noise.obj
 0001:000e27f0       _R_NoiseGet4f              004e37f0 f   renderer:tr_noise.obj
 0001:000e2b00       _RB_BeginSurface           004e3b00 f   renderer:tr_shade.obj
 0001:000e2c00       _RB_StageIteratorGeneric   004e3c00 f   renderer:tr_shade.obj
 0001:000e49d0       _RB_StageIteratorVertexLitTexture 004e59d0 f   renderer:tr_shade.obj
 0001:000e4bc0       _RB_StageIteratorLightmappedMultitexture 004e5bc0 f   renderer:tr_shade.obj
 0001:000e4e50       _RB_EndSurface             004e5e50 f   renderer:tr_shade.obj
 0001:000e52a0       _GLimp_EndFrame            004e62a0 f   renderer:win_glimp.obj
 0001:000e5390       _GLimp_Init                004e6390 f   renderer:win_glimp.obj
 0001:000e7b00       _GLimp_Shutdown            004e8b00 f   renderer:win_glimp.obj
 0001:000e7d50       _GLimp_LogComment          004e8d50 f   renderer:win_glimp.obj
 0001:000e7da0       _GLimp_RenderThreadWrapper 004e8da0 f   renderer:win_glimp.obj
 0001:000e7df0       _GLimp_SpawnRenderThread   004e8df0 f   renderer:win_glimp.obj
 0001:000e7eb0       _GLimp_RendererSleep       004e8eb0 f   renderer:win_glimp.obj
 0001:000e7fd0       _GLimp_FrontEndSleep       004e8fd0 f   renderer:win_glimp.obj
 0001:000e8040       _GLimp_WakeRenderer        004e9040 f   renderer:win_glimp.obj
 0001:000e80d0       _R_AddBrushModelSurfaces   004e90d0 f   renderer:tr_world.obj
 0001:000e87f0       _R_inPVS                   004e97f0 f   renderer:tr_world.obj
 0001:000e8950       _R_AddWorldSurfaces        004e9950 f   renderer:tr_world.obj
 0001:000e9060       _RE_SetWorldVisData        004ea060 f   renderer:tr_bsp.obj
 0001:000e9090       _R_MergedWidthPoints       004ea090 f   renderer:tr_bsp.obj
 0001:000e91d0       _R_MergedHeightPoints      004ea1d0 f   renderer:tr_bsp.obj
 0001:000e9340       _R_FixSharedVertexLodError_r 004ea340 f   renderer:tr_bsp.obj
 0001:000e9af0       _R_FixSharedVertexLodError 004eaaf0 f   renderer:tr_bsp.obj
 0001:000e9b80       _R_StitchPatches           004eab80 f   renderer:tr_bsp.obj
 0001:000eb5e0       _R_TryStitchingPatch       004ec5e0 f   renderer:tr_bsp.obj
 0001:000eb6e0       _R_StitchAllPatches        004ec6e0 f   renderer:tr_bsp.obj
 0001:000eb7b0       _R_MovePatchSurfacesToHunk 004ec7b0 f   renderer:tr_bsp.obj
 0001:000eb950       _R_LoadLightGrid           004ec950 f   renderer:tr_bsp.obj
 0001:000ebcf0       _R_LoadEntities            004eccf0 f   renderer:tr_bsp.obj
 0001:000ec030       _R_GetEntityToken          004ed030 f   renderer:tr_bsp.obj
 0001:000ec0b0       _RE_LoadWorldMap           004ed0b0 f   renderer:tr_bsp.obj
 0001:000ee5c0       _R_TransformDlights        004ef5c0 f   renderer:tr_light.obj
 0001:000ee6b0       _R_DlightBmodel            004ef6b0 f   renderer:tr_light.obj
 0001:000ee860       _R_SetupEntityLighting     004ef860 f   renderer:tr_light.obj
 0001:000ef430       _R_LightForPoint           004f0430 f   renderer:tr_light.obj
 0001:000ef510       _R_BoxSurfaces_r           004f0510 f   renderer:tr_marks.obj
 0001:000ef710       _R_AddMarkFragments        004f0710 f   renderer:tr_marks.obj
 0001:000efc50       _R_MarkFragments           004f0c50 f   renderer:tr_marks.obj
 0001:000f0b90       _RB_CheckOverflow          004f1b90 f   renderer:tr_surface.obj
 0001:000f0c50       _RB_AddQuadStampExt        004f1c50 f   renderer:tr_surface.obj
 0001:000f1110       _RB_AddQuadStamp           004f2110 f   renderer:tr_surface.obj
 0001:000f1160       _RB_SurfacePolychain       004f2160 f   renderer:tr_surface.obj
 0001:000f1330       _RB_SurfaceTriangles       004f2330 f   renderer:tr_surface.obj
 0001:000f15d0       _RB_SurfaceBeam            004f25d0 f   renderer:tr_surface.obj
 0001:000f1840       _RB_SurfaceRailRings       004f2840 f   renderer:tr_surface.obj
 0001:000f1d90       _RB_SurfaceRailCore        004f2d90 f   renderer:tr_surface.obj
 0001:000f23c0       _RB_SurfaceLightningBolt   004f33c0 f   renderer:tr_surface.obj
 0001:000f2550       _RB_SurfaceMesh            004f3550 f   renderer:tr_surface.obj
 0001:000f2c00       _RB_SurfaceFace            004f3c00 f   renderer:tr_surface.obj
 0001:000f2e80       _RB_SurfaceGrid            004f3e80 f   renderer:tr_surface.obj
 0001:000f3560       _RB_SurfaceAxis            004f4560 f   renderer:tr_surface.obj
 0001:000f36b0       _RB_SurfaceEntity          004f46b0 f   renderer:tr_surface.obj
 0001:000f3940       _RB_SurfaceBad             004f4940 f   renderer:tr_surface.obj
 0001:000f3990       _RB_SurfaceFlare           004f4990 f   renderer:tr_surface.obj
 0001:000f39b0       _RB_SurfaceDisplayList     004f49b0 f   renderer:tr_surface.obj
 0001:000f39f0       _RB_SurfaceSkip            004f49f0 f   renderer:tr_surface.obj
 0001:000f3a10       _R_AddAnimSurfaces         004f4a10 f   renderer:tr_animation.obj
 0001:000f3ac0       _RB_SurfaceAnim            004f4ac0 f   renderer:tr_animation.obj
 0001:000f4040       _R_ComputeLOD              004f5040 f   renderer:tr_mesh.obj
 0001:000f4320       _R_ComputeFogNum           004f5320 f   renderer:tr_mesh.obj
 0001:000f4440       _R_AddMD3Surfaces          004f5440 f   renderer:tr_mesh.obj
 0001:000f4aa0       _jinit_compress_master     004f5aa0 f   renderer:jcinit.obj
 0001:000f4c00       _jpeg_create_compress      004f5c00 f   renderer:jcapimin.obj
 0001:000f4d00       _jpeg_destroy_compress     004f5d00 f   renderer:jcapimin.obj
 0001:000f4d40       _jpeg_abort_compress       004f5d40 f   renderer:jcapimin.obj
 0001:000f4d80       _jpeg_suppress_tables      004f5d80 f   renderer:jcapimin.obj
 0001:000f4e30       _jpeg_finish_compress      004f5e30 f   renderer:jcapimin.obj
 0001:000f5040       _jpeg_write_marker         004f6040 f   renderer:jcapimin.obj
 0001:000f50f0       _jpeg_write_tables         004f60f0 f   renderer:jcapimin.obj
 0001:000f51e0       _jpeg_add_quant_table      004f61e0 f   renderer:jcparam.obj
 0001:000f5300       _jpeg_set_linear_quality   004f6300 f   renderer:jcparam.obj
 0001:000f5360       _jpeg_quality_scaling      004f6360 f   renderer:jcparam.obj
 0001:000f53c0       _jpeg_set_quality          004f63c0 f   renderer:jcparam.obj
 0001:000f5410       _jpeg_set_defaults         004f6410 f   renderer:jcparam.obj
 0001:000f56e0       _jpeg_default_colorspace   004f66e0 f   renderer:jcparam.obj
 0001:000f57c0       _jpeg_set_colorspace       004f67c0 f   renderer:jcparam.obj
 0001:000f5e10       _jpeg_simple_progression   004f6e10 f   renderer:jcparam.obj
 0001:000f6250       _jpeg_std_error            004f7250 f   renderer:jerror.obj
 0001:000f6640       _jpeg_create_decompress    004f7640 f   renderer:jdapimin.obj
 0001:000f6740       _jpeg_destroy_decompress   004f7740 f   renderer:jdapimin.obj
 0001:000f6780       _jpeg_abort_decompress     004f7780 f   renderer:jdapimin.obj
 0001:000f67c0       _jpeg_set_marker_processor 004f77c0 f   renderer:jdapimin.obj
 0001:000f6860       _jpeg_read_header          004f7860 f   renderer:jdapimin.obj
 0001:000f6950       _jpeg_consume_input        004f7950 f   renderer:jdapimin.obj
 0001:000f6dd0       _jpeg_input_complete       004f7dd0 f   renderer:jdapimin.obj
 0001:000f6e50       _jpeg_has_multiple_scans   004f7e50 f   renderer:jdapimin.obj
 0001:000f6ed0       _jpeg_finish_decompress    004f7ed0 f   renderer:jdapimin.obj
 0001:000f7030       _jpeg_start_decompress     004f8030 f   renderer:jdapistd.obj
 0001:000f7200       _jpeg_read_scanlines       004f8200 f   renderer:jdapistd.obj
 0001:000f7330       _jpeg_read_raw_data        004f8330 f   renderer:jdapistd.obj
 0001:000f7490       _jpeg_stdio_src            004f8490 f   renderer:jdatasrc.obj
 0001:000f76c0       _WG_CheckHardwareGamma     004f86c0 f   renderer:win_gamma.obj
 0001:000f7940       _GLimp_SetGamma            004f8940 f   renderer:win_gamma.obj
 0001:000f7cb0       _WG_RestoreGamma           004f8cb0 f   renderer:win_gamma.obj
 0001:000f7d70       _R_ClearFlares             004f8d70 f   renderer:tr_flares.obj
 0001:000f7e00       _RB_AddFlare               004f8e00 f   renderer:tr_flares.obj
 0001:000f8170       _RB_AddDlightFlares        004f9170 f   renderer:tr_flares.obj
 0001:000f82c0       _RB_TestFlare              004f92c0 f   renderer:tr_flares.obj
 0001:000f8460       _RB_RenderFlare            004f9460 f   renderer:tr_flares.obj
 0001:000f8890       _RB_RenderFlares           004f9890 f   renderer:tr_flares.obj
 0001:000f8b00       _R_AddEdgeDef              004f9b00 f   renderer:tr_shadows.obj
 0001:000f8b80       _R_RenderShadowEdges       004f9b80 f   renderer:tr_shadows.obj
 0001:000f8d70       _RB_ShadowTessEnd          004f9d70 f   renderer:tr_shadows.obj
 0001:000f9240       _RB_ShadowFinish           004fa240 f   renderer:tr_shadows.obj
 0001:000f9400       _RB_ProjectionShadowDeform 004fa400 f   renderer:tr_shadows.obj
 0001:000f95b0       _RB_ClipSkyPolygons        004fa5b0 f   renderer:tr_sky.obj
 0001:000f9f30       _R_BuildCloudData          004faf30 f   renderer:tr_sky.obj
 0001:000fa800       _R_InitSkyTexCoords        004fb800 f   renderer:tr_sky.obj
 0001:000faa50       _RB_DrawSun                004fba50 f   renderer:tr_sky.obj
 0001:000fb060       _RB_StageIteratorSky       004fc060 f   renderer:tr_sky.obj
 0001:000fb600       _RB_CalcStretchTexCoords   004fc600 f   renderer:tr_shade_calc.obj
 0001:000fb7d0       _RB_CalcDeformVertexes     004fc7d0 f   renderer:tr_shade_calc.obj
 0001:000fb9b0       _RB_CalcDeformNormals      004fc9b0 f   renderer:tr_shade_calc.obj
 0001:000fbbe0       _RB_CalcBulgeVertexes      004fcbe0 f   renderer:tr_shade_calc.obj
 0001:000fbce0       _RB_CalcMoveVertexes       004fcce0 f   renderer:tr_shade_calc.obj
 0001:000fbde0       _DeformText                004fcde0 f   renderer:tr_shade_calc.obj
 0001:000fc140       _RB_DeformTessGeometry     004fd140 f   renderer:tr_shade_calc.obj
 0001:000fcb30       _RB_CalcColorFromEntity    004fdb30 f   renderer:tr_shade_calc.obj
 0001:000fcba0       _RB_CalcColorFromOneMinusEntity 004fdba0 f   renderer:tr_shade_calc.obj
 0001:000fcc60       _RB_CalcAlphaFromEntity    004fdc60 f   renderer:tr_shade_calc.obj
 0001:000fccd0       _RB_CalcAlphaFromOneMinusEntity 004fdcd0 f   renderer:tr_shade_calc.obj
 0001:000fcd50       _RB_CalcWaveColor          004fdd50 f   renderer:tr_shade_calc.obj
 0001:000fce70       _RB_CalcWaveAlpha          004fde70 f   renderer:tr_shade_calc.obj
 0001:000fcf60       _RB_CalcModulateColorsByFog 004fdf60 f   renderer:tr_shade_calc.obj
 0001:000fd070       _RB_CalcModulateAlphasByFog 004fe070 f   renderer:tr_shade_calc.obj
 0001:000fd130       _RB_CalcModulateRGBAsByFog 004fe130 f   renderer:tr_shade_calc.obj
 0001:000fd260       _RB_CalcFogTexCoords       004fe260 f   renderer:tr_shade_calc.obj
 0001:000fd550       _RB_CalcEnvironmentTexCoords 004fe550 f   renderer:tr_shade_calc.obj
 0001:000fd680       _RB_CalcTurbulentTexCoords 004fe680 f   renderer:tr_shade_calc.obj
 0001:000fd790       _RB_CalcScaleTexCoords     004fe790 f   renderer:tr_shade_calc.obj
 0001:000fd800       _RB_CalcScrollTexCoords    004fe800 f   renderer:tr_shade_calc.obj
 0001:000fd8d0       _RB_CalcTransformTexCoords 004fe8d0 f   renderer:tr_shade_calc.obj
 0001:000fd970       _RB_CalcRotateTexCoords    004fe970 f   renderer:tr_shade_calc.obj
 0001:000fda60       _myftol                    004fea60 f   renderer:tr_shade_calc.obj
 0001:000fdaa0       _RB_CalcSpecularAlpha      004feaa0 f   renderer:tr_shade_calc.obj
 0001:000fdc80       _RB_CalcDiffuseColor       004fec80 f   renderer:tr_shade_calc.obj
 0001:000fde70       _R_CreateSurfaceGridMesh   004fee70 f   renderer:tr_curve.obj
 0001:000fe150       _R_FreeSurfaceGridMesh     004ff150 f   renderer:tr_curve.obj
 0001:000fe1d0       _R_SubdividePatchToGrid    004ff1d0 f   renderer:tr_curve.obj
 0001:000ff800       _R_GridInsertColumn        00500800 f   renderer:tr_curve.obj
 0001:000ffae0       _R_GridInsertRow           00500ae0 f   renderer:tr_curve.obj
 0001:000ffdb0       _jinit_marker_writer       00500db0 f   renderer:jcmarker.obj
 0001:00100d30       _jinit_c_main_controller   00501d30 f   renderer:jcmainct.obj
 0001:00101020       _jinit_c_coef_controller   00502020 f   renderer:jccoefct.obj
 0001:00101b70       _jpeg_make_c_derived_tbl   00502b70 f   renderer:jchuff.obj
 0001:00101d30       _jpeg_gen_optimal_table    00502d30 f   renderer:jchuff.obj
 0001:00102240       _jinit_huff_encoder        00503240 f   renderer:jchuff.obj
 0001:001031a0       _jinit_phuff_encoder       005041a0 f   renderer:jcphuff.obj
 0001:00104590       _jinit_forward_dct         00505590 f   renderer:jcdctmgr.obj
 0001:00104bd0       _jinit_c_prep_controller   00505bd0 f   renderer:jcprepct.obj
 0001:00105500       _jinit_downsampler         00506500 f   renderer:jcsample.obj
 0001:00106360       _jinit_color_converter     00507360 f   renderer:jccolor.obj
 0001:00106ee0       _jinit_c_master_control    00507ee0 f   renderer:jcmaster.obj
 0001:00108320       _jinit_memory_mgr          00509320 f   renderer:jmemmgr.obj
 0001:001099f0       _jpeg_abort                0050a9f0 f   renderer:jcomapi.obj
 0001:00109a70       _jpeg_destroy              0050aa70 f   renderer:jcomapi.obj
 0001:00109ad0       _jpeg_alloc_quant_table    0050aad0 f   renderer:jcomapi.obj
 0001:00109b30       _jpeg_alloc_huff_table     0050ab30 f   renderer:jcomapi.obj
 0001:00109b90       _jinit_input_controller    0050ab90 f   renderer:jdinput.obj
 0001:0010a620       _jpeg_resync_to_restart    0050b620 f   renderer:jdmarker.obj
 0001:0010aa40       _jinit_marker_reader       0050ba40 f   renderer:jdmarker.obj
 0001:0010db70       _jpeg_calc_output_dimensions 0050eb70 f   renderer:jdmaster.obj
 0001:0010dcf0       _jinit_master_decompress   0050ecf0 f   renderer:jdmaster.obj
 0001:0010e4d0       _jdiv_round_up             0050f4d0 f   renderer:jutils.obj
 0001:0010e500       _jround_up                 0050f500 f   renderer:jutils.obj
 0001:0010e540       _jcopy_sample_rows         0050f540 f   renderer:jutils.obj
 0001:0010e5e0       _jcopy_block_row           0050f5e0 f   renderer:jutils.obj
 0001:0010e620       _jzero_far                 0050f620 f   renderer:jutils.obj
 0001:0010e660       _jpeg_fdct_float           0050f660 f   renderer:jfdctflt.obj
 0001:0010e9e0       _jpeg_get_small            0050f9e0 f   renderer:jmemnobs.obj
 0001:0010ea20       _jpeg_free_small           0050fa20 f   renderer:jmemnobs.obj
 0001:0010ea60       _jpeg_get_large            0050fa60 f   renderer:jmemnobs.obj
 0001:0010eaa0       _jpeg_free_large           0050faa0 f   renderer:jmemnobs.obj
 0001:0010eae0       _jpeg_mem_available        0050fae0 f   renderer:jmemnobs.obj
 0001:0010eb10       _jpeg_open_backing_store   0050fb10 f   renderer:jmemnobs.obj
 0001:0010eb60       _jpeg_mem_init             0050fb60 f   renderer:jmemnobs.obj
 0001:0010eb90       _jpeg_mem_term             0050fb90 f   renderer:jmemnobs.obj
 0001:0010ebb0       _jinit_d_main_controller   0050fbb0 f   renderer:jdmainct.obj
 0001:0010f660       _jinit_d_coef_controller   00510660 f   renderer:jdcoefct.obj
 0001:0010fbc0       _jpeg_make_d_derived_tbl   00510bc0 f   renderer:jdhuff.obj
 0001:0010fe90       _jpeg_fill_bit_buffer      00510e90 f   renderer:jdhuff.obj
 0001:00110090       _jpeg_huff_decode          00511090 f   renderer:jdhuff.obj
 0001:00110220       _jinit_huff_decoder        00511220 f   renderer:jdhuff.obj
 0001:00110c10       _jinit_inverse_dct         00511c10 f   renderer:jddctmgr.obj
 0001:00110f00       _jinit_d_post_controller   00511f00 f   renderer:jdpostct.obj
 0001:001111c0       _jinit_upsampler           005121c0 f   renderer:jdsample.obj
 0001:00111d80       _jinit_color_deconverter   00512d80 f   renderer:jdcolor.obj
 0001:00112680       _jpeg_idct_float           00513680 f   renderer:jidctflt.obj
 0001:00112c70       __chkesp                   00513c70 f   LIBCMTD:chkesp.obj
 0001:00112cb0       __fpmath                   00513cb0 f   LIBCMTD:fpinit.obj
 0001:00112ce0       __fpclear                  00513ce0 f   LIBCMTD:fpinit.obj
 0001:00112cf0       __cfltcvt_init             00513cf0 f   LIBCMTD:fpinit.obj
 0001:00112d40       ___setfflag                00513d40 f   LIBCMTD:fpinit.obj
 0001:00112d60       _strlen                    00513d60 f   LIBCMTD:strlen.obj
 0001:00112de0       _strcmp                    00513de0 f   LIBCMTD:strcmp.obj
 0001:00112e70       _atol                      00513e70 f   LIBCMTD:atox.obj
 0001:00112f70       _atoi                      00513f70 f   LIBCMTD:atox.obj
 0001:00112f90       __atoi64                   00513f90 f   LIBCMTD:atox.obj
 0001:001130c0       __chkstk                   005140c0 f   LIBCMTD:chkstk.obj
 0001:001130c0       __alloca_probe             005140c0 f   LIBCMTD:chkstk.obj
 0001:001130f0       _strcpy                    005140f0 f   LIBCMTD:strcat.obj
 0001:00113100       _strcat                    00514100 f   LIBCMTD:strcat.obj
 0001:001131e0       __assert                   005141e0 f   LIBCMTD:assert.obj
 0001:00113560       _ceil                      00514560 f   LIBCMTD:ceil.obj
 0001:001136a0       _floor                     005146a0 f   LIBCMTD:floor.obj
 0001:001137e0       __CIsqrt                   005147e0 f   LIBCMTD:sqrt.obj
 0001:001137f4       _sqrt                      005147f4 f   LIBCMTD:sqrt.obj
 0001:001138a0       _atan2                     005148a0 f   LIBCMTD:87ctriga.obj
 0001:001138aa       __CIatan2                  005148aa f   LIBCMTD:87ctriga.obj
 0001:001138c0       __CIcos                    005148c0 f   LIBCMTD:cos.obj
 0001:001138d4       _cos                       005148d4 f   LIBCMTD:cos.obj
 0001:00113970       __CIsin                    00514970 f   LIBCMTD:sin.obj
 0001:00113984       _sin                       00514984 f   LIBCMTD:sin.obj
 0001:00113a20       _strncpy                   00514a20 f   LIBCMTD:strncpy.obj
 0001:00113b20       __ftol                     00514b20 f   LIBCMTD:ftol.obj
 0001:00113b50       _abs                       00514b50 f   LIBCMTD:abs.obj
 0001:00113b80       _strstr                    00514b80 f   LIBCMTD:strstr.obj
 0001:00113c00       __tolower                  00514c00 f   LIBCMTD:tolower.obj
 0001:00113c10       _tolower                   00514c10 f   LIBCMTD:tolower.obj
 0001:00113cb0       __tolower_lk               00514cb0 f   LIBCMTD:tolower.obj
 0001:00113de0       _memmove                   00514de0 f   LIBCMTD:memmove.obj
 0001:00114120       _time                      00515120 f   LIBCMTD:time.obj
 0001:001142b0       _srand                     005152b0 f   LIBCMTD:rand.obj
 0001:001142c0       _rand                      005152c0 f   LIBCMTD:rand.obj
 0001:00114300       _getenv                    00515300 f   LIBCMTD:getenv.obj
 0001:00114330       __getenv_lk                00515330 f   LIBCMTD:getenv.obj
 0001:00114410       _strchr                    00515410 f   LIBCMTD:strchr.obj
 0001:00114416       ___from_strstr_to_strchr   00515416 f   LIBCMTD:strchr.obj
 0001:001144d0       __vsnprintf                005154d0 f   LIBCMTD:vsnprint.obj
 0001:001145d0       _printf                    005155d0 f   LIBCMTD:printf.obj
 0001:00114670       _strncat                   00515670 f   LIBCMTD:strncat.obj
 0001:001147a0       _sscanf                    005157a0 f   LIBCMTD:sscanf.obj
 0001:00114860       _sprintf                   00515860 f   LIBCMTD:sprintf.obj
 0001:00114960       _memcpy                    00515960 f   LIBCMTD:memcpy.obj
 0001:00114ca0       _fabs                      00515ca0 f   LIBCMTD:fabs.obj
 0001:00114da0       _asctime                   00515da0 f   LIBCMTD:asctime.obj
 0001:00114fa0       _localtime                 00515fa0 f   LIBCMTD:localtim.obj
 0001:00115200       _longjmp                   00516200 f   LIBCMTD:longjmp.obj
 0001:00115280       _vsprintf                  00516280 f   LIBCMTD:vsprintf.obj
 0001:00115380       __toupper                  00516380 f   LIBCMTD:toupper.obj
 0001:00115390       _toupper                   00516390 f   LIBCMTD:toupper.obj
 0001:00115430       __toupper_lk               00516430 f   LIBCMTD:toupper.obj
 0001:00115560       _malloc                    00516560 f   LIBCMTD:dbgheap.obj
 0001:00115580       __malloc_dbg               00516580 f   LIBCMTD:dbgheap.obj
 0001:001155b0       __nh_malloc                005165b0 f   LIBCMTD:dbgheap.obj
 0001:001155d0       __nh_malloc_dbg            005165d0 f   LIBCMTD:dbgheap.obj
 0001:00115630       __heap_alloc               00516630 f   LIBCMTD:dbgheap.obj
 0001:00115650       __heap_alloc_dbg           00516650 f   LIBCMTD:dbgheap.obj
 0001:00115970       _calloc                    00516970 f   LIBCMTD:dbgheap.obj
 0001:00115990       __calloc_dbg               00516990 f   LIBCMTD:dbgheap.obj
 0001:001159f0       _realloc                   005169f0 f   LIBCMTD:dbgheap.obj
 0001:00115a10       __realloc_dbg              00516a10 f   LIBCMTD:dbgheap.obj
 0001:00115f70       __expand                   00516f70 f   LIBCMTD:dbgheap.obj
 0001:00115f90       __expand_dbg               00516f90 f   LIBCMTD:dbgheap.obj
 0001:00115fd0       _free                      00516fd0 f   LIBCMTD:dbgheap.obj
 0001:00115ff0       __free_lk                  00516ff0 f   LIBCMTD:dbgheap.obj
 0001:00116010       __free_dbg                 00517010 f   LIBCMTD:dbgheap.obj
 0001:00116040       __free_dbg_lk              00517040 f   LIBCMTD:dbgheap.obj
 0001:00116430       __msize                    00517430 f   LIBCMTD:dbgheap.obj
 0001:00116450       __msize_dbg                00517450 f   LIBCMTD:dbgheap.obj
 0001:001165b0       __CrtSetBreakAlloc         005175b0 f   LIBCMTD:dbgheap.obj
 0001:001165d0       __CrtSetDbgBlockType       005175d0 f   LIBCMTD:dbgheap.obj
 0001:00116670       __CrtSetAllocHook          00517670 f   LIBCMTD:dbgheap.obj
 0001:00116720       __CrtCheckMemory           00517720 f   LIBCMTD:dbgheap.obj
 0001:00116a90       __CrtSetDbgFlag            00517a90 f   LIBCMTD:dbgheap.obj
 0001:00116ac0       __CrtDoForAllClientObjects 00517ac0 f   LIBCMTD:dbgheap.obj
 0001:00116b30       __CrtIsValidPointer        00517b30 f   LIBCMTD:dbgheap.obj
 0001:00116b80       __CrtIsValidHeapPointer    00517b80 f   LIBCMTD:dbgheap.obj
 0001:00116c10       __CrtIsMemoryBlock         00517c10 f   LIBCMTD:dbgheap.obj
 0001:00116d00       __CrtSetDumpClient         00517d00 f   LIBCMTD:dbgheap.obj
 0001:00116d20       __CrtMemCheckpoint         00517d20 f   LIBCMTD:dbgheap.obj
 0001:00116e90       __CrtMemDifference         00517e90 f   LIBCMTD:dbgheap.obj
 0001:00116fc0       __CrtMemDumpAllObjectsSince 00517fc0 f   LIBCMTD:dbgheap.obj
 0001:001173a0       __CrtDumpMemoryLeaks       005183a0 f   LIBCMTD:dbgheap.obj
 0001:00117420       __CrtMemDumpStatistics     00518420 f   LIBCMTD:dbgheap.obj
 0001:001174f0       _memset                    005184f0 f   LIBCMTD:memset.obj
 0001:00117548       __setjmp3                  00518548 f   LIBCMTD:setjmp3.obj
 0001:001175d0       _atof                      005185d0 f   LIBCMTD:atof.obj
 0001:00117650       __CIacos                   00518650 f   LIBCMTD:acos.obj
 0001:00117664       _acos                      00518664 f   LIBCMTD:acos.obj
 0001:00117720       _setvbuf                   00518720 f   LIBCMTD:setvbuf.obj
 0001:00117890       _fseek                     00518890 f   LIBCMTD:fseek.obj
 0001:00117900       __fseek_lk                 00518900 f   LIBCMTD:fseek.obj
 0001:00117a30       _ftell                     00518a30 f   LIBCMTD:ftell.obj
 0001:00117aa0       __ftell_lk                 00518aa0 f   LIBCMTD:ftell.obj
 0001:00117d40       _fclose                    00518d40 f   LIBCMTD:fclose.obj
 0001:00117dd0       __fclose_lk                00518dd0 f   LIBCMTD:fclose.obj
 0001:00117e90       __fsopen                   00518e90 f   LIBCMTD:fopen.obj
 0001:00117f90       _fopen                     00518f90 f   LIBCMTD:fopen.obj
 0001:00117fb0       _rename                    00518fb0 f   LIBCMTD:rename.obj
 0001:00118000       _fwrite                    00519000 f   LIBCMTD:fwrite.obj
 0001:00118040       __fwrite_lk                00519040 f   LIBCMTD:fwrite.obj
 0001:00118260       _fread                     00519260 f   LIBCMTD:fread.obj
 0001:001182a0       __fread_lk                 005192a0 f   LIBCMTD:fread.obj
 0001:00118470       _remove                    00519470 f   LIBCMTD:unlink.obj
 0001:001184c0       __unlink                   005194c0 f   LIBCMTD:unlink.obj
 0001:001184e0       _fflush                    005194e0 f   LIBCMTD:fflush.obj
 0001:00118530       __fflush_lk                00519530 f   LIBCMTD:fflush.obj
 0001:00118580       __flush                    00519580 f   LIBCMTD:fflush.obj
 0001:00118640       __flushall                 00519640 f   LIBCMTD:fflush.obj
 0001:00118790       _qsort                     00519790 f   LIBCMTD:qsort.obj
 0001:00118a90       _memcmp                    00519a90 f   LIBCMTD:memcmp.obj
 0001:00118b40       _strncmp                   00519b40 f   LIBCMTD:strncmp.obj
 0001:00118b80       _fprintf                   00519b80 f   LIBCMTD:fprintf.obj
 0001:00118c50       __commit                   00519c50 f   LIBCMTD:commit.obj
 0001:00118d30       __cinit                    00519d30 f   LIBCMTD:crt0dat.obj
 0001:00118d70       _exit                      00519d70 f   LIBCMTD:crt0dat.obj
 0001:00118d90       __exit                     00519d90 f   LIBCMTD:crt0dat.obj
 0001:00118db0       __cexit                    00519db0 f   LIBCMTD:crt0dat.obj
 0001:00118dd0       __c_exit                   00519dd0 f   LIBCMTD:crt0dat.obj
 0001:00118ee0       __lockexit                 00519ee0 f   LIBCMTD:crt0dat.obj
 0001:00118ef0       __unlockexit               00519ef0 f   LIBCMTD:crt0dat.obj
 0001:00118f30       __mkdir                    00519f30 f   LIBCMTD:mkdir.obj
 0001:00118f80       __getcwd                   00519f80 f   LIBCMTD:getcwd.obj
 0001:00118fc0       __getdcwd                  00519fc0 f   LIBCMTD:getcwd.obj
 0001:00119000       __getdcwd_lk               0051a000 f   LIBCMTD:getcwd.obj
 0001:00119120       __validdrive               0051a120 f   LIBCMTD:getcwd.obj
 0001:00119170       __findfirst                0051a170 f   LIBCMTD:findfile.obj
 0001:001192b0       __findnext                 0051a2b0 f   LIBCMTD:findfile.obj
 0001:001193e0       __findclose                0051a3e0 f   LIBCMTD:findfile.obj
 0001:00119410       ___timet_from_ft           0051a410 f   LIBCMTD:findfile.obj
 0001:001194a0       _strtok                    0051a4a0 f   LIBCMTD:strtok.obj
 0001:001195f0       _WinMainCRTStartup         0051a5f0 f   LIBCMTD:wincrt0.obj
 0001:00119760       __amsg_exit                0051a760 f   LIBCMTD:wincrt0.obj
 0001:001197c0       _clock                     0051a7c0 f   LIBCMTD:clock.obj
 0001:00119830       ___inittime                0051a830 f   LIBCMTD:clock.obj
 0001:00119870       _vfprintf                  0051a870 f   LIBCMTD:vfprintf.obj
 0001:00119930       _ctime                     0051a930 f   LIBCMTD:ctime.obj
 0001:00119960       __CItan                    0051a960 f   LIBCMTD:tan.obj
 0001:00119974       _tan                       0051a974 f   LIBCMTD:tan.obj
 0001:00119a20       __CIpow                    0051aa20 f   LIBCMTD:pow.obj
 0001:00119a39       _pow                       0051aa39 f   LIBCMTD:pow.obj
 0001:00119c40       _strrchr                   0051ac40 f   LIBCMTD:strrchr.obj
 0001:00119c70       _putenv                    0051ac70 f   LIBCMTD:putenv.obj
 0001:00119c70       __putenv                   0051ac70 f   LIBCMTD:putenv.obj
 0001:00119ca0       __putenv_lk                0051aca0 f   LIBCMTD:putenv.obj
 0001:00119db0       __CrtDbgBreak              0051adb0 f   LIBCMTD:dbgrpt.obj
 0001:00119dc0       __CrtSetReportMode         0051adc0 f   LIBCMTD:dbgrpt.obj
 0001:00119e20       __CrtSetReportFile         0051ae20 f   LIBCMTD:dbgrpt.obj
 0001:00119ea0       __CrtSetReportHook         0051aea0 f   LIBCMTD:dbgrpt.obj
 0001:00119ec0       __CrtDbgReport             0051aec0 f   LIBCMTD:dbgrpt.obj
 0001:0011a560       __setdefaultprecision      0051b560 f   LIBCMTD:fp8.obj
 0001:0011a580       __ms_p5_test_fdiv          0051b580 f   LIBCMTD:testfdiv.obj
 0001:0011a5e0       __ms_p5_mp_test_fdiv       0051b5e0 f   LIBCMTD:testfdiv.obj
 0001:0011a630       __forcdecpt                0051b630 f   LIBCMTD:cvt.obj
 0001:0011a6e0       __cropzeros                0051b6e0 f   LIBCMTD:cvt.obj
 0001:0011a7c0       __positive                 0051b7c0 f   LIBCMTD:cvt.obj
 0001:0011a7f0       __fassign                  0051b7f0 f   LIBCMTD:cvt.obj
 0001:0011a840       __cftoe                    0051b840 f   LIBCMTD:cvt.obj
 0001:0011aa30       __cftof                    0051ba30 f   LIBCMTD:cvt.obj
 0001:0011abe0       __cftog                    0051bbe0 f   LIBCMTD:cvt.obj
 0001:0011acd0       __cfltcvt                  0051bcd0 f   LIBCMTD:cvt.obj
 0001:0011ad60       __isctype                  0051bd60 f   LIBCMTD:isctype.obj
 0001:0011ae20       __allmul                   0051be20 f   LIBCMTD:llmul.obj
 0001:0011ae60       _abort                     0051be60 f   LIBCMTD:abort.obj
 0001:0011ae80       _signal                    0051be80 f   LIBCMTD:winsig.obj
 0001:0011b150       _raise                     0051c150 f   LIBCMTD:winsig.obj
 0001:0011b3f0       ___fpecode                 0051c3f0 f   LIBCMTD:winsig.obj
 0001:0011b400       ___pxcptinfoptrs           0051c400 f   LIBCMTD:winsig.obj
 0001:0011b410       ___crtMessageBoxA          0051c410 f   LIBCMTD:crtmbox.obj
 0001:0011b4d0       __itoa                     0051c4d0 f   LIBCMTD:xtoa.obj
 0001:0011b5f0       __ltoa                     0051c5f0 f   LIBCMTD:xtoa.obj
 0001:0011b630       __ultoa                    0051c630 f   LIBCMTD:xtoa.obj
 0001:0011b650       __i64toa                   0051c650 f   LIBCMTD:xtoa.obj
 0001:0011b7a0       __ui64toa                  0051c7a0 f   LIBCMTD:xtoa.obj
 0001:0011b7c0       ___initstdio               0051c7c0 f   LIBCMTD:_file.obj
 0001:0011b8f0       ___endstdio                0051c8f0 f   LIBCMTD:_file.obj
 0001:0011b910       __lock_file                0051c910 f   LIBCMTD:_file.obj
 0001:0011b950       __lock_file2               0051c950 f   LIBCMTD:_file.obj
 0001:0011b980       __unlock_file              0051c980 f   LIBCMTD:_file.obj
 0001:0011b9c0       __unlock_file2             0051c9c0 f   LIBCMTD:_file.obj
 0001:0011b9f0       __frnd                     0051c9f0 f   LIBCMTD:frnd.obj
 0001:0011ba10       __handle_qnan1             0051ca10 f   LIBCMTD:fpexcept.obj
 0001:0011ba70       __handle_qnan2             0051ca70 f   LIBCMTD:fpexcept.obj
 0001:0011bae0       __except1                  0051cae0 f   LIBCMTD:fpexcept.obj
 0001:0011bba0       __except2                  0051cba0 f   LIBCMTD:fpexcept.obj
 0001:0011bc70       __raise_exc                0051cc70 f   LIBCMTD:fpexcept.obj
 0001:0011c140       __handle_exc               0051d140 f   LIBCMTD:fpexcept.obj
 0001:0011c4c0       __umatherr                 0051d4c0 f   LIBCMTD:fpexcept.obj
 0001:0011c560       __set_errno                0051d560 f   LIBCMTD:fpexcept.obj
 0001:0011c5e0       __errcode                  0051d5e0 f   LIBCMTD:fpexcept.obj
 0001:0011c660       __set_exp                  0051d660 f   LIBCMTD:util.obj
 0001:0011c6a0       __get_exp                  0051d6a0 f   LIBCMTD:util.obj
 0001:0011c6d0       __add_exp                  0051d6d0 f   LIBCMTD:util.obj
 0001:0011c710       __set_bexp                 0051d710 f   LIBCMTD:util.obj
 0001:0011c750       __sptype                   0051d750 f   LIBCMTD:util.obj
 0001:0011c7d0       __decomp                   0051d7d0 f   LIBCMTD:util.obj
 0001:0011c910       __statfp                   0051d910 f   LIBCMTD:fpctrl.obj
 0001:0011c930       __clrfp                    0051d930 f   LIBCMTD:fpctrl.obj
 0001:0011c950       __ctrlfp                   0051d950 f   LIBCMTD:fpctrl.obj
 0001:0011c990       __set_statfp               0051d990 f   LIBCMTD:fpctrl.obj
 0001:0011ca10       __trandisp1                0051da10 f   LIBCMTD:87disp.obj
 0001:0011ca77       __trandisp2                0051da77 f   LIBCMTD:87disp.obj
 0001:0011cb03       __rttospopde               0051db03 f   LIBCMTD:87disp.obj
 0001:0011cb08       __rttospop                 0051db08 f   LIBCMTD:87disp.obj
 0001:0011cb0a       __rtnospop                 0051db0a f   LIBCMTD:87disp.obj
 0001:0011cb0c       __rttosnpop                0051db0c f   LIBCMTD:87disp.obj
 0001:0011cb0d       __rtnospopde               0051db0d f   LIBCMTD:87disp.obj
 0001:0011cb14       __rtzeropop                0051db14 f   LIBCMTD:87disp.obj
 0001:0011cb16       __rtzeronpop               0051db16 f   LIBCMTD:87disp.obj
 0001:0011cb1b       __rtonepop                 0051db1b f   LIBCMTD:87disp.obj
 0001:0011cb1d       __rtonenpop                0051db1d f   LIBCMTD:87disp.obj
 0001:0011cb22       __tosnan1                  0051db22 f   LIBCMTD:87disp.obj
 0001:0011cb4d       __nosnan2                  0051db4d f   LIBCMTD:87disp.obj
 0001:0011cb4f       __tosnan2                  0051db4f f   LIBCMTD:87disp.obj
 0001:0011cb77       __nan2                     0051db77 f   LIBCMTD:87disp.obj
 0001:0011cbb6       __rtindfpop                0051dbb6 f   LIBCMTD:87disp.obj
 0001:0011cbb8       __rtindfnpop               0051dbb8 f   LIBCMTD:87disp.obj
 0001:0011cbc9       __rttosnpopde              0051dbc9 f   LIBCMTD:87disp.obj
 0001:0011cbd3       __rtchsifneg               0051dbd3 f   LIBCMTD:87disp.obj
 0001:0011cbe0       __startTwoArgErrorHandling 0051dbe0 f   LIBCMTD:genexcep.obj
 0001:0011cbf7       __startOneArgErrorHandling 0051dbf7 f   LIBCMTD:genexcep.obj
 0001:0011cc40       __twoToTOS                 0051dc40 f   LIBCMTD:common.obj
 0001:0011cc55       __load_CW                  0051dc55 f   LIBCMTD:common.obj
 0001:0011cc6c       __convertTOStoQNaN         0051dc6c f   LIBCMTD:common.obj
 0001:0011cc85       __fload_withFB             0051dc85 f   LIBCMTD:common.obj
 0001:0011ccc8       __checkTOS_withFB          0051dcc8 f   LIBCMTD:common.obj
 0001:0011ccde       __fast_exit                0051dcde f   LIBCMTD:common.obj
 0001:0011cceb       __math_exit                0051dceb f   LIBCMTD:common.obj
 0001:0011cd15       __check_overflow_exit      0051dd15 f   LIBCMTD:common.obj
 0001:0011cd29       __check_range_exit         0051dd29 f   LIBCMTD:common.obj
 0001:0011cdec       __fFATN2                   0051ddec f   LIBCMTD:87triga.obj
 0001:0011ce3c       __rtpiby2                  0051de3c f   LIBCMTD:87triga.obj
 0001:0011ce80       __cintrindisp2             0051de80 f   LIBCMTD:87cdisp.obj
 0001:0011cebe       __cintrindisp1             0051debe f   LIBCMTD:87cdisp.obj
 0001:0011cefb       __ctrandisp2               0051defb f   LIBCMTD:87cdisp.obj
 0001:0011d07b       __ctrandisp1               0051e07b f   LIBCMTD:87cdisp.obj
 0001:0011d0ae       __fload                    0051e0ae f   LIBCMTD:87cdisp.obj
 0001:0011d0f0       __mtinitlocks              0051e0f0 f   LIBCMTD:mlock.obj
 0001:0011d130       __mtdeletelocks            0051e130 f   LIBCMTD:mlock.obj
 0001:0011d1d0       __lock                     0051e1d0 f   LIBCMTD:mlock.obj
 0001:0011d270       __unlock                   0051e270 f   LIBCMTD:mlock.obj
 0001:0011d290       __lockerr_exit             0051e290 f   LIBCMTD:mlock.obj
 0001:0011d2b0       _setlocale                 0051e2b0 f   LIBCMTD:setlocal.obj
 0001:0011d940       __expandlocale             0051e940 f   LIBCMTD:setlocal.obj
 0001:0011dad0       ___init_dummy              0051ead0 f   LIBCMTD:setlocal.obj
 0001:0011dae0       __strcats                  0051eae0 f   LIBCMTD:setlocal.obj
 0001:0011db30       ___lc_strtolc              0051eb30 f   LIBCMTD:setlocal.obj
 0001:0011dc90       ___lc_lctostr              0051ec90 f   LIBCMTD:setlocal.obj
 0001:0011dd00       ___crtLCMapStringA         0051ed00 f   LIBCMTD:a_map.obj
 0001:0011e060       ___loctotime_t             0051f060 f   LIBCMTD:dtoxtime.obj
 0001:0011e150       __mtinit                   0051f150 f   LIBCMTD:tidtable.obj
 0001:0011e1e0       __mtterm                   0051f1e0 f   LIBCMTD:tidtable.obj
 0001:0011e210       __initptd                  0051f210 f   LIBCMTD:tidtable.obj
 0001:0011e230       __getptd                   0051f230 f   LIBCMTD:tidtable.obj
 0001:0011e2d0       __freeptd                  0051f2d0 f   LIBCMTD:tidtable.obj
 0001:0011e3e0       ___threadid                0051f3e0 f   LIBCMTD:tidtable.obj
 0001:0011e3f0       ___threadhandle            0051f3f0 f   LIBCMTD:tidtable.obj
 0001:0011e400       __mbsnbicoll               0051f400 f   LIBCMTD:mbsnbico.obj
 0001:0011e450       ___wtomb_environ           0051f450 f   LIBCMTD:wtombenv.obj
 0001:0011e500       __flsbuf                   0051f500 f   LIBCMTD:_flsbuf.obj
 0001:0011e780       __output                   0051f780 f   LIBCMTD:output.obj
 0001:0011f620       __stbuf                    00520620 f   LIBCMTD:_sftbuf.obj
 0001:0011f780       __ftbuf                    00520780 f   LIBCMTD:_sftbuf.obj
 0001:0011f820       __input                    00520820 f   LIBCMTD:input.obj
 0001:00120d20       ___tzset                   00521d20 f   LIBCMTD:tzset.obj
 0001:00120d60       __tzset                    00521d60 f   LIBCMTD:tzset.obj
 0001:00121130       __isindst                  00522130 f   LIBCMTD:tzset.obj
 0001:00121660       _gmtime                    00522660 f   LIBCMTD:gmtime.obj
 0001:00121860       __global_unwind2           00522860 f   LIBCMTD:exsup.obj
 0001:001218a2       __local_unwind2            005228a2 f   LIBCMTD:exsup.obj
 0001:001218fa       __NLG_Return2              005228fa f   LIBCMTD:exsup.obj
 0001:0012190a       __abnormal_termination     0052290a f   LIBCMTD:exsup.obj
 0001:0012192d       __NLG_Notify1              0052292d f   LIBCMTD:exsup.obj
 0001:00121936       __NLG_Notify               00522936 f   LIBCMTD:exsup.obj
 0001:00121949       __NLG_Dispatch             00522949 f   LIBCMTD:exsup.obj
 0001:00121950       __rt_probe_read4@4         00522950 f   LIBCMTD:sehsupp.obj
 0001:001219e0       ?_set_new_handler@@YAP6AHI@ZP6AHI@Z@Z 005229e0 f   LIBCMTD:handler.obj
 0001:00121a10       ?_query_new_handler@@YAP6AHI@ZXZ 00522a10 f   LIBCMTD:handler.obj
 0001:00121a20       __callnewh                 00522a20 f   LIBCMTD:handler.obj
 0001:00121a50       __malloc_base              00522a50 f   LIBCMTD:malloc.obj
 0001:00121a70       __nh_malloc_base           00522a70 f   LIBCMTD:malloc.obj
 0001:00121ad0       __heap_alloc_base          00522ad0 f   LIBCMTD:malloc.obj
 0001:00121b40       __CrtDefaultAllocHook      00522b40 f   LIBCMTD:dbghook.obj
 0001:00121b50       __expand_base              00522b50 f   LIBCMTD:expand.obj
 0001:00121c00       __realloc_base             00522c00 f   LIBCMTD:realloc.obj
 0001:00121df0       __free_base                00522df0 f   LIBCMTD:free.obj
 0001:00121e60       __heapchk                  00522e60 f   LIBCMTD:heapchk.obj
 0001:00121ee0       __heapset                  00522ee0 f   LIBCMTD:heapchk.obj
 0001:00121ef0       __heap_init                00522ef0 f   LIBCMTD:heapinit.obj
 0001:00121f40       __heap_term                00522f40 f   LIBCMTD:heapinit.obj
 0001:00121fe0       __get_sbh_threshold        00522fe0 f   LIBCMTD:sbheap.obj
 0001:00121ff0       __set_sbh_threshold        00522ff0 f   LIBCMTD:sbheap.obj
 0001:00122010       ___sbh_heap_init           00523010 f   LIBCMTD:sbheap.obj
 0001:00122070       ___sbh_find_block          00523070 f   LIBCMTD:sbheap.obj
 0001:001220d0       ___sbh_verify_block        005230d0 f   LIBCMTD:sbheap.obj
 0001:00122130       ___sbh_free_block          00523130 f   LIBCMTD:sbheap.obj
 0001:00122700       ___sbh_alloc_block         00523700 f   LIBCMTD:sbheap.obj
 0001:00122c40       ___sbh_alloc_new_region    00523c40 f   LIBCMTD:sbheap.obj
 0001:00122d50       ___sbh_alloc_new_group     00523d50 f   LIBCMTD:sbheap.obj
 0001:00122f40       ___sbh_resize_block        00523f40 f   LIBCMTD:sbheap.obj
 0001:00123530       ___sbh_heapmin             00524530 f   LIBCMTD:sbheap.obj
 0001:00123660       ___sbh_heap_check          00524660 f   LIBCMTD:sbheap.obj
 0001:00123c80       __fltin2                   00524c80 f   LIBCMTD:cfin.obj
 0001:00123d40       __freebuf                  00524d40 f   LIBCMTD:_freebuf.obj
 0001:00123de0       __lseek                    00524de0 f   LIBCMTD:lseek.obj
 0001:00123e70       __lseek_lk                 00524e70 f   LIBCMTD:lseek.obj
 0001:00123f30       __dosmaperr                00524f30 f   LIBCMTD:dosmap.obj
 0001:00123fd0       __errno                    00524fd0 f   LIBCMTD:dosmap.obj
 0001:00123fe0       ___doserrno                00524fe0 f   LIBCMTD:dosmap.obj
 0001:00123ff0       __ioinit                   00524ff0 f   LIBCMTD:ioinit.obj
 0001:00124320       __ioterm                   00525320 f   LIBCMTD:ioinit.obj
 0001:001243c0       __close                    005253c0 f   LIBCMTD:close.obj
 0001:001243c0       _close                     005253c0 f   LIBCMTD:close.obj
 0001:00124440       __close_lk                 00525440 f   LIBCMTD:close.obj
 0001:001244f0       __openfile                 005254f0 f   LIBCMTD:_open.obj
 0001:00124880       __getstream                00525880 f   LIBCMTD:stream.obj
 0001:00124a00       _write                     00525a00 f   LIBCMTD:write.obj
 0001:00124a00       __write                    00525a00 f   LIBCMTD:write.obj
 0001:00124a90       __write_lk                 00525a90 f   LIBCMTD:write.obj
 0001:00124d10       __filbuf                   00525d10 f   LIBCMTD:_filbuf.obj
 0001:00124f00       __read                     00525f00 f   LIBCMTD:read.obj
 0001:00124f90       __read_lk                  00525f90 f   LIBCMTD:read.obj
 0001:001253e0       __alloc_osfhnd             005263e0 f   LIBCMTD:osfinfo.obj
 0001:001255d0       __set_osfhnd               005265d0 f   LIBCMTD:osfinfo.obj
 0001:00125690       __free_osfhnd              00526690 f   LIBCMTD:osfinfo.obj
 0001:00125770       __get_osfhandle            00526770 f   LIBCMTD:osfinfo.obj
 0001:001257e0       __open_osfhandle           005267e0 f   LIBCMTD:osfinfo.obj
 0001:001258f0       __lock_fhandle             005268f0 f   LIBCMTD:osfinfo.obj
 0001:00125980       __unlock_fhandle           00526980 f   LIBCMTD:osfinfo.obj
 0001:001259b0       __XcptFilter               005269b0 f   LIBCMTD:winxfltr.obj
 0001:00125bd0       __wincmdln                 00526bd0 f   LIBCMTD:wincmdln.obj
 0001:00125c90       __setenvp                  00526c90 f   LIBCMTD:stdenvp.obj
 0001:00125de0       __setargv                  00526de0 f   LIBCMTD:stdargv.obj
 0001:001262f0       ___crtGetEnvironmentStringsA 005272f0 f   LIBCMTD:a_env.obj
 0001:00126514       __except_handler3          00527514 f   LIBCMTD:exsup3.obj
 0001:001265d1       __seh_longjmp_unwind@4     005275d1 f   LIBCMTD:exsup3.obj
 0001:001265f0       __FF_MSGBANNER             005275f0 f   LIBCMTD:crt0msg.obj
 0001:00126640       __NMSG_WRITE               00527640 f   LIBCMTD:crt0msg.obj
 0001:00126800       __GET_RTERRMSG             00527800 f   LIBCMTD:crt0msg.obj
 0001:00126850       __aulldiv                  00527850 f   LIBCMTD:ulldiv.obj
 0001:001268c0       __allshl                   005278c0 f   LIBCMTD:llshl.obj
 0001:001268f1       __fFEXP                    005278f1 f   LIBCMTD:87tran.obj
 0001:00126958       __rtinfpopse               00527958 f   LIBCMTD:87tran.obj
 0001:0012695a       __rtinfnpopse              0052795a f   LIBCMTD:87tran.obj
 0001:0012696a       __fFLN                     0052796a f   LIBCMTD:87tran.obj
 0001:00126a1f       __rtinfpop                 00527a1f f   LIBCMTD:87tran.obj
 0001:00126a21       __rtinfnpop                00527a21 f   LIBCMTD:87tran.obj
 0001:00126a3e       __ffexpm1                  00527a3e f   LIBCMTD:87tran.obj
 0001:00126af0       __powhlp                   00527af0 f   LIBCMTD:powhlp.obj
 0001:00126d60       __d_inttype                00527d60 f   LIBCMTD:powhlp.obj
 0001:00126de0       ___crtwsetenv              00527de0 f   LIBCMTD:wsetenv.obj
 0001:00127240       ___crtsetenv               00528240 f   LIBCMTD:setenv.obj
 0001:00127690       __snprintf                 00528690 f   LIBCMTD:snprintf.obj
 0001:00127790       __statusfp                 00528790 f   LIBCMTD:ieee87.obj
 0001:001277b0       __clearfp                  005287b0 f   LIBCMTD:ieee87.obj
 0001:001277d0       __control87                005287d0 f   LIBCMTD:ieee87.obj
 0001:00127820       __controlfp                00528820 f   LIBCMTD:ieee87.obj
 0001:00127840       __fpreset                  00528840 f   LIBCMTD:ieee87.obj
 0001:00127c30       __ZeroTail                 00528c30 f   LIBCMTD:intrncvt.obj
 0001:00127cc0       __IncMan                   00528cc0 f   LIBCMTD:intrncvt.obj
 0001:00127d70       __RoundMan                 00528d70 f   LIBCMTD:intrncvt.obj
 0001:00127e50       __CopyMan                  00528e50 f   LIBCMTD:intrncvt.obj
 0001:00127ea0       __FillZeroMan              00528ea0 f   LIBCMTD:intrncvt.obj
 0001:00127ed0       __IsZeroMan                00528ed0 f   LIBCMTD:intrncvt.obj
 0001:00127f10       __ShrMan                   00528f10 f   LIBCMTD:intrncvt.obj
 0001:00128000       __ld12cvt                  00529000 f   LIBCMTD:intrncvt.obj
 0001:00128250       __ld12tod                  00529250 f   LIBCMTD:intrncvt.obj
 0001:00128270       __ld12tof                  00529270 f   LIBCMTD:intrncvt.obj
 0001:00128290       __ld12told                 00529290 f   LIBCMTD:intrncvt.obj
 0001:00128350       __atodbl                   00529350 f   LIBCMTD:intrncvt.obj
 0001:00128390       __atoldbl                  00529390 f   LIBCMTD:intrncvt.obj
 0001:001283d0       __atoflt                   005293d0 f   LIBCMTD:intrncvt.obj
 0001:00128410       __fptostr                  00529410 f   LIBCMTD:_fptostr.obj
 0001:00128510       __fltout2                  00529510 f   LIBCMTD:cfout.obj
 0001:00128590       ___dtold                   00529590 f   LIBCMTD:cfout.obj
 0001:00128700       __fptrap                   00529700 f   LIBCMTD:crt0fp.obj
 0001:00128710       ___crtGetStringTypeA       00529710 f   LIBCMTD:a_str.obj
 0001:001288d0       __aullrem                  005298d0 f   LIBCMTD:ullrem.obj
 0001:00128950       __fcloseall                00529950 f   LIBCMTD:closeall.obj
 0001:00128a30       __matherr                  00529a30 f   LIBCMTD:matherr.obj
 0001:00128a40       __87except                 00529a40 f   LIBCMTD:87except.obj
 0001:00128bc0       ___init_time               00529bc0 f   LIBCMTD:inittime.obj
 0001:00129540       ___init_numeric            0052a540 f   LIBCMTD:initnum.obj
 0001:00129870       ___init_monetary           0052a870 f   LIBCMTD:initmon.obj
 0001:00129cd0       ___init_ctype              0052acd0 f   LIBCMTD:initctyp.obj
 0001:0012a070       ___init_collate            0052b070 f   LIBCMTD:initcoll.obj
 0001:0012a080       _strcspn                   0052b080 f   LIBCMTD:strcspn.obj
 0001:0012a0c0       _strpbrk                   0052b0c0 f   LIBCMTD:strpbrk.obj
 0001:0012a100       ___get_qualified_locale    0052b100 f   LIBCMTD:getqloc.obj
 0001:0012aea0       ___crtCompareStringA       0052bea0 f   LIBCMTD:a_cmp.obj
 0001:0012b2f0       __setmbcp                  0052c2f0 f   LIBCMTD:mbctype.obj
 0001:0012bab0       __getmbcp                  0052cab0 f   LIBCMTD:mbctype.obj
 0001:0012bad0       ___initmbctable            0052cad0 f   LIBCMTD:mbctype.obj
 0001:0012bb00       __getbuf                   0052cb00 f   LIBCMTD:_getbuf.obj
 0001:0012bbd0       __isatty                   0052cbd0 f   LIBCMTD:isatty.obj
 0001:0012bc10       _wctomb                    0052cc10 f   LIBCMTD:wctomb.obj
 0001:0012bc90       __wctomb_lk                0052cc90 f   LIBCMTD:wctomb.obj
 0001:0012bd30       _mbtowc                    0052cd30 f   LIBCMTD:mbtowc.obj
 0001:0012bdb0       __mbtowc_lk                0052cdb0 f   LIBCMTD:mbtowc.obj
 0001:0012bf10       _isalpha                   0052cf10 f   LIBCMTD:_ctype.obj
 0001:0012bf60       _isupper                   0052cf60 f   LIBCMTD:_ctype.obj
 0001:0012bfa0       _islower                   0052cfa0 f   LIBCMTD:_ctype.obj
 0001:0012bfe0       _isdigit                   0052cfe0 f   LIBCMTD:_ctype.obj
 0001:0012c020       _isxdigit                  0052d020 f   LIBCMTD:_ctype.obj
 0001:0012c070       _isspace                   0052d070 f   LIBCMTD:_ctype.obj
 0001:0012c0b0       _ispunct                   0052d0b0 f   LIBCMTD:_ctype.obj
 0001:0012c0f0       _isalnum                   0052d0f0 f   LIBCMTD:_ctype.obj
 0001:0012c140       _isprint                   0052d140 f   LIBCMTD:_ctype.obj
 0001:0012c190       _isgraph                   0052d190 f   LIBCMTD:_ctype.obj
 0001:0012c1e0       _iscntrl                   0052d1e0 f   LIBCMTD:_ctype.obj
 0001:0012c220       ___isascii                 0052d220 f   LIBCMTD:_ctype.obj
 0001:0012c230       ___toascii                 0052d230 f   LIBCMTD:_ctype.obj
 0001:0012c240       ___iscsymf                 0052d240 f   LIBCMTD:_ctype.obj
 0001:0012c2a0       ___iscsym                  0052d2a0 f   LIBCMTD:_ctype.obj
 0001:0012c300       _ungetc                    0052d300 f   LIBCMTD:ungetc.obj
 0001:0012c370       __ungetc_lk                0052d370 f   LIBCMTD:ungetc.obj
 0001:0012c4b0       ___strgtold12              0052d4b0 f   LIBCMTD:strgtold.obj
 0001:0012cfe0       ___STRINGTOLD              0052dfe0 f   LIBCMTD:strgtold.obj
 0001:0012d030       _open                      0052e030 f   LIBCMTD:open.obj
 0001:0012d030       __open                     0052e030 f   LIBCMTD:open.obj
 0001:0012d070       __sopen                    0052e070 f   LIBCMTD:open.obj
 0001:0012d5d0       __ismbbkalnum              0052e5d0 f   LIBCMTD:ismbbyte.obj
 0001:0012d5f0       __ismbbkprint              0052e5f0 f   LIBCMTD:ismbbyte.obj
 0001:0012d610       __ismbbkpunct              0052e610 f   LIBCMTD:ismbbyte.obj
 0001:0012d630       __ismbbalnum               0052e630 f   LIBCMTD:ismbbyte.obj
 0001:0012d650       __ismbbalpha               0052e650 f   LIBCMTD:ismbbyte.obj
 0001:0012d670       __ismbbgraph               0052e670 f   LIBCMTD:ismbbyte.obj
 0001:0012d690       __ismbbprint               0052e690 f   LIBCMTD:ismbbyte.obj
 0001:0012d6b0       __ismbbpunct               0052e6b0 f   LIBCMTD:ismbbyte.obj
 0001:0012d6d0       __ismbblead                0052e6d0 f   LIBCMTD:ismbbyte.obj
 0001:0012d6f0       __ismbbtrail               0052e6f0 f   LIBCMTD:ismbbyte.obj
 0001:0012d710       __ismbbkana                0052e710 f   LIBCMTD:ismbbyte.obj
 0001:0012d7c0       _fdiv_main_routine         0052e7c0 f   LIBCMTD:adj_fdiv.obj
 0001:0012d8d7       __adj_fdiv_r               0052e8d7 f   LIBCMTD:adj_fdiv.obj
 0001:0012dd76       __fdivp_sti_st             0052ed76 f   LIBCMTD:adj_fdiv.obj
 0001:0012dd89       __fdivrp_sti_st            0052ed89 f   LIBCMTD:adj_fdiv.obj
 0001:0012dd9c       __adj_fdiv_m32             0052ed9c f   LIBCMTD:adj_fdiv.obj
 0001:0012dde8       __adj_fdiv_m64             0052ede8 f   LIBCMTD:adj_fdiv.obj
 0001:0012de34       __adj_fdiv_m16i            0052ee34 f   LIBCMTD:adj_fdiv.obj
 0001:0012de68       __adj_fdiv_m32i            0052ee68 f   LIBCMTD:adj_fdiv.obj
 0001:0012de9c       __adj_fdivr_m32            0052ee9c f   LIBCMTD:adj_fdiv.obj
 0001:0012dee8       __adj_fdivr_m64            0052eee8 f   LIBCMTD:adj_fdiv.obj
 0001:0012df34       __adj_fdivr_m16i           0052ef34 f   LIBCMTD:adj_fdiv.obj
 0001:0012df68       __adj_fdivr_m32i           0052ef68 f   LIBCMTD:adj_fdiv.obj
 0001:0012df9c       __safe_fdiv                0052ef9c f   LIBCMTD:adj_fdiv.obj
 0001:0012dfb1       __safe_fdivr               0052efb1 f   LIBCMTD:adj_fdiv.obj
 0001:0012dfc6       __fprem_common             0052efc6 f   LIBCMTD:adj_fdiv.obj
 0001:0012e1cc       __adj_fprem                0052f1cc f   LIBCMTD:adj_fdiv.obj
 0001:0012e27e       __fprem1_common            0052f27e f   LIBCMTD:adj_fdiv.obj
 0001:0012e484       __adj_fprem1               0052f484 f   LIBCMTD:adj_fdiv.obj
 0001:0012e539       __safe_fprem               0052f539 f   LIBCMTD:adj_fdiv.obj
 0001:0012e53f       __safe_fprem1              0052f53f f   LIBCMTD:adj_fdiv.obj
 0001:0012e545       __adj_fpatan               0052f545 f   LIBCMTD:adj_fdiv.obj
 0001:0012e548       __adj_fptan                0052f548 f   LIBCMTD:adj_fdiv.obj
 0001:0012e550       __copysign                 0052f550 f   LIBCMTD:ieeemisc.obj
 0001:0012e580       __chgsign                  0052f580 f   LIBCMTD:ieeemisc.obj
 0001:0012e5b0       __scalb                    0052f5b0 f   LIBCMTD:ieeemisc.obj
 0001:0012e5d0       __logb                     0052f5d0 f   LIBCMTD:ieeemisc.obj
 0001:0012e700       __nextafter                0052f700 f   LIBCMTD:ieeemisc.obj
 0001:0012ea40       __finite                   0052fa40 f   LIBCMTD:ieeemisc.obj
 0001:0012ea70       __isnan                    0052fa70 f   LIBCMTD:ieeemisc.obj
 0001:0012eac0       __fpclass                  0052fac0 f   LIBCMTD:ieeemisc.obj
 0001:0012eba0       _wcscat                    0052fba0 f   LIBCMTD:wcscat.obj
 0001:0012ec00       _wcscpy                    0052fc00 f   LIBCMTD:wcscat.obj
 0001:0012ec40       _wcslen                    0052fc40 f   LIBCMTD:wcslen.obj
 0001:0012ec70       ___mbtow_environ           0052fc70 f   LIBCMTD:mbtowenv.obj
 0001:0012ed20       _wcschr                    0052fd20 f   LIBCMTD:wcschr.obj
 0001:0012ed70       __wcsnicoll                0052fd70 f   LIBCMTD:wcsnicol.obj
 0001:0012eeb0       __mbschr                   0052feb0 f   LIBCMTD:mbschr.obj
 0001:0012efa0       ___addl                    0052ffa0 f   LIBCMTD:mantold.obj
 0001:0012efe0       ___add_12                  0052ffe0 f   LIBCMTD:mantold.obj
 0001:0012f090       ___shl_12                  00530090 f   LIBCMTD:mantold.obj
 0001:0012f0f0       ___shr_12                  005300f0 f   LIBCMTD:mantold.obj
 0001:0012f160       ___mtold12                 00530160 f   LIBCMTD:mantold.obj
 0001:0012f2a0       _$I10_OUTPUT               005302a0 f   LIBCMTD:x10fout.obj
 0001:0012f7c0       __Getdays                  005307c0 f   LIBCMTD:strftime.obj
 0001:0012f8f0       __Getmonths                005308f0 f   LIBCMTD:strftime.obj
 0001:0012fa20       __Gettnames                00530a20 f   LIBCMTD:strftime.obj
 0001:0012fd90       _strftime                  00530d90 f   LIBCMTD:strftime.obj
 0001:0012fdb0       __Strftime                 00530db0 f   LIBCMTD:strftime.obj
 0001:00130c30       ___getlocaleinfo           00531c30 f   LIBCMTD:inithelp.obj
 0001:00130ec0       _localeconv                00531ec0 f   LIBCMTD:lconv.obj
 0001:00130ed0       ___crtGetStringTypeW       00531ed0 f   LIBCMTD:w_str.obj
 0001:00131140       __stricmp                  00532140 f   LIBCMTD:stricmp.obj
 0001:00131140       __strcmpi                  00532140 f   LIBCMTD:stricmp.obj
 0001:00131210       __strnicmp                 00532210 f   LIBCMTD:strnicmp.obj
 0001:00131320       ___ld12mul                 00532320 f   LIBCMTD:tenpow.obj
 0001:00131760       ___multtenpow12            00532760 f   LIBCMTD:tenpow.obj
 0001:00131830       __chsize                   00532830 f   LIBCMTD:chsize.obj
 0001:001318b0       __chsize_lk                005328b0 f   LIBCMTD:chsize.obj
 0001:00131ae0       _ldexp                     00532ae0 f   LIBCMTD:ldexp.obj
 0001:00131da0       ___crtCompareStringW       00532da0 f   LIBCMTD:w_cmp.obj
 0001:001320d0       __wcsnicmp                 005330d0 f   LIBCMTD:wcsnicmp.obj
 0001:001322b0       ___crtGetLocaleInfoW       005332b0 f   LIBCMTD:w_loc.obj
 0001:00132450       ___crtGetLocaleInfoA       00533450 f   LIBCMTD:a_loc.obj
 0001:00132600       __setmode                  00533600 f   LIBCMTD:setmode.obj
 0001:00132680       __setmode_lk               00533680 f   LIBCMTD:setmode.obj
 0001:00132750       _towlower                  00533750 f   LIBCMTD:towlower.obj
 0001:00132820       __towlower_lk              00533820 f   LIBCMTD:towlower.obj
 0001:001328e0       ___crtLCMapStringW         005338e0 f   LIBCMTD:w_map.obj
 0001:00132c30       _iswctype                  00533c30 f   LIBCMTD:iswctype.obj
 0001:00132cb0       _is_wctype                 00533cb0 f   LIBCMTD:iswctype.obj
 0001:00132cd0       _GetSystemDirectoryA@8     00533cd0 f   kernel32:KERNEL32.dll
 0001:00132cd6       _CreateThread@24           00533cd6 f   kernel32:KERNEL32.dll
 0001:00132cdc       _CreateEventA@16           00533cdc f   kernel32:KERNEL32.dll
 0001:00132ce2       _WaitForSingleObject@8     00533ce2 f   kernel32:KERNEL32.dll
 0001:00132ce8       _SetEvent@4                00533ce8 f   kernel32:KERNEL32.dll
 0001:00132cee       _ResetEvent@4              00533cee f   kernel32:KERNEL32.dll
 0001:00132cf4       _GetModuleFileNameA@12     00533cf4 f   kernel32:KERNEL32.dll
 0001:00132cfa       _InterlockedDecrement@4    00533cfa f   kernel32:KERNEL32.dll
 0001:00132d00       _InterlockedIncrement@4    00533d00 f   kernel32:KERNEL32.dll
 0001:00132d06       _GetTimeZoneInformation@4  00533d06 f   kernel32:KERNEL32.dll
 0001:00132d0c       _GetSystemTime@4           00533d0c f   kernel32:KERNEL32.dll
 0001:00132d12       _GetLocalTime@4            00533d12 f   kernel32:KERNEL32.dll
 0001:00132d18       _IsBadWritePtr@8           00533d18 f   kernel32:KERNEL32.dll
 0001:00132d1e       _IsBadReadPtr@8            00533d1e f   kernel32:KERNEL32.dll
 0001:00132d24       _HeapValidate@12           00533d24 f   kernel32:KERNEL32.dll
 0001:00132d2a       _GetLastError@0            00533d2a f   kernel32:KERNEL32.dll
 0001:00132d30       _MoveFileA@8               00533d30 f   kernel32:KERNEL32.dll
 0001:00132d36       _DeleteFileA@4             00533d36 f   kernel32:KERNEL32.dll
 0001:00132d3c       _FlushFileBuffers@4        00533d3c f   kernel32:KERNEL32.dll
 0001:00132d42       _ExitProcess@4             00533d42 f   kernel32:KERNEL32.dll
 0001:00132d48       _TerminateProcess@8        00533d48 f   kernel32:KERNEL32.dll
 0001:00132d4e       _GetCurrentProcess@0       00533d4e f   kernel32:KERNEL32.dll
 0001:00132d54       _CreateDirectoryA@8        00533d54 f   kernel32:KERNEL32.dll
 0001:00132d5a       _GetCurrentDirectoryA@8    00533d5a f   kernel32:KERNEL32.dll
 0001:00132d60       _GetFullPathNameA@16       00533d60 f   kernel32:KERNEL32.dll
 0001:00132d66       _FindFirstFileA@8          00533d66 f   kernel32:KERNEL32.dll
 0001:00132d6c       _FindNextFileA@8           00533d6c f   kernel32:KERNEL32.dll
 0001:00132d72       _FindClose@4               00533d72 f   kernel32:KERNEL32.dll
 0001:00132d78       _FileTimeToSystemTime@8    00533d78 f   kernel32:KERNEL32.dll
 0001:00132d7e       _FileTimeToLocalFileTime@8 00533d7e f   kernel32:KERNEL32.dll
 0001:00132d84       _GetModuleHandleA@4        00533d84 f   kernel32:KERNEL32.dll
 0001:00132d8a       _GetStartupInfoA@4         00533d8a f   kernel32:KERNEL32.dll
 0001:00132d90       _GetCommandLineA@0         00533d90 f   kernel32:KERNEL32.dll
 0001:00132d96       _GetVersion@0              00533d96 f   kernel32:KERNEL32.dll
 0001:00132d9c       _GetSystemTimeAsFileTime@4 00533d9c f   kernel32:KERNEL32.dll
 0001:00132da2       _MultiByteToWideChar@24    00533da2 f   kernel32:KERNEL32.dll
 0001:00132da8       _DebugBreak@0              00533da8 f   kernel32:KERNEL32.dll
 0001:00132dae       _GetStdHandle@4            00533dae f   kernel32:KERNEL32.dll
 0001:00132db4       _WriteFile@20              00533db4 f   kernel32:KERNEL32.dll
 0001:00132dba       _OutputDebugStringA@4      00533dba f   kernel32:KERNEL32.dll
 0001:00132dc0       _SetConsoleCtrlHandler@8   00533dc0 f   kernel32:KERNEL32.dll
 0001:00132dc6       _EnterCriticalSection@4    00533dc6 f   kernel32:KERNEL32.dll
 0001:00132dcc       _LeaveCriticalSection@4    00533dcc f   kernel32:KERNEL32.dll
 0001:00132dd2       _RaiseException@16         00533dd2 f   kernel32:KERNEL32.dll
 0001:00132dd8       _InitializeCriticalSection@4 00533dd8 f   kernel32:KERNEL32.dll
 0001:00132dde       _DeleteCriticalSection@4   00533dde f   kernel32:KERNEL32.dll
 0001:00132de4       _FatalAppExitA@8           00533de4 f   kernel32:KERNEL32.dll
 0001:00132dea       _WideCharToMultiByte@32    00533dea f   kernel32:KERNEL32.dll
 0001:00132df0       _LCMapStringA@24           00533df0 f   kernel32:KERNEL32.dll
 0001:00132df6       _LCMapStringW@24           00533df6 f   kernel32:KERNEL32.dll
 0001:00132dfc       _GetCurrentThreadId@0      00533dfc f   kernel32:KERNEL32.dll
 0001:00132e02       _TlsSetValue@8             00533e02 f   kernel32:KERNEL32.dll
 0001:00132e08       _TlsAlloc@0                00533e08 f   kernel32:KERNEL32.dll
 0001:00132e0e       _TlsFree@4                 00533e0e f   kernel32:KERNEL32.dll
 0001:00132e14       _SetLastError@4            00533e14 f   kernel32:KERNEL32.dll
 0001:00132e1a       _TlsGetValue@4             00533e1a f   kernel32:KERNEL32.dll
 0001:00132e20       _GetCurrentThread@0        00533e20 f   kernel32:KERNEL32.dll
 0001:00132e26       _RtlUnwind@16              00533e26 f   kernel32:KERNEL32.dll
 0001:00132e2c       _HeapAlloc@12              00533e2c f   kernel32:KERNEL32.dll
 0001:00132e32       _HeapReAlloc@16            00533e32 f   kernel32:KERNEL32.dll
 0001:00132e38       _HeapFree@12               00533e38 f   kernel32:KERNEL32.dll
 0001:00132e3e       _HeapDestroy@4             00533e3e f   kernel32:KERNEL32.dll
 0001:00132e44       _HeapCreate@12             00533e44 f   kernel32:KERNEL32.dll
 0001:00132e4a       _VirtualFree@12            00533e4a f   kernel32:KERNEL32.dll
 0001:00132e50       _VirtualAlloc@16           00533e50 f   kernel32:KERNEL32.dll
 0001:00132e56       _SetFilePointer@16         00533e56 f   kernel32:KERNEL32.dll
 0001:00132e5c       _SetHandleCount@4          00533e5c f   kernel32:KERNEL32.dll
 0001:00132e62       _GetFileType@4             00533e62 f   kernel32:KERNEL32.dll
 0001:00132e68       _CloseHandle@4             00533e68 f   kernel32:KERNEL32.dll
 0001:00132e6e       _ReadFile@20               00533e6e f   kernel32:KERNEL32.dll
 0001:00132e74       _SetStdHandle@8            00533e74 f   kernel32:KERNEL32.dll
 0001:00132e7a       _UnhandledExceptionFilter@4 00533e7a f   kernel32:KERNEL32.dll
 0001:00132e80       _FreeEnvironmentStringsA@4 00533e80 f   kernel32:KERNEL32.dll
 0001:00132e86       _FreeEnvironmentStringsW@4 00533e86 f   kernel32:KERNEL32.dll
 0001:00132e8c       _GetEnvironmentStrings@0   00533e8c f   kernel32:KERNEL32.dll
 0001:00132e92       _GetEnvironmentStringsW@0  00533e92 f   kernel32:KERNEL32.dll
 0001:00132e98       _SetEnvironmentVariableW@8 00533e98 f   kernel32:KERNEL32.dll
 0001:00132e9e       _SetEnvironmentVariableA@8 00533e9e f   kernel32:KERNEL32.dll
 0001:00132ea4       _GetStringTypeA@20         00533ea4 f   kernel32:KERNEL32.dll
 0001:00132eaa       _GetStringTypeW@16         00533eaa f   kernel32:KERNEL32.dll
 0001:00132eb0       _GetCPInfo@8               00533eb0 f   kernel32:KERNEL32.dll
 0001:00132eb6       _IsValidLocale@8           00533eb6 f   kernel32:KERNEL32.dll
 0001:00132ebc       _IsValidCodePage@4         00533ebc f   kernel32:KERNEL32.dll
 0001:00132ec2       _GetLocaleInfoA@16         00533ec2 f   kernel32:KERNEL32.dll
 0001:00132ec8       _EnumSystemLocalesA@8      00533ec8 f   kernel32:KERNEL32.dll
 0001:00132ece       _GetUserDefaultLCID@0      00533ece f   kernel32:KERNEL32.dll
 0001:00132ed4       _CompareStringA@24         00533ed4 f   kernel32:KERNEL32.dll
 0001:00132eda       _CompareStringW@24         00533eda f   kernel32:KERNEL32.dll
 0001:00132ee0       _GetACP@0                  00533ee0 f   kernel32:KERNEL32.dll
 0001:00132ee6       _GetOEMCP@0                00533ee6 f   kernel32:KERNEL32.dll
 0001:00132eec       _CreateFileA@28            00533eec f   kernel32:KERNEL32.dll
 0001:00132ef2       _SetEndOfFile@4            00533ef2 f   kernel32:KERNEL32.dll
 0001:00132ef8       _GetLocaleInfoW@16         00533ef8 f   kernel32:KERNEL32.dll
 0001:00132efe       _EnumDisplaySettingsA@12   00533efe f   user32:USER32.dll
 0001:00132f04       _ChangeDisplaySettingsA@8  00533f04 f   user32:USER32.dll
 0001:00132f0a       _MessageBoxA@16            00533f0a f   user32:USER32.dll
 0001:00132f10       _SwapBuffers@4             00533f10 f   gdi32:GDI32.dll
 0001:00132f16       _SetPixelFormat@12         00533f16 f   gdi32:GDI32.dll
 0001:00132f1c       _DescribePixelFormat@16    00533f1c f   gdi32:GDI32.dll
 0001:00132f22       _GetDeviceGammaRamp@8      00533f22 f   gdi32:GDI32.dll
 0001:00132f28       _SetDeviceGammaRamp@8      00533f28 f   gdi32:GDI32.dll
 0001:00160dc0       __enc$textbss$begin        00561dc0     <linker-defined>
 0001:001f91c0       __enc$textbss$end          005fa1c0     <linker-defined>
 0002:0000001c       ??_C@_0BI@MGE@CL_GetUserCmd?3?5?$CFi?5?$DO?$DN?5?$CFi?$AA@ 005fb01c     cl_cgame.obj
 0002:00000038       ??_C@_0CB@OFIJ@CL_GetParseEntityState?3?5?$CFi?5?$DO?$DN?5?$CFi@ 005fb038     cl_cgame.obj
 0002:00000060       ??_C@_0CN@PLEH@CL_GetSnapshot?3?5truncated?5?$CFi?5ent@ 005fb060     cl_cgame.obj
 0002:00000098       ??_C@_0DI@HJAC@CL_GetSnapshot?3?5snapshotNumber?5?$DO@ 005fb098     cl_cgame.obj
 0002:000000dc       ??_C@_02DILL@?$CFs?$AA@    005fb0dc     cl_cgame.obj
 0002:000000e0       ??_C@_0BN@DND@MAX_GAMESTATE_CHARS?5exceeded?$AA@ 005fb0e0     cl_cgame.obj
 0002:00000104       ??_C@_0CB@BGFE@configstring?5?$DO?5MAX_CONFIGSTRINGS@ 005fb104     cl_cgame.obj
 0002:0000012c       ??_C@_0DC@JCNN@wait?5?$DL?5wait?5?$DL?5wait?5?$DL?5wait?5?$DL?5scre@ 005fb12c     cl_cgame.obj
 0002:00000168       ??_C@_0BA@OGON@clientLevelShot?$AA@ 005fb168     cl_cgame.obj
 0002:0000017c       ??_C@_0M@PKCG@map_restart?$AA@ 005fb17c     cl_cgame.obj
 0002:0000018c       ??_C@_02OFOB@cs?$AA@       005fb18c     cl_cgame.obj
 0002:00000190       ??_C@_01HMO@?$CC?$AA@      005fb190     cl_cgame.obj
 0002:00000194       ??_C@_04FDI@bcs2?$AA@      005fb194     cl_cgame.obj
 0002:0000019c       ??_C@_0BN@DOOP@bcs?5exceeded?5BIG_INFO_STRING?$AA@ 005fb19c     cl_cgame.obj
 0002:000001c0       ??_C@_04PKIB@bcs1?$AA@     005fb1c0     cl_cgame.obj
 0002:000001c8       ??_C@_09PHGO@cs?5?$CFs?5?$CC?$CFs?$AA@ 005fb1c8     cl_cgame.obj
 0002:000001d4       ??_C@_04FABG@bcs0?$AA@     005fb1d4     cl_cgame.obj
 0002:000001dc       ??_C@_0BF@BAGD@Server?5disconnected?6?$AA@ 005fb1dc     cl_cgame.obj
 0002:000001f8       ??_C@_0BJ@FHCI@Server?5Disconnected?5?9?5?$CFs?$AA@ 005fb1f8     cl_cgame.obj
 0002:00000218       ??_C@_0L@FPLB@disconnect?$AA@ 005fb218     cl_cgame.obj
 0002:00000228       ??_C@_0BI@HNMJ@serverCommand?3?5?$CFi?5?3?5?$CFs?6?$AA@ 005fb228     cl_cgame.obj
 0002:00000244       ??_C@_0DG@OLBD@CL_GetServerCommand?3?5requested?5a@ 005fb244     cl_cgame.obj
 0002:00000284       ??_C@_0DH@JEII@CL_GetServerCommand?3?5a?5reliable?5@ 005fb284     cl_cgame.obj
 0002:000002c8       ??_C@_0BK@JHAK@Bad?5cgame?5system?5trap?3?5?$CFi?$AA@ 005fb2c8     cl_cgame.obj
 0002:000002e8       ??_C@_01PLJA@0?$AA@        005fb2e8     cl_cgame.obj
 0002:000002ec       ??_C@_0DK@CDMA@g?3?2trep?9engine?2q3nocd?2quake3?91?43@ 005fb2ec     cl_cgame.obj
 0002:00000334       ??_C@_0BN@NDLI@CL_InitCGame?3?5?$CF5?42f?5seconds?6?$AA@ 005fb334     cl_cgame.obj
 0002:00000358       __real@8@4008fa00000000000000 005fb358     cl_cgame.obj
 0002:00000364       ??_C@_0BK@CENK@VM_Create?5on?5cgame?5failed?$AA@ 005fb364     cl_cgame.obj
 0002:00000384       ??_C@_05NMJ@cgame?$AA@     005fb384     cl_cgame.obj
 0002:0000038c       ??_C@_08NBGI@vm_cgame?$AA@ 005fb38c     cl_cgame.obj
 0002:00000398       ??_C@_0M@HBDC@maps?1?$CFs?4bsp?$AA@ 005fb398     cl_cgame.obj
 0002:000003a8       ??_C@_07DOCO@mapname?$AA@  005fb3a8     cl_cgame.obj
 0002:000003b4       ??_C@_03NGHA@?$CFi?5?$AA@  005fb3b4     cl_cgame.obj
 0002:000003b8       __real@4@3fff8000000000000000 005fb3b8     cl_cgame.obj
 0002:000003bc       __real@4@00000000000000000000 005fb3bc     cl_cgame.obj
 0002:000003c0       ??_C@_07OENF@?$DMFAST?$DO?5?$AA@ 005fb3c0     cl_cgame.obj
 0002:000003cc       ??_C@_08JABO@?$DMRESET?$DO?5?$AA@ 005fb3cc     cl_cgame.obj
 0002:000003d8       ??_C@_0N@KEEB@activeAction?$AA@ 005fb3d8     cl_cgame.obj
 0002:000003e8       ??_C@_00A@?$AA@            005fb3e8     cl_cgame.obj
 0002:000003ec       ??_C@_0CL@GBCF@cl?4snap?4serverTime?5?$DM?5cl?4oldFrame@ 005fb3ec     cl_cgame.obj
 0002:00000420       ??_C@_0CA@DODB@CL_SetCGameTime?3?5?$CBcl?4snap?4valid?$AA@ 005fb420     cl_cgame.obj
 0002:00000448       ??_C@_0BL@KCDG@trFMV?3?3stop?$CI?$CJ?0?5closing?5?$CFs?6?$AA@ 005fb448     cl_cin.obj
 0002:00000468       ??_C@_03HHKO@?$CFs?6?$AA@  005fb468     cl_cin.obj
 0002:0000046c       ??_C@_07LBIF@nextmap?$AA@  005fb46c     cl_cin.obj
 0002:00000478       ??_C@_0BE@GIAO@finished?5cinematic?6?$AA@ 005fb478     cl_cin.obj
 0002:00000490       __real@4@4005c800000000000000 005fb490     cl_cin.obj
 0002:00000494       __real@4@4000c000000000000000 005fb494     cl_cin.obj
 0002:00000498       ??_C@_0CA@BLCE@roq_size?$DO65536?$HM?$HMroq_id?$DN?$DN0x1084?6?$AA@ 005fb498     cl_cin.obj
 0002:000004c0       ??_C@_0DH@NHCF@HACK?3?5approxmimating?5cinematic?5f@ 005fb4c0     cl_cin.obj
 0002:00000504       ??_C@_0BP@KPDH@trFMV?3?3play?$CI?$CJ?0?5invalid?5RoQ?5ID?6?$AA@ 005fb504     cl_cin.obj
 0002:0000052c       ??_C@_0BL@DPEC@trFMV?3?3play?$CI?$CJ?0?5playing?5?$CFs?6?$AA@ 005fb52c     cl_cin.obj
 0002:0000054c       ??_C@_0BG@CHJ@play?$CI?$CFs?$CJ?0?5ROQSize?$DM?$DN0?6?$AA@ 005fb54c     cl_cin.obj
 0002:00000568       ??_C@_0BJ@NDGA@SCR_PlayCinematic?$CI?5?$CFs?5?$CJ?6?$AA@ 005fb568     cl_cin.obj
 0002:00000588       ??_C@_08MMAN@video?1?$CFs?$AA@ 005fb588     cl_cin.obj
 0002:00000594       ??_C@_01PCFE@?2?$AA@       005fb594     cl_cin.obj
 0002:00000598       ??_C@_01FDLN@?1?$AA@       005fb598     cl_cin.obj
 0002:0000059c       ??_C@_0BO@HGEE@CIN_HandleForVideo?3?5none?5free?$AA@ 005fb59c     cl_cin.obj
 0002:000005c0       __real@4@40048000000000000000 005fb5c0     cl_cin.obj
 0002:000005c4       ??_C@_07CAIP@end?4roq?$AA@ 005fb5c4     cl_cin.obj
 0002:000005d0       ??_C@_0M@HFEF@demoend?4roq?$AA@ 005fb5d0     cl_cin.obj
 0002:000005e0       ??_C@_0BE@HIMC@CL_PlayCinematic_f?6?$AA@ 005fb5e0     cl_cin.obj
 0002:000005f8       ??_C@_01BJG@?6?$AA@        005fb5f8     cl_console.obj
 0002:000005fc       ??_C@_0BH@PIJG@ERROR?3?5couldn?8t?5open?4?6?$AA@ 005fb5fc     cl_console.obj
 0002:00000618       ??_C@_0BM@IEDC@Dumped?5console?5text?5to?5?$CFs?4?6?$AA@ 005fb618     cl_console.obj
 0002:0000063c       ??_C@_0BL@HCGG@usage?3?5condump?5?$DMfilename?$DO?6?$AA@ 005fb63c     cl_console.obj
 0002:0000065c       ??_C@_07BOCA@condump?$AA@  005fb65c     cl_console.obj
 0002:00000668       ??_C@_05BDJO@clear?$AA@    005fb668     cl_console.obj
 0002:00000670       ??_C@_0N@BFGA@messagemode4?$AA@ 005fb670     cl_console.obj
 0002:00000680       ??_C@_0N@EAIF@messagemode3?$AA@ 005fb680     cl_console.obj
 0002:00000690       ??_C@_0N@OKBC@messagemode2?$AA@ 005fb690     cl_console.obj
 0002:000006a0       ??_C@_0M@KMFF@messagemode?$AA@ 005fb6a0     cl_console.obj
 0002:000006b0       ??_C@_0O@PBHO@toggleconsole?$AA@ 005fb6b0     cl_console.obj
 0002:000006c0       ??_C@_0N@IFHN@scr_conspeed?$AA@ 005fb6c0     cl_console.obj
 0002:000006d0       ??_C@_0P@KPEI@con_notifytime?$AA@ 005fb6d0     cl_console.obj
 0002:000006e4       ??_C@_01ECJ@3?$AA@         005fb6e4     cl_console.obj
 0002:000006e8       ??_C@_0N@LPCC@?$FLskipnotify?$FN?$AA@ 005fb6e8     cl_console.obj
 0002:000006f8       __real@4@40038000000000000000 005fb6f8     cl_console.obj
 0002:000006fc       __real@4@40028000000000000000 005fb6fc     cl_console.obj
 0002:00000700       ??_C@_04BNNP@say?3?$AA@    005fb700     cl_console.obj
 0002:00000708       ??_C@_09GEPG@say_team?3?$AA@ 005fb708     cl_console.obj
 0002:00000714       __real@4@4008fa00000000000000 005fb714     cl_console.obj
 0002:00000718       ??_C@_08GBPG@Q3?51?432b?$AA@ 005fb718     cl_console.obj
 0002:00000724       __real@4@40008000000000000000 005fb724     cl_console.obj
 0002:00000728       __real@4@4007f000000000000000 005fb728     cl_console.obj
 0002:00000730       __real@8@3ff583126e978d4fe000 005fb730     cl_console.obj
 0002:0000073c       ??_C@_0BP@GHEI@Three?5keys?5down?5for?5a?5button?$CB?6?$AA@ 005fb73c     cl_input.obj
 0002:00000768       __real@8@3ff7b400000000000000 005fb768     cl_input.obj
 0002:00000774       ??_C@_0BO@ILFF@CL_JoystickEvent?3?5bad?5axis?5?$CFi?$AA@ 005fb774     cl_input.obj
 0002:00000798       ??_C@_08PFDJ@?$CFf?5?3?5?$CFf?6?$AA@ 005fb798     cl_input.obj
 0002:000007a8       __real@8@3ffe8000000000000000 005fb7a8     cl_input.obj
 0002:000007b4       __real@4@4007b400000000000000 005fb7b4     cl_input.obj
 0002:000007b8       __real@4@400f8000000000000000 005fb7b8     cl_input.obj
 0002:000007bc       __real@4@4005b400000000000000 005fb7bc     cl_input.obj
 0002:000007c0       ??_C@_03FIFM@125?$AA@      005fb7c0     cl_input.obj
 0002:000007c4       ??_C@_0O@PADL@cl_maxpackets?$AA@ 005fb7c4     cl_input.obj
 0002:000007d4       ??_C@_02FCAK@15?$AA@       005fb7d4     cl_input.obj
 0002:000007d8       ??_C@_0DK@CLKF@WARNING?3?5?$CD462?5unsent?5fragments?5?$CI@ 005fb7d8     cl_input.obj
 0002:00000820       ??_C@_04KIIN@?$CI?$CFi?$CJ?$AA@ 005fb820     cl_input.obj
 0002:00000828       ??_C@_0BF@GEOO@MAX_PACKET_USERCMDS?6?$AA@ 005fb828     cl_input.obj
 0002:00000844       ??_C@_01PLFL@5?$AA@        005fb844     cl_input.obj
 0002:00000848       ??_C@_0N@EJPP@cl_packetdup?$AA@ 005fb848     cl_input.obj
 0002:00000858       ??_C@_02EFBJ@?4?5?$AA@     005fb858     cl_input.obj
 0002:0000085c       ??_C@_0N@KEJA@cl_debugMove?$AA@ 005fb85c     cl_input.obj
 0002:0000086c       ??_C@_0L@NLAG@cl_nodelta?$AA@ 005fb86c     cl_input.obj
 0002:0000087c       ??_C@_06KJCC@?9mlook?$AA@  005fb87c     cl_input.obj
 0002:00000884       ??_C@_06NEOC@?$CLmlook?$AA@ 005fb884     cl_input.obj
 0002:0000088c       ??_C@_09DGDL@?9button14?$AA@ 005fb88c     cl_input.obj
 0002:00000898       ??_C@_09LLIL@?$CLbutton14?$AA@ 005fb898     cl_input.obj
 0002:000008a4       ??_C@_09GDNO@?9button13?$AA@ 005fb8a4     cl_input.obj
 0002:000008b0       ??_C@_09OOGO@?$CLbutton13?$AA@ 005fb8b0     cl_input.obj
 0002:000008bc       ??_C@_09MJEJ@?9button12?$AA@ 005fb8bc     cl_input.obj
 0002:000008c8       ??_C@_09EEPJ@?$CLbutton12?$AA@ 005fb8c8     cl_input.obj
 0002:000008d4       ??_C@_09DGPA@?9button11?$AA@ 005fb8d4     cl_input.obj
 0002:000008e0       ??_C@_09LLEA@?$CLbutton11?$AA@ 005fb8e0     cl_input.obj
 0002:000008ec       ??_C@_09JMGH@?9button10?$AA@ 005fb8ec     cl_input.obj
 0002:000008f8       ??_C@_09BBNH@?$CLbutton10?$AA@ 005fb8f8     cl_input.obj
 0002:00000904       ??_C@_08KDDC@?9button9?$AA@ 005fb904     cl_input.obj
 0002:00000910       ??_C@_08BDNF@?$CLbutton9?$AA@ 005fb910     cl_input.obj
 0002:0000091c       ??_C@_08JKF@?9button8?$AA@ 005fb91c     cl_input.obj
 0002:00000928       ??_C@_08LJEC@?$CLbutton8?$AA@ 005fb928     cl_input.obj
 0002:00000934       ??_C@_08IPI@?9button7?$AA@ 005fb934     cl_input.obj
 0002:00000940       ??_C@_08LIBP@?$CLbutton7?$AA@ 005fb940     cl_input.obj
 0002:0000094c       ??_C@_08KCGP@?9button6?$AA@ 005fb94c     cl_input.obj
 0002:00000958       ??_C@_08BCII@?$CLbutton6?$AA@ 005fb958     cl_input.obj
 0002:00000964       ??_C@_08FNNG@?9button5?$AA@ 005fb964     cl_input.obj
 0002:00000970       ??_C@_08ONDB@?$CLbutton5?$AA@ 005fb970     cl_input.obj
 0002:0000097c       ??_C@_08PHEB@?9button4?$AA@ 005fb97c     cl_input.obj
 0002:00000988       ??_C@_08EHKG@?$CLbutton4?$AA@ 005fb988     cl_input.obj
 0002:00000994       ??_C@_08KCKE@?9button3?$AA@ 005fb994     cl_input.obj
 0002:000009a0       ??_C@_08BCED@?$CLbutton3?$AA@ 005fb9a0     cl_input.obj
 0002:000009ac       ??_C@_08IDD@?9button2?$AA@ 005fb9ac     cl_input.obj
 0002:000009b8       ??_C@_08LINE@?$CLbutton2?$AA@ 005fb9b8     cl_input.obj
 0002:000009c4       ??_C@_08PHIK@?9button1?$AA@ 005fb9c4     cl_input.obj
 0002:000009d0       ??_C@_08EHGN@?$CLbutton1?$AA@ 005fb9d0     cl_input.obj
 0002:000009dc       ??_C@_08FNBN@?9button0?$AA@ 005fb9dc     cl_input.obj
 0002:000009e8       ??_C@_08ONPK@?$CLbutton0?$AA@ 005fb9e8     cl_input.obj
 0002:000009f4       ??_C@_07EHKH@?9attack?$AA@ 005fb9f4     cl_input.obj
 0002:00000a00       ??_C@_07KANK@?$CLattack?$AA@ 005fba00     cl_input.obj
 0002:00000a0c       ??_C@_06CNLP@?9speed?$AA@  005fba0c     cl_input.obj
 0002:00000a14       ??_C@_06FAHP@?$CLspeed?$AA@ 005fba14     cl_input.obj
 0002:00000a1c       ??_C@_0L@BMPO@?9moveright?$AA@ 005fba1c     cl_input.obj
 0002:00000a2c       ??_C@_0L@DMHD@?$CLmoveright?$AA@ 005fba2c     cl_input.obj
 0002:00000a3c       ??_C@_09MLIL@?9moveleft?$AA@ 005fba3c     cl_input.obj
 0002:00000a48       ??_C@_09EGDL@?$CLmoveleft?$AA@ 005fba48     cl_input.obj
 0002:00000a54       ??_C@_07OMD@?9strafe?$AA@  005fba54     cl_input.obj
 0002:00000a60       ??_C@_07OJLO@?$CLstrafe?$AA@ 005fba60     cl_input.obj
 0002:00000a6c       ??_C@_09OKBO@?9lookdown?$AA@ 005fba6c     cl_input.obj
 0002:00000a78       ??_C@_09GHKO@?$CLlookdown?$AA@ 005fba78     cl_input.obj
 0002:00000a84       ??_C@_07PBGO@?9lookup?$AA@ 005fba84     cl_input.obj
 0002:00000a90       ??_C@_07BGBD@?$CLlookup?$AA@ 005fba90     cl_input.obj
 0002:00000a9c       ??_C@_05BMBD@?9back?$AA@   005fba9c     cl_input.obj
 0002:00000aa4       ??_C@_05NMMM@?$CLback?$AA@ 005fbaa4     cl_input.obj
 0002:00000aac       ??_C@_08MLFI@?9forward?$AA@ 005fbaac     cl_input.obj
 0002:00000ab8       ??_C@_08HLLP@?$CLforward?$AA@ 005fbab8     cl_input.obj
 0002:00000ac4       ??_C@_06CDHA@?9right?$AA@  005fbac4     cl_input.obj
 0002:00000acc       ??_C@_06FOLA@?$CLright?$AA@ 005fbacc     cl_input.obj
 0002:00000ad4       ??_C@_05EFBI@?9left?$AA@   005fbad4     cl_input.obj
 0002:00000adc       ??_C@_05IFMH@?$CLleft?$AA@ 005fbadc     cl_input.obj
 0002:00000ae4       ??_C@_09BGG@?9movedown?$AA@ 005fbae4     cl_input.obj
 0002:00000af0       ??_C@_09IMNG@?$CLmovedown?$AA@ 005fbaf0     cl_input.obj
 0002:00000afc       ??_C@_07ECOP@?9moveup?$AA@ 005fbafc     cl_input.obj
 0002:00000b08       ??_C@_07KFJC@?$CLmoveup?$AA@ 005fbb08     cl_input.obj
 0002:00000b14       ??_C@_0L@EKJH@centerview?$AA@ 005fbb14     cl_input.obj
 0002:00000b24       ??_C@_09MGLF@SEMICOLON?$AA@ 005fbb24     cl_keys.obj
 0002:00000b30       ??_C@_05JKKC@PAUSE?$AA@    005fbb30     cl_keys.obj
 0002:00000b38       ??_C@_09GOPE@KP_EQUALS?$AA@ 005fbb38     cl_keys.obj
 0002:00000b44       ??_C@_07JNPI@KP_STAR?$AA@  005fbb44     cl_keys.obj
 0002:00000b50       ??_C@_0L@KIFL@KP_NUMLOCK?$AA@ 005fbb50     cl_keys.obj
 0002:00000b60       ??_C@_07NJEF@KP_PLUS?$AA@  005fbb60     cl_keys.obj
 0002:00000b6c       ??_C@_08FMBO@KP_MINUS?$AA@ 005fbb6c     cl_keys.obj
 0002:00000b78       ??_C@_08HEPO@KP_SLASH?$AA@ 005fbb78     cl_keys.obj
 0002:00000b84       ??_C@_06NBBC@KP_DEL?$AA@   005fbb84     cl_keys.obj
 0002:00000b8c       ??_C@_06HNGN@KP_INS?$AA@   005fbb8c     cl_keys.obj
 0002:00000b94       ??_C@_08HCEG@KP_ENTER?$AA@ 005fbb94     cl_keys.obj
 0002:00000ba0       ??_C@_07DOML@KP_PGDN?$AA@  005fbba0     cl_keys.obj
 0002:00000bac       ??_C@_0N@KEGD@KP_DOWNARROW?$AA@ 005fbbac     cl_keys.obj
 0002:00000bbc       ??_C@_06FJBH@KP_END?$AA@   005fbbbc     cl_keys.obj
 0002:00000bc4       ??_C@_0O@JPAK@KP_RIGHTARROW?$AA@ 005fbbc4     cl_keys.obj
 0002:00000bd4       ??_C@_04FKHF@KP_5?$AA@     005fbbd4     cl_keys.obj
 0002:00000bdc       ??_C@_0N@HMIH@KP_LEFTARROW?$AA@ 005fbbdc     cl_keys.obj
 0002:00000bec       ??_C@_07EAHC@KP_PGUP?$AA@  005fbbec     cl_keys.obj
 0002:00000bf8       ??_C@_0L@LHCJ@KP_UPARROW?$AA@ 005fbbf8     cl_keys.obj
 0002:00000c08       ??_C@_07NJDA@KP_HOME?$AA@  005fbc08     cl_keys.obj
 0002:00000c14       ??_C@_05IBAJ@AUX16?$AA@    005fbc14     cl_keys.obj
 0002:00000c1c       ??_C@_05HOLA@AUX15?$AA@    005fbc1c     cl_keys.obj
 0002:00000c24       ??_C@_05NECH@AUX14?$AA@    005fbc24     cl_keys.obj
 0002:00000c2c       ??_C@_05IBMC@AUX13?$AA@    005fbc2c     cl_keys.obj
 0002:00000c34       ??_C@_05CLFF@AUX12?$AA@    005fbc34     cl_keys.obj
 0002:00000c3c       ??_C@_05NEOM@AUX11?$AA@    005fbc3c     cl_keys.obj
 0002:00000c44       ??_C@_05HOHL@AUX10?$AA@    005fbc44     cl_keys.obj
 0002:00000c4c       ??_C@_04LPLM@AUX9?$AA@     005fbc4c     cl_keys.obj
 0002:00000c54       ??_C@_04BFCL@AUX8?$AA@     005fbc54     cl_keys.obj
 0002:00000c5c       ??_C@_04BEHG@AUX7?$AA@     005fbc5c     cl_keys.obj
 0002:00000c64       ??_C@_04LOOB@AUX6?$AA@     005fbc64     cl_keys.obj
 0002:00000c6c       ??_C@_04EBFI@AUX5?$AA@     005fbc6c     cl_keys.obj
 0002:00000c74       ??_C@_04OLMP@AUX4?$AA@     005fbc74     cl_keys.obj
 0002:00000c7c       ??_C@_04LOCK@AUX3?$AA@     005fbc7c     cl_keys.obj
 0002:00000c84       ??_C@_04BELN@AUX2?$AA@     005fbc84     cl_keys.obj
 0002:00000c8c       ??_C@_04OLAE@AUX1?$AA@     005fbc8c     cl_keys.obj
 0002:00000c94       ??_C@_05IAEG@JOY32?$AA@    005fbc94     cl_keys.obj
 0002:00000c9c       ??_C@_05HPPP@JOY31?$AA@    005fbc9c     cl_keys.obj
 0002:00000ca4       ??_C@_05NFGI@JOY30?$AA@    005fbca4     cl_keys.obj
 0002:00000cac       ??_C@_05DNON@JOY29?$AA@    005fbcac     cl_keys.obj
 0002:00000cb4       ??_C@_05JHHK@JOY28?$AA@    005fbcb4     cl_keys.obj
 0002:00000cbc       ??_C@_05JGCH@JOY27?$AA@    005fbcbc     cl_keys.obj
 0002:00000cc4       ??_C@_05DMLA@JOY26?$AA@    005fbcc4     cl_keys.obj
 0002:00000ccc       ??_C@_05MDAJ@JOY25?$AA@    005fbccc     cl_keys.obj
 0002:00000cd4       ??_C@_05GJJO@JOY24?$AA@    005fbcd4     cl_keys.obj
 0002:00000cdc       ??_C@_05DMHL@JOY23?$AA@    005fbcdc     cl_keys.obj
 0002:00000ce4       ??_C@_05JGOM@JOY22?$AA@    005fbce4     cl_keys.obj
 0002:00000cec       ??_C@_05GJFF@JOY21?$AA@    005fbcec     cl_keys.obj
 0002:00000cf4       ??_C@_05MDMC@JOY20?$AA@    005fbcf4     cl_keys.obj
 0002:00000cfc       ??_C@_05GBC@JOY19?$AA@     005fbcfc     cl_keys.obj
 0002:00000d04       ??_C@_05KMIF@JOY18?$AA@    005fbd04     cl_keys.obj
 0002:00000d0c       ??_C@_05KNNI@JOY17?$AA@    005fbd0c     cl_keys.obj
 0002:00000d14       ??_C@_05HEP@JOY16?$AA@     005fbd14     cl_keys.obj
 0002:00000d1c       ??_C@_05PIPG@JOY15?$AA@    005fbd1c     cl_keys.obj
 0002:00000d24       ??_C@_05FCGB@JOY14?$AA@    005fbd24     cl_keys.obj
 0002:00000d2c       ??_C@_05HIE@JOY13?$AA@     005fbd2c     cl_keys.obj
 0002:00000d34       ??_C@_05KNBD@JOY12?$AA@    005fbd34     cl_keys.obj
 0002:00000d3c       ??_C@_05FCKK@JOY11?$AA@    005fbd3c     cl_keys.obj
 0002:00000d44       ??_C@_05PIDN@JOY10?$AA@    005fbd44     cl_keys.obj
 0002:00000d4c       ??_C@_04PJIC@JOY9?$AA@     005fbd4c     cl_keys.obj
 0002:00000d54       ??_C@_04FDBF@JOY8?$AA@     005fbd54     cl_keys.obj
 0002:00000d5c       ??_C@_04FCEI@JOY7?$AA@     005fbd5c     cl_keys.obj
 0002:00000d64       ??_C@_04PINP@JOY6?$AA@     005fbd64     cl_keys.obj
 0002:00000d6c       ??_C@_04HGG@JOY5?$AA@      005fbd6c     cl_keys.obj
 0002:00000d74       ??_C@_04KNPB@JOY4?$AA@     005fbd74     cl_keys.obj
 0002:00000d7c       ??_C@_04PIBE@JOY3?$AA@     005fbd7c     cl_keys.obj
 0002:00000d84       ??_C@_04FCID@JOY2?$AA@     005fbd84     cl_keys.obj
 0002:00000d8c       ??_C@_04KNDK@JOY1?$AA@     005fbd8c     cl_keys.obj
 0002:00000d94       ??_C@_0L@FKGC@MWHEELDOWN?$AA@ 005fbd94     cl_keys.obj
 0002:00000da4       ??_C@_08HCBF@MWHEELUP?$AA@ 005fbda4     cl_keys.obj
 0002:00000db0       ??_C@_06JABH@MOUSE5?$AA@   005fbdb0     cl_keys.obj
 0002:00000db8       ??_C@_06DKIA@MOUSE4?$AA@   005fbdb8     cl_keys.obj
 0002:00000dc0       ??_C@_06GPGF@MOUSE3?$AA@   005fbdc0     cl_keys.obj
 0002:00000dc8       ??_C@_06MFPC@MOUSE2?$AA@   005fbdc8     cl_keys.obj
 0002:00000dd0       ??_C@_06DKEL@MOUSE1?$AA@   005fbdd0     cl_keys.obj
 0002:00000dd8       ??_C@_03PIHE@END?$AA@      005fbdd8     cl_keys.obj
 0002:00000ddc       ??_C@_04CDJB@HOME?$AA@     005fbddc     cl_keys.obj
 0002:00000de4       ??_C@_04LKND@PGUP?$AA@     005fbde4     cl_keys.obj
 0002:00000dec       ??_C@_04MEGK@PGDN?$AA@     005fbdec     cl_keys.obj
 0002:00000df4       ??_C@_03HAHB@DEL?$AA@      005fbdf4     cl_keys.obj
 0002:00000df8       ??_C@_03NMAO@INS?$AA@      005fbdf8     cl_keys.obj
 0002:00000dfc       ??_C@_03GODC@F12?$AA@      005fbdfc     cl_keys.obj
 0002:00000e00       ??_C@_03JBIL@F11?$AA@      005fbe00     cl_keys.obj
 0002:00000e04       ??_C@_03DLBM@F10?$AA@      005fbe04     cl_keys.obj
 0002:00000e08       ??_C@_02NIOF@F9?$AA@       005fbe08     cl_keys.obj
 0002:00000e0c       ??_C@_02HCHC@F8?$AA@       005fbe0c     cl_keys.obj
 0002:00000e10       ??_C@_02HDCP@F7?$AA@       005fbe10     cl_keys.obj
 0002:00000e14       ??_C@_02NJLI@F6?$AA@       005fbe14     cl_keys.obj
 0002:00000e18       ??_C@_02CGAB@F5?$AA@       005fbe18     cl_keys.obj
 0002:00000e1c       ??_C@_02IMJG@F4?$AA@       005fbe1c     cl_keys.obj
 0002:00000e20       ??_C@_02NJHD@F3?$AA@       005fbe20     cl_keys.obj
 0002:00000e24       ??_C@_02HDOE@F2?$AA@       005fbe24     cl_keys.obj
 0002:00000e28       ??_C@_02IMFN@F1?$AA@       005fbe28     cl_keys.obj
 0002:00000e2c       ??_C@_08FOPG@CAPSLOCK?$AA@ 005fbe2c     cl_keys.obj
 0002:00000e38       ??_C@_07KNFB@COMMAND?$AA@  005fbe38     cl_keys.obj
 0002:00000e44       ??_C@_05KJME@SHIFT?$AA@    005fbe44     cl_keys.obj
 0002:00000e4c       ??_C@_04GBJE@CTRL?$AA@     005fbe4c     cl_keys.obj
 0002:00000e54       ??_C@_03DEAL@ALT?$AA@      005fbe54     cl_keys.obj
 0002:00000e58       ??_C@_0L@NCHP@RIGHTARROW?$AA@ 005fbe58     cl_keys.obj
 0002:00000e68       ??_C@_09JKI@LEFTARROW?$AA@ 005fbe68     cl_keys.obj
 0002:00000e74       ??_C@_09NBEM@DOWNARROW?$AA@ 005fbe74     cl_keys.obj
 0002:00000e80       ??_C@_07CPJH@UPARROW?$AA@  005fbe80     cl_keys.obj
 0002:00000e8c       ??_C@_09PBAJ@BACKSPACE?$AA@ 005fbe8c     cl_keys.obj
 0002:00000e98       ??_C@_05JCH@SPACE?$AA@     005fbe98     cl_keys.obj
 0002:00000ea0       ??_C@_06MJIP@ESCAPE?$AA@   005fbea0     cl_keys.obj
 0002:00000ea8       ??_C@_05NLLM@ENTER?$AA@    005fbea8     cl_keys.obj
 0002:00000eb0       ??_C@_03KAHL@TAB?$AA@      005fbeb0     cl_keys.obj
 0002:00000eb4       ??_C@_0BM@MJON@drawLen?5?$DO?$DN?5MAX_STRING_CHARS?$AA@ 005fbeb4     cl_keys.obj
 0002:00000ed8       ??_C@_08HKKI@cmd?5say?5?$AA@ 005fbed8     cl_keys.obj
 0002:00000ee4       ??_C@_04OMIA@?$FN?$CFs?6?$AA@ 005fbee4     cl_keys.obj
 0002:00000eec       ??_C@_03EEJE@?2?$CFs?$AA@  005fbeec     cl_keys.obj
 0002:00000ef0       ??_C@_06MIF@clear?6?$AA@   005fbef0     cl_keys.obj
 0002:00000ef8       ??_C@_09DILA@say?5?$CC?$CFs?$CC?6?$AA@ 005fbef8     cl_keys.obj
 0002:00000f04       ??_C@_0P@EHI@say_team?5?$CC?$CFs?$CC?6?$AA@ 005fbf04     cl_keys.obj
 0002:00000f18       ??_C@_0O@HHDB@tell?5?$CFi?5?$CC?$CFs?$CC?6?$AA@ 005fbf18     cl_keys.obj
 0002:00000f28       ??_C@_0P@PHGD@?$DMOUT?5OF?5RANGE?$DO?$AA@ 005fbf28     cl_keys.obj
 0002:00000f3c       ??_C@_0BA@KAHB@?$DMKEY?5NOT?5FOUND?$DO?$AA@ 005fbf3c     cl_keys.obj
 0002:00000f50       ??_C@_0BI@GELF@?$CC?$CFs?$CC?5isn?8t?5a?5valid?5key?6?$AA@ 005fbf50     cl_keys.obj
 0002:00000f6c       ??_C@_0CL@NHBD@unbind?5?$DMkey?$DO?5?3?5remove?5commands?5f@ 005fbf6c     cl_keys.obj
 0002:00000fa0       ??_C@_01FCOA@?5?$AA@       005fbfa0     cl_keys.obj
 0002:00000fa4       ??_C@_0BD@DLNG@?$CC?$CFs?$CC?5is?5not?5bound?6?$AA@ 005fbfa4     cl_keys.obj
 0002:00000fbc       ??_C@_0N@DLB@?$CC?$CFs?$CC?5?$DN?5?$CC?$CFs?$CC?6?$AA@ 005fbfbc     cl_keys.obj
 0002:00000fcc       ??_C@_0DC@BOPP@bind?5?$DMkey?$DO?5?$FLcommand?$FN?5?3?5attach?5a?5@ 005fbfcc     cl_keys.obj
 0002:00001008       ??_C@_0O@DFKM@bind?5?$CFs?5?$CC?$CFs?$CC?6?$AA@ 005fc008     cl_keys.obj
 0002:00001018       ??_C@_0L@GHDI@unbindall?6?$AA@ 005fc018     cl_keys.obj
 0002:00001028       ??_C@_08IDHN@?$CFs?5?$CC?$CFs?$CC?6?$AA@ 005fc028     cl_keys.obj
 0002:00001034       ??_C@_08KMAH@bindlist?$AA@ 005fc034     cl_keys.obj
 0002:00001040       ??_C@_09KOHL@unbindall?$AA@ 005fc040     cl_keys.obj
 0002:0000104c       ??_C@_06NILL@unbind?$AA@   005fc04c     cl_keys.obj
 0002:00001054       ??_C@_04FBJP@bind?$AA@     005fc054     cl_keys.obj
 0002:0000105c       ??_C@_0L@MGDF@?9?$CFs?5?$CFi?5?$CFi?6?$AA@ 005fc05c     cl_keys.obj
 0002:0000106c       ??_C@_09PAKF@?$CFs?5?$CFi?5?$CFi?6?$AA@ 005fc06c     cl_keys.obj
 0002:00001078       ??_C@_0CK@NEIL@?$CFs?5is?5unbound?0?5use?5controls?5menu@ 005fc078     cl_keys.obj
 0002:000010ac       ??_C@_08HOKJ@nextdemo?$AA@ 005fc0ac     cl_keys.obj
 0002:000010b8       ??_C@_0P@LNMC@com_cameraMode?$AA@ 005fc0b8     cl_keys.obj
 0002:000010cc       ??_C@_0BI@PHHK@Client?5command?5overflow?$AA@ 005fc0cc     cl_main.obj
 0002:000010e8       __real@4@4001a000000000000000 005fc0e8     cl_main.obj
 0002:000010ec       __real@4@400dfffe000000000000 005fc0ec     cl_main.obj
 0002:000010f0       ??_C@_0P@DHN@Stopped?5demo?4?6?$AA@ 005fc0f0     cl_main.obj
 0002:00001104       ??_C@_0BH@BFNH@Not?5recording?5a?5demo?4?6?$AA@ 005fc104     cl_main.obj
 0002:00001120       ??_C@_0N@JGPL@demo?$CFi?$CFi?$CFi?$CFi?$AA@ 005fc120     cl_main.obj
 0002:00001130       ??_C@_0N@KONB@demo9999?4tga?$AA@ 005fc130     cl_main.obj
 0002:00001140       ??_C@_0BA@IGMC@ui_recordSPDemo?$AA@ 005fc140     cl_main.obj
 0002:00001154       ??_C@_0BC@JCJK@recording?5to?5?$CFs?4?6?$AA@ 005fc154     cl_main.obj
 0002:0000116c       ??_C@_0P@IPLD@demos?1?$CFs?4dm_?$CFd?$AA@ 005fc16c     cl_main.obj
 0002:00001180       ??_C@_0FA@FEMI@?$FO3WARNING?3?5You?5should?5set?5?8g_syn@ 005fc180     cl_main.obj
 0002:000011e0       ??_C@_0BF@HEGL@g_synchronousClients?$AA@ 005fc1e0     cl_main.obj
 0002:000011fc       ??_C@_0CD@JMHA@You?5must?5be?5in?5a?5level?5to?5record@ 005fc1fc     cl_main.obj
 0002:00001228       ??_C@_0BE@LCIN@Already?5recording?4?6?$AA@ 005fc228     cl_main.obj
 0002:00001240       ??_C@_0BD@ONLN@record?5?$DMdemoname?$DO?6?$AA@ 005fc240     cl_main.obj
 0002:00001258       ??_C@_0CF@CLGN@?$CFi?5frames?0?5?$CF3?41f?5seconds?3?5?$CF3?41f?5@ 005fc258     cl_main.obj
 0002:00001284       ??_C@_0BK@BHJM@Demo?5file?5was?5truncated?4?6?$AA@ 005fc284     cl_main.obj
 0002:000012a4       ??_C@_0CM@NAJF@CL_ReadDemoMessage?3?5demoMsglen?5?$DO@ 005fc2a4     cl_main.obj
 0002:000012d8       ??_C@_0BB@BBNG@couldn?8t?5open?5?$CFs?$AA@ 005fc2d8     cl_main.obj
 0002:000012ec       ??_C@_0CF@IBNK@Protocol?5?$CFd?5not?5supported?5for?5de@ 005fc2ec     cl_main.obj
 0002:00001318       ??_C@_08IDHK@demos?1?$CFs?$AA@ 005fc318     cl_main.obj
 0002:00001324       ??_C@_0O@NBEJ@sv_killserver?$AA@ 005fc324     cl_main.obj
 0002:00001334       ??_C@_01FBAH@1?$AA@        005fc334     cl_main.obj
 0002:00001338       ??_C@_0BF@CEBG@playdemo?5?$DMdemoname?$DO?6?$AA@ 005fc338     cl_main.obj
 0002:00001354       ??_C@_0P@NNIP@Not?5found?3?5?$CFs?6?$AA@ 005fc354     cl_main.obj
 0002:00001368       ??_C@_0P@CDJP@Demo?5file?3?5?$CFs?6?$AA@ 005fc368     cl_main.obj
 0002:0000137c       ??_C@_03CHOC@d1?6?$AA@     005fc37c     cl_main.obj
 0002:00001380       ??_C@_0BB@FBNK@CL_NextDemo?3?5?$CFs?6?$AA@ 005fc380     cl_main.obj
 0002:00001394       ??_C@_09FBHK@localhost?$AA@ 005fc394     cl_main.obj
 0002:000013a0       ??_C@_09CPMK@sv_cheats?$AA@ 005fc3a0     cl_main.obj
 0002:000013ac       ??_C@_0BA@COHM@cl_downloadName?$AA@ 005fc3ac     cl_main.obj
 0002:000013c0       ??_C@_0P@KEJI@r_uiFullScreen?$AA@ 005fc3c0     cl_main.obj
 0002:000013d4       ??_C@_0BG@GPBN@Unknown?5command?5?$CC?$CFs?$CC?6?$AA@ 005fc3d4     cl_main.obj
 0002:000013f0       ??_C@_0O@PKH@getmotd?5?$CC?$CFs?$CC?6?$AA@ 005fc3f0     cl_main.obj
 0002:00001400       ??_C@_07BPOH@version?$AA@  005fc400     cl_main.obj
 0002:0000140c       ??_C@_08EKBH@renderer?$AA@ 005fc40c     cl_main.obj
 0002:00001418       ??_C@_09DMHI@challenge?$AA@ 005fc418     cl_main.obj
 0002:00001424       ??_C@_02JAFN@?$CFi?$AA@    005fc424     cl_main.obj
 0002:00001428       ??_C@_0BP@NJKP@?$CFs?5resolved?5to?5?$CFi?4?$CFi?4?$CFi?4?$CFi?3?$CFi?6?$AA@ 005fc428     cl_main.obj
 0002:00001450       ??_C@_0BK@CCO@Couldn?8t?5resolve?5address?6?$AA@ 005fc450     cl_main.obj
 0002:00001470       ??_C@_0O@CDPJ@Resolving?5?$CFs?6?$AA@ 005fc470     cl_main.obj
 0002:00001480       ??_C@_0BH@EEBI@update?4quake3arena?4com?$AA@ 005fc480     cl_main.obj
 0002:0000149c       ??_C@_0BG@OPCL@getKeyAuthorize?5?$CFi?5?$CFs?$AA@ 005fc49c     cl_main.obj
 0002:000014b8       ??_C@_0N@FLGN@cl_anonymous?$AA@ 005fc4b8     cl_main.obj
 0002:000014c8       ??_C@_0BM@CGPL@Not?5connected?5to?5a?5server?4?6?$AA@ 005fc4c8     cl_main.obj
 0002:000014ec       ??_C@_0O@PFJM@?$CFs?5undefined?6?$AA@ 005fc4ec     cl_main.obj
 0002:000014fc       ??_C@_06IKKH@?$CFs?$DN?$CFs?6?$AA@ 005fc4fc     cl_main.obj
 0002:00001504       ??_C@_01KPOD@?$DN?$AA@     005fc504     cl_main.obj
 0002:00001508       ??_C@_0BJ@NAGC@Disconnected?5from?5server?$AA@ 005fc508     cl_main.obj
 0002:00001528       ??_C@_0BG@NDMH@ui_singlePlayerActive?$AA@ 005fc528     cl_main.obj
 0002:00001544       ??_C@_0M@HMCF@connect?5?$CFs?6?$AA@ 005fc544     cl_main.obj
 0002:00001554       ??_C@_0BP@HOMB@Can?8t?5reconnect?5to?5localhost?4?6?$AA@ 005fc554     cl_main.obj
 0002:0000157c       ??_C@_0BI@CKIO@cl_currentServerAddress?$AA@ 005fc57c     cl_main.obj
 0002:00001598       ??_C@_0BE@PNHG@Bad?5server?5address?6?$AA@ 005fc598     cl_main.obj
 0002:000015b0       ??_C@_0N@NHEN@Server?5quit?6?$AA@ 005fc5b0     cl_main.obj
 0002:000015c0       ??_C@_0BJ@IPGG@usage?3?5connect?5?$FLserver?$FN?6?$AA@ 005fc5c0     cl_main.obj
 0002:000015e0       ??_C@_0FE@MBMA@You?5must?5either?5be?5connected?0?6or@ 005fc5e0     cl_main.obj
 0002:00001644       ??_C@_05NIMH@rcon?5?$AA@   005fc644     cl_main.obj
 0002:0000164c       ??_C@_0DN@MBEA@You?5must?5set?5?8rconpassword?8?5befo@ 005fc64c     cl_main.obj
 0002:00001698       ??_C@_03CPCE@?$CFd?5?$AA@  005fc698     cl_main.obj
 0002:0000169c       ??_C@_03DMIL@Yf?5?$AA@     005fc69c     cl_main.obj
 0002:000016a0       ??_C@_03CEEB@vdr?$AA@      005fc6a0     cl_main.obj
 0002:000016a4       ??_C@_09ENJF@cl_paused?$AA@ 005fc6a4     cl_main.obj
 0002:000016b0       ??_C@_0BG@NJIE@Opened?5PK3?5Names?3?5?$CFs?6?$AA@ 005fc6b0     cl_main.obj
 0002:000016cc       ??_C@_0BK@KENG@Referenced?5PK3?5Names?3?5?$CFs?6?$AA@ 005fc6cc     cl_main.obj
 0002:000016ec       ??_C@_08JCCB@?$CF4i?3?5?$CFs?6?$AA@ 005fc6ec     cl_main.obj
 0002:000016f8       ??_C@_0CI@ONHE@?9?9?9?9?9?9?9?9?9?9?9?9?9?9?9?9?9?9?9?9?9?9?9?9?9?9?9?9?9?9?9?9@ 005fc6f8     cl_main.obj
 0002:00001728       ??_C@_0BF@MOFK@User?5info?5settings?3?6?$AA@ 005fc728     cl_main.obj
 0002:00001744       ??_C@_0M@BPMK@Server?3?5?$CFs?6?$AA@ 005fc744     cl_main.obj
 0002:00001754       ??_C@_0L@IHGK@state?3?5?$CFi?6?$AA@ 005fc754     cl_main.obj
 0002:00001764       ??_C@_0CI@HIAE@?9?9?9?9?9?9?9?9?9?5Client?5Information?5?9?9?9@ 005fc764     cl_main.obj
 0002:00001794       ??_C@_06BMLC@donedl?$AA@   005fc794     cl_main.obj
 0002:0000179c       ??_C@_0M@FCFA@download?5?$CFs?$AA@ 005fc79c     cl_main.obj
 0002:000017ac       ??_C@_0BA@ILNM@cl_downloadTime?$AA@ 005fc7ac     cl_main.obj
 0002:000017c0       ??_C@_0BB@GOLA@cl_downloadCount?$AA@ 005fc7c0     cl_main.obj
 0002:000017d4       ??_C@_0BA@HKJO@cl_downloadSize?$AA@ 005fc7d4     cl_main.obj
 0002:000017e8       ??_C@_06LBGC@?$CFs?4tmp?$AA@ 005fc7e8     cl_main.obj
 0002:000017f0       ??_C@_0FI@POAJ@?$CK?$CK?$CK?$CK?$CK?5CL_BeginDownload?5?$CK?$CK?$CK?$CK?$CK?6Loc@ 005fc7f0     cl_main.obj
 0002:0000185c       ??_C@_0P@GDGA@Need?5paks?3?5?$CFs?6?$AA@ 005fc85c     cl_main.obj
 0002:00001870       ??_C@_0LE@BGLI@?6WARNING?3?5You?5are?5missing?5some?5f@ 005fc870     cl_main.obj
 0002:00001948       ??_C@_0CB@LMEE@CL_CheckForResend?3?5bad?5cls?4state@ 005fc948     cl_main.obj
 0002:00001970       ??_C@_08LONH@connect?5?$AA@ 005fc970     cl_main.obj
 0002:0000197c       ??_C@_05CBME@qport?$AA@    005fc97c     cl_main.obj
 0002:00001984       ??_C@_08OEPO@protocol?$AA@ 005fc984     cl_main.obj
 0002:00001990       ??_C@_09FAGC@net_qport?$AA@ 005fc990     cl_main.obj
 0002:0000199c       ??_C@_0N@IDFB@getchallenge?$AA@ 005fc99c     cl_main.obj
 0002:000019ac       ??_C@_0BB@CNGM@com_errorMessage?$AA@ 005fc9ac     cl_main.obj
 0002:000019c0       ??_C@_0CI@LCGG@Server?5disconnected?5for?5unknown?5@ 005fc9c0     cl_main.obj
 0002:000019f0       ??_C@_0O@IJGJ@cl_motdString?$AA@ 005fc9f0     cl_main.obj
 0002:00001a00       ??_C@_04JPGO@motd?$AA@     005fca00     cl_main.obj
 0002:00001a08       ??_C@_0BO@BGCH@?$CFd?5servers?5parsed?5?$CItotal?5?$CFd?$CJ?6?$AA@ 005fca08     cl_main.obj
 0002:00001a2c       ??_C@_0BP@DIAG@server?3?5?$CFd?5ip?3?5?$CFd?4?$CFd?4?$CFd?4?$CFd?3?$CFd?6?$AA@ 005fca2c     cl_main.obj
 0002:00001a54       ??_C@_0BK@DFFK@CL_ServersResponsePacket?6?$AA@ 005fca54     cl_main.obj
 0002:00001a74       ??_C@_0CI@GOJL@Unknown?5connectionless?5packet?5co@ 005fca74     cl_main.obj
 0002:00001aa4       ??_C@_0BD@KJMP@getserversResponse?$AA@ 005fcaa4     cl_main.obj
 0002:00001abc       ??_C@_05KCGF@print?$AA@    005fcabc     cl_main.obj
 0002:00001ac4       ??_C@_0N@LKJP@keyAuthorize?$AA@ 005fcac4     cl_main.obj
 0002:00001ad4       ??_C@_04EDEH@echo?$AA@     005fcad4     cl_main.obj
 0002:00001adc       ??_C@_0P@PINK@statusResponse?$AA@ 005fcadc     cl_main.obj
 0002:00001af0       ??_C@_0N@DDKP@infoResponse?$AA@ 005fcaf0     cl_main.obj
 0002:00001b00       ??_C@_0BI@MBDF@?$CFs?5should?5have?5been?5?$CFs?6?$AA@ 005fcb00     cl_main.obj
 0002:00001b1c       ??_C@_0DF@KCJB@connectResponse?5from?5a?5different@ 005fcb1c     cl_main.obj
 0002:00001b5c       ??_C@_0DI@HIKI@connectResponse?5packet?5while?5not@ 005fcb5c     cl_main.obj
 0002:00001ba0       ??_C@_0CB@OFIO@Dup?5connect?5received?4?5?5Ignored?4?6@ 005fcba0     cl_main.obj
 0002:00001bc8       ??_C@_0BA@EFHF@connectResponse?$AA@ 005fcbc8     cl_main.obj
 0002:00001bdc       ??_C@_0BH@GJEC@challengeResponse?3?5?$CFd?6?$AA@ 005fcbdc     cl_main.obj
 0002:00001bf8       ??_C@_0DB@LOLN@Unwanted?5challenge?5response?5rece@ 005fcbf8     cl_main.obj
 0002:00001c34       ??_C@_0BC@DPJI@challengeResponse?$AA@ 005fcc34     cl_main.obj
 0002:00001c4c       ??_C@_0BC@MCML@CL?5packet?5?$CFs?3?5?$CFs?6?$AA@ 005fcc4c     cl_main.obj
 0002:00001c64       ??_C@_0CI@KDIC@?$CFs?3sequenced?5packet?5without?5conn@ 005fcc64     cl_main.obj
 0002:00001c94       ??_C@_0BB@LNCC@?$CFs?3?5Runt?5packet?6?$AA@ 005fcc94     cl_main.obj
 0002:00001ca8       ??_C@_0BP@BEPE@?6Server?5connection?5timed?5out?4?6?$AA@ 005fcca8     cl_main.obj
 0002:00001cd0       ??_C@_0O@OKPB@userinfo?5?$CC?$CFs?$CC?$AA@ 005fccd0     cl_main.obj
 0002:00001ce0       __real@8@3ffd8000000000000000 005fcce0     cl_main.obj
 0002:00001cec       ??_C@_0BD@CJAO@screenshot?5silent?6?$AA@ 005fccec     cl_main.obj
 0002:00001d04       ??_C@_04PNMK@?$FO1?$CFs?$AA@ 005fcd04     cl_main.obj
 0002:00001d0c       ??_C@_04FJOH@?$FO3?$CFs?$AA@ 005fcd0c     cl_main.obj
 0002:00001d14       ??_C@_07BLFM@console?$AA@  005fcd14     cl_main.obj
 0002:00001d20       ??_C@_05GMF@white?$AA@     005fcd20     cl_main.obj
 0002:00001d28       ??_C@_0BA@OLJD@gfx?12d?1bigchars?$AA@ 005fcd28     cl_main.obj
 0002:00001d3c       ??_C@_04LLHI@size?$AA@     005fcd3c     cl_main.obj
 0002:00001d44       ??_C@_0DJ@JPIM@G?3?2trep?9engine?2q3nocd?2quake3?91?43@ 005fcd44     cl_main.obj
 0002:00001d88       ??_C@_0BM@EEJK@Couldn?8t?5initialize?5refresh?$AA@ 005fcd88     cl_main.obj
 0002:00001dac       ??_C@_0CB@DNMA@?9?9?9?9?9?9?9?9?9?9?9?9?9?9?9?9?9?9?9?9?9?9?9?9?9?9?9?9?9?9?9?6@ 005fcdac     cl_main.obj
 0002:00001dd4       ??_C@_0CC@INJO@?9?9?9?9?9?5Initializing?5Renderer?5?9?9?9?9@ 005fcdd4     cl_main.obj
 0002:00001dfc       ??_C@_0BE@NGNO@model?5is?5set?5to?5?$CFs?6?$AA@ 005fcdfc     cl_main.obj
 0002:00001e14       ??_C@_09MLPD@headmodel?$AA@ 005fce14     cl_main.obj
 0002:00001e20       ??_C@_05LHJL@model?$AA@    005fce20     cl_main.obj
 0002:00001e28       ??_C@_0CM@BDGI@?9?9?9?9?9?5Client?5Initialization?5Comp@ 005fce28     cl_main.obj
 0002:00001e5c       ??_C@_0L@DDHE@cl_running?$AA@ 005fce5c     cl_main.obj
 0002:00001e6c       ??_C@_0BC@NOHE@fs_referencedList?$AA@ 005fce6c     cl_main.obj
 0002:00001e84       ??_C@_0O@PGJM@fs_openedList?$AA@ 005fce84     cl_main.obj
 0002:00001e94       ??_C@_06MAPP@showip?$AA@   005fce94     cl_main.obj
 0002:00001e9c       ??_C@_0N@BLGI@serverstatus?$AA@ 005fce9c     cl_main.obj
 0002:00001eac       ??_C@_04LBKD@ping?$AA@     005fceac     cl_main.obj
 0002:00001eb4       ??_C@_06OKEC@setenv?$AA@   005fceb4     cl_main.obj
 0002:00001ebc       ??_C@_04CHBK@rcon?$AA@     005fcebc     cl_main.obj
 0002:00001ec4       ??_C@_0O@JM@globalservers?$AA@ 005fcec4     cl_main.obj
 0002:00001ed4       ??_C@_0N@EPJI@localservers?$AA@ 005fced4     cl_main.obj
 0002:00001ee4       ??_C@_09CKHG@reconnect?$AA@ 005fcee4     cl_main.obj
 0002:00001ef0       ??_C@_07DHIJ@connect?$AA@  005fcef0     cl_main.obj
 0002:00001efc       ??_C@_0L@CGLF@stoprecord?$AA@ 005fcefc     cl_main.obj
 0002:00001f0c       ??_C@_09OMPE@cinematic?$AA@ 005fcf0c     cl_main.obj
 0002:00001f18       ??_C@_04MGGC@demo?$AA@     005fcf18     cl_main.obj
 0002:00001f20       ??_C@_06JNOM@record?$AA@   005fcf20     cl_main.obj
 0002:00001f28       ??_C@_0M@GKIE@vid_restart?$AA@ 005fcf28     cl_main.obj
 0002:00001f38       ??_C@_0M@IFHL@snd_restart?$AA@ 005fcf38     cl_main.obj
 0002:00001f48       ??_C@_0L@ILPP@clientinfo?$AA@ 005fcf48     cl_main.obj
 0002:00001f58       ??_C@_0O@KHFO@configstrings?$AA@ 005fcf58     cl_main.obj
 0002:00001f68       ??_C@_03OKJL@cmd?$AA@      005fcf68     cl_main.obj
 0002:00001f6c       ??_C@_0M@FLKF@cg_viewsize?$AA@ 005fcf6c     cl_main.obj
 0002:00001f7c       ??_C@_0BA@PHDH@cg_predictItems?$AA@ 005fcf7c     cl_main.obj
 0002:00001f90       ??_C@_08NPHI@password?$AA@ 005fcf90     cl_main.obj
 0002:00001f9c       ??_C@_03CJDB@sex?$AA@      005fcf9c     cl_main.obj
 0002:00001fa0       ??_C@_04JGMG@male?$AA@     005fcfa0     cl_main.obj
 0002:00001fa8       ??_C@_08PDLF@teamtask?$AA@ 005fcfa8     cl_main.obj
 0002:00001fb4       ??_C@_08GAKB@handicap?$AA@ 005fcfb4     cl_main.obj
 0002:00001fc0       ??_C@_03HFMC@100?$AA@      005fcfc0     cl_main.obj
 0002:00001fc4       ??_C@_06DAMC@color2?$AA@   005fcfc4     cl_main.obj
 0002:00001fcc       ??_C@_06MPHL@color1?$AA@   005fcfcc     cl_main.obj
 0002:00001fd4       ??_C@_01FBMM@4?$AA@        005fcfd4     cl_main.obj
 0002:00001fd8       ??_C@_0L@IABJ@g_blueTeam?$AA@ 005fcfd8     cl_main.obj
 0002:00001fe8       ??_C@_06BCHF@Pagans?$AA@   005fcfe8     cl_main.obj
 0002:00001ff0       ??_C@_09HGDN@g_redTeam?$AA@ 005fcff0     cl_main.obj
 0002:00001ffc       ??_C@_07EIFO@Stroggs?$AA@  005fcffc     cl_main.obj
 0002:00002008       ??_C@_0P@KCPO@team_headmodel?$AA@ 005fd008     cl_main.obj
 0002:0000201c       ??_C@_06HKNG@?$CKjames?$AA@ 005fd01c     cl_main.obj
 0002:00002024       ??_C@_0L@MKIK@team_model?$AA@ 005fd024     cl_main.obj
 0002:00002034       ??_C@_05EIJD@james?$AA@    005fd034     cl_main.obj
 0002:0000203c       ??_C@_05JPCA@sarge?$AA@    005fd03c     cl_main.obj
 0002:00002044       ??_C@_05MFKB@snaps?$AA@    005fd044     cl_main.obj
 0002:0000204c       ??_C@_02GJDO@20?$AA@       005fd04c     cl_main.obj
 0002:00002050       ??_C@_04MMDE@rate?$AA@     005fd050     cl_main.obj
 0002:00002058       ??_C@_04LHEB@3000?$AA@     005fd058     cl_main.obj
 0002:00002060       ??_C@_04OPJK@name?$AA@     005fd060     cl_main.obj
 0002:00002068       ??_C@_0O@BDEG@UnnamedPlayer?$AA@ 005fd068     cl_main.obj
 0002:00002078       ??_C@_0L@KDHM@cl_maxPing?$AA@ 005fd078     cl_main.obj
 0002:00002088       ??_C@_03LHGB@800?$AA@      005fd088     cl_main.obj
 0002:0000208c       ??_C@_08MAF@m_filter?$AA@  005fd08c     cl_main.obj
 0002:00002098       ??_C@_06MLIH@m_side?$AA@   005fd098     cl_main.obj
 0002:000020a0       ??_C@_09NFLM@m_forward?$AA@ 005fd0a0     cl_main.obj
 0002:000020ac       ??_C@_04KIIB@0?425?$AA@    005fd0ac     cl_main.obj
 0002:000020b4       ??_C@_05LLLA@m_yaw?$AA@    005fd0b4     cl_main.obj
 0002:000020bc       ??_C@_07FHKJ@m_pitch?$AA@  005fd0bc     cl_main.obj
 0002:000020c8       ??_C@_05GGO@0?4022?$AA@    005fd0c8     cl_main.obj
 0002:000020d0       ??_C@_0O@LDOP@cg_autoswitch?$AA@ 005fd0d0     cl_main.obj
 0002:000020e0       ??_C@_0BK@CNCH@cl_serverStatusResendTime?$AA@ 005fd0e0     cl_main.obj
 0002:00002100       ??_C@_03NFLF@750?$AA@      005fd100     cl_main.obj
 0002:00002104       ??_C@_0O@HBPE@r_inGameVideo?$AA@ 005fd104     cl_main.obj
 0002:00002114       ??_C@_0O@JPEG@cl_conXOffset?$AA@ 005fd114     cl_main.obj
 0002:00002124       ??_C@_0BB@DJDM@cl_allowDownload?$AA@ 005fd124     cl_main.obj
 0002:00002138       ??_C@_0BB@IOAL@cl_showmouserate?$AA@ 005fd138     cl_main.obj
 0002:0000214c       ??_C@_0M@HPFF@cl_freelook?$AA@ 005fd14c     cl_main.obj
 0002:0000215c       ??_C@_0O@DFDN@cl_mouseAccel?$AA@ 005fd15c     cl_main.obj
 0002:0000216c       ??_C@_0M@CKB@sensitivity?$AA@ 005fd16c     cl_main.obj
 0002:0000217c       ??_C@_06HIKK@cl_run?$AA@   005fd17c     cl_main.obj
 0002:00002184       ??_C@_02HPJE@30?$AA@       005fd184     cl_main.obj
 0002:00002188       ??_C@_0BB@MHNK@cl_anglespeedkey?$AA@ 005fd188     cl_main.obj
 0002:0000219c       ??_C@_03NNAL@1?45?$AA@     005fd19c     cl_main.obj
 0002:000021a0       ??_C@_0O@IBII@cl_pitchspeed?$AA@ 005fd1a0     cl_main.obj
 0002:000021b0       ??_C@_0M@CKBA@cl_yawspeed?$AA@ 005fd1b0     cl_main.obj
 0002:000021c0       ??_C@_03CPGI@140?$AA@      005fd1c0     cl_main.obj
 0002:000021c4       ??_C@_0M@FBAH@rconAddress?$AA@ 005fd1c4     cl_main.obj
 0002:000021d4       ??_C@_0BA@BGID@cl_forceavidemo?$AA@ 005fd1d4     cl_main.obj
 0002:000021e8       ??_C@_0L@KABG@cl_avidemo?$AA@ 005fd1e8     cl_main.obj
 0002:000021f8       ??_C@_08NIMA@timedemo?$AA@ 005fd1f8     cl_main.obj
 0002:00002204       ??_C@_0N@EIME@rconPassword?$AA@ 005fd204     cl_main.obj
 0002:00002214       ??_C@_0O@MHDG@cl_freezeDemo?$AA@ 005fd214     cl_main.obj
 0002:00002224       ??_C@_0BB@BCOC@cl_showTimeDelta?$AA@ 005fd224     cl_main.obj
 0002:00002238       ??_C@_0M@JNII@cl_showSend?$AA@ 005fd238     cl_main.obj
 0002:00002248       ??_C@_0L@LFAH@cl_shownet?$AA@ 005fd248     cl_main.obj
 0002:00002258       ??_C@_0N@GMEA@cl_timeNudge?$AA@ 005fd258     cl_main.obj
 0002:00002268       ??_C@_0L@IODP@cl_timeout?$AA@ 005fd268     cl_main.obj
 0002:00002278       ??_C@_03IDPJ@200?$AA@      005fd278     cl_main.obj
 0002:0000227c       ??_C@_07NGFB@cl_motd?$AA@  005fd27c     cl_main.obj
 0002:00002288       ??_C@_0L@LHAG@cl_noprint?$AA@ 005fd288     cl_main.obj
 0002:00002298       ??_C@_0CD@EMLI@?9?9?9?9?9?5Client?5Initialization?5?9?9?9?9@ 005fd298     cl_main.obj
 0002:000022c4       ??_C@_0BJ@GBOC@?9?9?9?9?9?9?9?9?9?9?9?9?9?9?9?9?9?9?9?9?9?9?9?6?$AA@ 005fd2c4     cl_main.obj
 0002:000022e4       ??_C@_08ONDD@userinfo?$AA@ 005fd2e4     cl_main.obj
 0002:000022f0       ??_C@_0BE@OJFD@recursive?5shutdown?6?$AA@ 005fd2f0     cl_main.obj
 0002:00002308       ??_C@_0BJ@BADO@?9?9?9?9?9?5CL_Shutdown?5?9?9?9?9?9?6?$AA@ 005fd308     cl_main.obj
 0002:00002328       ??_C@_06HNNJ@?$CFs?3?5?$CFs?$AA@ 005fd328     cl_main.obj
 0002:00002330       ??_C@_0CO@FLPH@MAX_OTHER_SERVERS?5hit?0?5dropping?5@ 005fd330     cl_main.obj
 0002:00002368       ??_C@_07IMLC@nettype?$AA@  005fd368     cl_main.obj
 0002:00002374       ??_C@_02MECO@?$CFd?$AA@    005fd374     cl_main.obj
 0002:00002378       ??_C@_03NMFM@?$DP?$DP?$DP?$AA@ 005fd378     cl_main.obj
 0002:0000237c       ??_C@_03BKGK@ipx?$AA@      005fd37c     cl_main.obj
 0002:00002380       ??_C@_03IHFE@udp?$AA@      005fd380     cl_main.obj
 0002:00002384       ??_C@_0BI@GBJH@ping?5time?5?$CFdms?5from?5?$CFs?6?$AA@ 005fd384     cl_main.obj
 0002:000023a0       ??_C@_0CE@CHOE@Different?5protocol?5info?5packet?3?5@ 005fd3a0     cl_main.obj
 0002:000023cc       ??_C@_0L@MFLA@punkbuster?$AA@ 005fd3cc     cl_main.obj
 0002:000023dc       ??_C@_07GBDN@maxping?$AA@  005fd3dc     cl_main.obj
 0002:000023e8       ??_C@_07OLG@minping?$AA@   005fd3e8     cl_main.obj
 0002:000023f4       ??_C@_08MIDI@gametype?$AA@ 005fd3f4     cl_main.obj
 0002:00002400       ??_C@_04OAFI@game?$AA@     005fd400     cl_main.obj
 0002:00002408       ??_C@_0O@KKJL@sv_maxclients?$AA@ 005fd408     cl_main.obj
 0002:00002418       ??_C@_08NNNB@hostname?$AA@ 005fd418     cl_main.obj
 0002:00002424       ??_C@_07JEGC@clients?$AA@  005fd424     cl_main.obj
 0002:00002430       ??_C@_09OMHJ@getstatus?$AA@ 005fd430     cl_main.obj
 0002:0000243c       ??_C@_0BK@ONBJ@?$CF?92d?5?5?5?$CF?93d?5?5?5?5?$CF?93d?5?5?5?$CFs?6?$AA@ 005fd43c     cl_main.obj
 0002:0000245c       ??_C@_07CAMD@unknown?$AA@  005fd45c     cl_main.obj
 0002:00002468       ??_C@_05MJGO@?$CFd?5?$CFd?$AA@ 005fd468     cl_main.obj
 0002:00002470       ??_C@_0BJ@FEIF@num?3?5score?3?5ping?3?5name?3?6?$AA@ 005fd470     cl_main.obj
 0002:00002490       ??_C@_0L@KFAP@?6Players?3?6?$AA@ 005fd490     cl_main.obj
 0002:000024a0       ??_C@_05JHPI@?$CF?924s?$AA@ 005fd4a0     cl_main.obj
 0002:000024a8       ??_C@_0BC@CGDL@Server?5settings?3?6?$AA@ 005fd4a8     cl_main.obj
 0002:000024c0       ??_C@_0BA@JGDM@?$PP?$PP?$PP?$PPgetinfo?5xxx?$AA@ 005fd4c0     cl_main.obj
 0002:000024d4       ??_C@_0CO@KDFO@Scanning?5for?5servers?5on?5the?5loca@ 005fd4d4     cl_main.obj
 0002:0000250c       ??_C@_05MCMI@?5demo?$AA@   005fd50c     cl_main.obj
 0002:00002514       ??_C@_0M@BODG@fs_restrict?$AA@ 005fd514     cl_main.obj
 0002:00002524       ??_C@_03HKGO@?5?$CFs?$AA@  005fd524     cl_main.obj
 0002:00002528       ??_C@_0O@NCOK@getservers?5?$CFs?$AA@ 005fd528     cl_main.obj
 0002:00002538       ??_C@_0BH@HKKL@master?4quake3arena?4com?$AA@ 005fd538     cl_main.obj
 0002:00002554       ??_C@_0CH@INBN@Requesting?5servers?5from?5the?5mast@ 005fd554     cl_main.obj
 0002:00002584       ??_C@_0DK@GBLC@usage?3?5globalservers?5?$DMmaster?$CD?50?9@ 005fd584     cl_main.obj
 0002:000025cc       ??_C@_0M@HBNJ@getinfo?5xxx?$AA@ 005fd5cc     cl_main.obj
 0002:000025dc       ??_C@_0BG@NPKL@usage?3?5ping?5?$FLserver?$FN?6?$AA@ 005fd5dc     cl_main.obj
 0002:000025f8       ??_C@_0BO@EDMM@Usage?3?5serverstatus?5?$FLserver?$FN?6?$AA@ 005fd5f8     cl_main.obj
 0002:0000261c       ??_C@_04OBKB@?$CF02x?$AA@  005fd61c     cl_main.obj
 0002:00002624       ??_C@_0N@MDNL@svc_snapshot?$AA@ 005fd624     cl_parse.obj
 0002:00002634       ??_C@_0N@CDLJ@svc_download?$AA@ 005fd634     cl_parse.obj
 0002:00002644       ??_C@_0BC@CABK@svc_serverCommand?$AA@ 005fd644     cl_parse.obj
 0002:0000265c       ??_C@_0N@CFKK@svc_baseline?$AA@ 005fd65c     cl_parse.obj
 0002:0000266c       ??_C@_0BB@FGCF@svc_configstring?$AA@ 005fd66c     cl_parse.obj
 0002:00002680       ??_C@_0O@FANF@svc_gamestate?$AA@ 005fd680     cl_parse.obj
 0002:00002690       ??_C@_07GEPH@svc_nop?$AA@  005fd690     cl_parse.obj
 0002:0000269c       ??_C@_07HNJP@svc_bad?$AA@  005fd69c     cl_parse.obj
 0002:000026a8       ??_C@_07FCJJ@?$CF3i?3?$CFs?6?$AA@ 005fd6a8     cl_parse.obj
 0002:000026b4       ??_C@_0BE@CEA@?$CF3i?3?5?5baseline?3?5?$CFi?6?$AA@ 005fd6b4     cl_parse.obj
 0002:000026cc       ??_C@_0BB@KIAK@?$CF3i?3?5?5delta?3?5?$CFi?6?$AA@ 005fd6cc     cl_parse.obj
 0002:000026e0       ??_C@_0BF@ELOP@?$CF3i?3?5?5unchanged?3?5?$CFi?6?$AA@ 005fd6e0     cl_parse.obj
 0002:000026fc       ??_C@_0CH@CHFO@CL_ParsePacketEntities?3?5end?5of?5m@ 005fd6fc     cl_parse.obj
 0002:0000272c       ??_C@_0CD@OOOG@?5?5?5snapshot?3?$CFi?5?5delta?3?$CFi?5?5ping?3?$CF@ 005fd72c     cl_parse.obj
 0002:00002758       ??_C@_0BA@JEGC@packet?5entities?$AA@ 005fd758     cl_parse.obj
 0002:0000276c       ??_C@_0M@DNPK@playerstate?$AA@ 005fd76c     cl_parse.obj
 0002:0000277c       ??_C@_0CB@PMEM@Delta?5parseEntitiesNum?5too?5old?4?6@ 005fd77c     cl_parse.obj
 0002:000027a4       ??_C@_0BG@OFIJ@Delta?5frame?5too?5old?4?6?$AA@ 005fd7a4     cl_parse.obj
 0002:000027c0       ??_C@_0DF@HHME@Delta?5from?5invalid?5frame?5?$CInot?5su@ 005fd7c0     cl_parse.obj
 0002:00002800       ??_C@_07OEHJ@sv_pure?$AA@  005fd800     cl_parse.obj
 0002:0000280c       ??_C@_07CCMH@fs_game?$AA@  005fd80c     cl_parse.obj
 0002:00002818       ??_C@_0BG@NLFM@sv_referencedPakNames?$AA@ 005fd818     cl_parse.obj
 0002:00002834       ??_C@_0BC@OOFC@sv_referencedPaks?$AA@ 005fd834     cl_parse.obj
 0002:0000284c       ??_C@_0M@IMLB@sv_pakNames?$AA@ 005fd84c     cl_parse.obj
 0002:0000285c       ??_C@_07BCBM@sv_paks?$AA@  005fd85c     cl_parse.obj
 0002:00002868       ??_C@_0M@CHP@sv_serverid?$AA@ 005fd868     cl_parse.obj
 0002:00002878       ??_C@_0CE@LBPA@CL_ParseGamestate?3?5bad?5command?5b@ 005fd878     cl_parse.obj
 0002:000028a4       ??_C@_0CB@GGFJ@Baseline?5number?5out?5of?5range?3?5?$CFi@ 005fd8a4     cl_parse.obj
 0002:000028cc       ??_C@_09FCDH@nextdl?5?$CFd?$AA@ 005fd8cc     cl_parse.obj
 0002:000028d8       ??_C@_0BF@FLOI@Could?5not?5create?5?$CFs?6?$AA@ 005fd8d8     cl_parse.obj
 0002:000028f4       ??_C@_06FDLE@stopdl?$AA@   005fd8f4     cl_parse.obj
 0002:000028fc       ??_C@_0DI@NCLB@Server?5sending?5download?0?5but?5no?5@ 005fd8fc     cl_parse.obj
 0002:00002940       ??_C@_0CN@IMAN@CL_ParseDownload?3?5Expected?5block@ 005fd940     cl_parse.obj
 0002:00002978       ??_C@_0DB@OJCG@CL_ParseServerMessage?3?5Illegible@ 005fd978     cl_parse.obj
 0002:000029b4       ??_C@_0BA@OJGD@?$CF3i?3BAD?5CMD?5?$CFi?6?$AA@ 005fd9b4     cl_parse.obj
 0002:000029c8       ??_C@_0P@HHDF@END?5OF?5MESSAGE?$AA@ 005fd9c8     cl_parse.obj
 0002:000029dc       ??_C@_0DH@PCNO@CL_ParseServerMessage?3?5read?5past@ 005fd9dc     cl_parse.obj
 0002:00002a20       ??_C@_0BE@DLJO@?9?9?9?9?9?9?9?9?9?9?9?9?9?9?9?9?9?9?6?$AA@ 005fda20     cl_parse.obj
 0002:00002a38       ??_C@_0L@GHJI@width?5?$CB?$DN?50?$AA@ 005fda38     cl_scrn.obj
 0002:00002a48       ??_C@_0DJ@EFEC@G?3?2trep?9engine?2q3nocd?2quake3?91?43@ 005fda48     cl_scrn.obj
 0002:00002a90       __real@8@4007f000000000000000 005fda90     cl_scrn.obj
 0002:00002aa0       __real@8@4008a000000000000000 005fdaa0     cl_scrn.obj
 0002:00002ab0       __real@8@3ffb8000000000000000 005fdab0     cl_scrn.obj
 0002:00002abc       ??_C@_0BC@OOHC@RECORDING?5?$CFs?3?5?$CFik?$AA@ 005fdabc     cl_scrn.obj
 0002:00002ad4       ??_C@_0L@LHBA@graphshift?$AA@ 005fdad4     cl_scrn.obj
 0002:00002ae4       ??_C@_0L@PJCF@graphscale?$AA@ 005fdae4     cl_scrn.obj
 0002:00002af4       ??_C@_0M@PAID@graphheight?$AA@ 005fdaf4     cl_scrn.obj
 0002:00002b04       ??_C@_02CKLK@32?$AA@       005fdb04     cl_scrn.obj
 0002:00002b08       ??_C@_0L@CIFP@debuggraph?$AA@ 005fdb08     cl_scrn.obj
 0002:00002b18       ??_C@_09NGPH@timegraph?$AA@ 005fdb18     cl_scrn.obj
 0002:00002b24       ??_C@_0CD@HCJH@SCR_DrawScreenField?3?5bad?5cls?4sta@ 005fdb24     cl_scrn.obj
 0002:00002b50       ??_C@_0BP@JMJO@draw?5screen?5without?5UI?5loaded?6?$AA@ 005fdb50     cl_scrn.obj
 0002:00002b78       ??_C@_0CF@OFEM@SCR_UpdateScreen?3?5recursively?5ca@ 005fdb78     cl_scrn.obj
 0002:00002ba4       ??_C@_0BA@IOFI@servercache?4dat?$AA@ 005fdba4     cl_ui.obj
 0002:00002bb8       ??_C@_0BH@JNGG@Bad?5UI?5system?5trap?3?5?$CFi?$AA@ 005fdbb8     cl_ui.obj
 0002:00002bd4       ??_C@_0BG@IHJE@UI_CIN_PlayCinematic?6?$AA@ 005fdbd4     cl_ui.obj
 0002:00002bf0       ??_C@_04HKJD@addr?$AA@     005fdbf0     cl_ui.obj
 0002:00002bf8       ??_C@_0CK@NLPJ@User?5Interface?5is?5version?5?$CFd?0?5ex@ 005fdbf8     cl_ui.obj
 0002:00002c2c       ??_C@_0BH@BDMJ@VM_Create?5on?5UI?5failed?$AA@ 005fdc2c     cl_ui.obj
 0002:00002c48       ??_C@_02FAFB@ui?$AA@       005fdc48     cl_ui.obj
 0002:00002c4c       ??_C@_05HBHM@vm_ui?$AA@    005fdc4c     cl_ui.obj
 0002:00002c54       ??_C@_0BO@DEBG@count?5?$CK?5sizeof?$CI?5?$CKcm?4shaders?5?$CJ?$AA@ 005fdc54     cm_load.obj
 0002:00002c78       ??_C@_0DK@GCMD@g?3?2trep?9engine?2q3nocd?2quake3?91?43@ 005fdc78     cm_load.obj
 0002:00002cc0       ??_C@_0BE@GDFO@Map?5with?5no?5shaders?$AA@ 005fdcc0     cm_load.obj
 0002:00002cd8       ??_C@_0CC@PBNH@CMod_LoadShaders?3?5funny?5lump?5siz@ 005fdcd8     cm_load.obj
 0002:00002d00       ??_C@_0BO@PKGG@out?9?$DOleaf?4numLeafSurfaces?5?$CK?54?$AA@ 005fdd00     cm_load.obj
 0002:00002d24       ??_C@_0BN@MGIK@out?9?$DOleaf?4numLeafBrushes?5?$CK?54?$AA@ 005fdd24     cm_load.obj
 0002:00002d48       ??_C@_0BH@OIBN@MAX_SUBMODELS?5exceeded?$AA@ 005fdd48     cm_load.obj
 0002:00002d64       ??_C@_0BO@ELIN@count?5?$CK?5sizeof?$CI?5?$CKcm?4cmodels?5?$CJ?$AA@ 005fdd64     cm_load.obj
 0002:00002d88       ??_C@_0BD@LGDL@Map?5with?5no?5models?$AA@ 005fdd88     cm_load.obj
 0002:00002da0       ??_C@_0CE@MOAN@CMod_LoadSubmodels?3?5funny?5lump?5s@ 005fdda0     cm_load.obj
 0002:00002dcc       ??_C@_0BM@HIMO@count?5?$CK?5sizeof?$CI?5?$CKcm?4nodes?5?$CJ?$AA@ 005fddcc     cm_load.obj
 0002:00002df0       ??_C@_0BB@DDCL@Map?5has?5no?5nodes?$AA@ 005fddf0     cm_load.obj
 0002:00002e04       ??_C@_0CA@BNJF@MOD_LoadBmodel?3?5funny?5lump?5size?$AA@ 005fde04     cm_load.obj
 0002:00002e2c       ??_C@_0CE@JFLC@CMod_LoadBrushes?3?5bad?5shaderNum?3@ 005fde2c     cm_load.obj
 0002:00002e58       ??_C@_0DA@INGF@?$CI?5BOX_BRUSHES?5?$CL?5count?5?$CJ?5?$CK?5sizeof@ 005fde58     cm_load.obj
 0002:00002e94       ??_C@_0DG@PMJP@cm?4numAreas?5?$CK?5cm?4numAreas?5?$CK?5size@ 005fde94     cm_load.obj
 0002:00002ed4       ??_C@_0CC@OOOA@cm?4numAreas?5?$CK?5sizeof?$CI?5?$CKcm?4areas?5@ 005fded4     cm_load.obj
 0002:00002efc       ??_C@_0CM@OEGK@?$CI?5BOX_LEAFS?5?$CL?5count?5?$CJ?5?$CK?5sizeof?$CI?5@ 005fdefc     cm_load.obj
 0002:00002f30       ??_C@_0BC@JLOO@Map?5with?5no?5leafs?$AA@ 005fdf30     cm_load.obj
 0002:00002f48       __real@8@3fff8000000000000000 005fdf48     cm_load.obj
 0002:00002f54       ??_C@_0CO@OPPE@?$CI?5BOX_PLANES?5?$CL?5count?5?$CJ?5?$CK?5sizeof?$CI@ 005fdf54     cm_load.obj
 0002:00002f8c       ??_C@_0BD@BHBN@Map?5with?5no?5planes?$AA@ 005fdf8c     cm_load.obj
 0002:00002fa4       ??_C@_0DC@CHFB@?$CIcount?5?$CL?5BOX_BRUSHES?$CJ?5?$CK?5sizeof?$CI?5@ 005fdfa4     cm_load.obj
 0002:00002fe0       ??_C@_0CD@KDKO@count?5?$CK?5sizeof?$CI?5?$CKcm?4leafsurfaces@ 005fdfe0     cm_load.obj
 0002:0000300c       ??_C@_0CH@IFAN@CMod_LoadBrushSides?3?5bad?5shaderN@ 005fe00c     cm_load.obj
 0002:0000303c       ??_C@_0DB@MFPH@?$CI?5BOX_SIDES?5?$CL?5count?5?$CJ?5?$CK?5sizeof?$CI?5@ 005fe03c     cm_load.obj
 0002:00003078       ??_C@_0L@GJFI@l?9?$DOfilelen?$AA@ 005fe078     cm_load.obj
 0002:00003088       ??_C@_03HAIN@len?$AA@      005fe088     cm_load.obj
 0002:0000308c       ??_C@_0BA@HEFC@cm?4clusterBytes?$AA@ 005fe08c     cm_load.obj
 0002:000030a0       ??_C@_0BL@FCFJ@ParseMesh?3?5MAX_PATCH_VERTS?$AA@ 005fe0a0     cm_load.obj
 0002:000030c0       ??_C@_0BB@POLE@sizeof?$CI?5?$CKpatch?5?$CJ?$AA@ 005fe0c0     cm_load.obj
 0002:000030d4       ??_C@_0CK@OLDC@cm?4numSurfaces?5?$CK?5sizeof?$CI?5cm?4surf@ 005fe0d4     cm_load.obj
 0002:00003108       ??_C@_0DK@HFBI@CM_LoadMap?3?5?$CFs?5has?5wrong?5version@ 005fe108     cm_load.obj
 0002:00003150       ??_C@_0BB@KFPO@Couldn?8t?5load?5?$CFs?$AA@ 005fe150     cm_load.obj
 0002:00003164       ??_C@_0BG@LHBE@sizeof?$CI?5?$CKcm?4cmodels?5?$CJ?$AA@ 005fe164     cm_load.obj
 0002:00003180       ??_C@_0BG@PDBH@CM_LoadMap?$CI?5?$CFs?0?5?$CFi?5?$CJ?6?$AA@ 005fe180     cm_load.obj
 0002:0000319c       ??_C@_0BD@NOML@cm_playerCurveClip?$AA@ 005fe19c     cm_load.obj
 0002:000031b4       ??_C@_0M@FFBL@cm_noCurves?$AA@ 005fe1b4     cm_load.obj
 0002:000031c4       ??_C@_0L@IKJP@cm_noAreas?$AA@ 005fe1c4     cm_load.obj
 0002:000031d4       ??_C@_0BG@OPMG@CM_LoadMap?3?5NULL?5name?$AA@ 005fe1d4     cm_load.obj
 0002:000031f0       ??_C@_0CO@EBJH@CM_ClipHandleToModel?3?5bad?5handle@ 005fe1f0     cm_load.obj
 0002:00003228       ??_C@_0CE@PFCP@CM_ClipHandleToModel?3?5bad?5handle@ 005fe228     cm_load.obj
 0002:00003254       ??_C@_0BL@ONMA@CM_InlineModel?3?5bad?5number?$AA@ 005fe254     cm_load.obj
 0002:00003274       ??_C@_0BL@JBNK@CM_LeafCluster?3?5bad?5number?$AA@ 005fe274     cm_load.obj
 0002:00003294       ??_C@_0BI@MLDM@CM_LeafArea?3?5bad?5number?$AA@ 005fe294     cm_load.obj
 0002:000032b0       __real@8@3ff9a3d70a3d70a3d800 005fe2b0     cm_patch.obj
 0002:000032c0       __real@8@3ff1d1b71758e2196800 005fe2c0     cm_patch.obj
 0002:000032cc       __real@4@bfff8000000000000000 005fe2cc     cm_patch.obj
 0002:000032d0       ??_C@_0BB@EHIA@MAX_PATCH_PLANES?$AA@ 005fe2d0     cm_patch.obj
 0002:000032e4       ??_C@_0CN@IOIH@WARNING?3?5CM_AddFacetBevels?4?4?4?5in@ 005fe2e4     cm_patch.obj
 0002:0000331c       ??_C@_0CD@BPHE@WARNING?3?5bevel?5plane?5already?5use@ 005fe31c     cm_patch.obj
 0002:00003348       __real@8@3ffbccccccccccccd000 005fe348     cm_patch.obj
 0002:00003354       ??_C@_0BI@PBKH@ERROR?3?5too?5many?5bevels?6?$AA@ 005fe354     cm_patch.obj
 0002:00003370       ??_C@_0O@KDOF@sizeof?$CI?5?$CKpf?5?$CJ?$AA@ 005fe370     cm_patch.obj
 0002:00003380       ??_C@_0DL@GNOM@g?3?2trep?9engine?2q3nocd?2quake3?91?43@ 005fe380     cm_patch.obj
 0002:000033c8       ??_C@_0DC@CGDH@CM_GeneratePatchFacets?3?5source?5i@ 005fe3c8     cm_patch.obj
 0002:00003404       ??_C@_0EE@FADL@CM_GeneratePatchFacets?3?5even?5siz@ 005fe404     cm_patch.obj
 0002:00003458       ??_C@_0DF@MBHP@CM_GeneratePatchFacets?3?5bad?5para@ 005fe458     cm_patch.obj
 0002:00003498       __real@8@bffbccccccccccccd000 005fe498     cm_patch.obj
 0002:000034a4       ??_C@_0CC@MFPE@numPlanes?5?$CK?5sizeof?$CI?5?$CKpf?9?$DOplanes?5@ 005fe4a4     cm_patch.obj
 0002:000034cc       ??_C@_0CC@BJLG@numFacets?5?$CK?5sizeof?$CI?5?$CKpf?9?$DOfacets?5@ 005fe4cc     cm_patch.obj
 0002:000034f4       ??_C@_0L@CGMF@MAX_FACETS?$AA@ 005fe4f4     cm_patch.obj
 0002:00003504       ??_C@_0BH@OAJP@CM_EdgePlaneNum?3?5bad?5k?$AA@ 005fe504     cm_patch.obj
 0002:00003520       __real@4@40018000000000000000 005fe520     cm_patch.obj
 0002:00003524       ??_C@_0CE@HONN@WARNING?3?5CM_GridPlane?5unresolvab@ 005fe524     cm_patch.obj
 0002:00003550       ??_C@_0DA@DJIC@WARNING?3?5CM_SetBorderInward?3?5mix@ 005fe550     cm_patch.obj
 0002:0000358c       ??_C@_0CC@POGM@CM_SetBorderInward?3?5bad?5paramete@ 005fe58c     cm_patch.obj
 0002:000035b4       __real@4@c00effff000000000000 005fe5b4     cm_patch.obj
 0002:000035b8       __real@4@400effff000000000000 005fe5b8     cm_patch.obj
 0002:000035c0       __real@8@3ffc8000000000000000 005fe5c0     cm_patch.obj
 0002:000035cc       ??_C@_0BF@EOBO@r_debugSurfaceUpdate?$AA@ 005fe5cc     cm_patch.obj
 0002:000035e8       ??_C@_0CH@CHDF@winding?5chopped?5away?5by?5border?5p@ 005fe5e8     cm_patch.obj
 0002:00003618       ??_C@_0N@ONML@cm_debugSize?$AA@ 005fe618     cm_patch.obj
 0002:00003628       ??_C@_01KOLO@2?$AA@        005fe628     cm_patch.obj
 0002:0000362c       ??_C@_0P@OAO@r_debugSurface?$AA@ 005fe62c     cm_patch.obj
 0002:00003640       ??_C@_0BH@DOJC@?$CI?$CF5?41f?0?5?$CF5?41f?0?5?$CF5?41f?$CJ?6?$AA@ 005fe640     cm_polylib.obj
 0002:0000365c       ??_C@_01KBOJ@s?$AA@        005fe65c     cm_polylib.obj
 0002:00003660       ??_C@_0DN@DLDA@G?3?2trep?9engine?2q3nocd?2quake3?91?43@ 005fe660     cm_polylib.obj
 0002:000036ac       ??_C@_0CD@FJJH@FreeWinding?3?5freed?5a?5freed?5windi@ 005fe6ac     cm_polylib.obj
 0002:000036d8       __real@8@3ffeffbe76c8b4395800 005fe6d8     cm_polylib.obj
 0002:000036e4       ??_C@_0CD@IOBA@BaseWindingForPlane?3?5no?5axis?5fou@ 005fe6e4     cm_polylib.obj
 0002:00003710       ??_C@_0CD@HHGM@ClipWinding?3?5MAX_POINTS_ON_WINDI@ 005fe710     cm_polylib.obj
 0002:0000373c       ??_C@_0CG@BFAO@ClipWinding?3?5points?5exceeded?5est@ 005fe73c     cm_polylib.obj
 0002:0000376c       ??_C@_0BJ@IPAG@CheckWinding?3?5non?9convex?$AA@ 005fe76c     cm_polylib.obj
 0002:0000378c       ??_C@_0BO@PMLA@CheckWinding?3?5degenerate?5edge?$AA@ 005fe78c     cm_polylib.obj
 0002:000037b0       ??_C@_0BO@OFPK@CheckWinding?3?5point?5off?5plane?$AA@ 005fe7b0     cm_polylib.obj
 0002:000037d4       __real@4@3ffbcccccd0000000000 005fe7d4     cm_polylib.obj
 0002:000037d8       __real@4@bffbcccccd0000000000 005fe7d8     cm_polylib.obj
 0002:000037dc       ??_C@_0BL@MPKP@CheckFace?3?5BUGUS_RANGE?3?5?$CFf?$AA@ 005fe7dc     cm_polylib.obj
 0002:000037fc       ??_C@_0BG@KPFH@CheckWinding?3?5?$CFf?5area?$AA@ 005fe7fc     cm_polylib.obj
 0002:00003818       ??_C@_0BI@NHMB@CheckWinding?3?5?$CFi?5points?$AA@ 005fe818     cm_polylib.obj
 0002:00003834       ??_C@_0BH@HHDN@FloodArea_r?3?5reflooded?$AA@ 005fe834     cm_test.obj
 0002:00003850       ??_C@_0DD@DOGA@CM_AdjustAreaPortalState?3?5negati@ 005fe850     cm_test.obj
 0002:00003890       ??_C@_0CK@HLDD@CM_ChangeAreaPortalState?3?5bad?5ar@ 005fe890     cm_test.obj
 0002:000038c4       ??_C@_0BE@IJKN@area?5?$DO?$DN?5cm?4numAreas?$AA@ 005fe8c4     cm_test.obj
 0002:000038dc       __real@4@3ffe8000000000000000 005fe8dc     cm_trace.obj
 0002:000038e0       ??_C@_0GF@LHHI@tw?4trace?4allsolid?5?$HM?$HM?5tw?4trace?4fr@ 005fe8e0     cm_trace.obj
 0002:0000395c       ??_C@_0DL@FLLC@G?3?2trep?9engine?2q3nocd?2quake3?91?43@ 005fe95c     cm_trace.obj
 0002:000039a8       __real@8@3ffefff972474538f000 005fe9a8     cm_trace.obj
 0002:000039b4       ??_C@_0BI@FHKM@Cbuf_AddText?3?5overflow?6?$AA@ 005fe9b4     cmd.obj
 0002:000039d0       ??_C@_0BM@GFJK@Cbuf_InsertText?5overflowed?6?$AA@ 005fe9d0     cmd.obj
 0002:000039f4       ??_C@_0CA@FOOP@Cbuf_ExecuteText?3?5bad?5exec_when?$AA@ 005fe9f4     cmd.obj
 0002:00003a1c       ??_C@_0M@GPPH@execing?5?$CFs?6?$AA@ 005fea1c     cmd.obj
 0002:00003a2c       ??_C@_0BC@KCJJ@couldn?8t?5exec?5?$CFs?6?$AA@ 005fea2c     cmd.obj
 0002:00003a44       ??_C@_04MELH@?4cfg?$AA@    005fea44     cmd.obj
 0002:00003a4c       ??_C@_0CJ@PCFP@exec?5?$DMfilename?$DO?5?3?5execute?5a?5scri@ 005fea4c     cmd.obj
 0002:00003a80       ??_C@_0DC@JFBE@vstr?5?$DMvariablename?$DO?5?3?5execute?5a?5@ 005fea80     cmd.obj
 0002:00003abc       ??_C@_03CENI@?$CFs?5?$AA@  005feabc     cmd.obj
 0002:00003ac0       ??_C@_0BH@DBPL@sizeof?$CIcmd_function_t?$CJ?$AA@ 005feac0     cmd.obj
 0002:00003adc       ??_C@_0DG@FIEB@g?3?2trep?9engine?2q3nocd?2quake3?91?43@ 005feadc     cmd.obj
 0002:00003b1c       ??_C@_0CE@BKIP@Cmd_AddCommand?3?5?$CFs?5already?5defin@ 005feb1c     cmd.obj
 0002:00003b48       ??_C@_0N@NKFB@?$CFi?5commands?6?$AA@ 005feb48     cmd.obj
 0002:00003b58       ??_C@_04OMDE@wait?$AA@     005feb58     cmd.obj
 0002:00003b60       ??_C@_04CAKO@vstr?$AA@     005feb60     cmd.obj
 0002:00003b68       ??_C@_04DBD@exec?$AA@      005feb68     cmd.obj
 0002:00003b70       ??_C@_07KFEL@cmdlist?$AA@  005feb70     cmd.obj
 0002:00003b7c       ??_C@_0BG@HJMO@logfile?5opened?5on?5?$CFs?6?$AA@ 005feb7c     common.obj
 0002:00003b98       ??_C@_0N@PJHK@qconsole?4log?$AA@ 005feb98     common.obj
 0002:00003ba8       ??_C@_0BK@LBEM@Server?5fatal?5crashed?3?5?$CFs?6?$AA@ 005feba8     common.obj
 0002:00003bc8       ??_C@_0BH@LNIG@Server?5didn?8t?5have?5CD?6?$AA@ 005febc8     common.obj
 0002:00003be4       ??_C@_0BE@GPDD@Server?5crashed?3?5?$CFs?6?$AA@ 005febe4     common.obj
 0002:00003bfc       ??_C@_0DF@MHKK@?$CK?$CK?$CK?$CK?$CK?$CK?$CK?$CK?$CK?$CK?$CK?$CK?$CK?$CK?$CK?$CK?$CK?$CK?$CK?$CK?6ERROR?3?5?$CFs?6?$CK@ 005febfc     common.obj
 0002:00003c3c       ??_C@_0BK@GCKO@recursive?5error?5after?3?5?$CFs?$AA@ 005fec3c     common.obj
 0002:00003c5c       ??_C@_0N@MMGJ@cvar_restart?$AA@ 005fec5c     common.obj
 0002:00003c6c       ??_C@_04KOJK@safe?$AA@     005fec6c     common.obj
 0002:00003c74       ??_C@_03NHNF@set?$AA@      005fec74     common.obj
 0002:00003c78       ??_C@_0P@OJCM@MISSING?5VALUE?6?$AA@ 005fec78     common.obj
 0002:00003c8c       ??_C@_0CE@HAJN@Z_Free?3?5memory?5block?5wrote?5past?5@ 005fec8c     common.obj
 0002:00003cb8       ??_C@_0BO@MGEF@Z_Free?3?5freed?5a?5freed?5pointer?$AA@ 005fecb8     common.obj
 0002:00003cdc       ??_C@_0CH@GNGF@Z_Free?3?5freed?5a?5pointer?5without?5@ 005fecdc     common.obj
 0002:00003d0c       ??_C@_0BF@JCGM@Z_Free?3?5NULL?5pointer?$AA@ 005fed0c     common.obj
 0002:00003d28       ??_C@_0DM@DPAL@Z_Malloc?3?5failed?5on?5allocation?5o@ 005fed28     common.obj
 0002:00003d70       ??_C@_04HBMH@main?$AA@     005fed70     common.obj
 0002:00003d78       ??_C@_05IHCN@small?$AA@    005fed78     common.obj
 0002:00003d80       ??_C@_0CC@FLOH@Z_TagMalloc?3?5tried?5to?5use?5a?50?5ta@ 005fed80     common.obj
 0002:00003da8       ??_C@_0CK@CPHA@Z_CheckHeap?3?5two?5consecutive?5fre@ 005feda8     common.obj
 0002:00003ddc       ??_C@_0DH@FALD@Z_CheckHeap?3?5next?5block?5doesn?8t?5@ 005feddc     common.obj
 0002:00003e20       ??_C@_0DH@LCFC@Z_CheckHeap?3?5block?5size?5does?5not@ 005fee20     common.obj
 0002:00003e64       ??_C@_0BI@GHJO@?$CFd?5?$CFs?5memory?5overhead?$AN?6?$AA@ 005fee64     common.obj
 0002:00003e80       ??_C@_0BM@IJMG@?$CFd?5?$CFs?5memory?5in?5?$CFd?5blocks?$AN?6?$AA@ 005fee80     common.obj
 0002:00003ea4       ??_C@_0CF@PCAN@size?5?$DN?5?$CF8d?3?5?$CFs?0?5line?3?5?$CFd?5?$CI?$CFs?$CJ?5?$FL?$CF@ 005feea4     common.obj
 0002:00003ed0       ??_C@_0CP@FGIO@?$AN?6?$DN?$DN?$DN?$DN?$DN?$DN?$DN?$DN?$DN?$DN?$DN?$DN?$DN?$DN?$DN?$DN?$AN?6?$CFs?5log?$AN?6?$DN?$DN?$DN?$DN@ 005feed0     common.obj
 0002:00003f08       ??_C@_05OMKC@SMALL?$AA@    005fef08     common.obj
 0002:00003f10       ??_C@_04BOOC@MAIN?$AA@     005fef10     common.obj
 0002:00003f18       ??_C@_0N@MCJC@strlen?$CIin?$CJ?$CL1?$AA@ 005fef18     common.obj
 0002:00003f28       ??_C@_0DJ@IPHH@g?3?2trep?9engine?2q3nocd?2quake3?91?43@ 005fef28     common.obj
 0002:00003f6c       ??_C@_0CI@IOPE@?5?5?5?5?5?5?5?5?$CF8i?5bytes?5in?5small?5Zone?5@ 005fef6c     common.obj
 0002:00003f9c       ??_C@_0CE@LEEK@?5?5?5?5?5?5?5?5?$CF8i?5bytes?5in?5dynamic?5oth@ 005fef9c     common.obj
 0002:00003fc8       ??_C@_0CH@GCJO@?5?5?5?5?5?5?5?5?$CF8i?5bytes?5in?5dynamic?5ren@ 005fefc8     common.obj
 0002:00003ff8       ??_C@_0CF@MMMA@?5?5?5?5?5?5?5?5?$CF8i?5bytes?5in?5dynamic?5bot@ 005feff8     common.obj
 0002:00004024       ??_C@_0BN@IHLO@?$CF8i?5bytes?5in?5?$CFi?5zone?5blocks?6?$AA@ 005ff024     common.obj
 0002:00004048       ??_C@_0BG@COCI@?$CF8i?5unused?5highwater?6?$AA@ 005ff048     common.obj
 0002:00004064       ??_C@_0BH@HHHJ@?$CF8i?5total?5hunk?5in?5use?6?$AA@ 005ff064     common.obj
 0002:00004080       ??_C@_0BI@GIFP@?$CF8i?5high?5tempHighwater?6?$AA@ 005ff080     common.obj
 0002:0000409c       ??_C@_0P@KLCJ@?$CF8i?5high?5temp?6?$AA@ 005ff09c     common.obj
 0002:000040b0       ??_C@_0BE@FGMM@?$CF8i?5high?5permanent?6?$AA@ 005ff0b0     common.obj
 0002:000040c8       ??_C@_0P@HGIH@?$CF8i?5high?5mark?6?$AA@ 005ff0c8     common.obj
 0002:000040dc       ??_C@_0BH@PEGI@?$CF8i?5low?5tempHighwater?6?$AA@ 005ff0dc     common.obj
 0002:000040f8       ??_C@_0O@INBI@?$CF8i?5low?5temp?6?$AA@ 005ff0f8     common.obj
 0002:00004108       ??_C@_0BD@GGMB@?$CF8i?5low?5permanent?6?$AA@ 005ff108     common.obj
 0002:00004120       ??_C@_0O@FALG@?$CF8i?5low?5mark?6?$AA@ 005ff120     common.obj
 0002:00004130       ??_C@_0BG@NOHE@?$CF8i?5bytes?5total?5zone?6?$AA@ 005ff130     common.obj
 0002:0000414c       ??_C@_0BG@GLNF@?$CF8i?5bytes?5total?5hunk?6?$AA@ 005ff14c     common.obj
 0002:00004168       ??_C@_0CE@FPNP@ERROR?3?5two?5consecutive?5free?5bloc@ 005ff168     common.obj
 0002:00004194       ??_C@_0DB@BKBJ@ERROR?3?5next?5block?5doesn?8t?5have?5p@ 005ff194     common.obj
 0002:000041d0       ??_C@_0DB@PIPI@ERROR?3?5block?5size?5does?5not?5touch@ 005ff1d0     common.obj
 0002:0000420c       ??_C@_0CB@HLMI@block?3?$CFp?5?5?5?5size?3?$CF7i?5?5?5?5tag?3?$CF3i?6@ 005ff20c     common.obj
 0002:00004234       ??_C@_0BK@IOEJ@Com_TouchMemory?3?5?$CFi?5msec?6?$AA@ 005ff234     common.obj
 0002:00004254       ??_C@_0CO@LBNA@Small?5zone?5data?5failed?5to?5alloca@ 005ff254     common.obj
 0002:0000428c       __real@4@40138000000000000000 005ff28c     common.obj
 0002:00004290       ??_C@_0CF@KHGI@Zone?5data?5failed?5to?5allocate?5?$CFi?5@ 005ff290     common.obj
 0002:000042bc       ??_C@_0N@HFPN@com_zoneMegs?$AA@ 005ff2bc     common.obj
 0002:000042cc       ??_C@_02KNLD@16?$AA@       005ff2cc     common.obj
 0002:000042d0       ??_C@_0BB@CKPN@?$CFd?5hunk?5blocks?$AN?6?$AA@ 005ff2d0     common.obj
 0002:000042e4       ??_C@_0BB@CAEB@?$CFd?5Hunk?5memory?$AN?6?$AA@ 005ff2e4     common.obj
 0002:000042f8       ??_C@_0CA@KBBI@size?5?$DN?5?$CF8d?3?5?$CFs?0?5line?3?5?$CFd?5?$CI?$CFs?$CJ?$AN?6?$AA@ 005ff2f8     common.obj
 0002:00004320       ??_C@_0DB@HGME@?$AN?6?$DN?$DN?$DN?$DN?$DN?$DN?$DN?$DN?$DN?$DN?$DN?$DN?$DN?$DN?$DN?$DN?$AN?6Hunk?5log?$AN?6?$DN?$DN@ 005ff320     common.obj
 0002:0000435c       ??_C@_0DH@JAEA@?$AN?6?$DN?$DN?$DN?$DN?$DN?$DN?$DN?$DN?$DN?$DN?$DN?$DN?$DN?$DN?$DN?$DN?$AN?6Hunk?5Small?5l@ 005ff35c     common.obj
 0002:000043a0       ??_C@_0N@DKDO@hunksmalllog?$AA@ 005ff3a0     common.obj
 0002:000043b0       ??_C@_07CHFH@hunklog?$AA@  005ff3b0     common.obj
 0002:000043bc       ??_C@_07LKBJ@zonelog?$AA@  005ff3bc     common.obj
 0002:000043c8       ??_C@_07BADG@meminfo?$AA@  005ff3c8     common.obj
 0002:000043d4       ??_C@_0CF@FGPO@Hunk?5data?5failed?5to?5allocate?5?$CFi?5@ 005ff3d4     common.obj
 0002:00004400       ??_C@_0DB@INC@Minimum?5com_hunkMegs?5is?5?$CFi?0?5allo@ 005ff400     common.obj
 0002:0000443c       ??_C@_0EI@GGAH@Minimum?5com_hunkMegs?5for?5a?5dedic@ 005ff43c     common.obj
 0002:00004494       ??_C@_0N@GGGA@com_hunkMegs?$AA@ 005ff494     common.obj
 0002:000044a4       ??_C@_02PHBJ@56?$AA@       005ff4a4     common.obj
 0002:000044a8       ??_C@_0DM@GJIP@Hunk?5initialization?5failed?4?5File@ 005ff4a8     common.obj
 0002:000044f0       ??_C@_0BP@EHLO@Hunk_Clear?3?5reset?5the?5hunk?5ok?6?$AA@ 005ff4f0     common.obj
 0002:00004518       ??_C@_0BI@MKHO@Hunk_Alloc?5failed?5on?5?$CFi?$AA@ 005ff518     common.obj
 0002:00004534       ??_C@_0CP@GBGD@Hunk_Alloc?3?5Hunk?5memory?5system?5n@ 005ff534     common.obj
 0002:0000456c       ??_C@_0CG@OKMM@Hunk_AllocateTempMemory?3?5failed?5@ 005ff56c     common.obj
 0002:0000459c       ??_C@_0CK@ILFP@Hunk_FreeTempMemory?3?5not?5the?5fin@ 005ff59c     common.obj
 0002:000045d0       ??_C@_0BP@FFFD@Hunk_FreeTempMemory?3?5bad?5magic?$AA@ 005ff5d0     common.obj
 0002:000045f8       ??_C@_0BN@NMBN@Couldn?8t?5open?5journal?5files?6?$AA@ 005ff5f8     common.obj
 0002:0000461c       ??_C@_0M@PEID@com_journal?$AA@ 005ff61c     common.obj
 0002:0000462c       ??_C@_0BM@PMGC@Replaying?5journaled?5events?6?$AA@ 005ff62c     common.obj
 0002:00004650       ??_C@_0BA@HOOB@journaldata?4dat?$AA@ 005ff650     common.obj
 0002:00004664       ??_C@_0M@OOGC@journal?4dat?$AA@ 005ff664     common.obj
 0002:00004674       ??_C@_0BD@GINP@Journaling?5events?6?$AA@ 005ff674     common.obj
 0002:0000468c       ??_C@_07NCEL@journal?$AA@  005ff68c     common.obj
 0002:00004698       ??_C@_0BO@COCP@Error?5writing?5to?5journal?5file?$AA@ 005ff698     common.obj
 0002:000046bc       ??_C@_0P@JJKI@ev?4evPtrLength?$AA@ 005ff6bc     common.obj
 0002:000046d0       ??_C@_0CA@LMKG@Error?5reading?5from?5journal?5file?$AA@ 005ff6d0     common.obj
 0002:000046f8       ??_C@_0CB@HKCE@WARNING?3?5Com_PushEvent?5overflow?6@ 005ff6f8     common.obj
 0002:00004720       ??_C@_0BJ@MAOM@SV_PacketEvent?5time?3?5?$CFi?6?$AA@ 005ff720     common.obj
 0002:00004740       ??_C@_0CA@GPPB@Com_EventLoop?3?5oversize?5packet?6?$AA@ 005ff740     common.obj
 0002:00004768       ??_C@_0CB@FKE@Com_EventLoop?3?5bad?5event?5type?5?$CFi@ 005ff768     common.obj
 0002:00004790       ??_C@_0BB@BOMG@?5?5?5?5?5?5?5?5?5?5?5?5?5?5?5?5?$AA@ 005ff790     common.obj
 0002:000047a4       ??_C@_08HMHJ@?$CFs?1q3key?$AA@ 005ff7a4     common.obj
 0002:000047b0       ??_C@_0CI@IEKC@?9?9?9?5Common?5Initialization?5Comple@ 005ff7b0     common.obj
 0002:000047e0       ??_C@_0BE@MOOL@cinematic?5intro?4RoQ?$AA@ 005ff7e0     common.obj
 0002:000047f8       ??_C@_0BG@OFGP@cinematic?5idlogo?4RoQ?6?$AA@ 005ff7f8     common.obj
 0002:00004814       ??_C@_08KOBO@?$CFs?5?$CFs?5?$CFs?$AA@ 005ff814     common.obj
 0002:00004820       ??_C@_0M@DAKA@writeconfig?$AA@ 005ff820     common.obj
 0002:00004830       ??_C@_0O@IGBF@changeVectors?$AA@ 005ff830     common.obj
 0002:00004840       ??_C@_04FKOI@quit?$AA@     005ff840     common.obj
 0002:00004848       ??_C@_06HHG@freeze?$AA@    005ff848     common.obj
 0002:00004850       ??_C@_05BEID@crash?$AA@    005ff850     common.obj
 0002:00004858       ??_C@_05COLM@error?$AA@    005ff858     common.obj
 0002:00004860       ??_C@_0BF@POMG@com_noErrorInterrupt?$AA@ 005ff860     common.obj
 0002:0000487c       ??_C@_0BA@EEKA@com_introplayed?$AA@ 005ff87c     common.obj
 0002:00004890       ??_C@_0BA@ELKM@com_buildScript?$AA@ 005ff890     common.obj
 0002:000048a4       ??_C@_0L@HNAD@sv_running?$AA@ 005ff8a4     common.obj
 0002:000048b4       ??_C@_09DKNH@sv_paused?$AA@ 005ff8b4     common.obj
 0002:000048c0       ??_C@_0L@OINE@com_speeds?$AA@ 005ff8c0     common.obj
 0002:000048d0       ??_C@_07PHOC@viewlog?$AA@  005ff8d0     common.obj
 0002:000048dc       ??_C@_0M@OOLB@com_dropsim?$AA@ 005ff8dc     common.obj
 0002:000048ec       ??_C@_0O@NDI@com_showtrace?$AA@ 005ff8ec     common.obj
 0002:000048fc       ??_C@_09GDME@fixedtime?$AA@ 005ff8fc     common.obj
 0002:00004908       ??_C@_09PFGA@timescale?$AA@ 005ff908     common.obj
 0002:00004914       ??_C@_07OFK@logfile?$AA@   005ff914     common.obj
 0002:00004920       ??_C@_09NJEO@com_blood?$AA@ 005ff920     common.obj
 0002:0000492c       ??_C@_0L@MJPE@com_maxfps?$AA@ 005ff92c     common.obj
 0002:0000493c       ??_C@_02PBPE@85?$AA@       005ff93c     common.obj
 0002:00004940       ??_C@_09GLCL@dedicated?$AA@ 005ff940     common.obj
 0002:0000494c       ??_C@_0BD@EAME@exec?5autoexec?4cfg?6?$AA@ 005ff94c     common.obj
 0002:00004964       ??_C@_0BD@MCAN@exec?5q3config?4cfg?6?$AA@ 005ff964     common.obj
 0002:0000497c       ??_C@_0BC@LCK@exec?5default?4cfg?6?$AA@ 005ff97c     common.obj
 0002:00004994       ??_C@_09KOCP@developer?$AA@ 005ff994     common.obj
 0002:000049a0       ??_C@_0BM@EJHE@Error?5during?5initialization?$AA@ 005ff9a0     common.obj
 0002:000049c4       ??_C@_09EBDI@?$CFs?5?$CFs?5?$CFs?6?$AA@ 005ff9c4     common.obj
 0002:000049d0       ??_C@_0O@IKNJ@win?9x86?9debug?$AA@ 005ff9d0     common.obj
 0002:000049e0       ??_C@_0M@JCNI@Apr?515?52006?$AA@ 005ff9e0     common.obj
 0002:000049f0       ??_C@_0BE@OFN@Testing?5fatal?5error?$AA@ 005ff9f0     common.obj
 0002:00004a08       ??_C@_0BD@PJLC@Testing?5drop?5error?$AA@ 005ffa08     common.obj
 0002:00004a20       ??_C@_0BC@GBMG@freeze?5?$DMseconds?$DO?6?$AA@ 005ffa20     common.obj
 0002:00004a38       ??_C@_0CG@CLDJ@?1?1?5generated?5by?5quake?0?5do?5not?5mo@ 005ffa38     common.obj
 0002:00004a68       ??_C@_0BE@OCEN@Couldn?8t?5write?5?$CFs?4?6?$AA@ 005ffa68     common.obj
 0002:00004a80       ??_C@_06EEGI@baseq3?$AA@   005ffa80     common.obj
 0002:00004a88       ??_C@_0N@IOFE@q3config?4cfg?$AA@ 005ffa88     common.obj
 0002:00004a98       ??_C@_0EM@GECH@?1?1?5id?5Software?5and?5Activision?5wi@ 005ffa98     common.obj
 0002:00004af4       ??_C@_0CG@KBCN@?1?1?5Do?5not?5give?5this?5file?5to?5ANYO@ 005ffaf4     common.obj
 0002:00004b24       ??_C@_0CI@NKDJ@?6?1?1?5generated?5by?5quake?0?5do?5not?5m@ 005ffb24     common.obj
 0002:00004b54       ??_C@_0N@OKCN@Writing?5?$CFs?4?6?$AA@ 005ffb54     common.obj
 0002:00004b64       ??_C@_0BP@JGGC@Usage?3?5writeconfig?5?$DMfilename?$DO?6?$AA@ 005ffb64     common.obj
 0002:00004b8c       ??_C@_0CD@EEHI@Hitch?5warning?3?5?$CFi?5msec?5frame?5tim@ 005ffb8c     common.obj
 0002:00004bb8       ??_C@_0CC@BMKA@?$CF4i?5traces?5?5?$CI?$CFib?5?$CFip?$CJ?5?$CF4i?5points@ 005ffbb8     common.obj
 0002:00004be0       ??_C@_0DM@INCE@frame?3?$CFi?5all?3?$CF3i?5sv?3?$CF3i?5ev?3?$CF3i?5c@ 005ffbe0     common.obj
 0002:00004c28       __real@4@c000c90fdb0000000000 005ffc28     common.obj
 0002:00004c2c       __real@4@4000c90fdb0000000000 005ffc2c     common.obj
 0002:00004c30       ??_C@_07LPPG@?5?5?5?5?$CFs?6?$AA@ 005ffc30     common.obj
 0002:00004c3c       ??_C@_09LJMD@MAX_CVARS?$AA@ 005ffc3c     cvar.obj
 0002:00004c48       ??_C@_0DI@NJK@Warning?3?5cvar?5?$CC?$CFs?$CC?5given?5initial@ 005ffc48     cvar.obj
 0002:00004c8c       ??_C@_07MJE@BADNAME?$AA@   005ffc8c     cvar.obj
 0002:00004c98       ??_C@_0BO@FEIG@invalid?5cvar?5name?5string?3?5?$CFs?6?$AA@ 005ffc98     cvar.obj
 0002:00004cbc       ??_C@_0BJ@GAEB@Cvar_Get?3?5NULL?5parameter?$AA@ 005ffcbc     cvar.obj
 0002:00004cdc       ??_C@_0BI@GPDN@?$CFs?5is?5cheat?5protected?4?6?$AA@ 005ffcdc     cvar.obj
 0002:00004cf8       ??_C@_0CF@FNEE@?$CFs?5will?5be?5changed?5upon?5restarti@ 005ffcf8     cvar.obj
 0002:00004d24       ??_C@_0BI@NACO@?$CFs?5is?5write?5protected?4?6?$AA@ 005ffd24     cvar.obj
 0002:00004d40       ??_C@_0BC@KEDC@?$CFs?5is?5read?5only?4?6?$AA@ 005ffd40     cvar.obj
 0002:00004d58       ??_C@_0BC@NCDK@Cvar_Set2?3?5?$CFs?5?$CFs?6?$AA@ 005ffd58     cvar.obj
 0002:00004d70       ??_C@_02JBAA@?$CFf?$AA@    005ffd70     cvar.obj
 0002:00004d74       ??_C@_0P@IAHD@latched?3?5?$CC?$CFs?$CC?6?$AA@ 005ffd74     cvar.obj
 0002:00004d88       ??_C@_0BP@KJHK@?$CC?$CFs?$CC?5is?3?$CC?$CFs?$FO7?$CC?5default?3?$CC?$CFs?$FO7?$CC?6?$AA@ 005ffd88     cvar.obj
 0002:00004db0       ??_C@_0BK@ODDN@usage?3?5toggle?5?$DMvariable?$DO?6?$AA@ 005ffdb0     cvar.obj
 0002:00004dd0       ??_C@_0BP@GJCE@usage?3?5set?5?$DMvariable?$DO?5?$DMvalue?$DO?6?$AA@ 005ffdd0     cvar.obj
 0002:00004df8       ??_C@_0CA@NGG@usage?3?5setu?5?$DMvariable?$DO?5?$DMvalue?$DO?6?$AA@ 005ffdf8     cvar.obj
 0002:00004e20       ??_C@_0CA@GMOO@usage?3?5sets?5?$DMvariable?$DO?5?$DMvalue?$DO?6?$AA@ 005ffe20     cvar.obj
 0002:00004e48       ??_C@_0CA@EIFG@usage?3?5seta?5?$DMvariable?$DO?5?$DMvalue?$DO?6?$AA@ 005ffe48     cvar.obj
 0002:00004e70       ??_C@_0BJ@POGP@usage?3?5reset?5?$DMvariable?$DO?6?$AA@ 005ffe70     cvar.obj
 0002:00004e90       ??_C@_0O@DDLH@seta?5?$CFs?5?$CC?$CFs?$CC?6?$AA@ 005ffe90     cvar.obj
 0002:00004ea0       ??_C@_08KMCO@cl_cdkey?$AA@ 005ffea0     cvar.obj
 0002:00004eac       ??_C@_0BB@MCDA@?$CFi?5cvar?5indexes?6?$AA@ 005ffeac     cvar.obj
 0002:00004ec0       ??_C@_0BB@KJDN@?6?$CFi?5total?5cvars?6?$AA@ 005ffec0     cvar.obj
 0002:00004ed4       ??_C@_09MKHI@?5?$CFs?5?$CC?$CFs?$CC?6?$AA@ 005ffed4     cvar.obj
 0002:00004ee0       ??_C@_01FKHJ@C?$AA@        005ffee0     cvar.obj
 0002:00004ee4       ??_C@_01FLCE@L?$AA@        005ffee4     cvar.obj
 0002:00004ee8       ??_C@_01PFH@A?$AA@         005ffee8     cvar.obj
 0002:00004eec       ??_C@_01FLOP@I?$AA@        005ffeec     cvar.obj
 0002:00004ef0       ??_C@_01FJJO@R?$AA@        005ffef0     cvar.obj
 0002:00004ef4       ??_C@_01MHL@U?$AA@         005ffef4     cvar.obj
 0002:00004ef8       ??_C@_01PDAJ@S?$AA@        005ffef8     cvar.obj
 0002:00004efc       ??_C@_0DM@KKBP@Cvar_Update?3?5src?5?$CFs?5length?5?$CFd?5ex@ 005ffefc     cvar.obj
 0002:00004f44       ??_C@_0CB@DLEL@Cvar_Update?3?5handle?5out?5of?5range@ 005fff44     cvar.obj
 0002:00004f6c       ??_C@_06IEJJ@vmCvar?$AA@   005fff6c     cvar.obj
 0002:00004f74       ??_C@_0DH@EDGK@G?3?2trep?9engine?2q3nocd?2quake3?91?43@ 005fff74     cvar.obj
 0002:00004fb8       ??_C@_08DHNN@cvarlist?$AA@ 005fffb8     cvar.obj
 0002:00004fc4       ??_C@_05NGOJ@reset?$AA@    005fffc4     cvar.obj
 0002:00004fcc       ??_C@_04LGA@seta?$AA@      005fffcc     cvar.obj
 0002:00004fd4       ??_C@_04IEM@setu?$AA@      005fffd4     cvar.obj
 0002:00004fdc       ??_C@_04PHDO@sets?$AA@     005fffdc     cvar.obj
 0002:00004fe4       ??_C@_06KGCE@toggle?$AA@   005fffe4     cvar.obj
 0002:00004fec       ??_C@_0BH@NADB@FS_FileForHandle?3?5NULL?$AA@ 005fffec     files.obj
 0002:00005008       ??_C@_0CN@KBOK@FS_FileForHandle?3?5can?8t?5get?5FILE@ 00600008     files.obj
 0002:00005040       ??_C@_0CA@KBDM@FS_FileForHandle?3?5out?5of?5reange?$AA@ 00600040     files.obj
 0002:00005068       ??_C@_04DCMN@?$CFs?$CFs?$AA@ 00600068     files.obj
 0002:00005070       ??_C@_06EFNF@?1?$CFs?1?$CFs?$AA@ 00600070     files.obj
 0002:00005078       ??_C@_02JKAF@rb?$AA@       00600078     files.obj
 0002:0000507c       ??_C@_02NGAF@wb?$AA@       0060007c     files.obj
 0002:00005080       ??_C@_0BA@GONL@writing?5to?3?5?$CFs?6?$AA@ 00600080     files.obj
 0002:00005094       ??_C@_0BK@OJDF@FS_SV_FOpenFileWrite?3?5?$CFs?6?$AA@ 00600094     files.obj
 0002:000050b4       ??_C@_0CN@CJBB@Filesystem?5call?5made?5without?5ini@ 006000b4     files.obj
 0002:000050ec       ??_C@_0BM@BDHM@FS_HandleForFile?3?5none?5free?$AA@ 006000ec     files.obj
 0002:00005110       ??_C@_0DA@HHPH@WARNING?3?5refusing?5to?5create?5rela@ 00600110     files.obj
 0002:0000514c       ??_C@_02NNPM@?3?3?$AA@     0060014c     files.obj
 0002:00005150       ??_C@_02OOND@?4?4?$AA@     00600150     files.obj
 0002:00005154       ??_C@_0CG@EAKF@FS_SV_FOpenFileRead?5?$CIfs_cdpath?$CJ?5@ 00600154     files.obj
 0002:00005184       ??_C@_0CH@HOO@FS_SV_FOpenFileRead?5?$CIfs_basepath@ 00600184     files.obj
 0002:000051b4       ??_C@_0CH@PEEH@FS_SV_FOpenFileRead?5?$CIfs_homepath@ 006001b4     files.obj
 0002:000051e4       ??_C@_0BJ@KFMG@FS_SV_Rename?3?5?$CFs?5?9?9?$DO?5?$CFs?6?$AA@ 006001e4     files.obj
 0002:00005204       ??_C@_0BP@FBGJ@Short?5write?5in?5FS_Copyfiles?$CI?$CJ?6?$AA@ 00600204     files.obj
 0002:0000522c       ??_C@_0BO@GKMB@Short?5read?5in?5FS_Copyfiles?$CI?$CJ?6?$AA@ 0060022c     files.obj
 0002:00005250       ??_C@_0BI@IPGB@Ignoring?5journal?5files?6?$AA@ 00600250     files.obj
 0002:0000526c       ??_C@_0P@NFED@copy?5?$CFs?5to?5?$CFs?6?$AA@ 0060026c     files.obj
 0002:00005280       ??_C@_0BG@NJAI@FS_Rename?3?5?$CFs?5?9?9?$DO?5?$CFs?6?$AA@ 00600280     files.obj
 0002:0000529c       ??_C@_0BH@BNEJ@FS_FOpenFileWrite?3?5?$CFs?6?$AA@ 0060029c     files.obj
 0002:000052b8       ??_C@_02MLFD@ab?$AA@       006002b8     files.obj
 0002:000052bc       ??_C@_0BI@BLHO@FS_FOpenFileAppend?3?5?$CFs?6?$AA@ 006002bc     files.obj
 0002:000052d8       ??_C@_0P@JOEA@Can?8t?5find?5?$CFs?6?$AA@ 006002d8     files.obj
 0002:000052ec       ??_C@_0CJ@IOBJ@FS_FOpenFileRead?3?5?$CFs?5?$CIfound?5in?5?8@ 006002ec     files.obj
 0002:00005320       ??_C@_04ENEK@?4dat?$AA@    00600320     files.obj
 0002:00005328       ??_C@_05CFAH@?4game?$AA@   00600328     files.obj
 0002:00005330       ??_C@_0CG@GEPD@FS_FOpenFileRead?3?5?$CFs?5?$CIfound?5in?5?8@ 00600330     files.obj
 0002:00005360       ??_C@_0BD@IPHH@Couldn?8t?5reopen?5?$CFs?$AA@ 00600360     files.obj
 0002:00005378       ??_C@_06BBBI@pd?$CJlqh?$AA@ 00600378     files.obj
 0002:00005380       ??_C@_09KNKN@?2?$GAZf?$FO?8jof?$AA@ 00600380     files.obj
 0002:0000538c       ??_C@_0L@NLEA@dTZT?$GAX?$CBdi?$GA?$AA@ 0060038c     files.obj
 0002:0000539c       ??_C@_05JPOG@?4menu?$AA@   0060039c     files.obj
 0002:000053a4       ??_C@_06BFIE@?4arena?$AA@  006003a4     files.obj
 0002:000053ac       ??_C@_04GDJG@?4bot?$AA@    006003ac     files.obj
 0002:000053b4       ??_C@_0L@JNGJ@levelshots?$AA@ 006003b4     files.obj
 0002:000053c4       ??_C@_07BBNI@?4config?$AA@ 006003c4     files.obj
 0002:000053d0       ??_C@_04KFHH@?4txt?$AA@    006003d0     files.obj
 0002:000053d8       ??_C@_07BJGG@?4shader?$AA@ 006003d8     files.obj
 0002:000053e4       ??_C@_05NGC@q3key?$AA@     006003e4     files.obj
 0002:000053ec       ??_C@_06MDNJ@?4dm_?$CFd?$AA@ 006003ec     files.obj
 0002:000053f4       ??_C@_0DE@OLNL@FS_FOpenFileRead?3?5NULL?5?8filename@ 006003f4     files.obj
 0002:00005434       ??_C@_0BH@CPFC@FS_Read?3?5?91?5bytes?5read?$AA@ 00600434     files.obj
 0002:00005450       ??_C@_0BM@CGDJ@FS_Write?3?5?91?5bytes?5written?6?$AA@ 00600450     files.obj
 0002:00005474       ??_C@_0BL@DNMM@FS_Write?3?50?5bytes?5written?6?$AA@ 00600474     files.obj
 0002:00005494       ??_C@_0BH@BCDP@Bad?5origin?5in?5FS_Seek?6?$AA@ 00600494     files.obj
 0002:000054b0       ??_C@_0CE@KMBI@ZIP?5FILE?5FSEEK?5NOT?5YET?5IMPLEMENT@ 006004b0     files.obj
 0002:000054dc       ??_C@_0BN@DLHE@Writing?5?$CFs?5to?5journal?5file?4?6?$AA@ 006004dc     files.obj
 0002:00005500       ??_C@_0CF@PMK@Writing?5len?5for?5?$CFs?5to?5journal?5fi@ 00600500     files.obj
 0002:0000552c       ??_C@_0CG@PNP@Writing?5zero?5for?5?$CFs?5to?5journal?5f@ 0060052c     files.obj
 0002:0000555c       ??_C@_0CB@JJKN@Read?5from?5journalDataFile?5failed@ 0060055c     files.obj
 0002:00005584       ??_C@_0BP@EPDB@Loading?5?$CFs?5from?5journal?5file?4?6?$AA@ 00600584     files.obj
 0002:000055ac       ??_C@_0BN@EGFN@FS_ReadFile?5with?5empty?5name?6?$AA@ 006005ac     files.obj
 0002:000055d0       ??_C@_0BE@MJLO@FS_FreeFile?$CI?5NULL?5?$CJ?$AA@ 006005d0     files.obj
 0002:000055e8       ??_C@_0BD@LGC@Failed?5to?5open?5?$CFs?6?$AA@ 006005e8     files.obj
 0002:00005600       ??_C@_0BN@IIPI@FS_WriteFile?3?5NULL?5parameter?$AA@ 00600600     files.obj
 0002:00005624       ??_C@_0CF@CFAM@?$CI?5nfiles?5?$CL?51?5?$CJ?5?$CK?5sizeof?$CI?5?$CKlistCo@ 00600624     files.obj
 0002:00005650       ??_C@_0DI@GKLH@G?3?2trep?9engine?2q3nocd?2quake3?91?43@ 00600650     files.obj
 0002:00005694       ??_C@_08DILD@$modlist?$AA@ 00600694     files.obj
 0002:000056a0       ??_C@_0BB@CP@?1description?4txt?$AA@ 006006a0     files.obj
 0002:000056b4       ??_C@_04EMFO@?4pk3?$AA@    006006b4     files.obj
 0002:000056bc       ??_C@_01PJCK@?4?$AA@       006006bc     files.obj
 0002:000056c0       ??_C@_0CG@GAMA@?$CI?5totalLength?5?$CL?51?5?$CJ?5?$CK?5sizeof?$CI?5ch@ 006006c0     files.obj
 0002:000056f0       ??_C@_0BB@FNFM@?9?9?9?9?9?9?9?9?9?9?9?9?9?9?9?6?$AA@ 006006f0     files.obj
 0002:00005704       ??_C@_0BE@NHPO@Directory?5of?5?$CFs?5?$CFs?6?$AA@ 00600704     files.obj
 0002:0000571c       ??_C@_0CE@PLHH@usage?3?5dir?5?$DMdirectory?$DO?5?$FLextensio@ 0060071c     files.obj
 0002:00005748       ??_C@_0CJ@GDAA@?$CI?5numfiles?5?$CL?51?5?$CJ?5?$CK?5sizeof?$CI?5?$CKsort@ 00600748     files.obj
 0002:0000577c       ??_C@_0BB@ELAP@?$CFd?5files?5listed?6?$AA@ 0060077c     files.obj
 0002:00005790       ??_C@_0BK@BIPK@example?3?5fdir?5?$CKq3dm?$CK?4bsp?6?$AA@ 00600790     files.obj
 0002:000057b0       ??_C@_0BG@FDMH@usage?3?5fdir?5?$DMfilter?$DO?6?$AA@ 006007b0     files.obj
 0002:000057cc       ??_C@_0P@MDGF@handle?5?$CFi?3?5?$CFs?6?$AA@ 006007cc     files.obj
 0002:000057e0       ??_C@_06JFCC@?$CFs?1?$CFs?6?$AA@ 006007e0     files.obj
 0002:000057e8       ??_C@_0BG@LPEE@?5?5?5?5on?5the?5pure?5list?6?$AA@ 006007e8     files.obj
 0002:00005804       ??_C@_0BK@FMKL@?5?5?5?5not?5on?5the?5pure?5list?6?$AA@ 00600804     files.obj
 0002:00005824       ??_C@_0P@JHJD@?$CFs?5?$CI?$CFi?5files?$CJ?6?$AA@ 00600824     files.obj
 0002:00005838       ??_C@_0BG@FLGJ@Current?5search?5path?3?6?$AA@ 00600838     files.obj
 0002:00005854       ??_C@_0BJ@PNAG@Usage?3?5touchFile?5?$DMfile?$DO?6?$AA@ 00600854     files.obj
 0002:00005874       ??_C@_08MAPK@?$CFs?1pak?$CFd?$AA@ 00600874     files.obj
 0002:00005880       ??_C@_0CJ@LFBD@?5?$CIlocal?5file?5exists?5with?5wrong?5c@ 00600880     files.obj
 0002:000058b4       ??_C@_0M@PEHF@?$CFs?4?$CF08x?4pk3?$AA@ 006008b4     files.obj
 0002:000058c4       ??_C@_06NELO@?$CFs?4pk3?$AA@ 006008c4     files.obj
 0002:000058cc       ??_C@_01KFMA@?$EA?$AA@     006008cc     files.obj
 0002:000058d0       ??_C@_0M@KMFB@missionpack?$AA@ 006008d0     files.obj
 0002:000058e0       ??_C@_09MMEN@touchFile?$AA@ 006008e0     files.obj
 0002:000058ec       ??_C@_04HJHJ@fdir?$AA@     006008ec     files.obj
 0002:000058f4       ??_C@_03FIFC@dir?$AA@      006008f4     files.obj
 0002:000058f8       ??_C@_04NCOD@path?$AA@     006008f8     files.obj
 0002:00005900       ??_C@_0BP@EOHF@FS?5search?5reorder?5is?5required?6?$AA@ 00600900     files.obj
 0002:00005928       ??_C@_0BN@DBPI@Connected?5to?5a?5pure?5server?4?6?$AA@ 00600928     files.obj
 0002:0000594c       ??_C@_0BK@KGNG@Couldn?8t?5load?5default?4cfg?$AA@ 0060094c     files.obj
 0002:0000596c       ??_C@_0M@JGIA@default?4cfg?$AA@ 0060096c     files.obj
 0002:0000597c       ??_C@_0N@KIJM@fs_copyfiles?$AA@ 0060097c     files.obj
 0002:0000598c       ??_C@_0M@MKLK@fs_homepath?$AA@ 0060098c     files.obj
 0002:0000599c       ??_C@_0M@CIA@fs_basepath?$AA@ 0060099c     files.obj
 0002:000059ac       ??_C@_09MOEB@fs_cdpath?$AA@ 006009ac     files.obj
 0002:000059b8       ??_C@_0BH@HIG@?$CFd?5files?5in?5pk3?5files?6?$AA@ 006009b8     files.obj
 0002:000059d4       ??_C@_0BI@HDOL@?9?9?9?9?9?9?9?9?9?9?9?9?9?9?9?9?9?9?9?9?9?9?6?$AA@ 006009d4     files.obj
 0002:000059f0       ??_C@_0M@DADL@fs_basegame?$AA@ 006009f0     files.obj
 0002:00005a00       ??_C@_08HPLN@fs_debug?$AA@ 00600a00     files.obj
 0002:00005a0c       ??_C@_0BI@FMBL@?9?9?9?9?9?5FS_Startup?5?9?9?9?9?9?6?$AA@ 00600a0c     files.obj
 0002:00005a28       ??_C@_0BH@CDJL@sizeof?$CI?5?$CKsearch?9?$DOdir?5?$CJ?$AA@ 00600a28     files.obj
 0002:00005a44       ??_C@_0BF@BADA@sizeof?$CIsearchpath_t?$CJ?$AA@ 00600a44     files.obj
 0002:00005a60       ??_C@_0CO@GPBB@sizeof?$CI?5pack_t?5?$CJ?5?$CL?5i?5?$CK?5sizeof?$CIfi@ 00600a60     files.obj
 0002:00005a98       ??_C@_0BO@EPEG@gi?4number_entry?5?$CK?5sizeof?$CIint?$CJ?$AA@ 00600a98     files.obj
 0002:00005abc       ??_C@_0DB@LBHE@?$CIgi?4number_entry?5?$CK?5sizeof?$CI?5fileI@ 00600abc     files.obj
 0002:00005af8       ??_C@_0BH@FEOP@Corrupted?5pak0?4pk3?3?5?$CFu?$AA@ 00600af8     files.obj
 0002:00005b14       ??_C@_06DIGG@demota?$AA@   00600b14     files.obj
 0002:00005b1c       ??_C@_0CE@JDAH@?6Running?5in?5restricted?5demo?5mode@ 00600b1c     files.obj
 0002:00005b48       ??_C@_0BP@KPHH@Invalid?5product?5identification?$AA@ 00600b48     files.obj
 0002:00005b70       ??_C@_0O@KMBN@productid?4txt?$AA@ 00600b70     files.obj
 0002:00005b80       ??_C@_0BF@NHCO@Invalid?5game?5folder?6?$AA@ 00600b80     files.obj
 0002:00005b9c       ??_C@_0O@CBDG@fs_gamedirvar?$AA@ 00600b9c     files.obj
 0002:00005bac       ??_C@_0BI@MIKP@FSH_FOpenFile?3?5bad?5mode?$AA@ 00600bac     files.obj
 0002:00005bc8       ??_C@_0M@KGEN@jumppad_ent?$AA@ 00600bc8     msg.obj
 0002:00005bd8       ??_C@_0BA@IKOA@grapplePoint?$FL2?$FN?$AA@ 00600bd8     msg.obj
 0002:00005bec       ??_C@_0BA@LBBP@grapplePoint?$FL1?$FN?$AA@ 00600bec     msg.obj
 0002:00005c00       ??_C@_0BA@KHLF@grapplePoint?$FL0?$FN?$AA@ 00600c00     msg.obj
 0002:00005c14       ??_C@_0O@DFFG@viewangles?$FL2?$FN?$AA@ 00600c14     msg.obj
 0002:00005c24       ??_C@_0O@KDIK@eventParms?$FL1?$FN?$AA@ 00600c24     msg.obj
 0002:00005c34       ??_C@_0O@LFCA@eventParms?$FL0?$FN?$AA@ 00600c34     msg.obj
 0002:00005c44       ??_C@_0L@CKEI@torsoTimer?$AA@ 00600c44     msg.obj
 0002:00005c54       ??_C@_0BA@IEBJ@delta_angles?$FL2?$FN?$AA@ 00600c54     msg.obj
 0002:00005c68       ??_C@_0BA@KJEM@delta_angles?$FL0?$FN?$AA@ 00600c68     msg.obj
 0002:00005c7c       ??_C@_07LONG@pm_type?$AA@  00600c7c     msg.obj
 0002:00005c88       ??_C@_0M@EIJC@damageCount?$AA@ 00600c88     msg.obj
 0002:00005c98       ??_C@_0M@IJJC@damagePitch?$AA@ 00600c98     msg.obj
 0002:00005ca8       ??_C@_09GNDK@damageYaw?$AA@ 00600ca8     msg.obj
 0002:00005cb4       ??_C@_0M@PDME@damageEvent?$AA@ 00600cb4     msg.obj
 0002:00005cc4       ??_C@_0L@EAO@viewheight?$AA@ 00600cc4     msg.obj
 0002:00005cd4       ??_C@_0BC@EMOL@externalEventParm?$AA@ 00600cd4     msg.obj
 0002:00005cec       ??_C@_0BA@LPOG@delta_angles?$FL1?$FN?$AA@ 00600cec     msg.obj
 0002:00005d00       ??_C@_05PHJK@speed?$AA@    00600d00     msg.obj
 0002:00005d08       ??_C@_07CAPN@gravity?$AA@  00600d08     msg.obj
 0002:00005d14       ??_C@_0O@GPHI@externalEvent?$AA@ 00600d14     msg.obj
 0002:00005d24       ??_C@_0M@NINK@weaponstate?$AA@ 00600d24     msg.obj
 0002:00005d34       ??_C@_08MKFK@pm_flags?$AA@ 00600d34     msg.obj
 0002:00005d40       ??_C@_09LLDO@events?$FL1?$FN?$AA@ 00600d40     msg.obj
 0002:00005d4c       ??_C@_09KNJE@events?$FL0?$FN?$AA@ 00600d4c     msg.obj
 0002:00005d58       ??_C@_0M@ELCC@movementDir?$AA@ 00600d58     msg.obj
 0002:00005d68       ??_C@_0O@MNHP@eventSequence?$AA@ 00600d68     msg.obj
 0002:00005d78       ??_C@_07MEB@pm_time?$AA@   00600d78     msg.obj
 0002:00005d84       ??_C@_09CPMJ@legsTimer?$AA@ 00600d84     msg.obj
 0002:00005d90       ??_C@_0M@CJJG@velocity?$FL2?$FN?$AA@ 00600d90     msg.obj
 0002:00005da0       ??_C@_0L@CGBG@weaponTime?$AA@ 00600da0     msg.obj
 0002:00005db0       ??_C@_0O@BIAD@viewangles?$FL0?$FN?$AA@ 00600db0     msg.obj
 0002:00005dc0       ??_C@_0O@OKJ@viewangles?$FL1?$FN?$AA@ 00600dc0     msg.obj
 0002:00005dd0       ??_C@_0M@BCGJ@velocity?$FL1?$FN?$AA@ 00600dd0     msg.obj
 0002:00005de0       ??_C@_0M@EMD@velocity?$FL0?$FN?$AA@ 00600de0     msg.obj
 0002:00005df0       ??_C@_08LIEH@bobCycle?$AA@ 00600df0     msg.obj
 0002:00005dfc       ??_C@_0M@JDI@commandTime?$AA@ 00600dfc     msg.obj
 0002:00005e0c       ??_C@_05MIEC@frame?$AA@    00600e0c     msg.obj
 0002:00005e14       ??_C@_0O@CLIE@constantLight?$AA@ 00600e14     msg.obj
 0002:00005e24       ??_C@_0L@MBHC@angles2?$FL2?$FN?$AA@ 00600e24     msg.obj
 0002:00005e34       ??_C@_0L@OMCH@angles2?$FL0?$FN?$AA@ 00600e34     msg.obj
 0002:00005e44       ??_C@_09JOGH@angles?$FL2?$FN?$AA@ 00600e44     msg.obj
 0002:00005e50       ??_C@_05KOPE@time2?$AA@    00600e50     msg.obj
 0002:00005e58       ??_C@_0BA@LIFK@apos?4trDelta?$FL2?$FN?$AA@ 00600e58     msg.obj
 0002:00005e6c       ??_C@_0BA@IDKF@apos?4trDelta?$FL1?$FN?$AA@ 00600e6c     msg.obj
 0002:00005e80       ??_C@_0BA@JFAP@apos?4trDelta?$FL0?$FN?$AA@ 00600e80     msg.obj
 0002:00005e94       ??_C@_0P@EGAE@apos?4trBase?$FL2?$FN?$AA@ 00600e94     msg.obj
 0002:00005ea8       ??_C@_0BA@OGPO@apos?4trDuration?$AA@ 00600ea8     msg.obj
 0002:00005ebc       ??_C@_0M@FA@apos?4trTime?$AA@ 00600ebc     msg.obj
 0002:00005ecc       ??_C@_04EKDK@time?$AA@     00600ecc     msg.obj
 0002:00005ed4       ??_C@_09LDDC@angles?$FL0?$FN?$AA@ 00600ed4     msg.obj
 0002:00005ee0       ??_C@_0M@KCAF@modelindex2?$AA@ 00600ee0     msg.obj
 0002:00005ef0       ??_C@_0L@LFDP@origin2?$FL1?$FN?$AA@ 00600ef0     msg.obj
 0002:00005f00       ??_C@_0L@KDJF@origin2?$FL0?$FN?$AA@ 00600f00     msg.obj
 0002:00005f10       ??_C@_0L@IOMA@origin2?$FL2?$FN?$AA@ 00600f10     msg.obj
 0002:00005f20       ??_C@_08MFLC@generic1?$AA@ 00600f20     msg.obj
 0002:00005f2c       ??_C@_09OCMN@loopSound?$AA@ 00600f2c     msg.obj
 0002:00005f38       ??_C@_0BA@NPFJ@otherEntityNum2?$AA@ 00600f38     msg.obj
 0002:00005f4c       ??_C@_0L@LLJL@modelindex?$AA@ 00600f4c     msg.obj
 0002:00005f5c       ??_C@_08KMIK@powerups?$AA@ 00600f5c     msg.obj
 0002:00005f68       ??_C@_05FPMI@solid?$AA@    00600f68     msg.obj
 0002:00005f70       ??_C@_09CMJE@origin?$FL2?$FN?$AA@ 00600f70     msg.obj
 0002:00005f7c       ??_C@_09BHGL@origin?$FL1?$FN?$AA@ 00600f7c     msg.obj
 0002:00005f88       ??_C@_09BMB@origin?$FL0?$FN?$AA@ 00600f88     msg.obj
 0002:00005f94       ??_C@_0M@LCMH@apos?4trType?$AA@ 00600f94     msg.obj
 0002:00005fa4       ??_C@_0P@NIEA@pos?4trDuration?$AA@ 00600fa4     msg.obj
 0002:00005fb8       ??_C@_09KFJI@angles?$FL1?$FN?$AA@ 00600fb8     msg.obj
 0002:00005fc4       ??_C@_09DBGG@clientNum?$AA@ 00600fc4     msg.obj
 0002:00005fd0       ??_C@_06IJLN@weapon?$AA@   00600fd0     msg.obj
 0002:00005fd8       ??_C@_0P@OHAE@otherEntityNum?$AA@ 00600fd8     msg.obj
 0002:00005fec       ??_C@_06LNJL@eFlags?$AA@   00600fec     msg.obj
 0002:00005ff4       ??_C@_0L@KKEA@pos?4trType?$AA@ 00600ff4     msg.obj
 0002:00006004       ??_C@_0BA@MCAO@groundEntityNum?$AA@ 00601004     msg.obj
 0002:00006018       ??_C@_08OCDP@legsAnim?$AA@ 00601018     msg.obj
 0002:00006024       ??_C@_09EDGH@eventParm?$AA@ 00601024     msg.obj
 0002:00006030       ??_C@_09GDDK@torsoAnim?$AA@ 00601030     msg.obj
 0002:0000603c       ??_C@_05HPKB@eType?$AA@    0060103c     msg.obj
 0002:00006044       ??_C@_0L@PKIN@angles2?$FL1?$FN?$AA@ 00601044     msg.obj
 0002:00006054       ??_C@_05MNCH@event?$AA@    00601054     msg.obj
 0002:0000605c       ??_C@_0P@GLFB@apos?4trBase?$FL0?$FN?$AA@ 0060105c     msg.obj
 0002:00006070       ??_C@_0P@IGOE@pos?4trDelta?$FL2?$FN?$AA@ 00601070     msg.obj
 0002:00006084       ??_C@_0P@HNPL@apos?4trBase?$FL1?$FN?$AA@ 00601084     msg.obj
 0002:00006098       ??_C@_0O@PICD@pos?4trBase?$FL2?$FN?$AA@ 00601098     msg.obj
 0002:000060a8       ??_C@_0P@LNBL@pos?4trDelta?$FL1?$FN?$AA@ 006010a8     msg.obj
 0002:000060bc       ??_C@_0P@KLLB@pos?4trDelta?$FL0?$FN?$AA@ 006010bc     msg.obj
 0002:000060d0       ??_C@_0O@MDNM@pos?4trBase?$FL1?$FN?$AA@ 006010d0     msg.obj
 0002:000060e0       ??_C@_0O@NFHG@pos?4trBase?$FL0?$FN?$AA@ 006010e0     msg.obj
 0002:000060f0       ??_C@_0L@BINH@pos?4trTime?$AA@ 006010f0     msg.obj
 0002:00006100       ??_C@_0DB@NACO@MSG_Copy?3?5can?8t?5copy?5into?5a?5smal@ 00601100     msg.obj
 0002:0000613c       ??_C@_0BE@BNII@can?8t?5read?5?$CFd?5bits?6?$AA@ 0060113c     msg.obj
 0002:00006154       ??_C@_0BL@HJLL@MSG_WriteBits?3?5bad?5bits?5?$CFi?$AA@ 00601154     msg.obj
 0002:00006174       ??_C@_0CC@CGFI@MSG_WriteString?3?5MAX_STRING_CHAR@ 00601174     msg.obj
 0002:0000619c       ??_C@_0CB@HMKK@MSG_WriteString?3?5BIG_INFO_STRING@ 0060119c     msg.obj
 0002:000061c4       __real@4@40078000000000000000 006011c4     msg.obj
 0002:000061c8       ??_C@_0M@CCPL@?$CFd?5used?5?$CFd?6?$AA@ 006011c8     msg.obj
 0002:000061d8       ??_C@_0CM@PKOF@MSG_WriteDeltaEntity?3?5Bad?5entity@ 006011d8     msg.obj
 0002:0000620c       ??_C@_0CD@DMFA@numFields?5?$CL?51?5?$DN?$DN?5sizeof?$CI?5?$CKfrom?5?$CJ@ 0060120c     msg.obj
 0002:00006238       ??_C@_0DG@MPNC@g?3?2trep?9engine?2q3nocd?2quake3?91?43@ 00601238     msg.obj
 0002:00006278       ??_C@_0M@ICFB@?5?$CI?$CFi?5bits?$CJ?6?$AA@ 00601278     msg.obj
 0002:00006288       ??_C@_06FMG@?$CFs?3?$CFf?5?$AA@ 00601288     msg.obj
 0002:00006290       ??_C@_06NBMH@?$CFs?3?$CFi?5?$AA@ 00601290     msg.obj
 0002:00006298       ??_C@_0M@PJJ@?$CF3i?3?5?$CD?$CF?93i?5?$AA@ 00601298     msg.obj
 0002:000062a8       ??_C@_0BD@CFHB@?$CF3i?3?5?$CD?$CF?93i?5remove?6?$AA@ 006012a8     msg.obj
 0002:000062c0       ??_C@_0BM@MEMH@Bad?5delta?5entity?5number?3?5?$CFi?$AA@ 006012c0     msg.obj
 0002:000062e4       ??_C@_0M@NIKL@PS_POWERUPS?$AA@ 006012e4     msg.obj
 0002:000062f4       ??_C@_07CDOA@PS_AMMO?$AA@  006012f4     msg.obj
 0002:00006300       ??_C@_0O@NAHB@PS_PERSISTANT?$AA@ 00601300     msg.obj
 0002:00006310       ??_C@_08DL@PS_STATS?$AA@   00601310     msg.obj
 0002:0000631c       ??_C@_0BC@BGGJ@?$CF3i?3?5playerstate?5?$AA@ 0060131c     msg.obj
 0002:00006334       ??_C@_06MGAI@server?$AA@   00601334     net_chan.obj
 0002:0000633c       ??_C@_06ILMK@client?$AA@   0060133c     net_chan.obj
 0002:00006344       ??_C@_08HNLA@showdrop?$AA@ 00601344     net_chan.obj
 0002:00006350       ??_C@_0M@FDHI@showpackets?$AA@ 00601350     net_chan.obj
 0002:00006360       ??_C@_0CD@LKNP@?$CFs?5send?5?$CF4i?5?3?5s?$DN?$CFi?5fragment?$DN?$CFi?0?$CF@ 00601360     net_chan.obj
 0002:0000638c       ??_C@_0BL@CNJK@?$CFs?5send?5?$CF4i?5?3?5s?$DN?$CFi?5ack?$DN?$CFi?6?$AA@ 0060138c     net_chan.obj
 0002:000063ac       ??_C@_0BO@MPPH@Netchan_Transmit?3?5length?5?$DN?5?$CFi?$AA@ 006013ac     net_chan.obj
 0002:000063d0       ??_C@_0CF@LPMI@?$CFs?3fragmentLength?5?$CFi?5?$DO?5msg?9?$DOmaxs@ 006013d0     net_chan.obj
 0002:000063fc       ??_C@_0BM@DNHB@?$CFs?3illegal?5fragment?5length?6?$AA@ 006013fc     net_chan.obj
 0002:00006420       ??_C@_0BP@MFOP@?$CFs?3Dropped?5a?5message?5fragment?6?$AA@ 00601420     net_chan.obj
 0002:00006448       ??_C@_0BN@HPPO@?$CFs?3Dropped?5?$CFi?5packets?5at?5?$CFi?6?$AA@ 00601448     net_chan.obj
 0002:0000646c       ??_C@_0CB@MPHL@?$CFs?3Out?5of?5order?5packet?5?$CFi?5at?5?$CFi?6@ 0060146c     net_chan.obj
 0002:00006494       ??_C@_0BE@IIGF@?$CFs?5recv?5?$CF4i?5?3?5s?$DN?$CFi?6?$AA@ 00601494     net_chan.obj
 0002:000064ac       ??_C@_0CD@OIP@?$CFs?5recv?5?$CF4i?5?3?5s?$DN?$CFi?5fragment?$DN?$CFi?0?$CF@ 006014ac     net_chan.obj
 0002:000064d8       ??_C@_0CG@KLHP@NET_CompareBaseAdr?3?5bad?5address?5@ 006014d8     net_chan.obj
 0002:00006508       ??_C@_0CO@LPBN@?$CF02x?$CF02x?$CF02x?$CF02x?4?$CF02x?$CF02x?$CF02x?$CF02@ 00601508     net_chan.obj
 0002:00006540       ??_C@_0BA@KAAA@?$CFi?4?$CFi?4?$CFi?4?$CFi?3?$CFhu?$AA@ 00601540     net_chan.obj
 0002:00006554       ??_C@_03DMKI@bot?$AA@      00601554     net_chan.obj
 0002:00006558       ??_C@_08KME@loopback?$AA@  00601558     net_chan.obj
 0002:00006564       ??_C@_0CC@BNCI@NET_CompareAdr?3?5bad?5address?5type@ 00601564     net_chan.obj
 0002:0000658c       ??_C@_0BB@FNMG@send?5packet?5?$CF4i?6?$AA@ 0060158c     net_chan.obj
 0002:000065a0       ??_C@_01PKAG@?3?$AA@       006015a0     net_chan.obj
 0002:000065a4       __real@4@4006ff00000000000000 006015a4     q_math.obj
 0002:000065a8       __real@4@4006b400000000000000 006015a8     q_math.obj
 0002:000065b0       __real@8@4000c90fdb0000000000 006015b0     q_math.obj
 0002:000065c0       __real@8@4006b400000000000000 006015c0     q_math.obj
 0002:000065cc       ??_C@_0BK@OJK@Q_fabs?$CIinv_denom?$CJ?5?$CB?$DN?50?40f?$AA@ 006015cc     q_math.obj
 0002:000065ec       ??_C@_0DG@KJAF@g?3?2trep?9engine?2q3nocd?2quake3?91?43@ 006015ec     q_math.obj
 0002:0000662c       __real@4@c006b400000000000000 0060162c     q_math.obj
 0002:00006630       __real@8@4006b60b60b60b60b800 00601630     q_math.obj
 0002:00006640       __real@8@4007b400000000000000 00601640     q_math.obj
 0002:0000664c       __real@4@3ff98efa350000000000 0060164c     q_math.obj
 0002:00006650       ??_C@_0BI@KJOD@ERROR?3?5?$CFs?0?5line?5?$CFd?3?5?$CFs?6?$AA@ 00601650     q_shared.obj
 0002:0000666c       ??_C@_0BK@EEPA@WARNING?3?5?$CFs?0?5line?5?$CFd?3?5?$CFs?6?$AA@ 0060166c     q_shared.obj
 0002:0000668c       ??_C@_0BF@JENF@MatchToken?3?5?$CFs?5?$CB?$DN?5?$CFs?$AA@ 0060168c     q_shared.obj
 0002:000066a8       ??_C@_01KMMP@?$CJ?$AA@     006016a8     q_shared.obj
 0002:000066ac       ??_C@_01GFI@?$CI?$AA@      006016ac     q_shared.obj
 0002:000066b0       ??_C@_0BJ@GDCK@Q_strncpyz?3?5destsize?5?$DM?51?$AA@ 006016b0     q_shared.obj
 0002:000066d0       ??_C@_0BF@OBLI@Q_strncpyz?3?5NULL?5src?$AA@ 006016d0     q_shared.obj
 0002:000066ec       ??_C@_0BG@BANA@Q_strncpyz?3?5NULL?5dest?$AA@ 006016ec     q_shared.obj
 0002:00006708       ??_C@_0BN@PKJG@Q_strcat?3?5already?5overflowed?$AA@ 00601708     q_shared.obj
 0002:0000672c       ??_C@_0CD@KCEE@Com_sprintf?3?5overflow?5of?5?$CFi?5in?5?$CF@ 0060172c     q_shared.obj
 0002:00006758       ??_C@_0CC@NDC@Com_sprintf?3?5overflowed?5bigbuffe@ 00601758     q_shared.obj
 0002:00006780       ??_C@_0CG@FAFH@Info_ValueForKey?3?5oversize?5infos@ 00601780     q_shared.obj
 0002:000067b0       ??_C@_0CE@CNEE@Info_RemoveKey?3?5oversize?5infostr@ 006017b0     q_shared.obj
 0002:000067dc       ??_C@_0CI@EHFL@Info_RemoveKey_Big?3?5oversize?5inf@ 006017dc     q_shared.obj
 0002:0000680c       ??_C@_0BN@DPCF@Info?5string?5length?5exceeded?6?$AA@ 0060180c     q_shared.obj
 0002:00006830       ??_C@_06GNBE@?2?$CFs?2?$CFs?$AA@ 00601830     q_shared.obj
 0002:00006838       ??_C@_0CD@NLGB@Can?8t?5use?5keys?5or?5values?5with?5a?5@ 00601838     q_shared.obj
 0002:00006864       ??_C@_0CL@GPCB@Can?8t?5use?5keys?5or?5values?5with?5a?5@ 00601864     q_shared.obj
 0002:00006898       ??_C@_0CD@MJE@Can?8t?5use?5keys?5or?5values?5with?5a?5@ 00601898     q_shared.obj
 0002:000068c4       ??_C@_0CJ@GBHP@Info_SetValueForKey?3?5oversize?5in@ 006018c4     q_shared.obj
 0002:000068f8       ??_C@_0CB@GPOG@BIG?5Info?5string?5length?5exceeded?6@ 006018f8     q_shared.obj
 0002:00006920       ??_C@_0BF@JLGI@No?5background?5file?4?6?$AA@ 00601920     snd_dma.obj
 0002:0000693c       ??_C@_0BF@PDDE@Background?5file?3?5?$CFs?6?$AA@ 0060193c     snd_dma.obj
 0002:00006958       ??_C@_0BB@HPKE@0x?$CFx?5dma?5buffer?6?$AA@ 00601958     snd_dma.obj
 0002:0000696c       ??_C@_0L@JCHF@?$CF5d?5speed?6?$AA@ 0060196c     snd_dma.obj
 0002:0000697c       ??_C@_0BG@JJMA@?$CF5d?5submission_chunk?6?$AA@ 0060197c     snd_dma.obj
 0002:00006998       ??_C@_0BA@MLCC@?$CF5d?5samplebits?6?$AA@ 00601998     snd_dma.obj
 0002:000069ac       ??_C@_0N@KDEK@?$CF5d?5samples?6?$AA@ 006019ac     snd_dma.obj
 0002:000069bc       ??_C@_0M@PEPK@?$CF5d?5stereo?6?$AA@ 006019bc     snd_dma.obj
 0002:000069cc       ??_C@_0BH@DGDL@sound?5system?5is?5muted?6?$AA@ 006019cc     snd_dma.obj
 0002:000069e8       ??_C@_0BK@JHHA@sound?5system?5not?5started?6?$AA@ 006019e8     snd_dma.obj
 0002:00006a08       ??_C@_0BI@CION@?9?9?9?9?9?5Sound?5Info?5?9?9?9?9?9?6?$AA@ 00601a08     snd_dma.obj
 0002:00006a24       ??_C@_06MNMH@s_stop?$AA@   00601a24     snd_dma.obj
 0002:00006a2c       ??_C@_06OGPD@s_info?$AA@   00601a2c     snd_dma.obj
 0002:00006a34       ??_C@_06MMFA@s_list?$AA@   00601a34     snd_dma.obj
 0002:00006a3c       ??_C@_05PDCG@music?$AA@    00601a3c     snd_dma.obj
 0002:00006a44       ??_C@_04HNFE@play?$AA@     00601a44     snd_dma.obj
 0002:00006a4c       ??_C@_0CG@MIPN@?9?9?9?9?9?9?9?9?9?9?9?9?9?9?9?9?9?9?9?9?9?9?9?9?9?9?9?9?9?9?9?9@ 00601a4c     snd_dma.obj
 0002:00006a7c       ??_C@_0BD@IPOK@not?5initializing?4?6?$AA@ 00601a7c     snd_dma.obj
 0002:00006a94       ??_C@_0M@GMFD@s_initsound?$AA@ 00601a94     snd_dma.obj
 0002:00006aa4       ??_C@_0M@MICD@s_testsound?$AA@ 00601aa4     snd_dma.obj
 0002:00006ab4       ??_C@_06GBKH@s_show?$AA@   00601ab4     snd_dma.obj
 0002:00006abc       ??_C@_0N@ENO@s_mixPreStep?$AA@ 00601abc     snd_dma.obj
 0002:00006acc       ??_C@_04IFNE@0?405?$AA@    00601acc     snd_dma.obj
 0002:00006ad4       ??_C@_0L@DOGK@s_mixahead?$AA@ 00601ad4     snd_dma.obj
 0002:00006ae4       ??_C@_03NKPI@0?42?$AA@     00601ae4     snd_dma.obj
 0002:00006ae8       ??_C@_05KNK@s_khz?$AA@     00601ae8     snd_dma.obj
 0002:00006af0       ??_C@_02DMBA@22?$AA@       00601af0     snd_dma.obj
 0002:00006af4       ??_C@_09FOBH@s_doppler?$AA@ 00601af4     snd_dma.obj
 0002:00006b00       ??_C@_0N@IEK@s_separation?$AA@ 00601b00     snd_dma.obj
 0002:00006b10       ??_C@_03IPBN@0?45?$AA@     00601b10     snd_dma.obj
 0002:00006b14       ??_C@_0O@BKGD@s_musicvolume?$AA@ 00601b14     snd_dma.obj
 0002:00006b24       ??_C@_08POHF@s_volume?$AA@ 00601b24     snd_dma.obj
 0002:00006b30       ??_C@_03NLGO@0?48?$AA@     00601b30     snd_dma.obj
 0002:00006b34       ??_C@_0CH@DKLF@?6?9?9?9?9?9?9?9?5sound?5initialization?5?9?9@ 00601b34     snd_dma.obj
 0002:00006b64       ??_C@_0CA@FFGI@Channel?5memory?5manager?5started?6?$AA@ 00601b64     snd_dma.obj
 0002:00006b8c       ??_C@_09DBLB@soundinfo?$AA@ 00601b8c     snd_dma.obj
 0002:00006b98       ??_C@_09BLBC@soundlist?$AA@ 00601b98     snd_dma.obj
 0002:00006ba4       ??_C@_09IELC@stopsound?$AA@ 00601ba4     snd_dma.obj
 0002:00006bb0       ??_C@_0BH@NKIK@sound?1feedback?1hit?4wav?$AA@ 00601bb0     snd_dma.obj
 0002:00006bcc       ??_C@_0CO@LOLC@?$FO3WARNING?3?5could?5not?5find?5?$CFs?5?9?5u@ 00601bcc     snd_dma.obj
 0002:00006c04       ??_C@_0BO@KMCL@Sound?5name?5exceeds?5MAX_QPATH?6?$AA@ 00601c04     snd_dma.obj
 0002:00006c28       ??_C@_0BJ@BOFF@S_FindName?3?5out?5of?5sfx_t?$AA@ 00601c28     snd_dma.obj
 0002:00006c48       ??_C@_0BI@HAHM@Sound?5name?5too?5long?3?5?$CFs?$AA@ 00601c48     snd_dma.obj
 0002:00006c64       ??_C@_0BI@MPPL@S_FindName?3?5empty?5name?6?$AA@ 00601c64     snd_dma.obj
 0002:00006c80       ??_C@_0BC@INLJ@S_FindName?3?5NULL?6?$AA@ 00601c80     snd_dma.obj
 0002:00006c98       __real@4@4005a000000000000000 00601c98     snd_dma.obj
 0002:00006c9c       ??_C@_0BA@OMOP@dropping?5sound?6?$AA@ 00601c9c     snd_dma.obj
 0002:00006cb0       ??_C@_08GONF@?$CFi?5?3?5?$CFs?6?$AA@ 00601cb0     snd_dma.obj
 0002:00006cbc       ??_C@_02GIO@?$FO3?$AA@     00601cbc     snd_dma.obj
 0002:00006cc0       ??_C@_0CG@FAOG@S_StartSound?3?5handle?5?$CFi?5out?5of?5r@ 00601cc0     snd_dma.obj
 0002:00006cf0       ??_C@_0BP@LCKP@S_StartSound?3?5bad?5entitynum?5?$CFi?$AA@ 00601cf0     snd_dma.obj
 0002:00006d18       ??_C@_0CL@BFC@S_StartLocalSound?3?5handle?5?$CFi?5out@ 00601d18     snd_dma.obj
 0002:00006d50       __real@8@00000000000000000000 00601d50     snd_dma.obj
 0002:00006d5c       ??_C@_0BA@HNFA@?$CFs?5has?5length?50?$AA@ 00601d5c     snd_dma.obj
 0002:00006d70       ??_C@_0CL@FHKA@S_AddLoopingSound?3?5handle?5?$CFi?5out@ 00601d70     snd_dma.obj
 0002:00006da4       ??_C@_0CP@CJGJ@S_AddRealLoopingSound?3?5handle?5?$CFi@ 00601da4     snd_dma.obj
 0002:00006ddc       ??_C@_0CC@EEAC@S_RawSamples?3?5overflowed?5?$CFi?5?$DO?5?$CFi@ 00601ddc     snd_dma.obj
 0002:00006e04       ??_C@_0CK@CHDG@S_RawSamples?3?5resetting?5minimum?3@ 00601e04     snd_dma.obj
 0002:00006e38       ??_C@_0CJ@DHPP@S_UpdateEntityPosition?3?5bad?5enti@ 00601e38     snd_dma.obj
 0002:00006e6c       ??_C@_0BK@NGAB@?9?9?9?9?$CI?$CFi?$CJ?9?9?9?9?5painted?3?5?$CFi?6?$AA@ 00601e6c     snd_dma.obj
 0002:00006e8c       ??_C@_09IJKA@?$CFf?5?$CFf?5?$CFs?6?$AA@ 00601e8c     snd_dma.obj
 0002:00006e98       ??_C@_0BG@KBEA@not?5started?5or?5muted?6?$AA@ 00601e98     snd_dma.obj
 0002:00006eb8       __real@8@3ff8a3d70a3d70a3d800 00601eb8     snd_dma.obj
 0002:00006ec4       __real@4@4002b000000000000000 00601ec4     snd_dma.obj
 0002:00006ec8       ??_C@_06FHNF@?$CFs?4wav?$AA@ 00601ec8     snd_dma.obj
 0002:00006ed0       ??_C@_0BO@ELBL@music?5?$DMmusicfile?$DO?5?$FLloopfile?$FN?6?$AA@ 00601ed0     snd_dma.obj
 0002:00006ef4       ??_C@_0BE@KMED@Total?5resident?3?5?$CFi?6?$AA@ 00601ef4     snd_dma.obj
 0002:00006f0c       ??_C@_0BC@LBIP@?$CF6i?$FL?$CFs?$FN?5?3?5?$CFs?$FL?$CFs?$FN?6?$AA@ 00601f0c     snd_dma.obj
 0002:00006f24       ??_C@_09HBHE@resident?5?$AA@ 00601f24     snd_dma.obj
 0002:00006f30       ??_C@_09HLBM@paged?5out?$AA@ 00601f30     snd_dma.obj
 0002:00006f3c       ??_C@_05EKOA@mulaw?$AA@    00601f3c     snd_dma.obj
 0002:00006f44       ??_C@_05KJMJ@daub4?$AA@    00601f44     snd_dma.obj
 0002:00006f4c       ??_C@_05MHBK@adpcm?$AA@    00601f4c     snd_dma.obj
 0002:00006f54       ??_C@_05MNAC@16bit?$AA@    00601f54     snd_dma.obj
 0002:00006f5c       ??_C@_0BF@IGPO@No?5data?5chunk?5in?5?$CFs?6?$AA@ 00601f5c     snd_dma.obj
 0002:00006f78       ??_C@_04OMKF@data?$AA@     00601f78     snd_dma.obj
 0002:00006f80       ??_C@_0CM@CNPK@?$FO3WARNING?3?5music?5file?5?$CFs?5is?5not?5@ 00601f80     snd_dma.obj
 0002:00006fb4       ??_C@_0CE@DKGL@Not?5a?5microsoft?5PCM?5format?5wav?3?5@ 00601fb4     snd_dma.obj
 0002:00006fe0       ??_C@_0BE@INFO@No?5fmt?5chunk?5in?5?$CFs?6?$AA@ 00601fe0     snd_dma.obj
 0002:00006ff8       ??_C@_04HBLJ@fmt?5?$AA@    00601ff8     snd_dma.obj
 0002:00007000       ??_C@_0CI@IAHA@?$FO3WARNING?3?5couldn?8t?5open?5music?5f@ 00602000     snd_dma.obj
 0002:00007030       ??_C@_04MPDF@?4wav?$AA@    00602030     snd_dma.obj
 0002:00007038       ??_C@_0CC@LCLJ@S_StartBackgroundTrack?$CI?5?$CFs?0?5?$CFs?5?$CJ@ 00602038     snd_dma.obj
 0002:00007060       ??_C@_0CF@GJFM@StreamedRead?5failure?5on?5music?5tr@ 00602060     snd_dma.obj
 0002:0000708c       ??_C@_0CF@EFFF@S_FreeOldestSound?3?5freeing?5sound@ 0060208c     snd_dma.obj
 0002:000070b8       ??_C@_0BO@HJDE@Sound?5memory?5manager?5started?6?$AA@ 006020b8     snd_mem.obj
 0002:000070dc       ??_C@_0O@DOGE@com_soundMegs?$AA@ 006020dc     snd_mem.obj
 0002:000070ec       ??_C@_01KPCI@8?$AA@        006020ec     snd_mem.obj
 0002:000070f0       ??_C@_0CH@IMPD@?$FO3WARNING?3?5?$CFs?5is?5not?5a?522kHz?5wav@ 006020f0     snd_mem.obj
 0002:00007120       ??_C@_0CD@MLBJ@?$FO3WARNING?3?5?$CFs?5is?5a?58?5bit?5wav?5fil@ 00602120     snd_mem.obj
 0002:0000714c       ??_C@_0BJ@EJCH@?$CFs?5is?5a?5stereo?5wav?5file?6?$AA@ 0060214c     snd_mem.obj
 0002:0000716c       ??_C@_0BE@OGAC@Missing?5data?5chunk?6?$AA@ 0060216c     snd_mem.obj
 0002:00007184       ??_C@_0BL@CPKL@Microsoft?5PCM?5format?5only?6?$AA@ 00602184     snd_mem.obj
 0002:000071a4       ??_C@_0BD@LFCE@Missing?5fmt?5chunk?6?$AA@ 006021a4     snd_mem.obj
 0002:000071bc       ??_C@_0BK@HDNC@Missing?5RIFF?1WAVE?5chunks?6?$AA@ 006021bc     snd_mem.obj
 0002:000071dc       ??_C@_04DOFO@WAVE?$AA@     006021dc     snd_mem.obj
 0002:000071e4       ??_C@_04ILOB@RIFF?$AA@     006021e4     snd_mem.obj
 0002:000071ec       ??_C@_0DC@ECNO@?$CFd?5bytes?5free?5sound?5buffer?5memor@ 006021ec     snd_mem.obj
 0002:00007228       __real@8@40078000000000000000 00602228     snd_mix.obj
 0002:00007238       __real@8@400d9c40000000000000 00602238     snd_mix.obj
 0002:00007244       __real@4@400a8000000000000000 00602244     snd_mix.obj
 0002:00007248       __real@4@40098000000000000000 00602248     snd_mix.obj
 0002:00007250       __real@8@bffc8483ee0c98348800 00602250     snd_wavelet.obj
 0002:00007260       __real@8@3ffce585f85b5b884800 00602260     snd_wavelet.obj
 0002:00007270       __real@8@3ffed625eeb71feb8800 00602270     snd_wavelet.obj
 0002:00007280       __real@8@3ffdf746ea3a45f8a000 00602280     snd_wavelet.obj
 0002:0000728c       __real@4@c00e8000000000000000 0060228c     snd_wavelet.obj
 0002:00007290       ??_C@_0CE@PFDB@SV_BotFreeClient?3?5bad?5clientNum?3@ 00602290     sv_bot.obj
 0002:000072bc       ??_C@_0BC@DAGG@bot_highlightarea?$AA@ 006022bc     sv_bot.obj
 0002:000072d4       ??_C@_0P@DENC@bot_groundonly?$AA@ 006022d4     sv_bot.obj
 0002:000072e8       ??_C@_0BB@MJKN@bot_reachability?$AA@ 006022e8     sv_bot.obj
 0002:000072fc       ??_C@_09OAJB@bot_debug?$AA@ 006022fc     sv_bot.obj
 0002:00007308       ??_C@_0BE@FAGB@unknown?5print?5type?6?$AA@ 00602308     sv_bot.obj
 0002:00007320       ??_C@_0L@PKFH@?$FO1Exit?3?5?$CFs?$AA@ 00602320     sv_bot.obj
 0002:00007330       ??_C@_0M@PGBK@?$FO1Fatal?3?5?$CFs?$AA@ 00602330     sv_bot.obj
 0002:00007340       ??_C@_0M@BOEE@?$FO1Error?3?5?$CFs?$AA@ 00602340     sv_bot.obj
 0002:00007350       ??_C@_0O@MADG@?$FO3Warning?3?5?$CFs?$AA@ 00602350     sv_bot.obj
 0002:00007360       ??_C@_0DI@LDNG@g?3?2trep?9engine?2q3nocd?2quake3?91?43@ 00602360     sv_bot.obj
 0002:000073a4       ??_C@_0DA@OIBH@SV_Bot_HunkAlloc?3?5Alloc?5with?5mar@ 006023a4     sv_bot.obj
 0002:000073e0       __real@4@c0008000000000000000 006023e0     sv_bot.obj
 0002:000073e8       __real@8@bffefd70a3d70a3d7000 006023e8     sv_bot.obj
 0002:000073f8       __real@8@3ffefd70a3d70a3d7000 006023f8     sv_bot.obj
 0002:00007404       ??_C@_0DC@PMGK@?$FO1Error?3?5SV_BotLibSetup?5without?5@ 00602404     sv_bot.obj
 0002:00007440       ??_C@_0BE@DGLD@bot_interbreedwrite?$AA@ 00602440     sv_bot.obj
 0002:00007458       ??_C@_0BE@BKHA@bot_interbreedcycle?$AA@ 00602458     sv_bot.obj
 0002:00007470       ??_C@_0BD@NAOD@bot_interbreedbots?$AA@ 00602470     sv_bot.obj
 0002:00007488       ??_C@_02FCMB@10?$AA@       00602488     sv_bot.obj
 0002:0000748c       ??_C@_0BD@MHOO@bot_interbreedchar?$AA@ 0060248c     sv_bot.obj
 0002:000074a4       ??_C@_0P@LHJF@bot_minplayers?$AA@ 006024a4     sv_bot.obj
 0002:000074b8       ??_C@_0O@GMHH@bot_challenge?$AA@ 006024b8     sv_bot.obj
 0002:000074c8       ??_C@_0P@JABN@bot_rocketjump?$AA@ 006024c8     sv_bot.obj
 0002:000074dc       ??_C@_0M@KMHN@bot_grapple?$AA@ 006024dc     sv_bot.obj
 0002:000074ec       ??_C@_0L@MCPA@bot_report?$AA@ 006024ec     sv_bot.obj
 0002:000074fc       ??_C@_09EKMD@bot_pause?$AA@ 006024fc     sv_bot.obj
 0002:00007508       ??_C@_0L@PHPD@bot_nochat?$AA@ 00602508     sv_bot.obj
 0002:00007518       ??_C@_0N@EJK@bot_fastchat?$AA@ 00602518     sv_bot.obj
 0002:00007528       ??_C@_0BB@HEAB@bot_testclusters?$AA@ 00602528     sv_bot.obj
 0002:0000753c       ??_C@_0O@KCDP@bot_testsolid?$AA@ 0060253c     sv_bot.obj
 0002:0000754c       ??_C@_0O@OJLM@bot_testrchat?$AA@ 0060254c     sv_bot.obj
 0002:0000755c       ??_C@_0O@KKM@bot_testichat?$AA@ 0060255c     sv_bot.obj
 0002:0000756c       ??_C@_0BF@KLBA@bot_reloadcharacters?$AA@ 0060256c     sv_bot.obj
 0002:00007588       ??_C@_0O@GOAJ@bot_thinktime?$AA@ 00602588     sv_bot.obj
 0002:00007598       ??_C@_0BF@LIBI@bot_saveroutingcache?$AA@ 00602598     sv_bot.obj
 0002:000075b4       ??_C@_0BA@IDKM@bot_aasoptimize?$AA@ 006025b4     sv_bot.obj
 0002:000075c8       ??_C@_0P@OLON@bot_forcewrite?$AA@ 006025c8     sv_bot.obj
 0002:000075dc       ??_C@_0BG@ICAL@bot_forcereachability?$AA@ 006025dc     sv_bot.obj
 0002:000075f8       ??_C@_0BE@HPCF@bot_forceclustering?$AA@ 006025f8     sv_bot.obj
 0002:00007610       ??_C@_0BG@MPGF@bot_visualizejumppads?$AA@ 00602610     sv_bot.obj
 0002:0000762c       ??_C@_0BC@IKII@bot_maxdebugpolys?$AA@ 0060262c     sv_bot.obj
 0002:00007644       ??_C@_0O@POCA@bot_developer?$AA@ 00602644     sv_bot.obj
 0002:00007654       ??_C@_0L@MALI@bot_enable?$AA@ 00602654     sv_bot.obj
 0002:00007664       ??_C@_0O@DPJI@botlib_export?$AA@ 00602664     sv_bot.obj
 0002:00007674       ??_C@_0CM@CLIJ@sizeof?$CIbot_debugpoly_t?$CJ?5?$CK?5bot_ma@ 00602674     sv_bot.obj
 0002:000076a8       ??_C@_0BF@LKCE@Game?5CD?5not?5in?5drive?$AA@ 006026a8     sv_bot.obj
 0002:000076c4       ??_C@_03NJAM@say?$AA@      006026c4     sv_ccmds.obj
 0002:000076c8       ??_C@_0L@PNBO@killserver?$AA@ 006026c8     sv_ccmds.obj
 0002:000076d8       ??_C@_08GDCJ@spdevmap?$AA@ 006026d8     sv_ccmds.obj
 0002:000076e4       ??_C@_05DOKJ@spmap?$AA@    006026e4     sv_ccmds.obj
 0002:000076ec       ??_C@_06KJEC@devmap?$AA@   006026ec     sv_ccmds.obj
 0002:000076f4       ??_C@_03HKIL@map?$AA@      006026f4     sv_ccmds.obj
 0002:000076f8       ??_C@_0L@MOOI@sectorlist?$AA@ 006026f8     sv_ccmds.obj
 0002:00007708       ??_C@_08KKFE@dumpuser?$AA@ 00602708     sv_ccmds.obj
 0002:00007714       ??_C@_0L@LMIF@systeminfo?$AA@ 00602714     sv_ccmds.obj
 0002:00007724       ??_C@_0L@PFOG@serverinfo?$AA@ 00602724     sv_ccmds.obj
 0002:00007734       ??_C@_06DKLM@status?$AA@   00602734     sv_ccmds.obj
 0002:0000773c       ??_C@_0L@JJGG@clientkick?$AA@ 0060273c     sv_ccmds.obj
 0002:0000774c       ??_C@_09MCAF@banClient?$AA@ 0060274c     sv_ccmds.obj
 0002:00007758       ??_C@_07DGEI@banUser?$AA@  00602758     sv_ccmds.obj
 0002:00007764       ??_C@_04KGFE@kick?$AA@     00602764     sv_ccmds.obj
 0002:0000776c       ??_C@_09CAJF@heartbeat?$AA@ 0060276c     sv_ccmds.obj
 0002:00007778       ??_C@_0L@HEIK@g_doWarmup?$AA@ 00602778     sv_ccmds.obj
 0002:00007788       ??_C@_02HAPB@sp?$AA@       00602788     sv_ccmds.obj
 0002:0000778c       ??_C@_0L@IEJM@g_gametype?$AA@ 0060278c     sv_ccmds.obj
 0002:0000779c       ??_C@_0BD@HNHM@Can?8t?5find?5map?5?$CFs?6?$AA@ 0060279c     sv_ccmds.obj
 0002:000077b4       ??_C@_0DC@CMFK@SV_MapRestart_f?$CI?$CFd?$CJ?3?5dropped?5cli@ 006027b4     sv_ccmds.obj
 0002:000077f0       ??_C@_0N@OKGM@map_restart?6?$AA@ 006027f0     sv_ccmds.obj
 0002:00007800       ??_C@_0CA@CBEA@variable?5change?5?9?9?5restarting?4?6?$AA@ 00602800     sv_ccmds.obj
 0002:00007828       ??_C@_0BI@CIML@Server?5is?5not?5running?4?6?$AA@ 00602828     sv_ccmds.obj
 0002:00007844       ??_C@_0L@CJPH@print?5?$CC?$CFs?$CC?$AA@ 00602844     sv_ccmds.obj
 0002:00007854       ??_C@_0BJ@LHLB@Cannot?5kick?5host?5player?6?$AA@ 00602854     sv_ccmds.obj
 0002:00007874       ??_C@_07EBFB@allbots?$AA@  00602874     sv_ccmds.obj
 0002:00007880       ??_C@_0L@PJPJ@was?5kicked?$AA@ 00602880     sv_ccmds.obj
 0002:00007890       ??_C@_03MKE@all?$AA@       00602890     sv_ccmds.obj
 0002:00007894       ??_C@_0FB@DNML@Usage?3?5kick?5?$DMplayer?5name?$DO?6kick?5a@ 00602894     sv_ccmds.obj
 0002:000078f8       ??_C@_0CA@GNLK@Player?5?$CFs?5is?5not?5on?5the?5server?6?$AA@ 006028f8     sv_ccmds.obj
 0002:00007920       ??_C@_0BG@IMFE@No?5player?5specified?4?6?$AA@ 00602920     sv_ccmds.obj
 0002:0000793c       ??_C@_0CA@PCFD@?$CFs?5was?5banned?5from?5coming?5back?6?$AA@ 0060293c     sv_ccmds.obj
 0002:00007964       ??_C@_0BE@CNH@banUser?5?$CFi?4?$CFi?4?$CFi?4?$CFi?$AA@ 00602964     sv_ccmds.obj
 0002:0000797c       ??_C@_0BO@IFF@Usage?3?5banUser?5?$DMplayer?5name?$DO?6?$AA@ 0060297c     sv_ccmds.obj
 0002:000079a0       ??_C@_0CC@OFF@Usage?3?5banClient?5?$DMclient?5number?$DO@ 006029a0     sv_ccmds.obj
 0002:000079c8       ??_C@_0BJ@FKHP@Client?5?$CFi?5is?5not?5active?6?$AA@ 006029c8     sv_ccmds.obj
 0002:000079e8       ??_C@_0BF@KOCH@Bad?5client?5slot?3?5?$CFi?6?$AA@ 006029e8     sv_ccmds.obj
 0002:00007a04       ??_C@_0BF@DEDP@Bad?5slot?5number?3?5?$CFs?6?$AA@ 00602a04     sv_ccmds.obj
 0002:00007a20       ??_C@_0CA@NDHD@Usage?3?5kicknum?5?$DMclient?5number?$DO?6?$AA@ 00602a20     sv_ccmds.obj
 0002:00007a48       ??_C@_04ICP@?5?$CF5i?$AA@  00602a48     sv_ccmds.obj
 0002:00007a50       ??_C@_03KCGN@?$CF5i?$AA@   00602a50     sv_ccmds.obj
 0002:00007a54       ??_C@_04EJGP@?$CF7i?5?$AA@ 00602a54     sv_ccmds.obj
 0002:00007a5c       ??_C@_02KMNC@?$FO7?$AA@    00602a5c     sv_ccmds.obj
 0002:00007a60       ??_C@_04LPFE@?$CF4i?5?$AA@ 00602a60     sv_ccmds.obj
 0002:00007a68       ??_C@_05POFC@ZMBI?5?$AA@   00602a68     sv_ccmds.obj
 0002:00007a70       ??_C@_05PDBF@CNCT?5?$AA@   00602a70     sv_ccmds.obj
 0002:00007a78       ??_C@_04ONEC@?$CF5i?5?$AA@ 00602a78     sv_ccmds.obj
 0002:00007a80       ??_C@_04BDF@?$CF3i?5?$AA@  00602a80     sv_ccmds.obj
 0002:00007a88       ??_C@_0EK@POIA@?9?9?9?5?9?9?9?9?9?5?9?9?9?9?5?9?9?9?9?9?9?9?9?9?9?9?9?9?9?9?5?9@ 00602a88     sv_ccmds.obj
 0002:00007ae0       ??_C@_0EJ@OPOG@num?5score?5ping?5name?5?5?5?5?5?5?5?5?5?5?5?5l@ 00602ae0     sv_ccmds.obj
 0002:00007b38       ??_C@_08GCKC@map?3?5?$CFs?6?$AA@ 00602b38     sv_ccmds.obj
 0002:00007b44       ??_C@_0L@FGAG@chat?5?$CC?$CFs?6?$CC?$AA@ 00602b44     sv_ccmds.obj
 0002:00007b54       ??_C@_09HDOH@console?3?5?$AA@ 00602b54     sv_ccmds.obj
 0002:00007b60       ??_C@_0BH@NHEI@Server?5info?5settings?3?6?$AA@ 00602b60     sv_ccmds.obj
 0002:00007b7c       ??_C@_0BH@IAEF@System?5info?5settings?3?6?$AA@ 00602b7c     sv_ccmds.obj
 0002:00007b98       ??_C@_09KEKF@?9?9?9?9?9?9?9?9?6?$AA@ 00602b98     sv_ccmds.obj
 0002:00007ba4       ??_C@_09IHL@userinfo?6?$AA@ 00602ba4     sv_ccmds.obj
 0002:00007bb0       ??_C@_0BG@NDDP@Usage?3?5info?5?$DMuserid?$DO?6?$AA@ 00602bb0     sv_ccmds.obj
 0002:00007bcc       ??_C@_06CCCC@nextdl?$AA@   00602bcc     sv_client.obj
 0002:00007bd4       ??_C@_08NKKF@download?$AA@ 00602bd4     sv_client.obj
 0002:00007be0       ??_C@_02BKFI@cp?$AA@       00602be0     sv_client.obj
 0002:00007be4       ??_C@_0CG@GMPC@getIpAuthorize?5?$CFi?5?$CFi?4?$CFi?4?$CFi?4?$CFi?5?$CFs@ 00602be4     sv_client.obj
 0002:00007c14       ??_C@_0BP@ICAG@sending?5getIpAuthorize?5for?5?$CFs?6?$AA@ 00602c14     sv_client.obj
 0002:00007c3c       ??_C@_0BM@FPLI@authorize?5server?5timed?5out?6?$AA@ 00602c3c     sv_client.obj
 0002:00007c60       ??_C@_0BF@MLCP@challengeResponse?5?$CFi?$AA@ 00602c60     sv_client.obj
 0002:00007c7c       ??_C@_0CE@HNMN@print?6Someone?5is?5using?5this?5CD?5K@ 00602c7c     sv_client.obj
 0002:00007ca8       ??_C@_09FKMD@print?6?$CFs?6?$AA@ 00602ca8     sv_client.obj
 0002:00007cb4       ??_C@_0CF@HIKE@print?6Awaiting?5CD?5key?5authorizat@ 00602cb4     sv_client.obj
 0002:00007ce0       ??_C@_06JGM@accept?$AA@    00602ce0     sv_client.obj
 0002:00007ce8       ??_C@_0CD@KNHM@print?6Server?5is?5not?5a?5demo?5serve@ 00602ce8     sv_client.obj
 0002:00007d14       ??_C@_0CL@FHCI@SV_AuthorizeIpPacket?3?5challenge?5@ 00602d14     sv_client.obj
 0002:00007d48       ??_C@_0DB@LNBD@SV_AuthorizeIpPacket?3?5not?5from?5a@ 00602d48     sv_client.obj
 0002:00007d84       ??_C@_0CL@DNFG@Going?5from?5CS_FREE?5to?5CS_CONNECT@ 00602d84     sv_client.obj
 0002:00007db8       ??_C@_0CB@GIDN@Game?5rejected?5a?5connection?3?5?$CFs?4?6@ 00602db8     sv_client.obj
 0002:00007de0       ??_C@_0BI@NPCI@Rejected?5a?5connection?4?6?$AA@ 00602de0     sv_client.obj
 0002:00007dfc       ??_C@_0BH@EJBL@print?6Server?5is?5full?4?6?$AA@ 00602dfc     sv_client.obj
 0002:00007e18       ??_C@_0CB@PIOH@server?5is?5full?5on?5local?5connect?6@ 00602e18     sv_client.obj
 0002:00007e40       ??_C@_0BE@MEJF@only?5bots?5on?5server?$AA@ 00602e40     sv_client.obj
 0002:00007e58       ??_C@_0O@PINL@?$CFs?3reconnect?6?$AA@ 00602e58     sv_client.obj
 0002:00007e68       ??_C@_0CH@NFJG@Client?5?$CFi?5rejected?5on?5a?5too?5high@ 00602e68     sv_client.obj
 0002:00007e98       ??_C@_0CE@FANB@print?6Server?5is?5for?5low?5pings?5on@ 00602e98     sv_client.obj
 0002:00007ec4       ??_C@_0CG@HKDB@Client?5?$CFi?5rejected?5on?5a?5too?5low?5@ 00602ec4     sv_client.obj
 0002:00007ef4       ??_C@_0CF@GAPP@print?6Server?5is?5for?5high?5pings?5o@ 00602ef4     sv_client.obj
 0002:00007f20       ??_C@_0CN@HIGO@Client?5?$CFi?5connecting?5with?5?$CFi?5cha@ 00602f20     sv_client.obj
 0002:00007f58       ??_C@_02ICFJ@ip?$AA@       00602f58     sv_client.obj
 0002:00007f5c       ??_C@_0CI@FPMP@print?6No?5or?5bad?5challenge?5for?5ad@ 00602f5c     sv_client.obj
 0002:00007f8c       ??_C@_0CC@HDAG@?$CFs?3reconnect?5rejected?5?3?5too?5soon@ 00602f8c     sv_client.obj
 0002:00007fb4       ??_C@_0CG@MLGI@?5?5?5?5rejected?5connect?5from?5versio@ 00602fb4     sv_client.obj
 0002:00007fe4       ??_C@_0CI@GOLC@print?6Server?5uses?5protocol?5versi@ 00602fe4     sv_client.obj
 0002:00008014       ??_C@_0BG@IIEN@SVC_DirectConnect?5?$CI?$CJ?6?$AA@ 00603014     sv_client.obj
 0002:00008030       ??_C@_0BA@KOIH@disconnect?5?$CC?$CFs?$CC?$AA@ 00603030     sv_client.obj
 0002:00008044       ??_C@_0BL@HGMI@Going?5to?5CS_ZOMBIE?5for?5?$CFs?6?$AA@ 00603044     sv_client.obj
 0002:00008064       ??_C@_0BB@CHDH@print?5?$CC?$CFs?$FO7?5?$CFs?6?$CC?$AA@ 00603064     sv_client.obj
 0002:00008078       ??_C@_0CN@NFOK@Going?5from?5CS_CONNECTED?5to?5CS_PR@ 00603078     sv_client.obj
 0002:000080b0       ??_C@_0CB@BOLC@SV_SendClientGameState?$CI?$CJ?5for?5?$CFs?6@ 006030b0     sv_client.obj
 0002:000080d8       ??_C@_0CK@MGFP@Going?5from?5CS_PRIMED?5to?5CS_ACTIV@ 006030d8     sv_client.obj
 0002:0000810c       ??_C@_0CI@ECDF@clientDownload?3?5?$CFd?5?3?5file?5?$CC?$CFs?$CC?5a@ 0060310c     sv_client.obj
 0002:0000813c       ??_C@_0BJ@DJCM@clientDownload?3?5?$CFs?5Done?6?$AA@ 0060313c     sv_client.obj
 0002:0000815c       ??_C@_0BA@PA@broken?5download?$AA@ 0060315c     sv_client.obj
 0002:00008170       ??_C@_0CK@CKOO@clientDownload?3?5?$CFd?5?3?5file?5?$CC?$CFs?$CC?5c@ 00603170     sv_client.obj
 0002:000081a4       ??_C@_0DF@OAEC@clientDownload?3?5?$CFd?5?3?5client?5ackn@ 006031a4     sv_client.obj
 0002:000081e4       ??_C@_0CH@EIBD@clientDownload?3?5?$CFd?5?3?5writing?5blo@ 006031e4     sv_client.obj
 0002:00008214       ??_C@_0L@ECCI@sv_MaxRate?$AA@ 00603214     sv_client.obj
 0002:00008224       ??_C@_04PNOF@1000?$AA@     00603224     sv_client.obj
 0002:0000822c       ??_C@_0BF@HOFB@MAX_DOWNLOAD_BLKSIZE?$AA@ 0060322c     sv_client.obj
 0002:00008248       ??_C@_0DL@NJBB@G?3?2trep?9engine?2q3nocd?2quake3?91?43@ 00603248     sv_client.obj
 0002:00008290       ??_C@_0DE@MAHE@File?5?$CC?$CFs?$CC?5not?5found?5on?5server?5fo@ 00603290     sv_client.obj
 0002:000082d0       ??_C@_0DE@IHIF@clientDownload?3?5?$CFd?5?3?5?$CC?$CFs?$CC?5file?5n@ 006032d0     sv_client.obj
 0002:00008310       ??_C@_0NL@IDGK@Could?5not?5download?5?$CC?$CFs?$CC?5because?5@ 00603310     sv_client.obj
 0002:00008418       ??_C@_0KC@FBJM@Could?5not?5download?5?$CC?$CFs?$CC?5because?5@ 00603418     sv_client.obj
 0002:000084dc       ??_C@_0CM@EMAL@clientDownload?3?5?$CFd?5?3?5?$CC?$CFs?$CC?5downlo@ 006034dc     sv_client.obj
 0002:00008510       ??_C@_0CF@LJOK@Cannot?5autodownload?5id?5pk3?5file?5@ 00603510     sv_client.obj
 0002:0000853c       ??_C@_0GM@OGLK@Cannot?5autodownload?5Team?5Arena?5f@ 0060353c     sv_client.obj
 0002:000085c0       ??_C@_0DI@KNLH@clientDownload?3?5?$CFd?5?3?5?$CC?$CFs?$CC?5cannot@ 006035c0     sv_client.obj
 0002:00008604       ??_C@_0CE@FHLF@clientDownload?3?5?$CFd?5?3?5begining?5?$CC?$CF@ 00603604     sv_client.obj
 0002:00008630       ??_C@_0N@OGHP@disconnected?$AA@ 00603630     sv_client.obj
 0002:00008640       ??_C@_0DH@LBMM@Unpure?5client?5detected?4?5Invalid?5@ 00603640     sv_client.obj
 0002:00008684       ??_C@_0CN@IMII@ignoring?5outdated?5cp?5command?5fro@ 00603684     sv_client.obj
 0002:000086bc       ??_C@_09PJEL@vm?1ui?4qvm?$AA@ 006036bc     sv_client.obj
 0002:000086c8       ??_C@_0N@DNHL@vm?1cgame?4qvm?$AA@ 006036c8     sv_client.obj
 0002:000086d8       ??_C@_0CA@HBJC@client?5text?5ignored?5for?5?$CFs?3?5?$CFs?6?$AA@ 006036d8     sv_client.obj
 0002:00008700       ??_C@_0CJ@CLHA@WARNING?3?5bad?5command?5byte?5for?5cl@ 00603700     sv_client.obj
 0002:00008734       ??_C@_0CD@PPMB@?$CFs?5?3?5dropped?5gamestate?0?5resendin@ 00603734     sv_client.obj
 0002:00008760       ??_C@_0DJ@FMDC@?$CFs?5?3?5ignoring?5pre?5map_restart?5?1?5@ 00603760     sv_client.obj
 0002:000087a4       ??_C@_0CA@POD@DEBUG?3?5illegible?5client?5message?$AA@ 006037a4     sv_client.obj
 0002:000087cc       ??_C@_0BH@NNOG@Lost?5reliable?5commands?$AA@ 006037cc     sv_client.obj
 0002:000087e8       ??_C@_0CC@IKAD@Client?5?$CFs?5lost?5?$CFi?5clientCommands@ 006037e8     sv_client.obj
 0002:00008810       ??_C@_0BN@PMF@clientCommand?3?5?$CFs?5?3?5?$CFi?5?3?5?$CFs?6?$AA@ 00603810     sv_client.obj
 0002:00008834       ??_C@_0BN@JLEB@Cannot?5validate?5pure?5client?$CB?$AA@ 00603834     sv_client.obj
 0002:00008858       ??_C@_0DA@GCEE@?$CFs?3?5didn?8t?5get?5cp?5command?0?5resen@ 00603858     sv_client.obj
 0002:00008894       ??_C@_0CA@FKBB@cmdCount?5?$DO?5MAX_PACKET_USERCMDS?6?$AA@ 00603894     sv_client.obj
 0002:000088bc       ??_C@_0O@DHEJ@cmdCount?5?$DM?51?6?$AA@ 006038bc     sv_client.obj
 0002:000088cc       ??_C@_0CA@DBPM@SV_SvEntityForGentity?3?5bad?5gEnt?$AA@ 006038cc     sv_game.obj
 0002:000088f4       ??_C@_0CJ@HDLD@SV_SetBrushModel?3?5?$CFs?5isn?8t?5a?5bru@ 006038f4     sv_game.obj
 0002:00008928       ??_C@_0BH@JFFL@SV_SetBrushModel?3?5NULL?$AA@ 00603928     sv_game.obj
 0002:00008944       ??_C@_0CD@FPJF@SV_GetServerinfo?3?5bufferSize?5?$DN?$DN?5@ 00603944     sv_game.obj
 0002:00008970       ??_C@_0CA@NHH@SV_GetUsercmd?3?5bad?5clientNum?3?$CFi?$AA@ 00603970     sv_game.obj
 0002:00008998       ??_C@_0BJ@GHBC@Bad?5game?5system?5trap?3?5?$CFi?$AA@ 00603998     sv_game.obj
 0002:000089b8       ??_C@_0BK@CBJG@VM_Restart?5on?5game?5failed?$AA@ 006039b8     sv_game.obj
 0002:000089d8       ??_C@_0BJ@LEJ@VM_Create?5on?5game?5failed?$AA@ 006039d8     sv_game.obj
 0002:000089f8       ??_C@_06FOCM@qagame?$AA@   006039f8     sv_game.obj
 0002:00008a00       ??_C@_07EBFO@vm_game?$AA@  00603a00     sv_game.obj
 0002:00008a0c       ??_C@_0M@KDIF@cs?5?$CFi?5?$CC?$CFs?$CC?6?$AA@ 00603a0c     sv_init.obj
 0002:00008a1c       ??_C@_0M@HPFF@?$CFs?5?$CFi?5?$CC?$CFs?$CC?6?$AA@ 00603a1c     sv_init.obj
 0002:00008a2c       ??_C@_0CC@ICCE@SV_SetConfigstring?3?5bad?5index?5?$CFi@ 00603a2c     sv_init.obj
 0002:00008a54       ??_C@_0CC@MGIE@SV_GetConfigstring?3?5bad?5index?5?$CFi@ 00603a54     sv_init.obj
 0002:00008a7c       ??_C@_0CF@MBEH@SV_GetConfigstring?3?5bufferSize?5?$DN@ 00603a7c     sv_init.obj
 0002:00008aa8       ??_C@_0BO@PNHJ@SV_SetUserinfo?3?5bad?5index?5?$CFi?6?$AA@ 00603aa8     sv_init.obj
 0002:00008acc       ??_C@_0BO@NNOK@SV_GetUserinfo?3?5bad?5index?5?$CFi?6?$AA@ 00603acc     sv_init.obj
 0002:00008af0       ??_C@_0CB@LKEH@SV_GetUserinfo?3?5bufferSize?5?$DN?$DN?5?$CFi@ 00603af0     sv_init.obj
 0002:00008b18       ??_C@_0CK@HMKE@sizeof?$CIclient_t?$CJ?5?$CK?5sv_maxclients@ 00603b18     sv_init.obj
 0002:00008b4c       ??_C@_0DJ@KFKJ@G?3?2trep?9engine?2q3nocd?2quake3?91?43@ 00603b4c     sv_init.obj
 0002:00008b90       ??_C@_0BM@OFBH@SV_Startup?3?5svs?4initialized?$AA@ 00603b90     sv_init.obj
 0002:00008bb4       ??_C@_0CK@KIBB@sv_maxclients?9?$DOinteger?5?$CK?5sizeof?$CI@ 00603bb4     sv_init.obj
 0002:00008be8       ??_C@_09IIHF@vm?1?$CFs?4qvm?$AA@ 00603be8     sv_init.obj
 0002:00008bf4       ??_C@_0CF@GMCH@?9?9?9?9?9?9?9?9?9?9?9?9?9?9?9?9?9?9?9?9?9?9?9?9?9?9?9?9?9?9?9?9@ 00603bf4     sv_init.obj
 0002:00008c20       ??_C@_0CO@CKJB@WARNING?3?5sv_pure?5set?5but?5no?5PK3?5@ 00603c20     sv_init.obj
 0002:00008c58       ??_C@_0P@FLOG@sv_mapChecksum?$AA@ 00603c58     sv_init.obj
 0002:00008c6c       ??_C@_0O@CICJ@map_restart?50?$AA@ 00603c6c     sv_init.obj
 0002:00008c7c       ??_C@_0CO@NCBK@sizeof?$CIentityState_t?$CJ?$CKsvs?4numSna@ 00603c7c     sv_init.obj
 0002:00008cb4       ??_C@_0CF@ELDI@?9?9?9?9?9?9?5Server?5Initialization?5?9?9?9@ 00603cb4     sv_init.obj
 0002:00008ce0       ??_C@_0O@DFE@sv_strictAuth?$AA@ 00603ce0     sv_init.obj
 0002:00008cf0       ??_C@_0BA@CIHA@sv_lanForceRate?$AA@ 00603cf0     sv_init.obj
 0002:00008d04       ??_C@_0O@IPKC@sv_padPackets?$AA@ 00603d04     sv_init.obj
 0002:00008d14       ??_C@_0M@NMHL@sv_showloss?$AA@ 00603d14     sv_init.obj
 0002:00008d24       ??_C@_0BC@FLKE@sv_reconnectlimit?$AA@ 00603d24     sv_init.obj
 0002:00008d3c       ??_C@_0L@DHGC@sv_master5?$AA@ 00603d3c     sv_init.obj
 0002:00008d4c       ??_C@_0L@JNPF@sv_master4?$AA@ 00603d4c     sv_init.obj
 0002:00008d5c       ??_C@_0L@MIBA@sv_master3?$AA@ 00603d5c     sv_init.obj
 0002:00008d6c       ??_C@_0L@GCIH@sv_master2?$AA@ 00603d6c     sv_init.obj
 0002:00008d7c       ??_C@_0L@JNDO@sv_master1?$AA@ 00603d7c     sv_init.obj
 0002:00008d8c       ??_C@_0BB@JPFB@sv_allowDownload?$AA@ 00603d8c     sv_init.obj
 0002:00008da0       ??_C@_0O@LBDB@sv_zombietime?$AA@ 00603da0     sv_init.obj
 0002:00008db0       ??_C@_0L@MAEI@sv_timeout?$AA@ 00603db0     sv_init.obj
 0002:00008dc0       ??_C@_06LJKO@sv_fps?$AA@   00603dc0     sv_init.obj
 0002:00008dc8       ??_C@_0BD@JOBM@sv_privatePassword?$AA@ 00603dc8     sv_init.obj
 0002:00008de0       ??_C@_0BA@DDEE@sv_floodProtect?$AA@ 00603de0     sv_init.obj
 0002:00008df4       ??_C@_0L@ONAL@sv_maxPing?$AA@ 00603df4     sv_init.obj
 0002:00008e04       ??_C@_0L@ICIA@sv_minPing?$AA@ 00603e04     sv_init.obj
 0002:00008e14       ??_C@_0L@JAJM@sv_maxRate?$AA@ 00603e14     sv_init.obj
 0002:00008e24       ??_C@_0M@IHPH@sv_hostname?$AA@ 00603e24     sv_init.obj
 0002:00008e34       ??_C@_06IPHI@noname?$AA@   00603e34     sv_init.obj
 0002:00008e3c       ??_C@_0BC@PAKH@sv_privateClients?$AA@ 00603e3c     sv_init.obj
 0002:00008e54       ??_C@_05JIGJ@nomap?$AA@    00603e54     sv_init.obj
 0002:00008e5c       ??_C@_0M@BHND@sv_keywords?$AA@ 00603e5c     sv_init.obj
 0002:00008e6c       ??_C@_09GBNJ@timelimit?$AA@ 00603e6c     sv_init.obj
 0002:00008e78       ??_C@_09DPJO@fraglimit?$AA@ 00603e78     sv_init.obj
 0002:00008e84       ??_C@_07NJLK@dmflags?$AA@  00603e84     sv_init.obj
 0002:00008e90       ??_C@_0BN@CELB@?9?9?9?9?9?9?9?9?9?9?9?9?9?9?9?9?9?9?9?9?9?9?9?9?9?9?9?6?$AA@ 00603e90     sv_init.obj
 0002:00008eb4       ??_C@_0BN@LHPK@?9?9?9?9?9?5Server?5Shutdown?5?9?9?9?9?9?6?$AA@ 00603eb4     sv_init.obj
 0002:00008ed8       ??_C@_05PLAJ@cs?5?$CFi?$AA@ 00603ed8     sv_main.obj
 0002:00008ee0       ??_C@_0BI@IHGP@Server?5command?5overflow?$AA@ 00603ee0     sv_main.obj
 0002:00008efc       ??_C@_0N@DLEJ@cmd?5?$CF5d?3?5?$CFs?6?$AA@ 00603efc     sv_main.obj
 0002:00008f0c       ??_C@_0CF@KBGA@?$DN?$DN?$DN?$DN?$DN?5pending?5server?5commands?5?$DN?$DN@ 00603f0c     sv_main.obj
 0002:00008f38       ??_C@_0P@GGDL@broadcast?3?5?$CFs?6?$AA@ 00603f38     sv_main.obj
 0002:00008f4c       ??_C@_0O@IDAA@heartbeat?5?$CFs?6?$AA@ 00603f4c     sv_main.obj
 0002:00008f5c       ??_C@_0N@FFOH@QuakeArena?91?$AA@ 00603f5c     sv_main.obj
 0002:00008f6c       ??_C@_0BJ@BMKD@Sending?5heartbeat?5to?5?$CFs?6?$AA@ 00603f6c     sv_main.obj
 0002:00008f8c       ??_C@_0BO@OKIO@Couldn?8t?5resolve?5address?3?5?$CFs?6?$AA@ 00603f8c     sv_main.obj
 0002:00008fb0       ??_C@_0BF@IKB@statusResponse?6?$CFs?6?$CFs?$AA@ 00603fb0     sv_main.obj
 0002:00008fcc       ??_C@_0M@OCOH@?$CFi?5?$CFi?5?$CC?$CFs?$CC?6?$AA@ 00603fcc     sv_main.obj
 0002:00008fdc       ??_C@_07KKEE@demo?5?$CFs?$AA@ 00603fdc     sv_main.obj
 0002:00008fe8       ??_C@_0BA@PGJI@infoResponse?6?$CFs?$AA@ 00603fe8     sv_main.obj
 0002:00008ffc       ??_C@_07MLHP@maxPing?$AA@  00603ffc     sv_main.obj
 0002:00009008       ??_C@_07KEPE@minPing?$AA@  00604008     sv_main.obj
 0002:00009014       ??_C@_04JIFP@pure?$AA@     00604014     sv_main.obj
 0002:0000901c       ??_C@_08FFBJ@print?6?$CFs?$AA@ 0060401c     sv_main.obj
 0002:00009028       ??_C@_0BD@DFIG@Bad?5rconpassword?4?6?$AA@ 00604028     sv_main.obj
 0002:00009040       ??_C@_0CE@IMHB@No?5rconpassword?5set?5on?5the?5serve@ 00604040     sv_main.obj
 0002:0000906c       ??_C@_0BC@IMG@Rcon?5from?5?$CFs?3?6?$CFs?6?$AA@ 0060406c     sv_main.obj
 0002:00009084       ??_C@_0BG@HOCP@Bad?5rcon?5from?5?$CFs?3?6?$CFs?6?$AA@ 00604084     sv_main.obj
 0002:000090a0       ??_C@_0CH@GLAF@bad?5connectionless?5packet?5from?5?$CF@ 006040a0     sv_main.obj
 0002:000090d0       ??_C@_0M@KLJH@ipAuthorize?$AA@ 006040d0     sv_main.obj
 0002:000090e0       ??_C@_07JKOK@getinfo?$AA@  006040e0     sv_main.obj
 0002:000090ec       ??_C@_0BD@DLDM@SV?5packet?5?$CFs?5?3?5?$CFs?6?$AA@ 006040ec     sv_main.obj
 0002:00009104       ??_C@_0CN@DMGK@SV_PacketEvent?3?5fixing?5up?5a?5tran@ 00604104     sv_main.obj
 0002:0000913c       ??_C@_09BKMO@timed?5out?$AA@ 0060413c     sv_main.obj
 0002:00009148       ??_C@_0CP@PPIE@Going?5from?5CS_ZOMBIE?5to?5CS_FREE?5@ 00604148     sv_main.obj
 0002:00009180       ??_C@_0P@IGLO@map_restart?50?6?$AA@ 00604180     sv_main.obj
 0002:00009194       ??_C@_0DG@IECB@Restarting?5server?5due?5to?5numSnap@ 00604194     sv_main.obj
 0002:000091d4       ??_C@_0O@CHIC@vstr?5nextmap?6?$AA@ 006041d4     sv_main.obj
 0002:000091e4       ??_C@_0CH@NMDN@Restarting?5server?5due?5to?5time?5wr@ 006041e4     sv_main.obj
 0002:00009214       ??_C@_0BE@PIIA@Server?5was?5killed?4?6?$AA@ 00604214     sv_main.obj
 0002:0000922c       ??_C@_0DN@JMEI@?$CD462?5Netchan_TransmitNextFragmen@ 0060422c     sv_net_chan.obj
 0002:00009278       ??_C@_0DC@MMMK@?$CD462?5Netchan_TransmitNextFragmen@ 00604278     sv_net_chan.obj
 0002:000092b4       ??_C@_0EK@BDA@?$CD462?5Netchan_TransmitNextFragmen@ 006042b4     sv_net_chan.obj
 0002:0000930c       ??_C@_0EO@KMDF@netchan?5queue?5is?5not?5properly?5in@ 0060430c     sv_net_chan.obj
 0002:0000936c       ??_C@_0BJ@FJLG@sizeof?$CInetchan_buffer_t?$CJ?$AA@ 0060436c     sv_net_chan.obj
 0002:0000938c       ??_C@_0DN@KKIK@g?3?2trep?9engine?2q3nocd?2quake3?91?43@ 0060438c     sv_net_chan.obj
 0002:000093d8       ??_C@_0DF@HGIN@?$CD462?5SV_Netchan_Transmit?3?5unsent@ 006043d8     sv_net_chan.obj
 0002:00009418       ??_C@_0CA@EABI@WARNING?3?5msg?5overflowed?5for?5?$CFs?6?$AA@ 00604418     sv_snapshot.obj
 0002:00009440       ??_C@_0CO@FBK@?$CFs?3?5Delta?5request?5from?5out?5of?5da@ 00604440     sv_snapshot.obj
 0002:00009478       ??_C@_0CM@MLMM@?$CFs?3?5Delta?5request?5from?5out?5of?5da@ 00604478     sv_snapshot.obj
 0002:000094ac       ??_C@_0CB@DIKP@svs?4nextSnapshotEntities?5wrapped@ 006044ac     sv_snapshot.obj
 0002:000094d4       ??_C@_0CI@NBCC@SV_QsortEntityStates?3?5duplicated@ 006044d4     sv_snapshot.obj
 0002:00009504       ??_C@_0BP@NDEN@SVF_CLIENTMASK?3?5cientNum?5?$DO?532?6?$AA@ 00604504     sv_snapshot.obj
 0002:0000952c       ??_C@_0BJ@BDMB@FIXING?5ENT?9?$DOS?4NUMBER?$CB?$CB?$CB?6?$AA@ 0060452c     sv_snapshot.obj
 0002:0000954c       ??_C@_0BI@BBBH@sector?5?$CFi?3?5?$CFi?5entities?6?$AA@ 0060454c     sv_world.obj
 0002:00009568       ??_C@_0DE@KK@WARNING?3?5SV_UnlinkEntity?3?5not?5fo@ 00604568     sv_world.obj
 0002:000095a8       ??_C@_0CI@KONB@Object?5?$CFi?5touching?53?5areas?5at?5?$CFf@ 006045a8     sv_world.obj
 0002:000095d8       ??_C@_0BL@FNBC@SV_AreaEntities?3?5MAXCOUNT?6?$AA@ 006045d8     sv_world.obj
 0002:000098d8       ??_C@_09PNAN@?$CI0x400?$CJ?$CL4?$AA@ 006048d8     unzip.obj
 0002:000098e4       ??_C@_0DI@NGPD@g?3?2trep?9engine?2q3nocd?2quake3?91?43@ 006048e4     unzip.obj
 0002:00009928       ??_C@_0O@OBNE@sizeof?$CIunz_s?$CJ?$AA@ 00604928     unzip.obj
 0002:00009938       ??_C@_05NLJN@1?41?43?$AA@  00604938     unzip.obj
 0002:00009940       ??_C@_07KNKG@?$CI65536?$CJ?$AA@ 00604940     unzip.obj
 0002:0000994c       ??_C@_0CA@MGLK@sizeof?$CIfile_in_zip_read_info_s?$CJ?$AA@ 0060494c     unzip.obj
 0002:00009974       ??_C@_0BF@OBFI@incorrect?5data?5check?$AA@ 00604974     unzip.obj
 0002:00009990       ??_C@_0BA@FKCH@need?5dictionary?$AA@ 00604990     unzip.obj
 0002:000099a4       ??_C@_0BH@NLIB@incorrect?5header?5check?$AA@ 006049a4     unzip.obj
 0002:000099c0       ??_C@_0BE@FAJE@invalid?5window?5size?$AA@ 006049c0     unzip.obj
 0002:000099d8       ??_C@_0BL@KPEJ@unknown?5compression?5method?$AA@ 006049d8     unzip.obj
 0002:000099f8       ??_C@_0BK@BNJN@invalid?5bit?5length?5repeat?$AA@ 006049f8     unzip.obj
 0002:00009a18       ??_C@_0CE@LAKP@too?5many?5length?5or?5distance?5symb@ 00604a18     unzip.obj
 0002:00009a44       ??_C@_0BN@DBOJ@invalid?5stored?5block?5lengths?$AA@ 00604a44     unzip.obj
 0002:00009a68       ??_C@_0BD@IFBC@invalid?5block?5type?$AA@ 00604a68     unzip.obj
 0002:00009a80       ??_C@_0CE@MFNM@incomplete?5dynamic?5bit?5lengths?5t@ 00604a80     unzip.obj
 0002:00009aac       ??_C@_0CI@BBGL@oversubscribed?5dynamic?5bit?5lengt@ 00604aac     unzip.obj
 0002:00009adc       ??_C@_0CB@INA@empty?5distance?5tree?5with?5lengths@ 00604adc     unzip.obj
 0002:00009b04       ??_C@_0BJ@NKOC@incomplete?5distance?5tree?$AA@ 00604b04     unzip.obj
 0002:00009b24       ??_C@_0BN@OAAG@oversubscribed?5distance?5tree?$AA@ 00604b24     unzip.obj
 0002:00009b48       ??_C@_0BP@KPP@incomplete?5literal?1length?5tree?$AA@ 00604b48     unzip.obj
 0002:00009b70       ??_C@_0CD@ODII@oversubscribed?5literal?1length?5tr@ 00604b70     unzip.obj
 0002:00009b9c       ??_C@_0BG@EGK@invalid?5distance?5code?$AA@ 00604b9c     unzip.obj
 0002:00009bb8       ??_C@_0BM@CHJP@invalid?5literal?1length?5code?$AA@ 00604bb8     unzip.obj
 0002:00009bdc       ??_C@_0L@DIKL@items?$CKsize?$AA@ 00604bdc     unzip.obj
 0002:00009bec       ??_C@_06GDGG@vminfo?$AA@   00604bec     vm.obj
 0002:00009bf4       ??_C@_09EJFJ@vmprofile?$AA@ 00604bf4     vm.obj
 0002:00009c00       ??_C@_05FEAM@?$CFs?$CL?$CFi?$AA@ 00604c00     vm.obj
 0002:00009c08       ??_C@_0L@HKII@NO?5SYMBOLS?$AA@ 00604c08     vm.obj
 0002:00009c18       ??_C@_0BB@NDCP@After?5code?5block?$AA@ 00604c18     vm.obj
 0002:00009c2c       ??_C@_0BC@BEMO@Before?5code?5block?$AA@ 00604c2c     vm.obj
 0002:00009c44       ??_C@_0BL@KKIN@?$CFi?5symbols?5parsed?5from?5?$CFs?6?$AA@ 00604c44     vm.obj
 0002:00009c64       ??_C@_0BH@JJIN@sizeof?$CI?5?$CKsym?5?$CJ?5?$CL?5chars?$AA@ 00604c64     vm.obj
 0002:00009c80       ??_C@_0DF@POLJ@g?3?2trep?9engine?2q3nocd?2quake3?91?43@ 00604c80     vm.obj
 0002:00009cc0       ??_C@_0CJ@KMEO@WARNING?3?5incomplete?5line?5at?5end?5@ 00604cc0     vm.obj
 0002:00009cf4       ??_C@_0BP@IDKG@Couldn?8t?5load?5symbol?5file?3?5?$CFs?6?$AA@ 00604cf4     vm.obj
 0002:00009d1c       ??_C@_09IHAP@vm?1?$CFs?4map?$AA@ 00604d1c     vm.obj
 0002:00009d28       ??_C@_0BC@MFNE@?$CFs?5has?5bad?5header?$AA@ 00604d28     vm.obj
 0002:00009d40       ??_C@_0BE@ONPC@VM_Restart?5failed?4?6?$AA@ 00604d40     vm.obj
 0002:00009d58       ??_C@_0BF@PPDE@Loading?5vm?5file?5?$CFs?4?6?$AA@ 00604d58     vm.obj
 0002:00009d74       ??_C@_0O@EBHD@VM_Restart?$CI?$CJ?6?$AA@ 00604d74     vm.obj
 0002:00009d84       ??_C@_0CD@LNIB@?$CFs?5loaded?5in?5?$CFd?5bytes?5on?5the?5hun@ 00604d84     vm.obj
 0002:00009db0       ??_C@_0BO@GILE@vm?9?$DOinstructionPointersLength?$AA@ 00604db0     vm.obj
 0002:00009dd4       ??_C@_0L@PLPG@dataLength?$AA@ 00604dd4     vm.obj
 0002:00009de4       ??_C@_08FNHB@Failed?4?6?$AA@ 00604de4     vm.obj
 0002:00009df0       ??_C@_0CG@CCID@Failed?5to?5load?5dll?0?5looking?5for?5@ 00604df0     vm.obj
 0002:00009e20       ??_C@_0BG@HNCN@Loading?5dll?5file?5?$CFs?4?6?$AA@ 00604e20     vm.obj
 0002:00009e3c       ??_C@_0BI@FPBJ@VM_Create?3?5no?5free?5vm_t?$AA@ 00604e3c     vm.obj
 0002:00009e58       ??_C@_0BF@DPLL@VM_Create?3?5bad?5parms?$AA@ 00604e58     vm.obj
 0002:00009e74       ??_C@_0P@JION@VM_Call?$CI?5?$CFi?5?$CJ?6?$AA@ 00604e74     vm.obj
 0002:00009e88       ??_C@_0BF@IFDM@VM_Call?5with?5NULL?5vm?$AA@ 00604e88     vm.obj
 0002:00009ea4       ??_C@_0BB@EKKG@?5?5?5?5?$CF9?40f?5total?6?$AA@ 00604ea4     vm.obj
 0002:00009eb8       ??_C@_0O@ODEC@?$CF2i?$CF?$CF?5?$CF9i?5?$CFs?6?$AA@ 00604eb8     vm.obj
 0002:00009ec8       ??_C@_0CD@LGNE@vm?9?$DOnumSymbols?5?$CK?5sizeof?$CI?5?$CKsorted@ 00604ec8     vm.obj
 0002:00009ef4       ??_C@_0BH@CKPB@?5?5?5?5data?5length?5?3?5?$CF7i?6?$AA@ 00604ef4     vm.obj
 0002:00009f10       ??_C@_0BH@BIOA@?5?5?5?5table?5length?3?5?$CF7i?6?$AA@ 00604f10     vm.obj
 0002:00009f2c       ??_C@_0BH@MMFM@?5?5?5?5code?5length?5?3?5?$CF7i?6?$AA@ 00604f2c     vm.obj
 0002:00009f48       ??_C@_0N@CJI@interpreted?6?$AA@ 00604f48     vm.obj
 0002:00009f58       ??_C@_0BC@ICLN@compiled?5on?5load?6?$AA@ 00604f58     vm.obj
 0002:00009f70       ??_C@_07OLJJ@native?6?$AA@ 00604f70     vm.obj
 0002:00009f7c       ??_C@_05NHMF@?$CFs?5?3?5?$AA@ 00604f7c     vm.obj
 0002:00009f84       ??_C@_0BO@BOME@Registered?5virtual?5machines?3?6?$AA@ 00604f84     vm.obj
 0002:00009fa8       ??_C@_0BL@DGJP@?$CFi?3?5?$CFi?5?$CI?$CFi?$CJ?5?$DN?5?$CFi?5?$CFi?5?$CFi?5?$CFi?6?$AA@ 00604fa8     vm.obj
 0002:00009fc8       ??_C@_0N@MMKE@syscalls?4log?$AA@ 00604fc8     vm.obj
 0002:00009fd8       ??_C@_01LLF@w?$AA@         00604fd8     vm.obj
 0002:00009fdc       ??_C@_0CJ@NLAB@?5?5?5?5?5?5?5?5?5?5?5?5?5?5?5?5?5?5?5?5?5?5?5?5?5?5?5?5?5?5?5?5@ 00604fdc     vm_interpreted.obj
 0002:0000a010       ??_C@_0CP@MLBG@VM_PrepareInterpreter?3?5pc?5?$DO?5head@ 00605010     vm_interpreted.obj
 0002:0000a048       ??_C@_0BB@DHFB@vm?9?$DOcodeLength?$CK4?$AA@ 00605048     vm_interpreted.obj
 0002:0000a05c       ??_C@_0EB@DGAL@G?3?2trep?9engine?2q3nocd?2quake3?91?43@ 0060505c     vm_interpreted.obj
 0002:0000a0ac       ??_C@_0CA@DKFP@Interpreter?5error?3?5opStack?5?$DN?5?$CFi?$AA@ 006050ac     vm_interpreted.obj
 0002:0000a0d4       ??_C@_0CA@HHOM@OP_BLOCK_COPY?5not?5dword?5aligned?$AA@ 006050d4     vm_interpreted.obj
 0002:0000a0fc       ??_C@_05KIMC@8B?51F?$AA@   006050fc     vm_x86.obj
 0002:0000a104       ??_C@_02HHBO@BB?$AA@       00605104     vm_x86.obj
 0002:0000a108       ??_C@_05EAG@8B?5D8?$AA@    00605108     vm_x86.obj
 0002:0000a110       ??_C@_0BD@HDIP@Hex?3?5bad?5char?5?8?$CFc?8?$AA@ 00605110     vm_x86.obj
 0002:0000a128       ??_C@_0CJ@NDOD@VM?5file?5?$CFs?5compiled?5to?5?$CFi?5bytes?5@ 00605128     vm_x86.obj
 0002:0000a15c       ??_C@_0M@NEJB@compiledOfs?$AA@ 0060515c     vm_x86.obj
 0002:0000a16c       ??_C@_0CK@OLGM@VM_CompileX86?3?5bad?5opcode?5?$CFi?5at?5@ 0060516c     vm_x86.obj
 0002:0000a1a0       ??_C@_08NCOM@FF?524?585?$AA@ 006051a0     vm_x86.obj
 0002:0000a1ac       ??_C@_02FGPA@5E?$AA@       006051ac     vm_x86.obj
 0002:0000a1b0       ??_C@_02KJEJ@5F?$AA@       006051b0     vm_x86.obj
 0002:0000a1b4       ??_C@_05FMJP@F3?5A5?$AA@   006051b4     vm_x86.obj
 0002:0000a1bc       ??_C@_05PJAL@03?5FB?$AA@   006051bc     vm_x86.obj
 0002:0000a1c4       ??_C@_05OGIH@23?5F8?$AA@   006051c4     vm_x86.obj
 0002:0000a1cc       ??_C@_05NMM@03?5F3?$AA@    006051cc     vm_x86.obj
 0002:0000a1d4       ??_C@_05LCDP@23?5F0?$AA@   006051d4     vm_x86.obj
 0002:0000a1dc       ??_C@_02ICEP@B9?$AA@       006051dc     vm_x86.obj
 0002:0000a1e0       ??_C@_08KCJC@8B?57F?5FC?$AA@ 006051e0     vm_x86.obj
 0002:0000a1ec       ??_C@_05HBFA@8B?537?$AA@   006051ec     vm_x86.obj
 0002:0000a1f4       ??_C@_02FNIO@57?$AA@       006051f4     vm_x86.obj
 0002:0000a1f8       ??_C@_08OAAG@0F?5BF?507?$AA@ 006051f8     vm_x86.obj
 0002:0000a204       ??_C@_08IPPA@0F?5BE?507?$AA@ 00605204     vm_x86.obj
 0002:0000a210       ??_C@_05MELL@DB?507?$AA@   00605210     vm_x86.obj
 0002:0000a218       ??_C@_08NLPL@D8?54f?504?$AA@ 00605218     vm_x86.obj
 0002:0000a224       ??_C@_08BPGC@D8?577?504?$AA@ 00605224     vm_x86.obj
 0002:0000a230       ??_C@_08LPEH@D8?567?504?$AA@ 00605230     vm_x86.obj
 0002:0000a23c       ??_C@_08JGBN@D9?55F?5FC?$AA@ 0060523c     vm_x86.obj
 0002:0000a248       ??_C@_05PGJ@D8?507?$AA@    00605248     vm_x86.obj
 0002:0000a250       ??_C@_08LIIM@D9?547?5FC?$AA@ 00605250     vm_x86.obj
 0002:0000a25c       ??_C@_05MIFG@D9?51F?$AA@   0060525c     vm_x86.obj
 0002:0000a264       ??_C@_05CGIA@D9?5E0?$AA@   00605264     vm_x86.obj
 0002:0000a26c       ??_C@_05CKDL@D9?507?$AA@   0060526c     vm_x86.obj
 0002:0000a274       ??_C@_08FPPE@D3?56F?5FC?$AA@ 00605274     vm_x86.obj
 0002:0000a280       ??_C@_08PPNB@D3?57F?5FC?$AA@ 00605280     vm_x86.obj
 0002:0000a28c       ??_C@_08NBEA@D3?567?5FC?$AA@ 0060528c     vm_x86.obj
 0002:0000a298       ??_C@_05LOGI@8B?50F?$AA@   00605298     vm_x86.obj
 0002:0000a2a0       ??_C@_05IJKH@F7?517?$AA@   006052a0     vm_x86.obj
 0002:0000a2a8       ??_C@_08LIHG@31?547?5FC?$AA@ 006052a8     vm_x86.obj
 0002:0000a2b4       ??_C@_08BEKI@09?547?5FC?$AA@ 006052b4     vm_x86.obj
 0002:0000a2c0       ??_C@_08PAFI@21?547?5FC?$AA@ 006052c0     vm_x86.obj
 0002:0000a2cc       ??_C@_05LCFI@F7?527?$AA@   006052cc     vm_x86.obj
 0002:0000a2d4       ??_C@_05EGJP@F7?52F?$AA@   006052d4     vm_x86.obj
 0002:0000a2dc       ??_C@_08PFPJ@89?557?5FC?$AA@ 006052dc     vm_x86.obj
 0002:0000a2e8       ??_C@_05KEPC@F7?537?$AA@   006052e8     vm_x86.obj
 0002:0000a2f0       ??_C@_05GKGB@33?5D2?$AA@   006052f0     vm_x86.obj
 0002:0000a2f8       ??_C@_08FFNM@89?547?5FC?$AA@ 006052f8     vm_x86.obj
 0002:0000a304       ??_C@_05FADF@F7?53F?$AA@   00605304     vm_x86.obj
 0002:0000a30c       ??_C@_02BJLK@99?$AA@       0060530c     vm_x86.obj
 0002:0000a310       ??_C@_08MMEJ@8B?547?5FC?$AA@ 00605310     vm_x86.obj
 0002:0000a31c       ??_C@_08IEPF@29?547?5FC?$AA@ 0060531c     vm_x86.obj
 0002:0000a328       ??_C@_08GAAF@01?547?5FC?$AA@ 00605328     vm_x86.obj
 0002:0000a334       ??_C@_05HNGA@F7?51F?$AA@   00605334     vm_x86.obj
 0002:0000a33c       ??_C@_08KGEG@F6?5C4?541?$AA@ 0060533c     vm_x86.obj
 0002:0000a348       ??_C@_08PMOM@F6?5C4?501?$AA@ 00605348     vm_x86.obj
 0002:0000a354       ??_C@_08MNB@F6?5C4?540?$AA@ 00605354     vm_x86.obj
 0002:0000a360       ??_C@_05FNEI@DF?5E0?$AA@   00605360     vm_x86.obj
 0002:0000a368       ??_C@_08CPHI@D8?55F?508?$AA@ 00605368     vm_x86.obj
 0002:0000a374       ??_C@_08NBJI@D9?547?504?$AA@ 00605374     vm_x86.obj
 0002:0000a380       ??_C@_05CKAO@72?506?$AA@   00605380     vm_x86.obj
 0002:0000a388       ??_C@_05LPEG@76?506?$AA@   00605388     vm_x86.obj
 0002:0000a390       ??_C@_05JKBE@77?506?$AA@   00605390     vm_x86.obj
 0002:0000a398       ??_C@_05PFM@73?506?$AA@    00605398     vm_x86.obj
 0002:0000a3a0       ??_C@_05KELK@7C?506?$AA@   006053a0     vm_x86.obj
 0002:0000a3a8       ??_C@_05HLFG@7E?506?$AA@   006053a8     vm_x86.obj
 0002:0000a3b0       ??_C@_05BEKA@7F?506?$AA@   006053b0     vm_x86.obj
 0002:0000a3b8       ??_C@_05FOAE@7D?506?$AA@   006053b8     vm_x86.obj
 0002:0000a3c0       ??_C@_05PFOC@74?506?$AA@   006053c0     vm_x86.obj
 0002:0000a3c8       ??_C@_05GJMC@FF?525?$AA@   006053c8     vm_x86.obj
 0002:0000a3d0       ??_C@_05NALA@75?506?$AA@   006053d0     vm_x86.obj
 0002:0000a3d8       ??_C@_08MCLO@3B?547?508?$AA@ 006053d8     vm_x86.obj
 0002:0000a3e4       ??_C@_08KFFN@8B?547?504?$AA@ 006053e4     vm_x86.obj
 0002:0000a3f0       ??_C@_08OCNI@8B?55F?5FC?$AA@ 006053f0     vm_x86.obj
 0002:0000a3fc       ??_C@_08FEOI@0F?5B6?583?$AA@ 006053fc     vm_x86.obj
 0002:0000a408       ??_C@_08HBLK@0F?5B7?583?$AA@ 00605408     vm_x86.obj
 0002:0000a414       ??_C@_05KKBO@8B?580?$AA@   00605414     vm_x86.obj
 0002:0000a41c       ??_C@_02JNDC@2D?$AA@       0060541c     vm_x86.obj
 0002:0000a420       ??_C@_05PKHG@FF?58B?$AA@   00605420     vm_x86.obj
 0002:0000a428       ??_C@_02EEKA@05?$AA@       00605428     vm_x86.obj
 0002:0000a42c       ??_C@_05FFKH@8B?583?$AA@   0060542c     vm_x86.obj
 0002:0000a434       ??_C@_05OLB@FF?583?$AA@    00605434     vm_x86.obj
 0002:0000a43c       ??_C@_02JFHD@C3?$AA@       0060543c     vm_x86.obj
 0002:0000a440       ??_C@_05KIJ@81?5C6?$AA@    00605440     vm_x86.obj
 0002:0000a448       ??_C@_05FCDN@FF?515?$AA@   00605448     vm_x86.obj
 0002:0000a450       ??_C@_05KAHO@C7?586?$AA@   00605450     vm_x86.obj
 0002:0000a458       ??_C@_05LLOM@89?586?$AA@   00605458     vm_x86.obj
 0002:0000a460       ??_C@_05IKIA@8D?586?$AA@   00605460     vm_x86.obj
 0002:0000a468       ??_C@_05LPLN@C7?507?$AA@   00605468     vm_x86.obj
 0002:0000a470       ??_C@_05FHCN@81?52F?$AA@   00605470     vm_x86.obj
 0002:0000a478       ??_C@_05IOLP@81?507?$AA@   00605478     vm_x86.obj
 0002:0000a480       ??_C@_05JOHF@88?583?$AA@   00605480     vm_x86.obj
 0002:0000a488       ??_C@_08OEGM@66?589?583?$AA@ 00605488     vm_x86.obj
 0002:0000a494       ??_C@_05LLCH@89?583?$AA@   00605494     vm_x86.obj
 0002:0000a49c       ??_C@_02CINI@B8?$AA@       0060549c     vm_x86.obj
 0002:0000a4a0       ??_C@_08OBLM@0F?5B6?503?$AA@ 006054a0     vm_x86.obj
 0002:0000a4ac       ??_C@_08MEOO@0F?5B7?503?$AA@ 006054ac     vm_x86.obj
 0002:0000a4b8       ??_C@_05OAPD@8B?503?$AA@   006054b8     vm_x86.obj
 0002:0000a4c0       ??_C@_05NMJP@81?5EE?$AA@   006054c0     vm_x86.obj
 0002:0000a4c8       ??_C@_02MLCD@CC?$AA@       006054c8     vm_x86.obj
 0002:0000a4cc       ??_C@_0CH@FDKK@VM_CompileX86?3?5pc?5?$DO?5header?9?$DOcode@ 006054cc     vm_x86.obj
 0002:0000a4fc       ??_C@_0CC@OOFL@VM_CompileX86?3?5maxLength?5exceede@ 006054fc     vm_x86.obj
 0002:0000a524       ??_C@_0BN@LAMJ@header?9?$DOinstructionCount?5?$CL?52?$AA@ 00605524     vm_x86.obj
 0002:0000a548       ??_C@_09IOFK@maxLength?$AA@ 00605548     vm_x86.obj
 0002:0000a554       ??_C@_0DJ@MPKI@G?3?2trep?9engine?2q3nocd?2quake3?91?43@ 00605554     vm_x86.obj
 0002:0000a598       ??_C@_08MKJA@83?5EF?508?$AA@ 00605598     vm_x86.obj
 0002:0000a5a4       ??_C@_08DEHE@83?5EF?504?$AA@ 006055a4     vm_x86.obj
 0002:0000a5b0       ??_C@_05KECP@89?507?$AA@   006055b0     vm_x86.obj
 0002:0000a5b8       ??_C@_08HKBP@83?5C7?504?$AA@ 006055b8     vm_x86.obj
 0002:0000a5c4       ??_C@_05EKKP@8B?507?$AA@   006055c4     vm_x86.obj
 0002:0000a5cc       ??_C@_0CI@IKNA@programStack?5corrupted?5in?5compil@ 006055cc     vm_x86.obj
 0002:0000a5fc       ??_C@_0CD@MAO@opStack?5corrupted?5in?5compiled?5co@ 006055fc     vm_x86.obj
 0002:0000a628       _GUID_SysMouse             00605628     win_input.obj
 0002:0000a638       _GUID_XAxis                00605638     win_input.obj
 0002:0000a648       _GUID_YAxis                00605648     win_input.obj
 0002:0000a658       _GUID_ZAxis                00605658     win_input.obj
 0002:0000a674       ??_C@_0BK@BAP@DirectInput?5initialized?4?6?$AA@ 00605674     win_input.obj
 0002:0000a694       ??_C@_0BM@GEBK@Couldn?8t?5set?5DI?5buffersize?6?$AA@ 00605694     win_input.obj
 0002:0000a6b8       ??_C@_0BM@KBIN@Couldn?8t?5set?5DI?5coop?5level?6?$AA@ 006056b8     win_input.obj
 0002:0000a6dc       ??_C@_0BO@OIDM@Couldn?8t?5set?5DI?5mouse?5format?6?$AA@ 006056dc     win_input.obj
 0002:0000a700       ??_C@_0BP@MFB@Couldn?8t?5open?5DI?5mouse?5device?6?$AA@ 00605700     win_input.obj
 0002:0000a728       ??_C@_0BL@OGGD@iDirectInputCreate?5failed?6?$AA@ 00605728     win_input.obj
 0002:0000a748       ??_C@_0BL@MA@Couldn?8t?5get?5DI?5proc?5addr?6?$AA@ 00605748     win_input.obj
 0002:0000a768       ??_C@_0BD@NJCB@DirectInputCreateA?$AA@ 00605768     win_input.obj
 0002:0000a780       ??_C@_0BK@KDBO@Couldn?8t?5load?5dinput?4dll?6?$AA@ 00605780     win_input.obj
 0002:0000a7a0       ??_C@_0L@NOHA@dinput?4dll?$AA@ 006057a0     win_input.obj
 0002:0000a7b0       ??_C@_0BN@GKAI@Initializing?5DirectInput?4?4?4?6?$AA@ 006057b0     win_input.obj
 0002:0000a7d4       ??_C@_08LDNF@in_mouse?$AA@ 006057d4     win_input.obj
 0002:0000a7e0       ??_C@_02HNAB@?91?$AA@      006057e0     win_input.obj
 0002:0000a7e4       ??_C@_0CI@KGMH@Falling?5back?5to?5Win32?5mouse?5supp@ 006057e4     win_input.obj
 0002:0000a814       ??_C@_0DA@DHGH@No?5window?5for?5DirectInput?5mouse?5@ 00605814     win_input.obj
 0002:0000a850       ??_C@_0CA@DMJG@Skipping?5check?5for?5DirectInput?6?$AA@ 00605850     win_input.obj
 0002:0000a878       ??_C@_0CD@BGIG@Disallowing?5DirectInput?5on?5NT?54?4@ 00605878     win_input.obj
 0002:0000a8a4       ??_C@_0BL@NHOM@Mouse?5control?5not?5active?4?6?$AA@ 006058a4     win_input.obj
 0002:0000a8c4       ??_C@_0CH@HNPF@?6?9?9?9?9?9?9?9?5Input?5Initialization?5?9?9@ 006058c4     win_input.obj
 0002:0000a8f4       ??_C@_08JIMC@midiinfo?$AA@ 006058f4     win_input.obj
 0002:0000a900       ??_C@_0O@LFMM@joy_threshold?$AA@ 00605900     win_input.obj
 0002:0000a910       ??_C@_04JDHO@0?415?$AA@    00605910     win_input.obj
 0002:0000a918       ??_C@_0BB@MNGH@in_debugjoystick?$AA@ 00605918     win_input.obj
 0002:0000a92c       ??_C@_0BA@IFFE@in_joyBallScale?$AA@ 0060592c     win_input.obj
 0002:0000a940       ??_C@_04NADB@0?402?$AA@    00605940     win_input.obj
 0002:0000a948       ??_C@_0M@JGHL@in_joystick?$AA@ 00605948     win_input.obj
 0002:0000a958       ??_C@_0P@LAEE@in_logitechbug?$AA@ 00605958     win_input.obj
 0002:0000a96c       ??_C@_0O@JBL@in_mididevice?$AA@ 0060596c     win_input.obj
 0002:0000a97c       ??_C@_0P@PEOM@in_midichannel?$AA@ 0060597c     win_input.obj
 0002:0000a990       ??_C@_0M@FDMI@in_midiport?$AA@ 00605990     win_input.obj
 0002:0000a9a0       ??_C@_07GDK@in_midi?$AA@   006059a0     win_input.obj
 0002:0000a9ac       ??_C@_0L@PNFE@r_glDriver?$AA@ 006059ac     win_input.obj
 0002:0000a9bc       ??_C@_07JDIO@3dfxvgl?$AA@  006059bc     win_input.obj
 0002:0000a9c8       ??_C@_0N@EEGM@r_fullscreen?$AA@ 006059c8     win_input.obj
 0002:0000a9d8       ??_C@_0CE@GCM@Proceeding?5with?5delayed?5mouse?5in@ 006059d8     win_input.obj
 0002:0000aa04       ??_C@_07GFHF@no?5POV?6?$AA@ 00605a04     win_input.obj
 0002:0000aa10       ??_C@_07NLLN@HASPOV?6?$AA@ 00605a10     win_input.obj
 0002:0000aa1c       ??_C@_0M@GIPI@Caps?3?50x?$CFx?6?$AA@ 00605a1c     win_input.obj
 0002:0000aa2c       ??_C@_0P@GNDC@Axis?3?5?$CFi?5?1?5?$CFi?6?$AA@ 00605a2c     win_input.obj
 0002:0000aa40       ??_C@_0BF@EOHO@Numbuttons?3?5?$CFi?5?1?5?$CFi?6?$AA@ 00605a40     win_input.obj
 0002:0000aa5c       ??_C@_0M@KHJF@RegKey?3?5?$CFs?6?$AA@ 00605a5c     win_input.obj
 0002:0000aa6c       ??_C@_0M@KPGM@OemVxD?3?5?$CFs?6?$AA@ 00605a6c     win_input.obj
 0002:0000aa7c       ??_C@_0L@BMPM@Pname?3?5?$CFs?6?$AA@ 00605a7c     win_input.obj
 0002:0000aa8c       ??_C@_0BB@PHKG@Joystick?5found?4?6?$AA@ 00605a8c     win_input.obj
 0002:0000aaa0       ??_C@_0DK@BDAB@joystick?5not?5found?5?9?9?5invalid?5jo@ 00605aa0     win_input.obj
 0002:0000aae8       ??_C@_0CP@PJCK@joystick?5not?5found?5?9?9?5no?5valid?5j@ 00605ae8     win_input.obj
 0002:0000ab20       ??_C@_0CK@HIPD@joystick?5not?5found?5?9?9?5driver?5not@ 00605b20     win_input.obj
 0002:0000ab54       ??_C@_0BJ@MLMI@Joystick?5is?5not?5active?4?6?$AA@ 00605b54     win_input.obj
 0002:0000ab78       __real@8@400e8000000000000000 00605b78     win_input.obj
 0002:0000ab84       ??_C@_0CJ@IPMO@?$CF8x?5?$CF5i?5?$CF5?42f?5?$CF5?42f?5?$CF5?42f?5?$CF5?42f?5@ 00605b84     win_input.obj
 0002:0000abb8       ??_C@_0BL@DBFN@?4?4?4product?5ID?3?5?5?5?5?5?50x?$CFhx?6?$AA@ 00605bb8     win_input.obj
 0002:0000abd8       ??_C@_0BL@CBCB@?4?4?4manufacturer?5ID?3?50x?$CFhx?6?$AA@ 00605bd8     win_input.obj
 0002:0000abf8       ??_C@_0BG@NFDH@device?5?$CF2d?3?5?5?5?5?5?5?5?$CFs?6?$AA@ 00605bf8     win_input.obj
 0002:0000ac14       ??_C@_03NAME@?4?4?4?$AA@   00605c14     win_input.obj
 0002:0000ac18       ??_C@_03GIGI@?$CK?$CK?$CK?$AA@ 00605c18     win_input.obj
 0002:0000ac1c       ??_C@_0BI@IOHM@number?5of?5devices?3?5?5?$CFd?6?$AA@ 00605c1c     win_input.obj
 0002:0000ac38       ??_C@_0BI@IBOH@current?5device?3?5?5?5?5?5?$CFd?6?$AA@ 00605c38     win_input.obj
 0002:0000ac54       ??_C@_0BI@CNED@channel?3?5?5?5?5?5?5?5?5?5?5?5?5?$CFd?6?$AA@ 00605c54     win_input.obj
 0002:0000ac70       ??_C@_0BI@KJHI@port?3?5?5?5?5?5?5?5?5?5?5?5?5?5?5?5?$CFd?6?$AA@ 00605c70     win_input.obj
 0002:0000ac8c       ??_C@_0BJ@JCHL@?6MIDI?5control?3?5?5?5?5?5?5?5?$CFs?6?$AA@ 00605c8c     win_input.obj
 0002:0000acac       ??_C@_07IHHA@enabled?$AA@  00605cac     win_input.obj
 0002:0000acb8       ??_C@_08FDGF@disabled?$AA@ 00605cb8     win_input.obj
 0002:0000acc4       ??_C@_0CO@IPCH@WARNING?3?5could?5not?5open?5MIDI?5dev@ 00605cc4     win_input.obj
 0002:0000acfc       ??_C@_05KEJO@?$CFs?2?$CFs?$AA@ 00605cfc     win_main.obj
 0002:0000ad04       ??_C@_04HGPC@?$CFs?2?$CK?$AA@ 00605d04     win_main.obj
 0002:0000ad0c       ??_C@_07ICNE@?$CFs?2?$CFs?2?$CK?$AA@ 00605d0c     win_main.obj
 0002:0000ad18       ??_C@_06GIGK@?$CFs?2?$CK?$CFs?$AA@ 00605d18     win_main.obj
 0002:0000ad20       ??_C@_0DJ@LBFE@g?3?2trep?9engine?2q3nocd?2quake3?91?43@ 00605d20     win_main.obj
 0002:0000ad64       ??_C@_0BC@KGPP@bin?2x86?2glibc?92?41?$AA@ 00605d64     win_main.obj
 0002:0000ad7c       ??_C@_01LHO@r?$AA@         00605d7c     win_main.obj
 0002:0000ad80       ??_C@_0L@FFBO@quake3?4exe?$AA@ 00605d80     win_main.obj
 0002:0000ad90       ??_C@_06HBAO@quake3?$AA@   00605d90     win_main.obj
 0002:0000ad98       ??_C@_03JJHE@?6?$AN?$AI?$AA@ 00605d98     win_main.obj
 0002:0000ad9c       ??_C@_0CB@EDOP@GlobalSize?$CI?5hClipboardData?5?$CJ?5?$CL?51@ 00605d9c     win_main.obj
 0002:0000adc4       ??_C@_0CB@FGJJ@Sys_UnloadDll?5FreeLibrary?5failed@ 00605dc4     win_main.obj
 0002:0000adec       ??_C@_06MCO@vmMain?$AA@    00605dec     win_main.obj
 0002:0000adf4       ??_C@_08KEAC@dllEntry?$AA@ 00605df4     win_main.obj
 0002:0000ae00       ??_C@_0BJ@OIKC@LoadLibrary?5?8?$CFs?8?5failed?6?$AA@ 00605e00     win_main.obj
 0002:0000ae20       ??_C@_0BF@FLAL@LoadLibrary?5?8?$CFs?8?5ok?6?$AA@ 00605e20     win_main.obj
 0002:0000ae3c       ??_C@_09PAFK@?$CFsx86?4dll?$AA@ 00605e3c     win_main.obj
 0002:0000ae48       ??_C@_0BI@IKBM@Sys_QueEvent?3?5overflow?6?$AA@ 00605e48     win_main.obj
 0002:0000ae64       ??_C@_08LGGE@username?$AA@ 00605e64     win_main.obj
 0002:0000ae70       ??_C@_09JNJJ@sys_cpuid?$AA@ 00605e70     win_main.obj
 0002:0000ae7c       ??_C@_0CF@JNCM@WARNING?3?5unknown?5sys_cpustring?5?8@ 00605e7c     win_main.obj
 0002:0000aea8       ??_C@_03GLDD@axp?$AA@      00605ea8     win_main.obj
 0002:0000aeac       ??_C@_0L@HNKD@PentiumIII?$AA@ 00605eac     win_main.obj
 0002:0000aebc       ??_C@_05JGOB@3dnow?$AA@    00605ebc     win_main.obj
 0002:0000aec4       ??_C@_03MBMN@mmx?$AA@      00605ec4     win_main.obj
 0002:0000aec8       ??_C@_03NCHK@x87?$AA@      00605ec8     win_main.obj
 0002:0000aecc       ??_C@_0BI@KCLD@?4?4?4forcing?5CPU?5type?5to?5?$AA@ 00605ecc     win_main.obj
 0002:0000aee8       ??_C@_0BF@IDHL@Unknown?5cpu?5type?5?$CFd?6?$AA@ 00605ee8     win_main.obj
 0002:0000af04       ??_C@_09HJLN@Alpha?5AXP?$AA@ 00605f04     win_main.obj
 0002:0000af10       ??_C@_0O@PHIA@AMD?5w?1?53DNow?$CB?$AA@ 00605f10     win_main.obj
 0002:0000af20       ??_C@_0BC@JJBI@Intel?5Pentium?5III?$AA@ 00605f20     win_main.obj
 0002:0000af38       ??_C@_0BH@ECNF@x86?5?$CIP5?1Pentium2?0?5MMX?$CJ?$AA@ 00605f38     win_main.obj
 0002:0000af54       ??_C@_0BH@IDGM@x86?5?$CIP5?1PPro?0?5non?9MMX?$CJ?$AA@ 00605f54     win_main.obj
 0002:0000af70       ??_C@_0BC@GIBM@x86?5?$CIpre?9Pentium?$CJ?$AA@ 00605f70     win_main.obj
 0002:0000af88       ??_C@_07LFGH@generic?$AA@  00605f88     win_main.obj
 0002:0000af94       ??_C@_0BJ@BCHF@?4?4?4detecting?5CPU?0?5found?5?$AA@ 00605f94     win_main.obj
 0002:0000afb4       ??_C@_0O@GHBP@sys_cpustring?$AA@ 00605fb4     win_main.obj
 0002:0000afc4       ??_C@_06PEFK@detect?$AA@   00605fc4     win_main.obj
 0002:0000afcc       ??_C@_0M@NOCG@win_wndproc?$AA@ 00605fcc     win_main.obj
 0002:0000afdc       ??_C@_0O@FJJN@win_hinstance?$AA@ 00605fdc     win_main.obj
 0002:0000afec       ??_C@_0BI@BGAJ@unknown?5Windows?5variant?$AA@ 00605fec     win_main.obj
 0002:0000b008       ??_C@_05MCLH@win95?$AA@    00606008     win_main.obj
 0002:0000b010       ??_C@_0N@MPIO@win95?5osr2?4x?$AA@ 00606010     win_main.obj
 0002:0000b020       ??_C@_05JGME@win98?$AA@    00606020     win_main.obj
 0002:0000b028       ??_C@_04HODN@arch?$AA@     00606028     win_main.obj
 0002:0000b030       ??_C@_05GMLJ@winnt?$AA@    00606030     win_main.obj
 0002:0000b038       ??_C@_0BN@OCAJ@Quake3?5doesn?8t?5run?5on?5Win32s?$AA@ 00606038     win_main.obj
 0002:0000b05c       ??_C@_0CN@LILI@Quake3?5requires?5Windows?5version?5@ 0060605c     win_main.obj
 0002:0000b094       ??_C@_0BF@HIO@Couldn?8t?5get?5OS?5info?$AA@ 00606094     win_main.obj
 0002:0000b0b0       ??_C@_0M@PDJP@net_restart?$AA@ 006060b0     win_main.obj
 0002:0000b0c0       ??_C@_0L@NJIB@in_restart?$AA@ 006060c0     win_main.obj
 0002:0000b0d0       ??_C@_0BH@GBD@Working?5directory?3?5?$CFs?6?$AA@ 006060d0     win_main.obj
 0002:0000b0ec       ??_C@_08BDCM@NO?5ERROR?$AA@ 006060ec     win_net.obj
 0002:0000b0f8       ??_C@_0L@OCKC@WSANO_DATA?$AA@ 006060f8     win_net.obj
 0002:0000b108       ??_C@_0P@FDEO@WSANO_RECOVERY?$AA@ 00606108     win_net.obj
 0002:0000b11c       ??_C@_0N@POCN@WSATRY_AGAIN?$AA@ 0060611c     win_net.obj
 0002:0000b12c       ??_C@_0BC@FGAC@WSAHOST_NOT_FOUND?$AA@ 0060612c     win_net.obj
 0002:0000b144       ??_C@_0BC@HCBF@WSANOTINITIALISED?$AA@ 00606144     win_net.obj
 0002:0000b15c       ??_C@_0BD@PKID@WSAVERNOTSUPPORTED?$AA@ 0060615c     win_net.obj
 0002:0000b174       ??_C@_0P@BMGD@WSASYSNOTREADY?$AA@ 00606174     win_net.obj
 0002:0000b188       ??_C@_0N@CHFC@WSAEHOSTDOWN?$AA@ 00606188     win_net.obj
 0002:0000b198       ??_C@_0BA@CAFH@WSAENAMETOOLONG?$AA@ 00606198     win_net.obj
 0002:0000b1ac       ??_C@_08KIHD@WSAELOOP?$AA@ 006061ac     win_net.obj
 0002:0000b1b8       ??_C@_0BA@KHJO@WSAECONNREFUSED?$AA@ 006061b8     win_net.obj
 0002:0000b1cc       ??_C@_0N@IOAI@WSAETIMEDOUT?$AA@ 006061cc     win_net.obj
 0002:0000b1dc       ??_C@_0BA@JKLP@WSAETOOMANYREFS?$AA@ 006061dc     win_net.obj
 0002:0000b1f0       ??_C@_0N@IIJE@WSAESHUTDOWN?$AA@ 006061f0     win_net.obj
 0002:0000b200       ??_C@_0M@FHGM@WSAENOTCONN?$AA@ 00606200     win_net.obj
 0002:0000b210       ??_C@_0L@GMEH@WSAEISCONN?$AA@ 00606210     win_net.obj
 0002:0000b220       ??_C@_0L@HPDK@WSAENOBUFS?$AA@ 00606220     win_net.obj
 0002:0000b230       ??_C@_0O@LFGK@WSAECONNRESET?$AA@ 00606230     win_net.obj
 0002:0000b240       ??_C@_0BI@GBAJ@WSWSAECONNABORTEDAEINTR?$AA@ 00606240     win_net.obj
 0002:0000b25c       ??_C@_0N@KFEB@WSAENETRESET?$AA@ 0060625c     win_net.obj
 0002:0000b26c       ??_C@_0P@BMAL@WSAENETUNREACH?$AA@ 0060626c     win_net.obj
 0002:0000b280       ??_C@_0M@OCME@WSAENETDOWN?$AA@ 00606280     win_net.obj
 0002:0000b290       ??_C@_0BB@CAPK@WSAEADDRNOTAVAIL?$AA@ 00606290     win_net.obj
 0002:0000b2a4       ??_C@_0O@HEEI@WSAEADDRINUSE?$AA@ 006062a4     win_net.obj
 0002:0000b2b4       ??_C@_0BA@JGHB@WSAEAFNOSUPPORT?$AA@ 006062b4     win_net.obj
 0002:0000b2c8       ??_C@_0BA@NEAC@WSAEPFNOSUPPORT?$AA@ 006062c8     win_net.obj
 0002:0000b2dc       ??_C@_0O@CKGP@WSAEOPNOTSUPP?$AA@ 006062dc     win_net.obj
 0002:0000b2ec       ??_C@_0BD@BHGL@WSAESOCKTNOSUPPORT?$AA@ 006062ec     win_net.obj
 0002:0000b304       ??_C@_0BD@NNFA@WSAEPROTONOSUPPORT?$AA@ 00606304     win_net.obj
 0002:0000b31c       ??_C@_0P@CMMD@WSAENOPROTOOPT?$AA@ 0060631c     win_net.obj
 0002:0000b330       ??_C@_0O@MMIF@WSAEPROTOTYPE?$AA@ 00606330     win_net.obj
 0002:0000b340       ??_C@_0M@EFDP@WSAEMSGSIZE?$AA@ 00606340     win_net.obj
 0002:0000b350       ??_C@_0BA@LDNB@WSAEDESTADDRREQ?$AA@ 00606350     win_net.obj
 0002:0000b364       ??_C@_0M@PLNC@WSAENOTSOCK?$AA@ 00606364     win_net.obj
 0002:0000b374       ??_C@_0M@FDKM@WSAEALREADY?$AA@ 00606374     win_net.obj
 0002:0000b384       ??_C@_0P@DGNH@WSAEINPROGRESS?$AA@ 00606384     win_net.obj
 0002:0000b398       ??_C@_0P@HEMP@WSAEWOULDBLOCK?$AA@ 00606398     win_net.obj
 0002:0000b3ac       ??_C@_09IMGE@WSAEMFILE?$AA@ 006063ac     win_net.obj
 0002:0000b3b8       ??_C@_09COKE@WSAEINVAL?$AA@ 006063b8     win_net.obj
 0002:0000b3c4       ??_C@_09GNPN@WSAEFAULT?$AA@ 006063c4     win_net.obj
 0002:0000b3d0       ??_C@_0L@NKDH@WSAEDISCON?$AA@ 006063d0     win_net.obj
 0002:0000b3e0       ??_C@_09HMKF@WSAEACCES?$AA@ 006063e0     win_net.obj
 0002:0000b3ec       ??_C@_08PJGE@WSAEBADF?$AA@ 006063ec     win_net.obj
 0002:0000b3f8       ??_C@_08PLFD@WSAEINTR?$AA@ 006063f8     win_net.obj
 0002:0000b404       ??_C@_02JDLK@?$CFx?$AA@    00606404     win_net.obj
 0002:0000b408       ??_C@_0BJ@DNJE@Oversize?5packet?5from?5?$CFs?6?$AA@ 00606408     win_net.obj
 0002:0000b428       ??_C@_0BD@CFON@NET_GetPacket?3?5?$CFs?6?$AA@ 00606428     win_net.obj
 0002:0000b440       ??_C@_0BE@OMOM@NET_SendPacket?3?5?$CFs?6?$AA@ 00606440     win_net.obj
 0002:0000b458       ??_C@_0CB@BOJL@Sys_SendPacket?3?5bad?5address?5type@ 00606458     win_net.obj
 0002:0000b480       ??_C@_0BB@PFDG@IP?3?5?$CFi?4?$CFi?4?$CFi?4?$CFi?6?$AA@ 00606480     win_net.obj
 0002:0000b494       ??_C@_0CD@KCDD@WARNING?3?5UDP_OpenSocket?3?5bind?3?5?$CF@ 00606494     win_net.obj
 0002:0000b4c0       ??_C@_0DG@CKFO@WARNING?3?5UDP_OpenSocket?3?5setsock@ 006064c0     win_net.obj
 0002:0000b500       ??_C@_0CM@FOIE@WARNING?3?5UDP_OpenSocket?3?5ioctl?5F@ 00606500     win_net.obj
 0002:0000b534       ??_C@_0CF@ECJJ@WARNING?3?5UDP_OpenSocket?3?5socket?3@ 00606534     win_net.obj
 0002:0000b560       ??_C@_0CB@MNNG@Opening?5IP?5socket?3?5localhost?3?$CFi?6@ 00606560     win_net.obj
 0002:0000b588       ??_C@_0BK@HEPC@Opening?5IP?5socket?3?5?$CFs?3?$CFi?6?$AA@ 00606588     win_net.obj
 0002:0000b5a8       ??_C@_0CO@GKDK@NET_OpenSocks?3?5relay?5address?5is?5@ 006065a8     win_net.obj
 0002:0000b5e0       ??_C@_0CD@NIED@NET_OpenSocks?3?5request?5denied?3?5?$CF@ 006065e0     win_net.obj
 0002:0000b60c       ??_C@_0CG@EHLE@NET_OpenSocks?3?5authentication?5fa@ 0060660c     win_net.obj
 0002:0000b63c       ??_C@_0BP@BLOM@NET_OpenSocks?3?5request?5denied?6?$AA@ 0060663c     win_net.obj
 0002:0000b664       ??_C@_0BN@MOM@NET_OpenSocks?3?5bad?5response?6?$AA@ 00606664     win_net.obj
 0002:0000b688       ??_C@_0BJ@MPIH@NET_OpenSocks?3?5recv?3?5?$CFs?6?$AA@ 00606688     win_net.obj
 0002:0000b6a8       ??_C@_0BJ@JMOD@NET_OpenSocks?3?5send?3?5?$CFs?6?$AA@ 006066a8     win_net.obj
 0002:0000b6c8       ??_C@_0BM@PMPI@NET_OpenSocks?3?5connect?3?5?$CFs?6?$AA@ 006066c8     win_net.obj
 0002:0000b6ec       ??_C@_0EF@DDEA@WARNING?3?5NET_OpenSocks?3?5gethostb@ 006066ec     win_net.obj
 0002:0000b740       ??_C@_0CL@NKMB@WARNING?3?5NET_OpenSocks?3?5gethostb@ 00606740     win_net.obj
 0002:0000b774       ??_C@_0CE@EBD@WARNING?3?5NET_OpenSocks?3?5socket?3?5@ 00606774     win_net.obj
 0002:0000b7a0       ??_C@_0CF@MHNK@Opening?5connection?5to?5SOCKS?5serv@ 006067a0     win_net.obj
 0002:0000b7cc       ??_C@_0L@EDMH@Alias?3?5?$CFs?6?$AA@ 006067cc     win_net.obj
 0002:0000b7dc       ??_C@_0O@MHPO@Hostname?3?5?$CFs?6?$AA@ 006067dc     win_net.obj
 0002:0000b7ec       ??_C@_0CE@FIKP@WARNING?3?5Couldn?8t?5allocate?5IP?5po@ 006067ec     win_net.obj
 0002:0000b818       ??_C@_08CIOP@net_port?$AA@ 00606818     win_net.obj
 0002:0000b824       ??_C@_06BHGB@net_ip?$AA@   00606824     win_net.obj
 0002:0000b82c       ??_C@_0BP@BPDF@WARNING?3?5IPX_Socket?3?5bind?3?5?$CFs?6?$AA@ 0060682c     win_net.obj
 0002:0000b854       ??_C@_0DC@KAAC@WARNING?3?5IPX_Socket?3?5setsockopt?5@ 00606854     win_net.obj
 0002:0000b890       ??_C@_0CI@CCKM@WARNING?3?5IPX_Socket?3?5ioctl?5FIONB@ 00606890     win_net.obj
 0002:0000b8c0       ??_C@_0CB@EDAB@WARNING?3?5IPX_Socket?3?5socket?3?5?$CFs?6@ 006068c0     win_net.obj
 0002:0000b8e8       ??_C@_0BC@CHCJ@net_socksPassword?$AA@ 006068e8     win_net.obj
 0002:0000b900       ??_C@_0BC@EODF@net_socksUsername?$AA@ 00606900     win_net.obj
 0002:0000b918       ??_C@_0O@CEIK@net_socksPort?$AA@ 00606918     win_net.obj
 0002:0000b928       ??_C@_04EILB@1080?$AA@     00606928     win_net.obj
 0002:0000b930       ??_C@_0BA@JPKL@net_socksServer?$AA@ 00606930     win_net.obj
 0002:0000b944       ??_C@_0BB@NGCJ@net_socksEnabled?$AA@ 00606944     win_net.obj
 0002:0000b958       ??_C@_09IJCO@net_noipx?$AA@ 00606958     win_net.obj
 0002:0000b964       ??_C@_09BEBA@net_noudp?$AA@ 00606964     win_net.obj
 0002:0000b970       ??_C@_0BF@PC@Winsock?5Initialized?6?$AA@ 00606970     win_net.obj
 0002:0000b98c       ??_C@_0DF@JODC@WARNING?3?5Winsock?5initialization?5@ 0060698c     win_net.obj
 0002:0000b9cc       ??_C@_06MNOE@player?$AA@   006069cc     win_shared.obj
 0002:0000b9d8       _CLSID_DirectSound         006069d8     win_snd.obj
 0002:0000b9e8       _CLSID_DirectSound8        006069e8     win_snd.obj
 0002:0000b9f8       _IID_IDirectSound8         006069f8     win_snd.obj
 0002:0000ba08       _IID_IDirectSound          00606a08     win_snd.obj
 0002:0000ba24       ??_C@_0BH@MNDJ@?4?4?4freeing?5DSOUND?4DLL?6?$AA@ 00606a24     win_snd.obj
 0002:0000ba40       ??_C@_0BI@MGAJ@?4?4?4releasing?5DS?5object?6?$AA@ 00606a40     win_snd.obj
 0002:0000ba5c       ??_C@_0BN@OBDC@?4?4?4releasing?5primary?5buffer?6?$AA@ 00606a5c     win_snd.obj
 0002:0000ba80       ??_C@_0CI@NPAP@?4?4?4stopping?5and?5releasing?5sound?5@ 00606a80     win_snd.obj
 0002:0000bab0       ??_C@_0BO@FPOK@?4?4?4setting?5NORMAL?5coop?5level?6?$AA@ 00606ab0     win_snd.obj
 0002:0000bad4       ??_C@_0BH@IDCM@Destroying?5DS?5buffers?6?$AA@ 00606ad4     win_snd.obj
 0002:0000baf0       ??_C@_0BM@MLMO@Shutting?5down?5sound?5system?6?$AA@ 00606af0     win_snd.obj
 0002:0000bb14       ??_C@_0BI@IHP@Completed?5successfully?6?$AA@ 00606b14     win_snd.obj
 0002:0000bb30       ??_C@_0BI@EOFF@?$CK?$CK?$CK?5GetCaps?5failed?5?$CK?$CK?$CK?6?$AA@ 00606b30     win_snd.obj
 0002:0000bb4c       ??_C@_0CC@PEIC@?$CK?$CK?$CK?5Looped?5sound?5play?5failed?5?$CK?$CK?$CK@ 00606b4c     win_snd.obj
 0002:0000bb74       ??_C@_0BJ@FBKM@forced?5to?5software?4?5?5ok?6?$AA@ 00606b74     win_snd.obj
 0002:0000bb94       ??_C@_0BG@GEIK@locked?5hardware?4?5?5ok?6?$AA@ 00606b94     win_snd.obj
 0002:0000bbb0       ??_C@_0BP@EBHA@?4?4?4creating?5secondary?5buffer?3?5?$AA@ 00606bb0     win_snd.obj
 0002:0000bbd8       ??_C@_0CH@BPMA@?4?4?4setting?5DSSCL_PRIORITY?5coop?5l@ 00606bd8     win_snd.obj
 0002:0000bc08       ??_C@_03BJGB@ok?6?$AA@     00606c08     win_snd.obj
 0002:0000bc0c       ??_C@_07MNBK@failed?6?$AA@ 00606c0c     win_snd.obj
 0002:0000bc18       ??_C@_0BK@JBKA@Initializing?5DirectSound?6?$AA@ 00606c18     win_snd.obj
 0002:0000bc38       ??_C@_0DD@OOIA@SNDDMA_BeginPainting?3?5Lock?5faile@ 00606c38     win_snd.obj
 0002:0000bc78       ??_C@_0CC@PILE@Couldn?8t?5get?5sound?5buffer?5status@ 00606c78     win_snd.obj
 0002:0000bca0       ??_C@_0BG@MDBD@DSERR_PRIOLEVELNEEDED?$AA@ 00606ca0     win_snd.obj
 0002:0000bcbc       ??_C@_0BD@JMDM@DSERR_INVALIDPARAM?$AA@ 00606cbc     win_snd.obj
 0002:0000bcd4       ??_C@_0BD@NIEA@DSERR_INVALIDCALLS?$AA@ 00606cd4     win_snd.obj
 0002:0000bcec       ??_C@_0BB@MLJO@DSERR_BUFFERLOST?$AA@ 00606cec     win_snd.obj
 0002:0000bd00       ??_C@_0CC@KKHK@sound?5SetCooperativeLevel?5failed@ 00606d00     win_snd.obj
 0002:0000bd28       ??_C@_04MNLL@copy?$AA@     00606d28     win_syscon.obj
 0002:0000bd30       ??_C@_06LPKL@button?$AA@   00606d30     win_syscon.obj
 0002:0000bd38       ??_C@_04OJPN@edit?$AA@     00606d38     win_syscon.obj
 0002:0000bd40       ??_C@_0M@HLIB@Courier?5New?$AA@ 00606d40     win_syscon.obj
 0002:0000bd50       ??_C@_0BA@OOGC@Quake?53?5Console?$AA@ 00606d50     win_syscon.obj
 0002:0000bd64       ??_C@_0O@GAF@Q3?5WinConsole?$AA@ 00606d64     win_syscon.obj
 0002:0000bd74       ??_C@_0CN@HOOK@Invalid?5visLevel?5?$CFd?5sent?5to?5Sys_@ 00606d74     win_syscon.obj
 0002:0000bdac       ??_C@_06BGJL@static?$AA@   00606dac     win_syscon.obj
 0002:0000bdb4       ??_C@_0N@HKPM@vid_restart?6?$AA@ 00606db4     win_wndproc.obj
 0002:0000bdc4       ??_C@_0BA@CLBL@MSWHEEL_ROLLMSG?$AA@ 00606dc4     win_wndproc.obj
 0002:0000bdd8       ??_C@_08LJOP@vid_ypos?$AA@ 00606dd8     win_wndproc.obj
 0002:0000bde4       ??_C@_08JMLN@vid_xpos?$AA@ 00606de4     win_wndproc.obj
 0002:0000bdf0       ??_C@_0BF@EHLA@VID_AppActivate?3?5?$CFi?6?$AA@ 00606df0     win_wndproc.obj
 0002:0000be0c       ??_C@_0CH@GNNM@?$CFs?3?5invalid?5client?5number?5?$CFd?0?5?$FL0@ 00606e0c     botlib:be_interface.obj
 0002:0000be34       ??_C@_0CH@DFDK@?$CFs?3?5invalid?5entity?5number?5?$CFd?0?5?$FL0@ 00606e34     botlib:be_interface.obj
 0002:0000be5c       ??_C@_0CJ@PCMO@?$CFs?3?5bot?5library?5used?5before?5bein@ 00606e5c     botlib:be_interface.obj
 0002:0000be88       ??_C@_0M@NLOP@maxentities?$AA@ 00606e88     botlib:be_interface.obj
 0002:0000be94       ??_C@_04HKOM@1024?$AA@     00606e94     botlib:be_interface.obj
 0002:0000be9c       ??_C@_0L@IGMM@maxclients?$AA@ 00606e9c     botlib:be_interface.obj
 0002:0000bea8       ??_C@_03MCP@128?$AA@       00606ea8     botlib:be_interface.obj
 0002:0000beac       ??_C@_0CH@CNPP@?9?9?9?9?9?9?9?5BotLib?5Initialization?5?9?9@ 00606eac     botlib:be_interface.obj
 0002:0000bed4       ??_C@_0L@GEGO@botlib?4log?$AA@ 00606ed4     botlib:be_interface.obj
 0002:0000bee0       ??_C@_0P@HIBO@BotLibShutdown?$AA@ 00606ee0     botlib:be_interface.obj
 0002:0000bef0       ??_C@_0O@FDJG@BotStartFrame?$AA@ 00606ef0     botlib:be_interface.obj
 0002:0000bf00       ??_C@_0BH@KEIF@map?5loaded?5in?5?$CFd?5msec?6?$AA@ 00606f00     botlib:be_interface.obj
 0002:0000bf18       ??_C@_0CH@OFFJ@?9?9?9?9?9?9?9?9?9?9?9?9?9?9?9?9?9?9?9?9?9?9?9?9?9?9?9?9?9?9?9?9@ 00606f18     botlib:be_interface.obj
 0002:0000bf40       ??_C@_0CH@ODID@?9?9?9?9?9?9?9?9?9?9?9?9?5Map?5Loading?5?9?9?9?9?9?9?9@ 00606f40     botlib:be_interface.obj
 0002:0000bf68       ??_C@_0L@MJHA@BotLoadMap?$AA@ 00606f68     botlib:be_interface.obj
 0002:0000bf74       ??_C@_0BA@IDHK@BotUpdateEntity?$AA@ 00606f74     botlib:be_interface.obj
 0002:0000bf84       __real@4@4008c800000000000000 00606f84     botlib:be_interface.obj
 0002:0000bf88       __real@4@4003c000000000000000 00606f88     botlib:be_interface.obj
 0002:0000bf8c       ??_C@_0CE@GCJP@new?5goal?5?$CF2?41f?5?$CF2?41f?5?$CF2?41f?5area?5@ 00606f8c     botlib:be_interface.obj
 0002:0000bfb0       ??_C@_09CIPB@bot_flood?$AA@ 00606fb0     botlib:be_interface.obj
 0002:0000bfbc       ??_C@_0BP@FOFA@travel?5time?5to?5goal?5?$CI?$CFd?$CJ?5?$DN?5?$CFd?6?$AA@ 00606fbc     botlib:be_interface.obj
 0002:0000bfdc       ??_C@_05EAJN@empty?$AA@    00606fdc     botlib:be_interface.obj
 0002:0000bfe4       ??_C@_07LFIP@mover?5?$CG?$AA@ 00606fe4     botlib:be_interface.obj
 0002:0000bfec       ??_C@_0P@IOKN@do?5not?5enter?5?$CG?$AA@ 00606fec     botlib:be_interface.obj
 0002:0000bffc       ??_C@_0O@DKIH@view?5portal?5?$CG?$AA@ 00606ffc     botlib:be_interface.obj
 0002:0000c00c       ??_C@_0BB@GHI@cluster?5portal?5?$CG?$AA@ 0060700c     botlib:be_interface.obj
 0002:0000c020       ??_C@_0L@HDGH@jump?5pad?5?$CG?$AA@ 00607020     botlib:be_interface.obj
 0002:0000c02c       ??_C@_07KHPL@slime?5?$CG?$AA@ 0060702c     botlib:be_interface.obj
 0002:0000c034       ??_C@_06BDPE@lava?5?$CG?$AA@ 00607034     botlib:be_interface.obj
 0002:0000c03c       ??_C@_07OFNI@water?5?$CG?$AA@ 0060703c     botlib:be_interface.obj
 0002:0000c044       ??_C@_0BA@LBCD@area?5contents?3?5?$AA@ 00607044     botlib:be_interface.obj
 0002:0000c054       ??_C@_0CL@LEKH@new?5area?5?$CFd?0?5cluster?5?$CFd?0?5presenc@ 00607054     botlib:be_interface.obj
 0002:0000c080       ??_C@_0BF@NCJA@origin?5?$DN?5?$CFf?0?5?$CFf?0?5?$CFf?6?$AA@ 00607080     botlib:be_interface.obj
 0002:0000c098       ??_C@_0CB@JHBG@?$ANtravel?5time?5to?5goal?5?$CI?$CFd?$CJ?5?$DN?5?$CFd?5?5@ 00607098     botlib:be_interface.obj
 0002:0000c0bc       ??_C@_0DE@NOHC@Mismatched?5BOTLIB_API_VERSION?3?5e@ 006070bc     botlib:be_interface.obj
 0002:0000c0f0       ??_C@_0BA@IKGA@botimport?4Print?$AA@ 006070f0     botlib:be_interface.obj
 0002:0000c100       ??_C@_06EGIC@import?$AA@   00607100     botlib:be_interface.obj
 0002:0000c108       ??_C@_0DO@IAAA@g?3?2trep?9engine?2q3nocd?2quake3?91?43@ 00607108     botlib:be_interface.obj
 0002:0000c148       ??_C@_0BH@NKHD@invalid?5move?5state?5?$CFd?6?$AA@ 00607148     botlib:be_ai_move.obj
 0002:0000c160       ??_C@_0CD@OKCP@move?5state?5handle?5?$CFd?5out?5of?5rang@ 00607160     botlib:be_ai_move.obj
 0002:0000c188       __real@8@c006b400000000000000 00607188     botlib:be_ai_move.obj
 0002:0000c190       __real@4@c000c000000000000000 00607190     botlib:be_ai_move.obj
 0002:0000c194       __real@4@4004c000000000000000 00607194     botlib:be_ai_move.obj
 0002:0000c198       ??_C@_0BJ@KEIG@no?5entity?5with?5model?5?$CFd?6?$AA@ 00607198     botlib:be_ai_move.obj
 0002:0000c1b4       ??_C@_0M@LMAL@func_static?$AA@ 006071b4     botlib:be_ai_move.obj
 0002:0000c1c0       ??_C@_09HMCI@func_door?$AA@ 006071c0     botlib:be_ai_move.obj
 0002:0000c1cc       ??_C@_09HHKD@func_plat?$AA@ 006071cc     botlib:be_ai_move.obj
 0002:0000c1d8       ??_C@_0N@BKKD@func_bobbing?$AA@ 006071d8     botlib:be_ai_move.obj
 0002:0000c1e8       ??_C@_0CF@JIGE@entity?5?$CFs?5model?5number?5out?5of?5ra@ 006071e8     botlib:be_ai_move.obj
 0002:0000c210       ??_C@_09JDJH@classname?$AA@ 00607210     botlib:be_ai_move.obj
 0002:0000c21c       ??_C@_0BK@KCI@avoiding?5reachability?5?$CFd?6?$AA@ 0060721c     botlib:be_ai_move.obj
 0002:0000c238       __real@4@4003a000000000000000 00607238     botlib:be_ai_move.obj
 0002:0000c23c       __real@4@4004f000000000000000 0060723c     botlib:be_ai_move.obj
 0002:0000c240       __real@4@4004c800000000000000 00607240     botlib:be_ai_move.obj
 0002:0000c244       __real@4@4002a000000000000000 00607244     botlib:be_ai_move.obj
 0002:0000c248       __real@8@3ffeb333333333333000 00607248     botlib:be_ai_move.obj
 0002:0000c250       __real@4@4007c800000000000000 00607250     botlib:be_ai_move.obj
 0002:0000c254       __real@4@4006c800000000000000 00607254     botlib:be_ai_move.obj
 0002:0000c258       __real@4@4001c000000000000000 00607258     botlib:be_ai_move.obj
 0002:0000c25c       __real@4@40029000000000000000 0060725c     botlib:be_ai_move.obj
 0002:0000c260       __real@4@4006fa00000000000000 00607260     botlib:be_ai_move.obj
 0002:0000c264       __real@4@4004a000000000000000 00607264     botlib:be_ai_move.obj
 0002:0000c268       __real@8@4002f000000000000000 00607268     botlib:be_ai_move.obj
 0002:0000c270       __real@8@4004a000000000000000 00607270     botlib:be_ai_move.obj
 0002:0000c278       __real@8@40058c00000000000000 00607278     botlib:be_ai_move.obj
 0002:0000c280       __real@8@4002a000000000000000 00607280     botlib:be_ai_move.obj
 0002:0000c288       __real@4@40058000000000000000 00607288     botlib:be_ai_move.obj
 0002:0000c28c       __real@4@4002d000000000000000 0060728c     botlib:be_ai_move.obj
 0002:0000c290       __real@8@bffeccccccccccccd000 00607290     botlib:be_ai_move.obj
 0002:0000c298       __real@8@bffe8000000000000000 00607298     botlib:be_ai_move.obj
 0002:0000c2a0       __real@4@4003f000000000000000 006072a0     botlib:be_ai_move.obj
 0002:0000c2a4       ??_C@_0CN@HDBF@BotFuncBobStartEnd?3?5no?5entity?5wi@ 006072a4     botlib:be_ai_move.obj
 0002:0000c2d4       __real@4@40079600000000000000 006072d4     botlib:be_ai_move.obj
 0002:0000c2d8       __real@4@40058c00000000000000 006072d8     botlib:be_ai_move.obj
 0002:0000c2e0       __real@8@40008000000000000000 006072e0     botlib:be_ai_move.obj
 0002:0000c2e8       __real@8@3ffdccccccccccccd000 006072e8     botlib:be_ai_move.obj
 0002:0000c2f0       __real@8@4001a000000000000000 006072f0     botlib:be_ai_move.obj
 0002:0000c2f8       ??_C@_0CE@EPDC@travel?5type?5?$CFd?5not?5implemented?5y@ 006072f8     botlib:be_ai_move.obj
 0002:0000c31c       ??_C@_0CH@LGHM@client?5?$CFd?3?5movement?5failure?5in?5f@ 0060731c     botlib:be_ai_move.obj
 0002:0000c344       ??_C@_0CL@HJLM@?$CIlast?$CJ?5travel?5type?5?$CFd?5not?5implem@ 00607344     botlib:be_ai_move.obj
 0002:0000c370       ??_C@_0CM@GGNI@client?5?$CFd?5didn?8t?5find?5jumppad?5re@ 00607370     botlib:be_ai_move.obj
 0002:0000c39c       ??_C@_0CA@DHGP@client?5?$CFd?3?5movement?5failure?5in?5?$AA@ 0060739c     botlib:be_ai_move.obj
 0002:0000c3bc       ??_C@_0CI@BNAN@same?5goal?0?5going?5back?5to?5previou@ 006073bc     botlib:be_ai_move.obj
 0002:0000c3e4       ??_C@_0BE@MABD@goal?5not?5reachable?6?$AA@ 006073e4     botlib:be_ai_move.obj
 0002:0000c3f8       ??_C@_0BJ@DCPI@area?5?$CFd?5no?5reachability?6?$AA@ 006073f8     botlib:be_ai_move.obj
 0002:0000c414       ??_C@_0CE@JJPG@client?5?$CFd?3?5reachability?5timeout?5@ 00607414     botlib:be_ai_move.obj
 0002:0000c438       ??_C@_0DB@JBOO@client?5?$CFd?3?5on?5func_bobbing?5witho@ 00607438     botlib:be_ai_move.obj
 0002:0000c46c       ??_C@_0CO@NBHF@client?5?$CFd?3?5on?5func_plat?5without?5@ 0060746c     botlib:be_ai_move.obj
 0002:0000c49c       ??_C@_0CC@OEFO@client?5?$CFd?3?5movetogoal?5?9?$DO?5no?5goal@ 0060749c     botlib:be_ai_move.obj
 0002:0000c4c0       ??_C@_0P@EEH@cmd_grappleoff?$AA@ 006074c0     botlib:be_ai_move.obj
 0002:0000c4d0       ??_C@_0L@KJDF@grappleoff?$AA@ 006074d0     botlib:be_ai_move.obj
 0002:0000c4dc       ??_C@_0O@EBKD@cmd_grappleon?$AA@ 006074dc     botlib:be_ai_move.obj
 0002:0000c4ec       ??_C@_09DDOI@grappleon?$AA@ 006074ec     botlib:be_ai_move.obj
 0002:0000c4f8       ??_C@_0P@JIIB@offhandgrapple?$AA@ 006074f8     botlib:be_ai_move.obj
 0002:0000c508       ??_C@_0BC@CCIL@entitytypemissile?$AA@ 00607508     botlib:be_ai_move.obj
 0002:0000c51c       ??_C@_0BC@ION@weapindex_grapple?$AA@ 0060751c     botlib:be_ai_move.obj
 0002:0000c530       ??_C@_0BB@LAMP@weapindex_bfg10k?$AA@ 00607530     botlib:be_ai_move.obj
 0002:0000c544       ??_C@_01FLP@9?$AA@         00607544     botlib:be_ai_move.obj
 0002:0000c548       ??_C@_0BJ@MDGK@weapindex_rocketlauncher?$AA@ 00607548     botlib:be_ai_move.obj
 0002:0000c564       ??_C@_0L@GIJ@sv_gravity?$AA@ 00607564     botlib:be_ai_move.obj
 0002:0000c570       ??_C@_0O@MOFF@sv_maxbarrier?$AA@ 00607570     botlib:be_ai_move.obj
 0002:0000c580       ??_C@_07HLNO@sv_step?$AA@  00607580     botlib:be_ai_move.obj
 0002:0000c588       ??_C@_02GHJ@18?$AA@        00607588     botlib:be_ai_move.obj
 0002:0000c58c       ??_C@_0BH@DCFA@invalid?5chat?5state?5?$CFd?6?$AA@ 0060758c     botlib:be_ai_chat.obj
 0002:0000c5a4       ??_C@_0CD@GNOE@chat?5state?5handle?5?$CFd?5out?5of?5rang@ 006075a4     botlib:be_ai_chat.obj
 0002:0000c5c8       ??_C@_0N@CIIK@max_messages?$AA@ 006075c8     botlib:be_ai_chat.obj
 0002:0000c5d8       ??_C@_0BM@NCHB@empty?5console?5message?5heap?6?$AA@ 006075d8     botlib:be_ai_chat.obj
 0002:0000c5f4       ??_C@_02DIMO@?$FN?6?$AA@   006075f4     botlib:be_ai_chat.obj
 0002:0000c5f8       ??_C@_02GIEM@?0?5?$AA@     006075f8     botlib:be_ai_chat.obj
 0002:0000c5fc       ??_C@_0O@CDAP@?$CI?$CC?$CFs?$CC?0?5?$CF1?42f?$CJ?$AA@ 006075fc     botlib:be_ai_chat.obj
 0002:0000c60c       ??_C@_07GDBG@?$CFld?5?3?5?$FL?$AA@ 0060760c     botlib:be_ai_chat.obj
 0002:0000c614       ??_C@_0L@LAO@loaded?5?$CFs?6?$AA@ 00607614     botlib:be_ai_chat.obj
 0002:0000c620       ??_C@_09NBPI@missing?5?$HN?$AA@ 00607620     botlib:be_ai_chat.obj
 0002:0000c62c       ??_C@_0O@PJGC@unexpected?5?$CFs?$AA@ 0060762c     botlib:be_ai_chat.obj
 0002:0000c63c       ??_C@_0CI@FGBB@synonym?5must?5have?5at?5least?5two?5e@ 0060763c     botlib:be_ai_chat.obj
 0002:0000c664       ??_C@_01FIMD@?$FN?$AA@     00607664     botlib:be_ai_chat.obj
 0002:0000c668       ??_C@_01KMAE@?0?$AA@       00607668     botlib:be_ai_chat.obj
 0002:0000c66c       ??_C@_0N@OCIB@empty?5string?$AA@ 0060766c     botlib:be_ai_chat.obj
 0002:0000c67c       ??_C@_01KHLB@?$FL?$AA@     0060767c     botlib:be_ai_chat.obj
 0002:0000c680       ??_C@_0L@MHLE@too?5many?5?$HN?$AA@ 00607680     botlib:be_ai_chat.obj
 0002:0000c68c       ??_C@_01KCD@?$HN?$AA@      0060768c     botlib:be_ai_chat.obj
 0002:0000c690       ??_C@_01PFFB@?$HL?$AA@     00607690     botlib:be_ai_chat.obj
 0002:0000c694       ??_C@_0BM@BFCJ@more?5than?532?5context?5levels?$AA@ 00607694     botlib:be_ai_chat.obj
 0002:0000c6b0       ??_C@_0BD@BIEP@counldn?8t?5load?5?$CFs?6?$AA@ 006076b0     botlib:be_ai_chat.obj
 0002:0000c6c4       ??_C@_08DFJG@botfiles?$AA@ 006076c4     botlib:be_ai_chat.obj
 0002:0000c6d0       ??_C@_01FAJB@?$DL?$AA@     006076d0     botlib:be_ai_chat.obj
 0002:0000c6d4       ??_C@_0BO@LPC@unknown?5message?5component?5?$CFs?6?$AA@ 006076d4     botlib:be_ai_chat.obj
 0002:0000c6f4       ??_C@_07PAMG@?$CFcr?$CFs?$CFc?$AA@ 006076f4     botlib:be_ai_chat.obj
 0002:0000c6fc       ??_C@_08OJAA@?$CFcv?$CFld?$CFc?$AA@ 006076fc     botlib:be_ai_chat.obj
 0002:0000c708       ??_C@_0BH@DPJL@chat?5message?5too?5long?6?$AA@ 00607708     botlib:be_ai_chat.obj
 0002:0000c720       ??_C@_02ONJM@?$HN?6?$AA@   00607720     botlib:be_ai_chat.obj
 0002:0000c724       ??_C@_04JBBA@?$CC?$CFs?$CC?$AA@ 00607724     botlib:be_ai_chat.obj
 0002:0000c72c       ??_C@_06PLOH@?$CFs?5?$DN?5?$HL?$AA@ 0060772c     botlib:be_ai_chat.obj
 0002:0000c734       ??_C@_0BI@DPCB@random?5strings?5?$CFd?5msec?6?$AA@ 00607734     botlib:be_ai_chat.obj
 0002:0000c74c       ??_C@_0BC@EIMC@unknown?5random?5?$CFs?$AA@ 0060774c     botlib:be_ai_chat.obj
 0002:0000c760       ??_C@_0P@INEK@?5?$DN?5?$CI?$CFd?0?5?$CFd?$CJ?$DL?$HN?6?$AA@ 00607760     botlib:be_ai_chat.obj
 0002:0000c770       ??_C@_01KALE@?$HM?$AA@     00607770     botlib:be_ai_chat.obj
 0002:0000c774       ??_C@_02MJBF@?$HL?5?$AA@   00607774     botlib:be_ai_chat.obj
 0002:0000c778       ??_C@_0BC@FOLC@invalid?5token?5?$CFs?6?$AA@ 00607778     botlib:be_ai_chat.obj
 0002:0000c78c       ??_C@_0CI@ONLC@not?5allowed?5to?5have?5adjacent?5var@ 0060778c     botlib:be_ai_chat.obj
 0002:0000c7b4       ??_C@_0CJ@HNCC@can?8t?5have?5more?5than?5?$CFd?5match?5va@ 006077b4     botlib:be_ai_chat.obj
 0002:0000c7e0       ??_C@_0BM@DNJN@expected?5integer?0?5found?5?$CFs?6?$AA@ 006077e0     botlib:be_ai_chat.obj
 0002:0000c7fc       ??_C@_0CL@IDCC@match?9?$DOvariables?$FLlastvariable?$FN?4o@ 006077fc     botlib:be_ai_chat.obj
 0002:0000c828       ??_C@_0DM@KNFM@g?3?2trep?9engine?2q3nocd?2quake3?91?43@ 00607828     botlib:be_ai_chat.obj
 0002:0000c864       ??_C@_0CH@NGHA@match?9?$DOvariables?$FLvariable?$FN?4offse@ 00607864     botlib:be_ai_chat.obj
 0002:0000c88c       ??_C@_0CJ@LPEF@BotMatchVariable?3?5variable?5out?5o@ 0060788c     botlib:be_ai_chat.obj
 0002:0000c8b8       ??_C@_0EA@LCEA@BotCheckChatMessageIntegrety?3?5me@ 006078b8     botlib:be_ai_chat.obj
 0002:0000c8f8       ??_C@_0BP@POLM@?$CFs?5?$DN?5?$HL?$CC?$CFs?$CC?$HN?5?1?1MISSING?5RANDOM?$AN?6?$AA@ 006078f8     botlib:be_ai_chat.obj
 0002:0000c918       ??_C@_07PDEI@?7?$CC?$CFs?$CC?$DL?6?$AA@ 00607918     botlib:be_ai_chat.obj
 0002:0000c920       ??_C@_02JKGD@?$HL?6?$AA@   00607920     botlib:be_ai_chat.obj
 0002:0000c924       ??_C@_0L@BDOE@?$FN?5?$DN?5?$CF1?40f?6?$AA@ 00607924     botlib:be_ai_chat.obj
 0002:0000c930       ??_C@_02CIAF@it?$AA@       00607930     botlib:be_ai_chat.obj
 0002:0000c934       ??_C@_06BKEF@female?$AA@   00607934     botlib:be_ai_chat.obj
 0002:0000c93c       ??_C@_01PIHH@?$CB?$AA@     0060793c     botlib:be_ai_chat.obj
 0002:0000c940       ??_C@_01KNJC@?$CG?$AA@     00607940     botlib:be_ai_chat.obj
 0002:0000c944       ??_C@_0BD@LHFF@BotDumpReplyChat?3?6?$AA@ 00607944     botlib:be_ai_chat.obj
 0002:0000c958       ??_C@_0FP@INBN@variables?5from?5the?5match?5templat@ 00607958     botlib:be_ai_chat.obj
 0002:0000c9b8       ??_C@_0BO@O@all?5keys?5have?5a?5?$CG?5or?5?$CB?5prefix?$AA@ 006079b8     botlib:be_ai_chat.obj
 0002:0000c9d8       ??_C@_0EA@BBFC@the?5key?5?$CFs?5with?5prefix?5?$CB?5is?5insi@ 006079d8     botlib:be_ai_chat.obj
 0002:0000ca18       ??_C@_0CO@DGJJ@the?5key?5?$CFs?5with?5prefix?5?$CB?5is?5insi@ 00607a18     botlib:be_ai_chat.obj
 0002:0000ca48       ??_C@_0FB@POFA@one?5of?5the?5match?5templates?5does?5@ 00607a48     botlib:be_ai_chat.obj
 0002:0000ca9c       ??_C@_0L@CCFI@no?5rchats?6?$AA@ 00607a9c     botlib:be_ai_chat.obj
 0002:0000caa8       ??_C@_01FAFK@?$DO?$AA@     00607aa8     botlib:be_ai_chat.obj
 0002:0000caac       ??_C@_01FHE@?$DM?$AA@      00607aac     botlib:be_ai_chat.obj
 0002:0000cab0       ??_C@_0BF@JFEJ@expected?5?$FL?0?5found?5?$CFs?$AA@ 00607ab0     botlib:be_ai_chat.obj
 0002:0000cac8       ??_C@_02NPHB@?5?$HN?$AA@   00607ac8     botlib:be_ai_chat.obj
 0002:0000cacc       ??_C@_06CBLO@?5?5?$CC?$CFs?$CC?$AA@ 00607acc     botlib:be_ai_chat.obj
 0002:0000cad4       ??_C@_0BH@JHOG@?5?5numchatmessages?5?$DN?5?$CFd?$AA@ 00607ad4     botlib:be_ai_chat.obj
 0002:0000caec       ??_C@_02CAAD@?5?$HL?$AA@   00607aec     botlib:be_ai_chat.obj
 0002:0000caf0       ??_C@_0L@JPDA@?5type?5?$CC?$CFs?$CC?$AA@ 00607af0     botlib:be_ai_chat.obj
 0002:0000cafc       ??_C@_0CB@KPJC@initial?5chats?5loaded?5in?5?$CFd?5msec?6@ 00607afc     botlib:be_ai_chat.obj
 0002:0000cb20       ??_C@_0BD@NNJB@loaded?5?$CFs?5from?5?$CFs?6?$AA@ 00607b20     botlib:be_ai_chat.obj
 0002:0000cb34       ??_C@_0BN@PM@couldn?8t?5find?5chat?5?$CFs?5in?5?$CFs?6?$AA@ 00607b34     botlib:be_ai_chat.obj
 0002:0000cb54       ??_C@_0BH@GDBB@unknown?5definition?5?$CFs?6?$AA@ 00607b54     botlib:be_ai_chat.obj
 0002:0000cb6c       ??_C@_0BI@MDDI@expected?5type?5found?5?$CFs?6?$AA@ 00607b6c     botlib:be_ai_chat.obj
 0002:0000cb84       ??_C@_04PIKN@type?$AA@     00607b84     botlib:be_ai_chat.obj
 0002:0000cb8c       ??_C@_04FLKK@chat?$AA@     00607b8c     botlib:be_ai_chat.obj
 0002:0000cb94       ??_C@_0BP@PPAO@couldn?8t?5load?5chat?5?$CFs?5from?5?$CFs?6?$AA@ 00607b94     botlib:be_ai_chat.obj
 0002:0000cbb4       ??_C@_0DF@KODI@ichatdata?5table?5full?$DL?5couldn?8t?5l@ 00607bb4     botlib:be_ai_chat.obj
 0002:0000cbec       ??_C@_0DE@IMLO@BotConstructChat?3?5message?5?$CC?$CFs?$CC?5i@ 00607bec     botlib:be_ai_chat.obj
 0002:0000cc20       ??_C@_0CJ@PHDO@BotConstructChat?3?5message?5?$CC?$CFs?$CC?5t@ 00607c20     botlib:be_ai_chat.obj
 0002:0000cc4c       ??_C@_0CM@CIEL@BotConstructChat?3?5unknown?5random@ 00607c4c     botlib:be_ai_chat.obj
 0002:0000cc78       ??_C@_0CH@JLJP@BotConstructChat?3?5message?5?$CFs?5too@ 00607c78     botlib:be_ai_chat.obj
 0002:0000cca0       ??_C@_0CC@IGNI@match?9?$DOvariables?$FLnum?$FN?4offset?5?$DO?$DN?5@ 00607ca0     botlib:be_ai_chat.obj
 0002:0000ccc4       ??_C@_0DH@DLPB@BotConstructChat?3?5message?5?$CFs?5var@ 00607cc4     botlib:be_ai_chat.obj
 0002:0000ccfc       ??_C@_0CF@DD@too?5many?5expansions?5in?5chat?5mess@ 00607cfc     botlib:be_ai_chat.obj
 0002:0000cd24       ??_C@_0BF@BHKK@?9?9?9?9?9?9?9?9?9?9?9?9?9?9?9?9?9?9?9?6?$AA@ 00607d24     botlib:be_ai_chat.obj
 0002:0000cd3c       ??_C@_0BG@BNKL@?$CFs?5has?5?$CFd?5chat?5lines?6?$AA@ 00607d3c     botlib:be_ai_chat.obj
 0002:0000cd54       ??_C@_0BN@IBGO@no?5chat?5messages?5of?5type?5?$CFs?6?$AA@ 00607d54     botlib:be_ai_chat.obj
 0002:0000cd74       ??_C@_06ELHO@say?5?$CFs?$AA@ 00607d74     botlib:be_ai_chat.obj
 0002:0000cd7c       ??_C@_0L@IMPB@tell?5?$CFd?5?$CFs?$AA@ 00607d7c     botlib:be_ai_chat.obj
 0002:0000cd88       ??_C@_0M@HFAM@say_team?5?$CFs?$AA@ 00607d88     botlib:be_ai_chat.obj
 0002:0000cd94       ??_C@_0BH@HBEA@setup?5chat?5AI?5?$CFd?5msec?6?$AA@ 00607d94     botlib:be_ai_chat.obj
 0002:0000cdac       ??_C@_09CLOP@rchatfile?$AA@ 00607dac     botlib:be_ai_chat.obj
 0002:0000cdb8       ??_C@_07MHCO@rchat?4c?$AA@ 00607db8     botlib:be_ai_chat.obj
 0002:0000cdc0       ??_C@_06DLEI@nochat?$AA@   00607dc0     botlib:be_ai_chat.obj
 0002:0000cdc8       ??_C@_09ENIC@matchfile?$AA@ 00607dc8     botlib:be_ai_chat.obj
 0002:0000cdd4       ??_C@_07IILK@match?4c?$AA@ 00607dd4     botlib:be_ai_chat.obj
 0002:0000cddc       ??_C@_07BBP@rndfile?$AA@   00607ddc     botlib:be_ai_chat.obj
 0002:0000cde4       ??_C@_05NEBP@rnd?4c?$AA@   00607de4     botlib:be_ai_chat.obj
 0002:0000cdec       ??_C@_07NMII@synfile?$AA@  00607dec     botlib:be_ai_chat.obj
 0002:0000cdf4       ??_C@_05OPDN@syn?4c?$AA@   00607df4     botlib:be_ai_chat.obj
 0002:0000cdfc       ??_C@_04PAMH@maxs?$AA@     00607dfc     botlib:be_ai_goal.obj
 0002:0000ce04       ??_C@_04HNCE@mins?$AA@     00607e04     botlib:be_ai_goal.obj
 0002:0000ce0c       ??_C@_0M@LDCG@respawntime?$AA@ 00607e0c     botlib:be_ai_goal.obj
 0002:0000ce18       ??_C@_05BBHA@index?$AA@    00607e18     botlib:be_ai_goal.obj
 0002:0000ce20       ??_C@_0BH@PJJG@invalid?5goal?5state?5?$CFd?6?$AA@ 00607e20     botlib:be_ai_goal.obj
 0002:0000ce38       ??_C@_0CD@PMCK@goal?5state?5handle?5?$CFd?5out?5of?5rang@ 00607e38     botlib:be_ai_goal.obj
 0002:0000ce5c       ??_C@_0BF@GCCM@no?5item?5info?5loaded?6?$AA@ 00607e5c     botlib:be_ai_goal.obj
 0002:0000ce74       ??_C@_0CA@BKCG@more?5than?5?$CFd?5item?5info?5defined?6?$AA@ 00607e74     botlib:be_ai_goal.obj
 0002:0000ce94       ??_C@_08KEHJ@iteminfo?$AA@ 00607e94     botlib:be_ai_goal.obj
 0002:0000cea0       ??_C@_0BD@DICL@max_iteminfo?5?$DN?5?$CFd?6?$AA@ 00607ea0     botlib:be_ai_goal.obj
 0002:0000ceb4       ??_C@_0N@KPMF@max_iteminfo?$AA@ 00607eb4     botlib:be_ai_goal.obj
 0002:0000cec4       ??_C@_03DAIL@256?$AA@      00607ec4     botlib:be_ai_goal.obj
 0002:0000cec8       ??_C@_0CI@GHHI@item?5info?5?$CFd?5?$CC?$CFs?$CC?5has?5no?5fuzzy?5w@ 00607ec8     botlib:be_ai_goal.obj
 0002:0000cef0       ??_C@_0P@GPPK@max_levelitems?$AA@ 00607ef0     botlib:be_ai_goal.obj
 0002:0000cf00       ??_C@_0BE@HAGK@out?5of?5level?5items?6?$AA@ 00607f00     botlib:be_ai_goal.obj
 0002:0000cf14       ??_C@_0P@CLEB@?$CFd?5camp?5spots?6?$AA@ 00607f14     botlib:be_ai_goal.obj
 0002:0000cf24       ??_C@_0BC@OPKE@?$CFd?5map?5locations?6?$AA@ 00607f24     botlib:be_ai_goal.obj
 0002:0000cf38       ??_C@_0CJ@PKIB@camp?5spot?5at?5?$CF1?41f?5?$CF1?41f?5?$CF1?41f?5i@ 00607f38     botlib:be_ai_goal.obj
 0002:0000cf64       ??_C@_06IMKP@random?$AA@   00607f64     botlib:be_ai_goal.obj
 0002:0000cf6c       ??_C@_06PFJF@weight?$AA@   00607f6c     botlib:be_ai_goal.obj
 0002:0000cf74       ??_C@_05MGIA@range?$AA@    00607f74     botlib:be_ai_goal.obj
 0002:0000cf7c       ??_C@_09ELFE@info_camp?$AA@ 00607f7c     botlib:be_ai_goal.obj
 0002:0000cf88       ??_C@_07NPGL@message?$AA@  00607f88     botlib:be_ai_goal.obj
 0002:0000cf90       ??_C@_06NOHF@origin?$AA@   00607f90     botlib:be_ai_goal.obj
 0002:0000cf98       ??_C@_0BA@FCBO@target_location?$AA@ 00607f98     botlib:be_ai_goal.obj
 0002:0000cfa8       ??_C@_0BG@EEOD@found?5?$CFd?5level?5items?6?$AA@ 00607fa8     botlib:be_ai_goal.obj
 0002:0000cfc0       ??_C@_0DC@FOCI@?$CFs?5not?5reachable?5for?5bots?5at?5?$CI?$CF1@ 00607fc0     botlib:be_ai_goal.obj
 0002:0000cff4       ??_C@_0CE@MHBD@?$CFs?5in?5solid?5at?5?$CI?$CF1?41f?5?$CF1?41f?5?$CF1?41@ 00607ff4     botlib:be_ai_goal.obj
 0002:0000d018       ??_C@_0N@EBAD@item_botroam?$AA@ 00608018     botlib:be_ai_goal.obj
 0002:0000d028       ??_C@_06GCOE@notbot?$AA@   00608028     botlib:be_ai_goal.obj
 0002:0000d030       ??_C@_09FGLM@notsingle?$AA@ 00608030     botlib:be_ai_goal.obj
 0002:0000d03c       ??_C@_07NLMN@notteam?$AA@  0060803c     botlib:be_ai_goal.obj
 0002:0000d044       ??_C@_07FFFB@notfree?$AA@  00608044     botlib:be_ai_goal.obj
 0002:0000d04c       ??_C@_0CJ@GLHJ@item?5?$CFs?5reachable?5from?5jumppad?5a@ 0060804c     botlib:be_ai_goal.obj
 0002:0000d078       ??_C@_0BI@NDKB@item?5?$CFs?5without?5origin?6?$AA@ 00608078     botlib:be_ai_goal.obj
 0002:0000d090       ??_C@_0BJ@IOLC@entity?5?$CFs?5unknown?5item?$AN?6?$AA@ 00608090     botlib:be_ai_goal.obj
 0002:0000d0ac       ??_C@_0L@CANC@spawnflags?$AA@ 006080ac     botlib:be_ai_goal.obj
 0002:0000d0b8       ??_C@_0BJ@FDDM@item?5?$CFs?5has?5modelindex?50?$AA@ 006080b8     botlib:be_ai_goal.obj
 0002:0000d0d4       ??_C@_0CI@DBJO@avoid?5goal?5?$CFs?0?5number?5?$CFd?5for?5?$CFf?5@ 006080d4     botlib:be_ai_goal.obj
 0002:0000d0fc       ??_C@_0BM@JGMH@linked?5item?5?$CFs?5to?5an?5entity?$AA@ 006080fc     botlib:be_ai_goal.obj
 0002:0000d118       ??_C@_06BPHG@?$CFd?3?5?$CFs?$AA@ 00608118     botlib:be_ai_goal.obj
 0002:0000d120       ??_C@_0BE@MHBI@goal?5heap?5overflow?6?$AA@ 00608120     botlib:be_ai_goal.obj
 0002:0000d138       __real@8@3ff89374bc6a7ef9d800 00608138     botlib:be_ai_goal.obj
 0002:0000d140       ??_C@_0BH@PIKE@couldn?8t?5load?5weights?6?$AA@ 00608140     botlib:be_ai_goal.obj
 0002:0000d158       ??_C@_0BO@IAIK@invalid?5goal?5state?5handle?5?$CFd?6?$AA@ 00608158     botlib:be_ai_goal.obj
 0002:0000d178       ??_C@_0O@JHKJ@droppedweight?$AA@ 00608178     botlib:be_ai_goal.obj
 0002:0000d188       ??_C@_0BL@COEG@couldn?8t?5load?5item?5config?6?$AA@ 00608188     botlib:be_ai_goal.obj
 0002:0000d1a4       ??_C@_0L@KOEK@itemconfig?$AA@ 006081a4     botlib:be_ai_goal.obj
 0002:0000d1b0       ??_C@_07LLCG@items?4c?$AA@ 006081b0     botlib:be_ai_goal.obj
 0002:0000d1b8       ??_C@_0L@EBLE@bouncestop?$AA@ 006081b8     botlib:be_ai_weap.obj
 0002:0000d1c4       ??_C@_0L@GJMO@bouncefric?$AA@ 006081c4     botlib:be_ai_weap.obj
 0002:0000d1d0       ??_C@_06IIMB@bounce?$AA@   006081d0     botlib:be_ai_weap.obj
 0002:0000d1d8       ??_C@_0L@CMHA@detonation?$AA@ 006081d8     botlib:be_ai_weap.obj
 0002:0000d1e4       ??_C@_04NKIG@push?$AA@     006081e4     botlib:be_ai_weap.obj
 0002:0000d1ec       ??_C@_09DKBJ@healthinc?$AA@ 006081ec     botlib:be_ai_weap.obj
 0002:0000d1f8       ??_C@_0L@LBME@damagetype?$AA@ 006081f8     botlib:be_ai_weap.obj
 0002:0000d204       ??_C@_09KHBC@visdamage?$AA@ 00608204     botlib:be_ai_weap.obj
 0002:0000d210       ??_C@_06JGHA@radius?$AA@   00608210     botlib:be_ai_weap.obj
 0002:0000d218       ??_C@_06DPDL@damage?$AA@   00608218     botlib:be_ai_weap.obj
 0002:0000d220       ??_C@_08EIAJ@spindown?$AA@ 00608220     botlib:be_ai_weap.obj
 0002:0000d22c       ??_C@_06HKPC@spinup?$AA@   0060822c     botlib:be_ai_weap.obj
 0002:0000d234       ??_C@_06BMJE@reload?$AA@   00608234     botlib:be_ai_weap.obj
 0002:0000d23c       ??_C@_08GHDJ@activate?$AA@ 0060823c     botlib:be_ai_weap.obj
 0002:0000d248       ??_C@_09CBHP@ammoindex?$AA@ 00608248     botlib:be_ai_weap.obj
 0002:0000d254       ??_C@_0L@JGBJ@ammoamount?$AA@ 00608254     botlib:be_ai_weap.obj
 0002:0000d260       ??_C@_0P@PEOJ@extrazvelocity?$AA@ 00608260     botlib:be_ai_weap.obj
 0002:0000d270       ??_C@_0M@PECA@angleoffset?$AA@ 00608270     botlib:be_ai_weap.obj
 0002:0000d27c       ??_C@_06KCLD@offset?$AA@   0060827c     botlib:be_ai_weap.obj
 0002:0000d284       ??_C@_06CNFG@recoil?$AA@   00608284     botlib:be_ai_weap.obj
 0002:0000d28c       ??_C@_0N@KPCH@acceleration?$AA@ 0060828c     botlib:be_ai_weap.obj
 0002:0000d29c       ??_C@_07EGOP@vspread?$AA@  0060829c     botlib:be_ai_weap.obj
 0002:0000d2a4       ??_C@_07DMGF@hspread?$AA@  006082a4     botlib:be_ai_weap.obj
 0002:0000d2ac       ??_C@_0P@EBBO@numprojectiles?$AA@ 006082ac     botlib:be_ai_weap.obj
 0002:0000d2bc       ??_C@_0L@MIFP@projectile?$AA@ 006082bc     botlib:be_ai_weap.obj
 0002:0000d2c8       ??_C@_05KGBM@flags?$AA@    006082c8     botlib:be_ai_weap.obj
 0002:0000d2d0       ??_C@_0M@DFLG@weaponindex?$AA@ 006082d0     botlib:be_ai_weap.obj
 0002:0000d2dc       ??_C@_05PCMN@level?$AA@    006082dc     botlib:be_ai_weap.obj
 0002:0000d2e4       ??_C@_06BMEB@number?$AA@   006082e4     botlib:be_ai_weap.obj
 0002:0000d2ec       ??_C@_0BM@CFPD@weapon?5number?5out?5of?5range?6?$AA@ 006082ec     botlib:be_ai_weap.obj
 0002:0000d308       ??_C@_0BH@OEJL@no?5weapon?5info?5loaded?6?$AA@ 00608308     botlib:be_ai_weap.obj
 0002:0000d320       ??_C@_0CL@ODPG@weapon?5?$CFs?5uses?5undefined?5project@ 00608320     botlib:be_ai_weap.obj
 0002:0000d34c       ??_C@_0CD@EHFI@weapon?5?$CFs?5has?5no?5projectile?5in?5?$CF@ 0060834c     botlib:be_ai_weap.obj
 0002:0000d370       ??_C@_0BN@PADO@weapon?5?$CFd?5has?5no?5name?5in?5?$CFs?6?$AA@ 00608370     botlib:be_ai_weap.obj
 0002:0000d390       ??_C@_0BN@LNFM@unknown?5definition?5?$CFs?5in?5?$CFs?6?$AA@ 00608390     botlib:be_ai_weap.obj
 0002:0000d3b0       ??_C@_0CI@ECFL@more?5than?5?$CFd?5projectiles?5defined@ 006083b0     botlib:be_ai_weap.obj
 0002:0000d3d8       ??_C@_0P@BJPB@projectileinfo?$AA@ 006083d8     botlib:be_ai_weap.obj
 0002:0000d3e8       ??_C@_0CK@EAOJ@weapon?5info?5number?5?$CFd?5out?5of?5ran@ 006083e8     botlib:be_ai_weap.obj
 0002:0000d414       ??_C@_0L@HCKD@weaponinfo?$AA@ 00608414     botlib:be_ai_weap.obj
 0002:0000d420       ??_C@_0BJ@EPLO@max_projectileinfo?5?$DN?5?$CFd?6?$AA@ 00608420     botlib:be_ai_weap.obj
 0002:0000d43c       ??_C@_0BD@MPCA@max_projectileinfo?$AA@ 0060843c     botlib:be_ai_weap.obj
 0002:0000d450       ??_C@_0BF@NJPM@max_weaponinfo?5?$DN?5?$CFd?6?$AA@ 00608450     botlib:be_ai_weap.obj
 0002:0000d468       ??_C@_0P@NEDD@max_weaponinfo?$AA@ 00608468     botlib:be_ai_weap.obj
 0002:0000d478       ??_C@_0CA@GAML@couldn?8t?5load?5weapon?5config?5?$CFs?6?$AA@ 00608478     botlib:be_ai_weap.obj
 0002:0000d498       ??_C@_0CB@EKHO@couldn?8t?5load?5the?5weapon?5config?6@ 00608498     botlib:be_ai_weap.obj
 0002:0000d4bc       ??_C@_0N@NBJI@weaponconfig?$AA@ 006084bc     botlib:be_ai_weap.obj
 0002:0000d4cc       ??_C@_09GBAK@weapons?4c?$AA@ 006084cc     botlib:be_ai_weap.obj
 0002:0000d4d8       ??_C@_0M@KAAC@tell?5?$CFd?0?5?$CFs?$AA@ 006084d8     botlib:be_ea.obj
 0002:0000d4e4       ??_C@_06JOFI@use?5?$CFs?$AA@ 006084e4     botlib:be_ea.obj
 0002:0000d4ec       ??_C@_07NNGD@drop?5?$CFs?$AA@ 006084ec     botlib:be_ea.obj
 0002:0000d4f4       ??_C@_09BDEA@invuse?5?$CFs?$AA@ 006084f4     botlib:be_ea.obj
 0002:0000d500       ??_C@_0L@FMOO@invdrop?5?$CFs?$AA@ 00608500     botlib:be_ea.obj
 0002:0000d50c       __real@4@c007c800000000000000 0060850c     botlib:be_ea.obj
 0002:0000d510       ??_C@_0CC@HCKA@?$CFs?3?5reference?5to?5unused?5index?5?$CFd@ 00608510     botlib:be_aas_main.obj
 0002:0000d534       ??_C@_0BL@BGOO@?$CFs?3?5index?5?$CFd?5out?5of?5range?6?$AA@ 00608534     botlib:be_aas_main.obj
 0002:0000d550       ??_C@_0BI@KBMN@?$CFs?3?5index?5?$CFd?5not?5setup?6?$AA@ 00608550     botlib:be_aas_main.obj
 0002:0000d568       ??_C@_0BK@ODOA@?$CFs?3?5index?5not?5setup?5?$CC?$CFs?$CC?6?$AA@ 00608568     botlib:be_aas_main.obj
 0002:0000d584       ??_C@_0P@JJFK@ModelFromIndex?$AA@ 00608584     botlib:be_aas_main.obj
 0002:0000d594       ??_C@_0P@CMLE@IndexFromModel?$AA@ 00608594     botlib:be_aas_main.obj
 0002:0000d5a4       ??_C@_0BC@EHN@AAS?5initialized?4?6?$AA@ 006085a4     botlib:be_aas_main.obj
 0002:0000d5b8       ??_C@_0BD@JNHP@couldn?8t?5write?5?$CFs?6?$AA@ 006085b8     botlib:be_aas_main.obj
 0002:0000d5cc       ??_C@_0BI@CNEK@?$CFs?5written?5succesfully?6?$AA@ 006085cc     botlib:be_aas_main.obj
 0002:0000d5e4       ??_C@_0M@GINN@aasoptimize?$AA@ 006085e4     botlib:be_aas_main.obj
 0002:0000d5f0       ??_C@_0L@JKLN@forcewrite?$AA@ 006085f0     botlib:be_aas_main.obj
 0002:0000d5fc       ??_C@_0BB@BODP@saveroutingcache?$AA@ 006085fc     botlib:be_aas_main.obj
 0002:0000d610       ??_C@_0L@HHKE@memorydump?$AA@ 00608610     botlib:be_aas_main.obj
 0002:0000d61c       ??_C@_0BA@NPHD@showmemoryusage?$AA@ 0060861c     botlib:be_aas_main.obj
 0002:0000d62c       ??_C@_0BB@MMEA@showcacheupdates?$AA@ 0060862c     botlib:be_aas_main.obj
 0002:0000d640       ??_C@_0M@DPEM@maps?1?$CFs?4aas?$AA@ 00608640     botlib:be_aas_main.obj
 0002:0000d64c       ??_C@_0P@IKNE@AAS?5shutdown?4?6?$AA@ 0060864c     botlib:be_aas_main.obj
 0002:0000d65c       ??_C@_0P@CMNE@Opened?5log?5?$CFs?6?$AA@ 0060865c     botlib:l_log.obj
 0002:0000d66c       ??_C@_0BM@JJLM@can?8t?5open?5the?5log?5file?5?$CFs?6?$AA@ 0060866c     botlib:l_log.obj
 0002:0000d688       ??_C@_0BP@ICKO@log?5file?5?$CFs?5is?5already?5opened?6?$AA@ 00608688     botlib:l_log.obj
 0002:0000d6a8       ??_C@_0BE@NEBP@openlog?5?$DMfilename?$DO?6?$AA@ 006086a8     botlib:l_log.obj
 0002:0000d6bc       ??_C@_03BGKD@log?$AA@      006086bc     botlib:l_log.obj
 0002:0000d6c0       ??_C@_0P@HPKP@Closed?5log?5?$CFs?6?$AA@ 006086c0     botlib:l_log.obj
 0002:0000d6d0       ??_C@_0BJ@ONOF@can?8t?5close?5log?5file?5?$CFs?6?$AA@ 006086d0     botlib:l_log.obj
 0002:0000d6ec       ??_C@_02PIMC@?$AN?6?$AA@   006086ec     botlib:l_log.obj
 0002:0000d6f0       ??_C@_0BM@ODGA@?$CFd?5?5?5?$CF02d?3?$CF02d?3?$CF02d?3?$CF02d?5?5?5?$AA@ 006086f0     botlib:l_log.obj
 0002:0000d70c       ??_C@_07LIJI@evalint?$AA@  0060870c     botlib:l_precomp.obj
 0002:0000d714       ??_C@_09KKBO@evalfloat?$AA@ 00608714     botlib:l_precomp.obj
 0002:0000d720       ??_C@_04CECG@eval?$AA@     00608720     botlib:l_precomp.obj
 0002:0000d728       ??_C@_06LAHB@pragma?$AA@   00608728     botlib:l_precomp.obj
 0002:0000d730       ??_C@_04OHE@line?$AA@      00608730     botlib:l_precomp.obj
 0002:0000d738       ??_C@_05JACA@undef?$AA@    00608738     botlib:l_precomp.obj
 0002:0000d740       ??_C@_06MJID@define?$AA@   00608740     botlib:l_precomp.obj
 0002:0000d748       ??_C@_07KDEJ@include?$AA@  00608748     botlib:l_precomp.obj
 0002:0000d750       ??_C@_05HNIL@endif?$AA@    00608750     botlib:l_precomp.obj
 0002:0000d758       ??_C@_04IIAH@else?$AA@     00608758     botlib:l_precomp.obj
 0002:0000d760       ??_C@_04IFBG@elif?$AA@     00608760     botlib:l_precomp.obj
 0002:0000d768       ??_C@_06JGLG@ifndef?$AA@   00608768     botlib:l_precomp.obj
 0002:0000d770       ??_C@_05DJFK@ifdef?$AA@    00608770     botlib:l_precomp.obj
 0002:0000d778       ??_C@_02NEFL@if?$AA@       00608778     botlib:l_precomp.obj
 0002:0000d77c       ??_C@_0BG@CFP@file?5?$CFs?0?5line?5?$CFd?3?5?$CFs?6?$AA@ 0060877c     botlib:l_precomp.obj
 0002:0000d794       ??_C@_0BI@FGPH@?$CFs?5recursively?5included?$AA@ 00608794     botlib:l_precomp.obj
 0002:0000d7ac       ??_C@_0BE@EKFN@out?5of?5token?5space?6?$AA@ 006087ac     botlib:l_precomp.obj
 0002:0000d7c0       ??_C@_0P@LFLM@missing?5?$CDendif?$AA@ 006087c0     botlib:l_precomp.obj
 0002:0000d7d0       ??_C@_0BF@GLKH@too?5few?5define?5parms?$AA@ 006087d0     botlib:l_precomp.obj
 0002:0000d7e8       ??_C@_0BB@GEIF@too?5many?5comma?8s?$AA@ 006087e8     botlib:l_precomp.obj
 0002:0000d7fc       ??_C@_0BF@OLLO@define?5?$CFs?5incomplete?$AA@ 006087fc     botlib:l_precomp.obj
 0002:0000d814       ??_C@_0BN@HPGE@define?5?$CFs?5has?5too?5many?5parms?$AA@ 00608814     botlib:l_precomp.obj
 0002:0000d834       ??_C@_0BO@PHMM@define?5?$CFs?5with?5too?5many?5parms?$AA@ 00608834     botlib:l_precomp.obj
 0002:0000d854       ??_C@_0CE@GFNP@define?5with?5more?5than?5?$CFd?5paramet@ 00608854     botlib:l_precomp.obj
 0002:0000d878       ??_C@_0BI@DAKC@define?5?$CFs?5missing?5parms?$AA@ 00608878     botlib:l_precomp.obj
 0002:0000d890       ??_C@_04OOOG@?$CF4d?3?$AA@ 00608890     botlib:l_precomp.obj
 0002:0000d898       ??_C@_08EFFP@__TIME__?$AA@ 00608898     botlib:l_precomp.obj
 0002:0000d8a4       ??_C@_08EEJE@__DATE__?$AA@ 006088a4     botlib:l_precomp.obj
 0002:0000d8b0       ??_C@_08BBEP@__FILE__?$AA@ 006088b0     botlib:l_precomp.obj
 0002:0000d8bc       ??_C@_08NNKK@__LINE__?$AA@ 006088bc     botlib:l_precomp.obj
 0002:0000d8c8       ??_C@_0BH@BELI@can?8t?5merge?5?$CFs?5with?5?$CFs?$AA@ 006088c8     botlib:l_precomp.obj
 0002:0000d8e0       ??_C@_0CO@HDEI@stringizing?5operator?5without?5def@ 006088e0     botlib:l_precomp.obj
 0002:0000d910       ??_C@_0BH@CNNM@can?8t?5stringize?5tokens?$AA@ 00608910     botlib:l_precomp.obj
 0002:0000d928       ??_C@_0BC@EEIJ@file?5?$CFs?5not?5found?$AA@ 00608928     botlib:l_precomp.obj
 0002:0000d93c       ??_C@_0CH@DPBP@?$CDinclude?5without?5file?5name?5betwe@ 0060893c     botlib:l_precomp.obj
 0002:0000d964       ??_C@_0BM@IPIF@?$CDinclude?5missing?5trailing?5?$DO?$AA@ 00608964     botlib:l_precomp.obj
 0002:0000d980       ??_C@_0BL@MIGF@?$CDinclude?5without?5file?5name?$AA@ 00608980     botlib:l_precomp.obj
 0002:0000d99c       ??_C@_0P@KHNC@can?8t?5undef?5?$CFs?$AA@ 0060899c     botlib:l_precomp.obj
 0002:0000d9ac       ??_C@_0BI@CBKC@expected?5name?0?5found?5?$CFs?$AA@ 006089ac     botlib:l_precomp.obj
 0002:0000d9c4       ??_C@_0BD@BCDC@undef?5without?5name?$AA@ 006089c4     botlib:l_precomp.obj
 0002:0000d9d8       ??_C@_0BJ@LLMA@define?5with?5misplaced?5?$CD?$CD?$AA@ 006089d8     botlib:l_precomp.obj
 0002:0000d9f4       ??_C@_02EDPE@?$CD?$CD?$AA@ 006089f4     botlib:l_precomp.obj
 0002:0000d9f8       ??_C@_0CF@CFGA@recursive?5define?5?$CIremoved?5recurs@ 006089f8     botlib:l_precomp.obj
 0002:0000da20       ??_C@_0BG@KLI@define?5not?5terminated?$AA@ 00608a20     botlib:l_precomp.obj
 0002:0000da38       ??_C@_0CB@BJCI@define?5parameters?5not?5terminated@ 00608a38     botlib:l_precomp.obj
 0002:0000da5c       ??_C@_0BP@ENDC@two?5the?5same?5define?5parameters?$AA@ 00608a5c     botlib:l_precomp.obj
 0002:0000da7c       ??_C@_0BJ@DKHO@invalid?5define?5parameter?$AA@ 00608a7c     botlib:l_precomp.obj
 0002:0000da98       ??_C@_0BK@HBOF@expected?5define?5parameter?$AA@ 00608a98     botlib:l_precomp.obj
 0002:0000dab4       ??_C@_0BD@PCN@redefinition?5of?5?$CFs?$AA@ 00608ab4     botlib:l_precomp.obj
 0002:0000dac8       ??_C@_0BC@GDCO@can?8t?5redefine?5?$CFs?$AA@ 00608ac8     botlib:l_precomp.obj
 0002:0000dadc       ??_C@_0CG@NKBB@expected?5name?5after?5?$CDdefine?0?5fou@ 00608adc     botlib:l_precomp.obj
 0002:0000db04       ??_C@_0BF@PCOG@?$CDdefine?5without?5name?$AA@ 00608b04     botlib:l_precomp.obj
 0002:0000db1c       ??_C@_07GNOC@?$CKextern?$AA@ 00608b1c     botlib:l_precomp.obj
 0002:0000db24       ??_C@_0CF@DNPO@expected?5name?5after?5?$CDifdef?0?5foun@ 00608b24     botlib:l_precomp.obj
 0002:0000db4c       ??_C@_0BE@NEIP@?$CDifdef?5without?5name?$AA@ 00608b4c     botlib:l_precomp.obj
 0002:0000db60       ??_C@_0BC@KNJ@?$CDelse?5after?5?$CDelse?$AA@ 00608b60     botlib:l_precomp.obj
 0002:0000db74       ??_C@_0BA@HCEN@misplaced?5?$CDelse?$AA@ 00608b74     botlib:l_precomp.obj
 0002:0000db84       ??_C@_0BB@FEHB@misplaced?5?$CDendif?$AA@ 00608b84     botlib:l_precomp.obj
 0002:0000db98       ??_C@_0BH@CPKA@?$DP?5after?5?$DP?5in?5?$CDif?1?$CDelif?$AA@ 00608b98     botlib:l_precomp.obj
 0002:0000dbb0       ??_C@_0BJ@CJAE@?3?5without?5?$DP?5in?5?$CDif?1?$CDelif?$AA@ 00608bb0     botlib:l_precomp.obj
 0002:0000dbcc       ??_C@_0BN@CIKN@divide?5by?5zero?5in?5?$CDif?1?$CDelif?6?$AA@ 00608bcc     botlib:l_precomp.obj
 0002:0000dbec       ??_C@_0BL@JBLL@mising?5values?5in?5?$CDif?1?$CDelif?$AA@ 00608bec     botlib:l_precomp.obj
 0002:0000dc08       ??_C@_0BI@JILI@too?5many?5?$CI?5in?5?$CDif?1?$CDelif?$AA@ 00608c08     botlib:l_precomp.obj
 0002:0000dc20       ??_C@_0BP@EOLF@trailing?5operator?5in?5?$CDif?1?$CDelif?$AA@ 00608c20     botlib:l_precomp.obj
 0002:0000dc40       ??_C@_0BI@CPJM@unknown?5?$CFs?5in?5?$CDif?1?$CDelif?$AA@ 00608c40     botlib:l_precomp.obj
 0002:0000dc58       ??_C@_0BH@HKIL@out?5of?5operator?5space?6?$AA@ 00608c58     botlib:l_precomp.obj
 0002:0000dc70       ??_C@_0CB@BBKM@invalid?5operator?5?$CFs?5in?5?$CDif?1?$CDelif@ 00608c70     botlib:l_precomp.obj
 0002:0000dc94       ??_C@_0CI@KKPD@operator?5?$CFs?5after?5operator?5in?5?$CDi@ 00608c94     botlib:l_precomp.obj
 0002:0000dcbc       ??_C@_0BL@NFCD@?$CL?$CL?5or?5?9?9?5used?5in?5?$CDif?1?$CDelif?$AA@ 00608cbc     botlib:l_precomp.obj
 0002:0000dcd8       ??_C@_0CA@DMCE@?$CB?5or?5?$HO?5after?5value?5in?5?$CDif?1?$CDelif?$AA@ 00608cd8     botlib:l_precomp.obj
 0002:0000dcf8       ??_C@_0DA@KEHF@illigal?5operator?5?$CFs?5on?5floating?5@ 00608cf8     botlib:l_precomp.obj
 0002:0000dd28       ??_C@_0BJ@OPJJ@too?5many?5?$CJ?5in?5?$CDif?1?$CDelsif?$AA@ 00608d28     botlib:l_precomp.obj
 0002:0000dd44       ??_C@_0CC@BJCL@misplaced?5minus?5sign?5in?5?$CDif?1?$CDeli@ 00608d44     botlib:l_precomp.obj
 0002:0000dd68       ??_C@_0BP@DNDE@defined?5without?5?$CJ?5in?5?$CDif?1?$CDelif?$AA@ 00608d68     botlib:l_precomp.obj
 0002:0000dd88       ??_C@_0BE@KIBM@out?5of?5value?5space?6?$AA@ 00608d88     botlib:l_precomp.obj
 0002:0000dd9c       ??_C@_0CC@HJHF@defined?5without?5name?5in?5?$CDif?1?$CDeli@ 00608d9c     botlib:l_precomp.obj
 0002:0000ddc0       ??_C@_0BP@IG@undefined?5name?5?$CFs?5in?5?$CDif?1?$CDelif?$AA@ 00608dc0     botlib:l_precomp.obj
 0002:0000dde0       ??_C@_07DLLF@defined?$AA@  00608de0     botlib:l_precomp.obj
 0002:0000dde8       ??_C@_0BK@DJOB@syntax?5error?5in?5?$CDif?1?$CDelif?$AA@ 00608de8     botlib:l_precomp.obj
 0002:0000de04       ??_C@_0BC@IEPN@can?8t?5evaluate?5?$CFs?$AA@ 00608e04     botlib:l_precomp.obj
 0002:0000de18       ??_C@_0BP@IGJB@can?8t?5evaluate?5?$CFs?0?5not?5defined?$AA@ 00608e18     botlib:l_precomp.obj
 0002:0000de38       ??_C@_0BJ@GOGH@no?5value?5after?5?$CDif?1?$CDelif?$AA@ 00608e38     botlib:l_precomp.obj
 0002:0000de54       ??_C@_0BE@OJMM@nothing?5to?5evaluate?$AA@ 00608e54     botlib:l_precomp.obj
 0002:0000de68       ??_C@_0CH@MBAO@no?5leading?5?$CI?5after?5$evalint?1$eva@ 00608e68     botlib:l_precomp.obj
 0002:0000de90       ??_C@_0BA@HPFM@misplaced?5?$CDelif?$AA@ 00608e90     botlib:l_precomp.obj
 0002:0000dea0       ??_C@_0BO@COPJ@?$CDline?5directive?5not?5supported?$AA@ 00608ea0     botlib:l_precomp.obj
 0002:0000dec0       ??_C@_0BF@HPML@?$CDerror?5directive?3?5?$CFs?$AA@ 00608ec0     botlib:l_precomp.obj
 0002:0000ded8       ??_C@_0CA@NHLA@?$CDpragma?5directive?5not?5supported?$AA@ 00608ed8     botlib:l_precomp.obj
 0002:0000def8       ??_C@_01GJD@?9?$AA@        00608ef8     botlib:l_precomp.obj
 0002:0000defc       ??_C@_05FKMA@?$CF1?42f?$AA@ 00608efc     botlib:l_precomp.obj
 0002:0000df04       ??_C@_0CB@PIFD@unknown?5precompiler?5directive?5?$CFs@ 00608f04     botlib:l_precomp.obj
 0002:0000df28       ??_C@_0BH@GILC@found?5?$CD?5at?5end?5of?5line?$AA@ 00608f28     botlib:l_precomp.obj
 0002:0000df40       ??_C@_0BF@CAO@found?5?$CD?5without?5name?$AA@ 00608f40     botlib:l_precomp.obj
 0002:0000df58       ??_C@_0BH@INPP@found?5$?5at?5end?5of?5line?$AA@ 00608f58     botlib:l_precomp.obj
 0002:0000df70       ??_C@_0BF@GDLI@found?5$?5without?5name?$AA@ 00608f70     botlib:l_precomp.obj
 0002:0000df88       ??_C@_0CB@KKFL@string?5longer?5than?5MAX_TOKEN?5?$CFd?6@ 00608f88     botlib:l_precomp.obj
 0002:0000dfac       ??_C@_0BG@JFAH@expected?5?$CFs?0?5found?5?$CFs?$AA@ 00608fac     botlib:l_precomp.obj
 0002:0000dfc4       ??_C@_0BK@KBO@couldn?8t?5find?5expected?5?$CFs?$AA@ 00608fc4     botlib:l_precomp.obj
 0002:0000dfe0       ??_C@_08OMMM@found?5?$CFs?$AA@ 00608fe0     botlib:l_precomp.obj
 0002:0000dfec       ??_C@_08KEIO@?5integer?$AA@ 00608fec     botlib:l_precomp.obj
 0002:0000dff8       ??_C@_06EMMA@?5float?$AA@  00608ff8     botlib:l_precomp.obj
 0002:0000e000       ??_C@_09MFC@?5unsigned?$AA@ 00609000     botlib:l_precomp.obj
 0002:0000e00c       ??_C@_05LDIH@?5long?$AA@   0060900c     botlib:l_precomp.obj
 0002:0000e014       ??_C@_06FNBK@binary?$AA@   00609014     botlib:l_precomp.obj
 0002:0000e01c       ??_C@_05DDMJ@octal?$AA@    0060901c     botlib:l_precomp.obj
 0002:0000e024       ??_C@_03GONF@hex?$AA@      00609024     botlib:l_precomp.obj
 0002:0000e028       ??_C@_07ODCM@decimal?$AA@  00609028     botlib:l_precomp.obj
 0002:0000e030       ??_C@_0BI@IKKD@expected?5a?5?$CFs?0?5found?5?$CFs?$AA@ 00609030     botlib:l_precomp.obj
 0002:0000e048       ??_C@_0M@IMHB@punctuation?$AA@ 00609048     botlib:l_precomp.obj
 0002:0000e054       ??_C@_07LOMJ@literal?$AA@  00609054     botlib:l_precomp.obj
 0002:0000e05c       ??_C@_06EMNG@string?$AA@   0060905c     botlib:l_precomp.obj
 0002:0000e064       ??_C@_0BN@LNDH@couldn?8t?5read?5expected?5token?$AA@ 00609064     botlib:l_precomp.obj
 0002:0000e084       ??_C@_0CD@GLJL@file?5?$CFs?5still?5open?5in?5precompile@ 00609084     botlib:l_precomp.obj
 0002:0000e0a8       ??_C@_0BG@LMMK@invalid?5character?5?$CFd?6?$AA@ 006090a8     botlib:be_ai_char.obj
 0002:0000e0c0       ??_C@_0CC@CEID@character?5handle?5?$CFd?5out?5of?5range@ 006090c0     botlib:be_ai_char.obj
 0002:0000e0e4       ??_C@_08KLKE@?5?$CF4d?5?$CFs?6?$AA@ 006090e4     botlib:be_ai_char.obj
 0002:0000e0f0       ??_C@_08INAN@?5?$CF4d?5?$CFf?6?$AA@ 006090f0     botlib:be_ai_char.obj
 0002:0000e0fc       ??_C@_08KAFI@?5?$CF4d?5?$CFd?6?$AA@ 006090fc     botlib:be_ai_char.obj
 0002:0000e108       ??_C@_09HOBN@skill?5?$CFd?6?$AA@ 00609108     botlib:be_ai_char.obj
 0002:0000e114       ??_C@_0CN@DJKM@expected?5integer?0?5float?5or?5strin@ 00609114     botlib:be_ai_char.obj
 0002:0000e144       ??_C@_0CH@KLPF@characteristic?5?$CFd?5already?5initia@ 00609144     botlib:be_ai_char.obj
 0002:0000e16c       ??_C@_0CL@EFGP@characteristic?5index?5out?5of?5rang@ 0060916c     botlib:be_ai_char.obj
 0002:0000e198       ??_C@_0CC@LILH@expected?5integer?5index?0?5found?5?$CFs@ 00609198     botlib:be_ai_char.obj
 0002:0000e1bc       ??_C@_05MIHE@skill?$AA@    006091bc     botlib:be_ai_char.obj
 0002:0000e1c4       ??_C@_0CB@MJDH@couldn?8t?5load?5any?5skill?5from?5?$CFs?6@ 006091c4     botlib:be_ai_char.obj
 0002:0000e1e8       ??_C@_0CB@IBKC@loaded?5default?5skill?5?$CFf?5from?5?$CFs?6@ 006091e8     botlib:be_ai_char.obj
 0002:0000e20c       ??_C@_0CI@LEOB@loaded?5cached?5default?5skill?5?$CFf?5f@ 0060920c     botlib:be_ai_char.obj
 0002:0000e234       ??_C@_0BJ@JIHN@loaded?5skill?5?$CFf?5from?5?$CFs?6?$AA@ 00609234     botlib:be_ai_char.obj
 0002:0000e250       ??_C@_0CB@JOCG@loaded?5default?5skill?5?$CFd?5from?5?$CFs?6@ 00609250     botlib:be_ai_char.obj
 0002:0000e274       ??_C@_0CI@KLGF@loaded?5cached?5default?5skill?5?$CFd?5f@ 00609274     botlib:be_ai_char.obj
 0002:0000e29c       ??_C@_0BB@NIIH@bots?1default_c?4c?$AA@ 0060929c     botlib:be_ai_char.obj
 0002:0000e2b0       ??_C@_0BO@KHDD@couldn?8t?5find?5skill?5?$CFd?5in?5?$CFs?6?$AA@ 006092b0     botlib:be_ai_char.obj
 0002:0000e2d0       ??_C@_0CE@JOKC@skill?5?$CFd?5loaded?5in?5?$CFd?5msec?5from?5@ 006092d0     botlib:be_ai_char.obj
 0002:0000e2f4       ??_C@_0BJ@IHPJ@loaded?5skill?5?$CFd?5from?5?$CFs?6?$AA@ 006092f4     botlib:be_ai_char.obj
 0002:0000e310       ??_C@_0CA@HNDF@loaded?5cached?5skill?5?$CFf?5from?5?$CFs?6?$AA@ 00609310     botlib:be_ai_char.obj
 0002:0000e330       __real@8@40018000000000000000 00609330     botlib:be_ai_char.obj
 0002:0000e338       ??_C@_0CG@JNBG@characteristic?5?$CFd?5is?5not?5initial@ 00609338     botlib:be_ai_char.obj
 0002:0000e360       ??_C@_0CC@OCFO@characteristic?5?$CFd?5does?5not?5exist@ 00609360     botlib:be_ai_char.obj
 0002:0000e384       ??_C@_0CC@CBGO@characteristic?5?$CFd?5is?5not?5a?5float@ 00609384     botlib:be_ai_char.obj
 0002:0000e3a8       ??_C@_0DC@OEHF@cannot?5bound?5characteristic?5?$CFd?5b@ 006093a8     botlib:be_ai_char.obj
 0002:0000e3dc       ??_C@_0CE@DKCG@characteristic?5?$CFd?5is?5not?5a?5integ@ 006093dc     botlib:be_ai_char.obj
 0002:0000e400       ??_C@_0DC@ENLA@cannot?5bound?5characteristic?5?$CFd?5b@ 00609400     botlib:be_ai_char.obj
 0002:0000e434       ??_C@_0CD@DGCD@characteristic?5?$CFd?5is?5not?5a?5strin@ 00609434     botlib:be_ai_char.obj
 0002:0000e458       ??_C@_0BJ@ONLE@invalid?5return?5value?5?$CFs?6?$AA@ 00609458     botlib:be_ai_weight.obj
 0002:0000e474       ??_C@_0BM@ILAK@negative?5value?5set?5to?5zero?6?$AA@ 00609474     botlib:be_ai_weight.obj
 0002:0000e490       ??_C@_07DMNA@balance?$AA@  00609490     botlib:be_ai_weight.obj
 0002:0000e498       ??_C@_0BI@JOFD@switch?5without?5default?6?$AA@ 00609498     botlib:be_ai_weight.obj
 0002:0000e4b0       ??_C@_0BB@DFNK@invalid?5name?5?$CFs?6?$AA@ 006094b0     botlib:be_ai_weight.obj
 0002:0000e4c4       ??_C@_06OPGE@switch?$AA@   006094c4     botlib:be_ai_weight.obj
 0002:0000e4cc       ??_C@_06CGBH@return?$AA@   006094cc     botlib:be_ai_weight.obj
 0002:0000e4d4       ??_C@_0BO@GNLN@switch?5already?5has?5a?5default?6?$AA@ 006094d4     botlib:be_ai_weight.obj
 0002:0000e4f4       ??_C@_04NNBC@case?$AA@     006094f4     botlib:be_ai_weight.obj
 0002:0000e4fc       ??_C@_07FMEP@default?$AA@  006094fc     botlib:be_ai_weight.obj
 0002:0000e504       ??_C@_0BL@ILJN@weights?5loaded?5in?5?$CFd?5msec?6?$AA@ 00609504     botlib:be_ai_weight.obj
 0002:0000e520       ??_C@_0BI@ILOO@too?5many?5fuzzy?5weights?6?$AA@ 00609520     botlib:be_ai_weight.obj
 0002:0000e538       ??_C@_0CL@PFFE@weightFileList?5was?5full?5trying?5t@ 00609538     botlib:be_ai_weight.obj
 0002:0000e564       ??_C@_0DA@MMKC@cannot?5interbreed?5weight?5configs@ 00609564     botlib:be_ai_weight.obj
 0002:0000e594       ??_C@_0DD@NAAM@cannot?5interbreed?5weight?5configs@ 00609594     botlib:be_ai_weight.obj
 0002:0000e5c8       ??_C@_0DB@IBB@cannot?5interbreed?5weight?5configs@ 006095c8     botlib:be_ai_weight.obj
 0002:0000e5fc       ??_C@_0DG@FKMC@cannot?5interbreed?5weight?5configs@ 006095fc     botlib:be_ai_weight.obj
 0002:0000e634       ??_C@_0BO@PHBL@AAS_UpdateEntity?3?5not?5loaded?6?$AA@ 00609634     botlib:be_aas_entity.obj
 0002:0000e654       ??_C@_0CI@DGGG@AAS_EntityInfo?3?5entnum?5?$CFd?5out?5of@ 00609654     botlib:be_aas_entity.obj
 0002:0000e67c       ??_C@_0CK@NALI@AAS_EntityInfo?3?5aasworld?5not?5ini@ 0060967c     botlib:be_aas_entity.obj
 0002:0000e6a8       ??_C@_0CK@NBLN@AAS_EntityOrigin?3?5entnum?5?$CFd?5out?5@ 006096a8     botlib:be_aas_entity.obj
 0002:0000e6d4       ??_C@_0CO@MDMG@AAS_EntityModelindex?3?5entnum?5?$CFd?5@ 006096d4     botlib:be_aas_entity.obj
 0002:0000e704       ??_C@_0CI@OGJH@AAS_EntityType?3?5entnum?5?$CFd?5out?5of@ 00609704     botlib:be_aas_entity.obj
 0002:0000e72c       ??_C@_0CM@KIGE@AAS_EntityModelNum?3?5entnum?5?$CFd?5ou@ 0060972c     botlib:be_aas_entity.obj
 0002:0000e758       ??_C@_0CI@HBOA@AAS_EntitySize?3?5entnum?5?$CFd?5out?5of@ 00609758     botlib:be_aas_entity.obj
 0002:0000e780       ??_C@_0BJ@FANI@edgenum?5?$CFd?5out?5of?5range?6?$AA@ 00609780     botlib:be_aas_debug.obj
 0002:0000e79c       ??_C@_0BJ@OBAN@facenum?5?$CFd?5out?5of?5range?6?$AA@ 0060979c     botlib:be_aas_debug.obj
 0002:0000e7b8       ??_C@_0BO@MILK@area?5?$CFd?5out?5of?5range?5?$FL0?0?5?$CFd?$FN?6?$AA@ 006097b8     botlib:be_aas_debug.obj
 0002:0000e7d8       ??_C@_0BE@CDJD@UNKNOWN?5TRAVEL?5TYPE?$AA@ 006097d8     botlib:be_aas_debug.obj
 0002:0000e7ec       ??_C@_0P@KPB@TRAVEL_FUNCBOB?$AA@ 006097ec     botlib:be_aas_debug.obj
 0002:0000e7fc       ??_C@_0P@KGCM@TRAVEL_JUMPPAD?$AA@ 006097fc     botlib:be_aas_debug.obj
 0002:0000e80c       ??_C@_0BD@EOBK@TRAVEL_GRAPPLEHOOK?$AA@ 0060980c     botlib:be_aas_debug.obj
 0002:0000e820       ??_C@_0P@LEII@TRAVEL_BFGJUMP?$AA@ 00609820     botlib:be_aas_debug.obj
 0002:0000e830       ??_C@_0BC@HADO@TRAVEL_ROCKETJUMP?$AA@ 00609830     botlib:be_aas_debug.obj
 0002:0000e844       ??_C@_0BA@HAMH@TRAVEL_ELEVATOR?$AA@ 00609844     botlib:be_aas_debug.obj
 0002:0000e854       ??_C@_0BA@GBLL@TRAVEL_TELEPORT?$AA@ 00609854     botlib:be_aas_debug.obj
 0002:0000e864       ??_C@_0BB@KLCC@TRAVEL_WATERJUMP?$AA@ 00609864     botlib:be_aas_debug.obj
 0002:0000e878       ??_C@_0M@JPAA@TRAVEL_SWIM?$AA@ 00609878     botlib:be_aas_debug.obj
 0002:0000e884       ??_C@_0BE@PHKA@TRAVEL_WALKOFFLEDGE?$AA@ 00609884     botlib:be_aas_debug.obj
 0002:0000e898       ??_C@_0O@FJAJ@TRAVEL_LADDER?$AA@ 00609898     botlib:be_aas_debug.obj
 0002:0000e8a8       ??_C@_0M@MGGH@TRAVEL_JUMP?$AA@ 006098a8     botlib:be_aas_debug.obj
 0002:0000e8b4       ??_C@_0BD@JNB@TRAVEL_BARRIERJUMP?$AA@ 006098b4     botlib:be_aas_debug.obj
 0002:0000e8c8       ??_C@_0O@BHFB@TRAVEL_CROUCH?$AA@ 006098c8     botlib:be_aas_debug.obj
 0002:0000e8d8       ??_C@_0M@HECH@TRAVEL_WALK?$AA@ 006098d8     botlib:be_aas_debug.obj
 0002:0000e8e4       ??_C@_0P@EDMD@TRAVEL_INVALID?$AA@ 006098e4     botlib:be_aas_debug.obj
 0002:0000e8f4       __real@4@c001c000000000000000 006098f4     botlib:be_aas_debug.obj
 0002:0000e8f8       __real@8@3fffc000000000000000 006098f8     botlib:be_aas_debug.obj
 0002:0000e900       ??_C@_0BI@KMNK@?$CFd?5bytes?5routing?5cache?6?$AA@ 00609900     botlib:be_aas_route.obj
 0002:0000e918       ??_C@_0BJ@IPKJ@?$CFd?5portal?5cache?5updates?6?$AA@ 00609918     botlib:be_aas_route.obj
 0002:0000e934       ??_C@_0BH@DBEP@?$CFd?5area?5cache?5updates?6?$AA@ 00609934     botlib:be_aas_route.obj
 0002:0000e94c       ??_C@_0DA@KFPA@AAS_EnableRoutingArea?3?5areanum?5?$CF@ 0060994c     botlib:be_aas_route.obj
 0002:0000e97c       ??_C@_0BP@EIGD@reversed?5reachability?5?$CFd?5msec?6?$AA@ 0060997c     botlib:be_aas_route.obj
 0002:0000e99c       ??_C@_0CK@BBBC@area?5?$CFd?5has?5more?5than?5128?5reacha@ 0060999c     botlib:be_aas_route.obj
 0002:0000e9c8       __real@4@3ffda8f5c30000000000 006099c8     botlib:be_aas_route.obj
 0002:0000e9cc       __real@4@3fffa666660000000000 006099cc     botlib:be_aas_route.obj
 0002:0000e9d0       ??_C@_0BL@NMNM@area?5travel?5times?5?$CFd?5msec?6?$AA@ 006099d0     botlib:be_aas_route.obj
 0002:0000e9ec       ??_C@_0BL@NDNC@AAS_CreateAllRoutingCache?6?$AA@ 006099ec     botlib:be_aas_route.obj
 0002:0000ea08       ??_C@_0CD@EPGB@written?5?$CFd?5bytes?5of?5routing?5cach@ 00609a08     botlib:be_aas_route.obj
 0002:0000ea2c       ??_C@_0BM@LHAH@?6route?5cache?5written?5to?5?$CFs?6?$AA@ 00609a2c     botlib:be_aas_route.obj
 0002:0000ea48       ??_C@_0BJ@EKPH@Unable?5to?5open?5file?3?5?$CFs?6?$AA@ 00609a48     botlib:be_aas_route.obj
 0002:0000ea64       ??_C@_0M@DJNN@maps?1?$CFs?4rcd?$AA@ 00609a64     botlib:be_aas_route.obj
 0002:0000ea70       ??_C@_0DE@EFPA@route?5cache?5dump?5has?5wrong?5versi@ 00609a70     botlib:be_aas_route.obj
 0002:0000eaa4       ??_C@_0BO@NBMB@?$CFs?5is?5not?5a?5route?5cache?5dump?6?$AA@ 00609aa4     botlib:be_aas_route.obj
 0002:0000eac4       ??_C@_0BB@BJDE@max_routingcache?$AA@ 00609ac4     botlib:be_aas_route.obj
 0002:0000ead8       ??_C@_04BBHD@4096?$AA@     00609ad8     botlib:be_aas_route.obj
 0002:0000eae0       ??_C@_0DL@FJMN@AAS_AreaTravelTimeToGoalArea?3?5go@ 00609ae0     botlib:be_aas_route.obj
 0002:0000eb1c       ??_C@_0DH@KLHO@AAS_AreaTravelTimeToGoalArea?3?5ar@ 00609b1c     botlib:be_aas_route.obj
 0002:0000eb54       ??_C@_0EB@IJPE@AAS_NextAreaReachability?3?5reachn@ 00609b54     botlib:be_aas_route.obj
 0002:0000eb98       ??_C@_0DD@FNIB@AAS_NextAreaReachability?3?5areanu@ 00609b98     botlib:be_aas_route.obj
 0002:0000ebcc       ??_C@_0CC@EFNH@area?5?$CFd?5center?5?$CFf?5?$CFf?5?$CFf?5in?5solid@ 00609bcc     botlib:be_aas_route.obj
 0002:0000ebf0       ??_C@_0DE@JEDC@AAS_PresenceTypeBoundingBox?3?5unk@ 00609bf0     botlib:be_aas_sample.obj
 0002:0000ec24       ??_C@_0N@LKAP@max_aaslinks?$AA@ 00609c24     botlib:be_aas_sample.obj
 0002:0000ec34       ??_C@_04KFLL@6144?$AA@     00609c34     botlib:be_aas_sample.obj
 0002:0000ec3c       ??_C@_0BF@NCJ@empty?5aas?5link?5heap?6?$AA@ 00609c3c     botlib:be_aas_sample.obj
 0002:0000ec54       ??_C@_0CC@BOA@AAS_PointAreaNum?3?5aas?5not?5loaded@ 00609c54     botlib:be_aas_sample.obj
 0002:0000ec78       ??_C@_0CG@PMJA@AAS_AreaCluster?3?5invalid?5area?5nu@ 00609c78     botlib:be_aas_sample.obj
 0002:0000eca0       ??_C@_0CL@CKED@AAS_AreaPresenceType?3?5invalid?5ar@ 00609ca0     botlib:be_aas_sample.obj
 0002:0000ecd0       __real@8@bff583126e978d4fe000 00609cd0     botlib:be_aas_sample.obj
 0002:0000ecd8       __real@4@3ff583126f0000000000 00609cd8     botlib:be_aas_sample.obj
 0002:0000ecdc       ??_C@_0CG@NODC@AAS_TraceBoundingBox?3?5stack?5over@ 00609cdc     botlib:be_aas_sample.obj
 0002:0000ed08       __real@8@bffc8000000000000000 00609d08     botlib:be_aas_sample.obj
 0002:0000ed10       ??_C@_0CA@DJAB@AAS_TraceAreas?3?5stack?5overflow?6?$AA@ 00609d10     botlib:be_aas_sample.obj
 0002:0000ed30       ??_C@_0CA@OPEI@AAS_LinkEntity?3?5stack?5overflow?6?$AA@ 00609d30     botlib:be_aas_sample.obj
 0002:0000ed50       ??_C@_0CA@HFOG@AAS_LinkEntity?3?5aas?5not?5loaded?6?$AA@ 00609d50     botlib:be_aas_sample.obj
 0002:0000ed70       ??_C@_0CH@EJEM@AAS_AreaInfo?3?5areanum?5?$CFd?5out?5of?5@ 00609d70     botlib:be_aas_sample.obj
 0002:0000ed98       ??_C@_0BF@NGOO@rs_maxjumpfallheight?$AA@ 00609d98     botlib:be_aas_move.obj
 0002:0000edb0       ??_C@_03CDIO@450?$AA@      00609db0     botlib:be_aas_move.obj
 0002:0000edb4       ??_C@_0BB@LEEA@rs_maxfallheight?$AA@ 00609db4     botlib:be_aas_move.obj
 0002:0000edc8       ??_C@_0BA@BFP@rs_falldamage10?$AA@ 00609dc8     botlib:be_aas_move.obj
 0002:0000edd8       ??_C@_0P@GFCE@rs_falldamage5?$AA@ 00609dd8     botlib:be_aas_move.obj
 0002:0000ede8       ??_C@_0BB@BGBI@rs_startelevator?$AA@ 00609de8     botlib:be_aas_move.obj
 0002:0000edfc       ??_C@_0L@IAMA@rs_funcbob?$AA@ 00609dfc     botlib:be_aas_move.obj
 0002:0000ee08       ??_C@_0BI@IMNC@rs_aircontrolledjumppad?$AA@ 00609e08     botlib:be_aas_move.obj
 0002:0000ee20       ??_C@_0L@CMBN@rs_jumppad?$AA@ 00609e20     botlib:be_aas_move.obj
 0002:0000ee2c       ??_C@_03MPPJ@250?$AA@      00609e2c     botlib:be_aas_move.obj
 0002:0000ee30       ??_C@_0L@DOLJ@rs_bfgjump?$AA@ 00609e30     botlib:be_aas_move.obj
 0002:0000ee3c       ??_C@_0O@EGDH@rs_rocketjump?$AA@ 00609e3c     botlib:be_aas_move.obj
 0002:0000ee4c       ??_C@_0N@KOBB@rs_startjump?$AA@ 00609e4c     botlib:be_aas_move.obj
 0002:0000ee5c       ??_C@_0BF@NNKO@rs_startwalkoffledge?$AA@ 00609e5c     botlib:be_aas_move.obj
 0002:0000ee74       ??_C@_02CFDO@70?$AA@       00609e74     botlib:be_aas_move.obj
 0002:0000ee78       ??_C@_0BA@EDDM@rs_startgrapple?$AA@ 00609e78     botlib:be_aas_move.obj
 0002:0000ee88       ??_C@_03DNJI@500?$AA@      00609e88     botlib:be_aas_move.obj
 0002:0000ee8c       ??_C@_0P@JFEM@rs_startcrouch?$AA@ 00609e8c     botlib:be_aas_move.obj
 0002:0000ee9c       ??_C@_03NBOP@300?$AA@      00609e9c     botlib:be_aas_move.obj
 0002:0000eea0       ??_C@_0P@CAH@rs_barrierjump?$AA@ 00609ea0     botlib:be_aas_move.obj
 0002:0000eeb0       ??_C@_0M@MLNB@rs_teleport?$AA@ 00609eb0     botlib:be_aas_move.obj
 0002:0000eebc       ??_C@_02IGL@50?$AA@        00609ebc     botlib:be_aas_move.obj
 0002:0000eec0       ??_C@_0N@ECGI@rs_waterjump?$AA@ 00609ec0     botlib:be_aas_move.obj
 0002:0000eed0       ??_C@_0BB@FPBC@phys_falldelta10?$AA@ 00609ed0     botlib:be_aas_move.obj
 0002:0000eee4       ??_C@_02DDJE@60?$AA@       00609ee4     botlib:be_aas_move.obj
 0002:0000eee8       ??_C@_0BA@CIFO@phys_falldelta5?$AA@ 00609ee8     botlib:be_aas_move.obj
 0002:0000eef8       ??_C@_02BOMB@40?$AA@       00609ef8     botlib:be_aas_move.obj
 0002:0000eefc       ??_C@_0N@JPAA@phys_jumpvel?$AA@ 00609efc     botlib:be_aas_move.obj
 0002:0000ef0c       ??_C@_03OCKM@270?$AA@      00609f0c     botlib:be_aas_move.obj
 0002:0000ef10       ??_C@_0BA@PHEH@phys_maxbarrier?$AA@ 00609f10     botlib:be_aas_move.obj
 0002:0000ef20       ??_C@_02IACN@33?$AA@       00609f20     botlib:be_aas_move.obj
 0002:0000ef24       ??_C@_0BC@NKLJ@phys_maxwaterjump?$AA@ 00609f24     botlib:be_aas_move.obj
 0002:0000ef38       ??_C@_0BC@FNPI@phys_maxsteepness?$AA@ 00609f38     botlib:be_aas_move.obj
 0002:0000ef4c       ??_C@_03NKDD@0?47?$AA@     00609f4c     botlib:be_aas_move.obj
 0002:0000ef50       ??_C@_0N@OEMA@phys_maxstep?$AA@ 00609f50     botlib:be_aas_move.obj
 0002:0000ef60       ??_C@_02KMOO@19?$AA@       00609f60     botlib:be_aas_move.obj
 0002:0000ef64       ??_C@_0BE@FKAK@phys_swimaccelerate?$AA@ 00609f64     botlib:be_aas_move.obj
 0002:0000ef78       ??_C@_0BD@KNCN@phys_airaccelerate?$AA@ 00609f78     botlib:be_aas_move.obj
 0002:0000ef8c       ??_C@_0BE@IPJN@phys_walkaccelerate?$AA@ 00609f8c     botlib:be_aas_move.obj
 0002:0000efa0       ??_C@_0BF@HLGB@phys_maxswimvelocity?$AA@ 00609fa0     botlib:be_aas_move.obj
 0002:0000efb8       ??_C@_03DJMC@150?$AA@      00609fb8     botlib:be_aas_move.obj
 0002:0000efbc       ??_C@_0BH@PECJ@phys_maxcrouchvelocity?$AA@ 00609fbc     botlib:be_aas_move.obj
 0002:0000efd4       ??_C@_0BF@CGGM@phys_maxwalkvelocity?$AA@ 00609fd4     botlib:be_aas_move.obj
 0002:0000efec       ??_C@_0BB@DOKF@phys_maxvelocity?$AA@ 00609fec     botlib:be_aas_move.obj
 0002:0000f000       ??_C@_03PMLK@320?$AA@      0060a000     botlib:be_aas_move.obj
 0002:0000f004       ??_C@_0BC@OFLL@phys_watergravity?$AA@ 0060a004     botlib:be_aas_move.obj
 0002:0000f018       ??_C@_03GPIO@400?$AA@      0060a018     botlib:be_aas_move.obj
 0002:0000f01c       ??_C@_0BD@NOKL@phys_waterfriction?$AA@ 0060a01c     botlib:be_aas_move.obj
 0002:0000f030       ??_C@_0N@BDFL@phys_gravity?$AA@ 0060a030     botlib:be_aas_move.obj
 0002:0000f040       ??_C@_0P@OLNP@phys_stopspeed?$AA@ 0060a040     botlib:be_aas_move.obj
 0002:0000f050       ??_C@_0O@BLFN@phys_friction?$AA@ 0060a050     botlib:be_aas_move.obj
 0002:0000f060       ??_C@_01EOC@6?$AA@         0060a060     botlib:be_aas_move.obj
 0002:0000f068       __real@8@4009c800000000000000 0060a068     botlib:be_aas_move.obj
 0002:0000f070       __real@4@4007fa00000000000000 0060a070     botlib:be_aas_move.obj
 0002:0000f074       __real@4@4003b000000000000000 0060a074     botlib:be_aas_move.obj
 0002:0000f078       __real@8@bffd8000000000000000 0060a078     botlib:be_aas_move.obj
 0002:0000f080       ??_C@_0BO@GPCB@PredictMovement?3?5start?5solid?6?$AA@ 0060a080     botlib:be_aas_move.obj
 0002:0000f0a0       __real@4@c0079600000000000000 0060a0a0     botlib:be_aas_move.obj
 0002:0000f0a4       ??_C@_0O@IHDD@leave?5ground?6?$AA@ 0060a0a4     botlib:be_aas_move.obj
 0002:0000f0b4       ??_C@_0BE@HLM@?$CFd?5midrange?5area?5?$CFd?$AA@ 0060a0b4     botlib:be_aas_routealt.obj
 0002:0000f0c8       __real@4@3ffecccccd0000000000 0060a0c8     botlib:be_aas_routealt.obj
 0002:0000f0cc       __real@4@3fff8ccccd0000000000 0060a0cc     botlib:be_aas_routealt.obj
 0002:0000f0d0       ??_C@_0BL@JAGN@trigger_push?5without?5time?6?$AA@ 0060a0d0     botlib:be_aas_reach.obj
 0002:0000f0ec       ??_C@_0CH@KLMC@trigger_push?5without?5target?5enti@ 0060a0ec     botlib:be_aas_reach.obj
 0002:0000f114       ??_C@_0L@PMO@targetname?$AA@ 0060a114     botlib:be_aas_reach.obj
 0002:0000f120       ??_C@_06CCPD@target?$AA@   0060a120     botlib:be_aas_reach.obj
 0002:0000f128       ??_C@_0BK@GHHO@trigger_push?5start?5solid?6?$AA@ 0060a128     botlib:be_aas_reach.obj
 0002:0000f144       ??_C@_0CH@GENO@trigger_push?5not?5in?5any?5jump?5pad@ 0060a144     botlib:be_aas_reach.obj
 0002:0000f16c       ??_C@_0N@EEFP@trigger_push?$AA@ 0060a16c     botlib:be_aas_reach.obj
 0002:0000f17c       ??_C@_0CH@BILI@AAS_BestReachableArea?3?5aas?5not?5l@ 0060a17c     botlib:be_aas_reach.obj
 0002:0000f1a4       ??_C@_0BJ@GKCH@AAS_MAX_REACHABILITYSIZE?$AA@ 0060a1a4     botlib:be_aas_reach.obj
 0002:0000f1c0       ??_C@_0CO@BMPG@AAS_AreaReachability?3?5areanum?5?$CFd@ 0060a1c0     botlib:be_aas_reach.obj
 0002:0000f1f0       __real@8@4004c800000000000000 0060a1f0     botlib:be_aas_reach.obj
 0002:0000f1f8       __real@4@4002f000000000000000 0060a1f8     botlib:be_aas_reach.obj
 0002:0000f1fc       __real@4@4006f000000000000000 0060a1fc     botlib:be_aas_reach.obj
 0002:0000f200       __real@4@c0058000000000000000 0060a200     botlib:be_aas_reach.obj
 0002:0000f204       __real@4@3fff8666660000000000 0060a204     botlib:be_aas_reach.obj
 0002:0000f208       __real@4@3fff99999a0000000000 0060a208     botlib:be_aas_reach.obj
 0002:0000f210       __real@8@40028000000000000000 0060a210     botlib:be_aas_reach.obj
 0002:0000f218       __real@4@c001a000000000000000 0060a218     botlib:be_aas_reach.obj
 0002:0000f21c       __real@4@c002f000000000000000 0060a21c     botlib:be_aas_reach.obj
 0002:0000f220       __real@4@c0048000000000000000 0060a220     botlib:be_aas_reach.obj
 0002:0000f224       ??_C@_0M@ODAB@bot_notteam?$AA@ 0060a224     botlib:be_aas_reach.obj
 0002:0000f230       ??_C@_0CC@JOGC@trigger_multiple?5not?5in?5any?5area@ 0060a230     botlib:be_aas_reach.obj
 0002:0000f254       ??_C@_0CK@LAEG@teleported?5into?5slime?5or?5lava?5at@ 0060a254     botlib:be_aas_reach.obj
 0002:0000f280       ??_C@_05LIJM@angle?$AA@    0060a280     botlib:be_aas_reach.obj
 0002:0000f288       ??_C@_0CG@HHPJ@teleporter?5destination?5?$CI?$CFs?$CJ?5in?5s@ 0060a288     botlib:be_aas_reach.obj
 0002:0000f2b0       ??_C@_0CM@MKHJ@teleporter?5destination?5?$CI?$CFs?$CJ?5with@ 0060a2b0     botlib:be_aas_reach.obj
 0002:0000f2dc       ??_C@_0CO@ENJE@teleporter?5without?5misc_teleport@ 0060a2dc     botlib:be_aas_reach.obj
 0002:0000f30c       ??_C@_0DG@BOPP@trigger_teleport?5at?5?$CF1?40f?5?$CF1?40f?5@ 0060a30c     botlib:be_aas_reach.obj
 0002:0000f344       ??_C@_0BP@DEFN@trigger_teleport?5model?5?$DN?5?$CC?$CFs?$CC?6?$AA@ 0060a344     botlib:be_aas_reach.obj
 0002:0000f364       ??_C@_0BB@EDMK@trigger_teleport?$AA@ 0060a364     botlib:be_aas_reach.obj
 0002:0000f378       ??_C@_0CC@JIM@target_teleporter?5without?5target@ 0060a378     botlib:be_aas_reach.obj
 0002:0000f39c       ??_C@_0BC@JHNF@target_teleporter?$AA@ 0060a39c     botlib:be_aas_reach.obj
 0002:0000f3b0       ??_C@_0DG@FIKI@trigger_multiple?5at?5?$CF1?40f?5?$CF1?40f?5@ 0060a3b0     botlib:be_aas_reach.obj
 0002:0000f3e8       ??_C@_0BP@HMML@trigger_multiple?5model?5?$DN?5?$CC?$CFs?$CC?6?$AA@ 0060a3e8     botlib:be_aas_reach.obj
 0002:0000f408       ??_C@_0BB@HNOL@trigger_multiple?$AA@ 0060a408     botlib:be_aas_reach.obj
 0002:0000f41c       ??_C@_06OKPG@height?$AA@   0060a41c     botlib:be_aas_reach.obj
 0002:0000f424       ??_C@_03JNMJ@lip?$AA@      0060a424     botlib:be_aas_reach.obj
 0002:0000f428       ??_C@_0CF@JEPE@func_plat?5with?5invalid?5model?5num@ 0060a428     botlib:be_aas_reach.obj
 0002:0000f450       ??_C@_0BJ@MBGD@func_plat?5without?5model?6?$AA@ 0060a450     botlib:be_aas_reach.obj
 0002:0000f46c       __real@4@40068000000000000000 0060a46c     botlib:be_aas_reach.obj
 0002:0000f470       __real@4@4006c000000000000000 0060a470     botlib:be_aas_reach.obj
 0002:0000f474       ??_C@_0CC@DHNP@funcbob?5reach?5from?5area?5?$CFd?5to?5?$CFd@ 0060a474     botlib:be_aas_reach.obj
 0002:0000f498       ??_C@_0EN@GPOC@funcbob?5model?5?$CFd?0?5start?5?$DN?5?$HL?$CF1?41f@ 0060a498     botlib:be_aas_reach.obj
 0002:0000f4e8       ??_C@_0CI@FGAB@func_bobbing?5with?5invalid?5model?5@ 0060a4e8     botlib:be_aas_reach.obj
 0002:0000f510       ??_C@_0BM@ELDJ@func_bobbing?5without?5model?6?$AA@ 0060a510     botlib:be_aas_reach.obj
 0002:0000f52c       __real@4@40069600000000000000 0060a52c     botlib:be_aas_reach.obj
 0002:0000f530       __real@8@4005c800000000000000 0060a530     botlib:be_aas_reach.obj
 0002:0000f538       ??_C@_0CN@EOMA@found?5a?5trigger_push?5with?5veloci@ 0060a538     botlib:be_aas_reach.obj
 0002:0000f568       __real@4@c007fa00000000000000 0060a568     botlib:be_aas_reach.obj
 0002:0000f56c       __real@4@4001c90fdb0000000000 0060a56c     botlib:be_aas_reach.obj
 0002:0000f570       __real@4@4009fa00000000000000 0060a570     botlib:be_aas_reach.obj
 0002:0000f574       ??_C@_0CE@KKIA@area?5?$CFd?5center?5?$CFf?5?$CFf?5?$CFf?5in?5solid@ 0060a574     botlib:be_aas_reach.obj
 0002:0000f598       ??_C@_0BG@DFLK@?$CFd?5weapon?5jump?5areas?6?$AA@ 0060a598     botlib:be_aas_reach.obj
 0002:0000f5b0       ??_C@_0BF@MAMM@item_invulnerability?$AA@ 0060a5b0     botlib:be_aas_reach.obj
 0002:0000f5c8       ??_C@_0L@JOKD@item_regen?$AA@ 0060a5c8     botlib:be_aas_reach.obj
 0002:0000f5d4       ??_C@_09NKAN@item_quad?$AA@ 0060a5d4     botlib:be_aas_reach.obj
 0002:0000f5e0       ??_C@_0L@NOHL@weapon_bfg?$AA@ 0060a5e0     botlib:be_aas_reach.obj
 0002:0000f5ec       ??_C@_0P@FOOL@weapon_railgun?$AA@ 0060a5ec     botlib:be_aas_reach.obj
 0002:0000f5fc       ??_C@_0BB@IMNM@weapon_plasmagun?$AA@ 0060a5fc     botlib:be_aas_reach.obj
 0002:0000f610       ??_C@_0BB@GAKO@weapon_lightning?$AA@ 0060a610     botlib:be_aas_reach.obj
 0002:0000f624       ??_C@_0BG@EKMA@weapon_rocketlauncher?$AA@ 0060a624     botlib:be_aas_reach.obj
 0002:0000f63c       ??_C@_0BH@FDFB@weapon_grenadelauncher?$AA@ 0060a63c     botlib:be_aas_reach.obj
 0002:0000f654       ??_C@_0BB@KJE@item_health_mega?$AA@ 0060a654     botlib:be_aas_reach.obj
 0002:0000f668       ??_C@_0BC@GPNI@item_armor_combat?$AA@ 0060a668     botlib:be_aas_reach.obj
 0002:0000f67c       ??_C@_0BA@GFMA@item_armor_body?$AA@ 0060a67c     botlib:be_aas_reach.obj
 0002:0000f68c       ??_C@_0BJ@LD@calculating?5clusters?4?4?4?6?$AA@ 0060a68c     botlib:be_aas_reach.obj
 0002:0000f6a8       ??_C@_0BD@IKPH@?$CF6d?5reach?5jumppad?6?$AA@ 0060a6a8     botlib:be_aas_reach.obj
 0002:0000f6bc       ??_C@_0BG@DJJC@?$CF6d?5reach?5rocketjump?6?$AA@ 0060a6bc     botlib:be_aas_reach.obj
 0002:0000f6d4       ??_C@_0BD@NCN@?$CF6d?5reach?5grapple?6?$AA@ 0060a6d4     botlib:be_aas_reach.obj
 0002:0000f6e8       ??_C@_0BE@HNLE@?$CF6d?5reach?5elevator?6?$AA@ 0060a6e8     botlib:be_aas_reach.obj
 0002:0000f6fc       ??_C@_0BD@KDFL@?$CF6d?5reach?5funcbob?6?$AA@ 0060a6fc     botlib:be_aas_reach.obj
 0002:0000f710       ??_C@_0BE@ECKF@?$CF6d?5reach?5teleport?6?$AA@ 0060a710     botlib:be_aas_reach.obj
 0002:0000f724       ??_C@_0BA@MIIE@?$CF6d?5reach?5walk?6?$AA@ 0060a724     botlib:be_aas_reach.obj
 0002:0000f734       ??_C@_0BC@NNOK@?$CF6d?5reach?5ladder?6?$AA@ 0060a734     botlib:be_aas_reach.obj
 0002:0000f748       ??_C@_0BA@JNDG@?$CF6d?5reach?5jump?6?$AA@ 0060a748     botlib:be_aas_reach.obj
 0002:0000f758       ??_C@_0BI@GLEM@?$CF6d?5reach?5walkoffledge?6?$AA@ 0060a758     botlib:be_aas_reach.obj
 0002:0000f770       ??_C@_0BF@ELPH@?$CF6d?5reach?5waterjump?6?$AA@ 0060a770     botlib:be_aas_reach.obj
 0002:0000f788       ??_C@_0BD@MIEJ@?$CF6d?5reach?5barrier?6?$AA@ 0060a788     botlib:be_aas_reach.obj
 0002:0000f79c       ??_C@_0BA@ILIL@?$CF6d?5reach?5step?6?$AA@ 0060a79c     botlib:be_aas_reach.obj
 0002:0000f7ac       ??_C@_0BH@KALN@?$CF6d?5reach?5equal?5floor?6?$AA@ 0060a7ac     botlib:be_aas_reach.obj
 0002:0000f7c4       ??_C@_0BA@KPGP@?$CF6d?5reach?5swim?6?$AA@ 0060a7c4     botlib:be_aas_reach.obj
 0002:0000f7d4       ??_C@_0CM@GGC@?6please?5wait?5while?5storing?5reach@ 0060a7d4     botlib:be_aas_reach.obj
 0002:0000f800       ??_C@_08DEO@?$AN?$CF6?41f?$CF?$CF?$AA@ 0060a800     botlib:be_aas_reach.obj
 0002:0000f80c       ??_C@_0BN@NAOL@calculating?5reachability?4?4?4?6?$AA@ 0060a80c     botlib:be_aas_reach.obj
 0002:0000f82c       ??_C@_0N@GIEI@grapplereach?$AA@ 0060a82c     botlib:be_aas_reach.obj
 0002:0000f83c       ??_C@_0BC@FEKN@forcereachability?$AA@ 0060a83c     botlib:be_aas_reach.obj
 0002:0000f850       ??_C@_0BJ@JNIL@bsp?5entity?5out?5of?5range?6?$AA@ 0060a850     botlib:be_aas_bspq3.obj
 0002:0000f86c       ??_C@_0M@MNLO@?$CFlf?5?$CFlf?5?$CFlf?$AA@ 0060a86c     botlib:be_aas_bspq3.obj
 0002:0000f878       ??_C@_0L@PHEH@missing?5?$HN?6?$AA@ 0060a878     botlib:be_aas_bspq3.obj
 0002:0000f884       ??_C@_0BP@DLMG@too?5many?5entities?5in?5BSP?5file?6?$AA@ 0060a884     botlib:be_aas_bspq3.obj
 0002:0000f8a4       ??_C@_0M@CDNE@invalid?5?$CFs?6?$AA@ 0060a8a4     botlib:be_aas_bspq3.obj
 0002:0000f8b0       ??_C@_07IMEI@entdata?$AA@  0060a8b0     botlib:be_aas_bspq3.obj
 0002:0000f8b8       ??_C@_0DF@KNCL@GeneticParentsAndChildSelection?3@ 0060a8b8     botlib:be_ai_gen.obj
 0002:0000f8f0       ??_C@_0DA@JMEH@GeneticParentsAndChildSelection?3@ 0060a8f0     botlib:be_ai_gen.obj
 0002:0000f920       ??_C@_01PILM@$?$AA@        0060a920     botlib:l_script.obj
 0002:0000f924       ??_C@_01KNFJ@?$CD?$AA@     0060a924     botlib:l_script.obj
 0002:0000f928       ??_C@_01PKMN@?$DP?$AA@     0060a928     botlib:l_script.obj
 0002:0000f92c       ??_C@_01PFJK@?$HO?$AA@     0060a92c     botlib:l_script.obj
 0002:0000f930       ??_C@_01KHHK@?$FO?$AA@     0060a930     botlib:l_script.obj
 0002:0000f934       ??_C@_01PJOB@?$CL?$AA@     0060a934     botlib:l_script.obj
 0002:0000f938       ??_C@_01FCCL@?$CF?$AA@     0060a938     botlib:l_script.obj
 0002:0000f93c       ??_C@_01FDHG@?$CK?$AA@     0060a93c     botlib:l_script.obj
 0002:0000f940       ??_C@_02EEIP@?4?$CK?$AA@   0060a940     botlib:l_script.obj
 0002:0000f944       ??_C@_02HMFM@?9?$DO?$AA@   0060a944     botlib:l_script.obj
 0002:0000f948       ??_C@_02FFHB@?$DM?$DM?$AA@ 0060a948     botlib:l_script.obj
 0002:0000f94c       ??_C@_02CNAK@?$DO?$DO?$AA@ 0060a94c     botlib:l_script.obj
 0002:0000f950       ??_C@_02KNEE@?$FO?$DN?$AA@ 0060a950     botlib:l_script.obj
 0002:0000f954       ??_C@_02FFED@?$HM?$DN?$AA@ 0060a954     botlib:l_script.obj
 0002:0000f958       ??_C@_02NEO@?$CG?$DN?$AA@  0060a958     botlib:l_script.obj
 0002:0000f95c       ??_C@_02CKJF@?9?9?$AA@     0060a95c     botlib:l_script.obj
 0002:0000f960       ??_C@_02KCBI@?$CL?$CL?$AA@ 0060a960     botlib:l_script.obj
 0002:0000f964       ??_C@_02IDOF@?9?$DN?$AA@   0060a964     botlib:l_script.obj
 0002:0000f968       ??_C@_02PEBK@?$CL?$DN?$AA@ 0060a968     botlib:l_script.obj
 0002:0000f96c       ??_C@_02DGLB@?$CF?$DN?$AA@ 0060a96c     botlib:l_script.obj
 0002:0000f970       ??_C@_02KOLA@?1?$DN?$AA@   0060a970     botlib:l_script.obj
 0002:0000f974       ??_C@_02OCLA@?$CK?$DN?$AA@ 0060a974     botlib:l_script.obj
 0002:0000f978       ??_C@_02GMBL@?$CB?$DN?$AA@ 0060a978     botlib:l_script.obj
 0002:0000f97c       ??_C@_02OJEM@?$DN?$DN?$AA@ 0060a97c     botlib:l_script.obj
 0002:0000f980       ??_C@_02PPOG@?$DM?$DN?$AA@ 0060a980     botlib:l_script.obj
 0002:0000f984       ??_C@_02NCLD@?$DO?$DN?$AA@ 0060a984     botlib:l_script.obj
 0002:0000f988       ??_C@_02FKBE@?$HM?$HM?$AA@ 0060a988     botlib:l_script.obj
 0002:0000f98c       ??_C@_02PDP@?$CG?$CG?$AA@  0060a98c     botlib:l_script.obj
 0002:0000f990       ??_C@_03EELG@?$DM?$DM?$DN?$AA@ 0060a990     botlib:l_script.obj
 0002:0000f994       ??_C@_03MNMO@?$DO?$DO?$DN?$AA@ 0060a994     botlib:l_script.obj
 0002:0000f998       ??_C@_0BD@BKIJ@unkown?5punctuation?$AA@ 0060a998     botlib:l_script.obj
 0002:0000f9ac       ??_C@_0BE@FGOA@unknown?5escape?5char?$AA@ 0060a9ac     botlib:l_script.obj
 0002:0000f9c0       ??_C@_0CE@MMAE@too?5large?5value?5in?5escape?5charac@ 0060a9c0     botlib:l_script.obj
 0002:0000f9e4       ??_C@_0BJ@PLEN@newline?5inside?5string?5?$CFs?$AA@ 0060a9e4     botlib:l_script.obj
 0002:0000fa00       ??_C@_0BH@DOKC@missing?5trailing?5quote?$AA@ 0060aa00     botlib:l_script.obj
 0002:0000fa18       ??_C@_0CC@OIME@string?5longer?5than?5MAX_TOKEN?5?$DN?5?$CF@ 0060aa18     botlib:l_script.obj
 0002:0000fa3c       ??_C@_0CA@POCL@name?5longer?5than?5MAX_TOKEN?5?$DN?5?$CFd?$AA@ 0060aa3c     botlib:l_script.obj
 0002:0000fa5c       ??_C@_0CC@NMIO@number?5longer?5than?5MAX_TOKEN?5?$DN?5?$CF@ 0060aa5c     botlib:l_script.obj
 0002:0000fa80       ??_C@_0CJ@PMHN@binary?5number?5longer?5than?5MAX_TO@ 0060aa80     botlib:l_script.obj
 0002:0000faac       ??_C@_0CO@BPLJ@hexadecimal?5number?5longer?5than?5M@ 0060aaac     botlib:l_script.obj
 0002:0000fadc       ??_C@_0CI@CLMC@too?5many?5characters?5in?5literal?0?5@ 0060aadc     botlib:l_script.obj
 0002:0000fb04       ??_C@_0BO@DGJB@end?5of?5file?5before?5trailing?5?8?$AA@ 0060ab04     botlib:l_script.obj
 0002:0000fb24       ??_C@_0CL@BPAN@primitive?5token?5longer?5than?5MAX_@ 0060ab24     botlib:l_script.obj
 0002:0000fb50       ??_C@_0BB@GFK@can?8t?5read?5token?$AA@ 0060ab50     botlib:l_script.obj
 0002:0000fb64       ??_C@_0BP@LCFL@BUG?3?5wrong?5punctuation?5subtype?$AA@ 0060ab64     botlib:l_script.obj
 0002:0000fb84       ??_C@_0CA@CJEC@expected?5float?5value?0?5found?5?$CFs?6?$AA@ 0060ab84     botlib:l_script.obj
 0002:0000fba4       ??_C@_0CC@GIEP@expected?5integer?5value?0?5found?5?$CFs@ 0060aba4     botlib:l_script.obj
 0002:0000fbc8       ??_C@_05LELA@?$CFs?1?$CFs?$AA@ 0060abc8     botlib:l_script.obj
 0002:0000fbd0       ??_C@_0BP@IBKF@value?5?$CFd?5out?5of?5range?5?$FL?$CFf?0?5?$CFf?$FN?$AA@ 0060abd0     botlib:l_struct.obj
 0002:0000fbf0       ??_C@_0BP@IHLA@value?5?$CFd?5out?5of?5range?5?$FL?$CFd?0?5?$CFd?$FN?$AA@ 0060abf0     botlib:l_struct.obj
 0002:0000fc10       ??_C@_0BM@KLMB@float?5out?5of?5range?5?$FL?$CFf?0?5?$CFf?$FN?$AA@ 0060ac10     botlib:l_struct.obj
 0002:0000fc2c       ??_C@_0BB@GCKN@unexpected?5float?$AA@ 0060ac2c     botlib:l_struct.obj
 0002:0000fc40       ??_C@_0BK@ELJB@expected?5number?0?5found?5?$CFs?$AA@ 0060ac40     botlib:l_struct.obj
 0002:0000fc5c       ??_C@_0BK@KDDB@unexpected?5punctuation?5?$CFs?$AA@ 0060ac5c     botlib:l_struct.obj
 0002:0000fc78       ??_C@_0CC@PAMB@expected?5unsigned?5value?0?5found?5?$CF@ 0060ac78     botlib:l_struct.obj
 0002:0000fc9c       ??_C@_0BL@OELA@expected?5a?5comma?0?5found?5?$CFs?$AA@ 0060ac9c     botlib:l_struct.obj
 0002:0000fcb8       ??_C@_0BO@FJBG@BUG?3?5no?5sub?5structure?5defined?$AA@ 0060acb8     botlib:l_struct.obj
 0002:0000fcd8       ??_C@_0BL@OGKA@unknown?5structure?5field?5?$CFs?$AA@ 0060acd8     botlib:l_struct.obj
 0002:0000fcf4       ??_C@_01POCP@?7?$AA@       0060acf4     botlib:l_struct.obj
 0002:0000fcf8       ??_C@_03JECO@?$HN?$AN?6?$AA@ 0060acf8     botlib:l_struct.obj
 0002:0000fcfc       ??_C@_03IIBH@?$CFs?7?$AA@  0060acfc     botlib:l_struct.obj
 0002:0000fd00       ??_C@_03HIFJ@?$HL?$AN?6?$AA@ 0060ad00     botlib:l_struct.obj
 0002:0000fd04       ??_C@_0BI@FOEP@can?8t?5seek?5to?5aas?5lump?6?$AA@ 0060ad04     botlib:be_aas_file.obj
 0002:0000fd1c       ??_C@_0CA@GAHL@AAS?5file?5not?5sequentially?5read?6?$AA@ 0060ad1c     botlib:be_aas_file.obj
 0002:0000fd3c       ??_C@_0BM@PAEI@aas?5file?5?$CFs?5is?5out?5of?5date?6?$AA@ 0060ad3c     botlib:be_aas_file.obj
 0002:0000fd58       ??_C@_0CD@IBL@aas?5file?5?$CFs?5is?5version?5?$CFi?0?5not?5?$CF@ 0060ad58     botlib:be_aas_file.obj
 0002:0000fd7c       ??_C@_0BH@MNOC@?$CFs?5is?5not?5an?5AAS?5file?6?$AA@ 0060ad7c     botlib:be_aas_file.obj
 0002:0000fd94       ??_C@_0P@HMNE@can?8t?5open?5?$CFs?6?$AA@ 0060ad94     botlib:be_aas_file.obj
 0002:0000fda4       ??_C@_0BD@MBHL@trying?5to?5load?5?$CFs?6?$AA@ 0060ada4     botlib:be_aas_file.obj
 0002:0000fdb8       ??_C@_0BC@FHFK@error?5opening?5?$CFs?6?$AA@ 0060adb8     botlib:be_aas_file.obj
 0002:0000fdcc       ??_C@_0M@BCMD@writing?5?$CFs?6?$AA@ 0060adcc     botlib:be_aas_file.obj
 0002:0000fdd8       ??_C@_0BF@HCAO@AAS?5data?5optimized?4?6?$AA@ 0060add8     botlib:be_aas_optimize.obj
 0002:0000fdf0       ??_C@_0BI@IPEK@AAS_MAX_PORTALINDEXSIZE?$AA@ 0060adf0     botlib:be_aas_cluster.obj
 0002:0000fe08       ??_C@_0DG@HLK@portal?5area?5?$CFd?5is?5seperating?5mor@ 0060ae08     botlib:be_aas_cluster.obj
 0002:0000fe40       ??_C@_0BF@CHCO@no?5portal?5of?5area?5?$CFd?$AA@ 0060ae40     botlib:be_aas_cluster.obj
 0002:0000fe58       ??_C@_0CL@EGJ@cluster?5?$CFd?5touched?5cluster?5?$CFd?5at@ 0060ae58     botlib:be_aas_cluster.obj
 0002:0000fe84       ??_C@_0CO@ODJN@AAS_FloodClusterAreas_r?3?5areanum@ 0060ae84     botlib:be_aas_cluster.obj
 0002:0000feb4       ??_C@_0BB@BCKM@AAS_MAX_CLUSTERS?$AA@ 0060aeb4     botlib:be_aas_cluster.obj
 0002:0000fec8       ??_C@_0BA@CJCC@AAS_MAX_PORTALS?$AA@ 0060aec8     botlib:be_aas_cluster.obj
 0002:0000fed8       ??_C@_0BA@FGPE@MAX_PORTALAREAS?$AA@ 0060aed8     botlib:be_aas_cluster.obj
 0002:0000fee8       ??_C@_0BG@KEKG@possible?5portal?3?5?$CFd?$AN?6?$AA@ 0060aee8     botlib:be_aas_cluster.obj
 0002:0000ff00       ??_C@_0BM@EMG@?$AN?$CF6d?5possible?5portal?5areas?6?$AA@ 0060af00     botlib:be_aas_cluster.obj
 0002:0000ff1c       ??_C@_0CF@GBEK@portal?5area?5?$CFd?5has?5no?5back?5clust@ 0060af1c     botlib:be_aas_cluster.obj
 0002:0000ff44       ??_C@_0CG@DBIA@portal?5area?5?$CFd?5has?5no?5front?5clus@ 0060af44     botlib:be_aas_cluster.obj
 0002:0000ff6c       ??_C@_0BJ@LEGK@?$CF6d?5forced?5portal?5areas?6?$AA@ 0060af6c     botlib:be_aas_cluster.obj
 0002:0000ff88       ??_C@_0CC@FHHN@area?5?$CFd?5is?5a?5forced?5portal?5area?$AN@ 0060af88     botlib:be_aas_cluster.obj
 0002:0000ffac       ??_C@_0DB@IONC@?$CF6i?5AAS?5memory?1CPU?5usage?5?$CIthe?5lo@ 0060afac     botlib:be_aas_cluster.obj
 0002:0000ffe0       ??_C@_0BO@NOAP@?$CF6i?5total?5reachability?5areas?6?$AA@ 0060afe0     botlib:be_aas_cluster.obj
 0002:00010000       ??_C@_0CG@PBDK@cluster?5?$CFd?5has?5?$CFd?5reachability?5a@ 0060b000     botlib:be_aas_cluster.obj
 0002:00010028       ??_C@_0BG@FOCG@?$CF6d?5clusters?5created?6?$AA@ 0060b028     botlib:be_aas_cluster.obj
 0002:00010040       ??_C@_0BF@GBBO@?$CF6d?5portals?5created?6?$AA@ 0060b040     botlib:be_aas_cluster.obj
 0002:00010058       ??_C@_0BF@NEOJ@portal?5?$CFd?3?5area?5?$CFd?$AN?6?$AA@ 0060b058     botlib:be_aas_cluster.obj
 0002:00010070       ??_C@_04FHGL@?$AN?$CF6d?$AA@ 0060b070     botlib:be_aas_cluster.obj
 0002:00010078       ??_C@_0BK@EKPC@?$AN?$CF6d?5removed?5portal?5areas?$AA@ 0060b078     botlib:be_aas_cluster.obj
 0002:00010094       ??_C@_0BA@FICF@forceclustering?$AA@ 0060b094     botlib:be_aas_cluster.obj
 0002:000100a4       ??_C@_0BI@KKGM@Mode?511?3?5856x480?5?$CIwide?$CJ?$AA@ 0060b0a4     renderer:tr_init.obj
 0002:000100bc       ??_C@_0BD@IICH@Mode?510?3?52048x1536?$AA@ 0060b0bc     renderer:tr_init.obj
 0002:000100d0       ??_C@_0BD@FGKO@Mode?5?59?3?51600x1200?$AA@ 0060b0d0     renderer:tr_init.obj
 0002:000100e4       ??_C@_0BD@EMHH@Mode?5?58?3?51280x1024?$AA@ 0060b0e4     renderer:tr_init.obj
 0002:000100f8       ??_C@_0BC@GNHB@Mode?5?57?3?51152x864?$AA@ 0060b0f8     renderer:tr_init.obj
 0002:0001010c       ??_C@_0BC@FBOE@Mode?5?56?3?51024x768?$AA@ 0060b10c     renderer:tr_init.obj
 0002:00010120       ??_C@_0BB@OGNE@Mode?5?55?3?5960x720?$AA@ 0060b120     renderer:tr_init.obj
 0002:00010134       ??_C@_0BB@EFAA@Mode?5?54?3?5800x600?$AA@ 0060b134     renderer:tr_init.obj
 0002:00010148       ??_C@_0BB@DOGG@Mode?5?53?3?5640x480?$AA@ 0060b148     renderer:tr_init.obj
 0002:0001015c       ??_C@_0BB@FFEN@Mode?5?52?3?5512x384?$AA@ 0060b15c     renderer:tr_init.obj
 0002:00010170       ??_C@_0BB@CBHM@Mode?5?51?3?5400x300?$AA@ 0060b170     renderer:tr_init.obj
 0002:00010184       ??_C@_0BB@EEKK@Mode?5?50?3?5320x240?$AA@ 0060b184     renderer:tr_init.obj
 0002:00010198       ??_C@_0BD@NJHF@GL_CheckErrors?3?5?$CFs?$AA@ 0060b198     renderer:tr_init.obj
 0002:000101ac       ??_C@_0BB@OEHJ@GL_OUT_OF_MEMORY?$AA@ 0060b1ac     renderer:tr_init.obj
 0002:000101c0       ??_C@_0BD@OFDG@GL_STACK_UNDERFLOW?$AA@ 0060b1c0     renderer:tr_init.obj
 0002:000101d4       ??_C@_0BC@GIMK@GL_STACK_OVERFLOW?$AA@ 0060b1d4     renderer:tr_init.obj
 0002:000101e8       ??_C@_0BF@FONF@GL_INVALID_OPERATION?$AA@ 0060b1e8     renderer:tr_init.obj
 0002:00010200       ??_C@_0BB@IOAE@GL_INVALID_VALUE?$AA@ 0060b200     renderer:tr_init.obj
 0002:00010214       ??_C@_0BA@CPMK@GL_INVALID_ENUM?$AA@ 0060b214     renderer:tr_init.obj
 0002:00010224       ??_C@_0BN@OJEO@screenshots?1shot?$CFi?$CFi?$CFi?$CFi?4tga?$AA@ 0060b224     renderer:tr_init.obj
 0002:00010244       ??_C@_0BJ@JJPL@screenshots?1shot9999?4tga?$AA@ 0060b244     renderer:tr_init.obj
 0002:00010260       ??_C@_0BN@EAGI@screenshots?1shot?$CFi?$CFi?$CFi?$CFi?4jpg?$AA@ 0060b260     renderer:tr_init.obj
 0002:00010280       ??_C@_0BJ@DANN@screenshots?1shot9999?4jpg?$AA@ 0060b280     renderer:tr_init.obj
 0002:0001029c       ??_C@_09PAG@Wrote?5?$CFs?6?$AA@ 0060b29c     renderer:tr_init.obj
 0002:000102a8       __real@4@4007c000000000000000 0060b2a8     renderer:tr_init.obj
 0002:000102ac       __real@4@40088000000000000000 0060b2ac     renderer:tr_init.obj
 0002:000102b0       ??_C@_0BC@PKPD@levelshots?1?$CFs?4tga?$AA@ 0060b2b0     renderer:tr_init.obj
 0002:000102c4       ??_C@_0CE@GAPP@ScreenShot?3?5Couldn?8t?5create?5a?5fi@ 0060b2c4     renderer:tr_init.obj
 0002:000102e8       ??_C@_0BD@DJD@screenshots?1?$CFs?4tga?$AA@ 0060b2e8     renderer:tr_init.obj
 0002:000102fc       ??_C@_06EBGC@silent?$AA@   0060b2fc     renderer:tr_init.obj
 0002:00010304       ??_C@_09IADL@levelshot?$AA@ 0060b304     renderer:tr_init.obj
 0002:00010310       ??_C@_0BD@KKLF@screenshots?1?$CFs?4jpg?$AA@ 0060b310     renderer:tr_init.obj
 0002:00010324       ??_C@_07KFLF@gfxinfo?$AA@  0060b324     renderer:tr_init.obj
 0002:0001032c       ??_C@_0P@DFAF@screenshotJPEG?$AA@ 0060b32c     renderer:tr_init.obj
 0002:0001033c       ??_C@_0L@BJLF@screenshot?$AA@ 0060b33c     renderer:tr_init.obj
 0002:00010348       ??_C@_08NEKD@modelist?$AA@ 0060b348     renderer:tr_init.obj
 0002:00010354       ??_C@_09HFGF@modellist?$AA@ 0060b354     renderer:tr_init.obj
 0002:00010360       ??_C@_08JCOL@skinlist?$AA@ 0060b360     renderer:tr_init.obj
 0002:0001036c       ??_C@_0L@OIIH@shaderlist?$AA@ 0060b36c     renderer:tr_init.obj
 0002:00010378       ??_C@_09PCJE@imagelist?$AA@ 0060b378     renderer:tr_init.obj
 0002:00010384       ??_C@_0P@KJMH@r_maxpolyverts?$AA@ 0060b384     renderer:tr_init.obj
 0002:00010394       ??_C@_0L@HMAA@r_maxpolys?$AA@ 0060b394     renderer:tr_init.obj
 0002:000103a0       ??_C@_0L@FKLD@cg_shadows?$AA@ 0060b3a0     renderer:tr_init.obj
 0002:000103ac       ??_C@_0M@HDBJ@r_noportals?$AA@ 0060b3ac     renderer:tr_init.obj
 0002:000103b8       ??_C@_09BIML@r_lockpvs?$AA@ 0060b3b8     renderer:tr_init.obj
 0002:000103c4       ??_C@_0N@LFD@r_drawBuffer?$AA@ 0060b3c4     renderer:tr_init.obj
 0002:000103d4       ??_C@_07MDNP@GL_BACK?$AA@  0060b3d4     renderer:tr_init.obj
 0002:000103dc       ??_C@_0O@ONCF@r_offsetunits?$AA@ 0060b3dc     renderer:tr_init.obj
 0002:000103ec       ??_C@_02ICLI@?92?$AA@      0060b3ec     renderer:tr_init.obj
 0002:000103f0       ??_C@_0P@EPMC@r_offsetfactor?$AA@ 0060b3f0     renderer:tr_init.obj
 0002:00010400       ??_C@_07KHFJ@r_clear?$AA@  0060b400     renderer:tr_init.obj
 0002:00010408       ??_C@_0O@BLAA@r_shownormals?$AA@ 0060b408     renderer:tr_init.obj
 0002:00010418       ??_C@_09KLKC@r_showsky?$AA@ 0060b418     renderer:tr_init.obj
 0002:00010424       ??_C@_0L@KAJM@r_showtris?$AA@ 0060b424     renderer:tr_init.obj
 0002:00010430       ??_C@_08NMMJ@r_nobind?$AA@ 0060b430     renderer:tr_init.obj
 0002:0001043c       ??_C@_09OPPF@r_logFile?$AA@ 0060b43c     renderer:tr_init.obj
 0002:00010448       ??_C@_09OGFI@r_verbose?$AA@ 0060b448     renderer:tr_init.obj
 0002:00010454       ??_C@_08MNKK@r_speeds?$AA@ 0060b454     renderer:tr_init.obj
 0002:00010460       ??_C@_0O@LHGG@r_showcluster?$AA@ 0060b460     renderer:tr_init.obj
 0002:00010470       ??_C@_07CBKH@r_novis?$AA@  0060b470     renderer:tr_init.obj
 0002:00010478       ??_C@_08HJPD@r_nocull?$AA@ 0060b478     renderer:tr_init.obj
 0002:00010484       ??_C@_08EJOM@r_ignore?$AA@ 0060b484     renderer:tr_init.obj
 0002:00010490       ??_C@_0P@LECL@r_drawentities?$AA@ 0060b490     renderer:tr_init.obj
 0002:000104a0       ??_C@_0M@BNM@r_norefresh?$AA@ 0060b4a0     renderer:tr_init.obj
 0002:000104ac       ??_C@_0L@KDJI@r_lodscale?$AA@ 0060b4ac     renderer:tr_init.obj
 0002:000104b8       ??_C@_0BC@GHE@r_measureOverdraw?$AA@ 0060b4b8     renderer:tr_init.obj
 0002:000104cc       ??_C@_0O@JEGC@r_skipBackEnd?$AA@ 0060b4cc     renderer:tr_init.obj
 0002:000104dc       ??_C@_09GAKH@r_showSmp?$AA@ 0060b4dc     renderer:tr_init.obj
 0002:000104e8       ??_C@_0M@HOPJ@r_flareFade?$AA@ 0060b4e8     renderer:tr_init.obj
 0002:000104f4       ??_C@_01KOHF@7?$AA@        0060b4f4     renderer:tr_init.obj
 0002:000104f8       ??_C@_0M@KDHF@r_flareSize?$AA@ 0060b4f8     renderer:tr_init.obj
 0002:00010504       ??_C@_0N@IIIF@r_portalOnly?$AA@ 0060b504     renderer:tr_init.obj
 0002:00010514       ??_C@_0L@DOIK@r_lightmap?$AA@ 0060b514     renderer:tr_init.obj
 0002:00010520       ??_C@_0M@GFDO@r_drawworld?$AA@ 0060b520     renderer:tr_init.obj
 0002:0001052c       ??_C@_0L@BPO@r_nocurves?$AA@ 0060b52c     renderer:tr_init.obj
 0002:00010538       ??_C@_0P@OMDA@r_saveFontData?$AA@ 0060b538     renderer:tr_init.obj
 0002:00010548       ??_C@_0P@GAGM@r_printShaders?$AA@ 0060b548     renderer:tr_init.obj
 0002:00010558       ??_C@_0M@KPOP@r_debugSort?$AA@ 0060b558     renderer:tr_init.obj
 0002:00010564       ??_C@_0N@LFBB@r_debuglight?$AA@ 0060b564     renderer:tr_init.obj
 0002:00010574       ??_C@_0N@JFJ@r_showImages?$AA@ 0060b574     renderer:tr_init.obj
 0002:00010584       ??_C@_0BA@DAFI@r_directedScale?$AA@ 0060b584     renderer:tr_init.obj
 0002:00010594       ??_C@_0P@KBDK@r_ambientScale?$AA@ 0060b594     renderer:tr_init.obj
 0002:000105a4       ??_C@_03HAKE@0?46?$AA@     0060b5a4     renderer:tr_init.obj
 0002:000105a8       ??_C@_0N@BFMF@r_primitives?$AA@ 0060b5a8     renderer:tr_init.obj
 0002:000105b8       ??_C@_0BE@KOOF@r_railSegmentLength?$AA@ 0060b5b8     renderer:tr_init.obj
 0002:000105cc       ??_C@_0BA@KOG@r_railCoreWidth?$AA@ 0060b5cc     renderer:tr_init.obj
 0002:000105dc       ??_C@_0M@JMJK@r_railWidth?$AA@ 0060b5dc     renderer:tr_init.obj
 0002:000105e8       ??_C@_0BA@JAAM@r_facePlaneCull?$AA@ 0060b5e8     renderer:tr_init.obj
 0002:000105f8       ??_C@_07JEME@r_gamma?$AA@  0060b5f8     renderer:tr_init.obj
 0002:00010600       ??_C@_0P@KDCI@r_swapInterval?$AA@ 0060b600     renderer:tr_init.obj
 0002:00010610       ??_C@_0O@HOGM@r_textureMode?$AA@ 0060b610     renderer:tr_init.obj
 0002:00010620       ??_C@_0BJ@CJFK@GL_LINEAR_MIPMAP_NEAREST?$AA@ 0060b620     renderer:tr_init.obj
 0002:0001063c       ??_C@_08GDNG@r_finish?$AA@ 0060b63c     renderer:tr_init.obj
 0002:00010648       ??_C@_0O@MEMC@r_dlightBacks?$AA@ 0060b648     renderer:tr_init.obj
 0002:00010658       ??_C@_0P@KCDM@r_dynamiclight?$AA@ 0060b658     renderer:tr_init.obj
 0002:00010668       ??_C@_09IAOE@r_drawSun?$AA@ 0060b668     renderer:tr_init.obj
 0002:00010674       ??_C@_09CIG@r_fastsky?$AA@ 0060b674     renderer:tr_init.obj
 0002:00010680       ??_C@_0BB@FAGK@r_ignoreGLErrors?$AA@ 0060b680     renderer:tr_init.obj
 0002:00010694       ??_C@_07EOKH@r_znear?$AA@  0060b694     renderer:tr_init.obj
 0002:0001069c       ??_C@_08MLIL@r_flares?$AA@ 0060b69c     renderer:tr_init.obj
 0002:000106a8       ??_C@_09JPMG@r_lodbias?$AA@ 0060b6a8     renderer:tr_init.obj
 0002:000106b4       ??_C@_0BA@GMAD@r_lodCurveError?$AA@ 0060b6b4     renderer:tr_init.obj
 0002:000106c4       ??_C@_0P@GKIG@r_singleShader?$AA@ 0060b6c4     renderer:tr_init.obj
 0002:000106d4       ??_C@_0M@HPFC@r_intensity?$AA@ 0060b6d4     renderer:tr_init.obj
 0002:000106e0       ??_C@_0BE@EMNO@r_mapOverBrightBits?$AA@ 0060b6e0     renderer:tr_init.obj
 0002:000106f4       ??_C@_0N@MMGG@r_fullbright?$AA@ 0060b6f4     renderer:tr_init.obj
 0002:00010704       ??_C@_0BB@KMFJ@r_displayRefresh?$AA@ 0060b704     renderer:tr_init.obj
 0002:00010718       ??_C@_0BB@JACN@r_ignoreFastPath?$AA@ 0060b718     renderer:tr_init.obj
 0002:0001072c       ??_C@_05FGLG@r_smp?$AA@    0060b72c     renderer:tr_init.obj
 0002:00010734       ??_C@_0P@CKPN@r_subdivisions?$AA@ 0060b734     renderer:tr_init.obj
 0002:00010744       ??_C@_0P@OINF@r_uifullscreen?$AA@ 0060b744     renderer:tr_init.obj
 0002:00010754       ??_C@_0O@LELK@r_vertexLight?$AA@ 0060b754     renderer:tr_init.obj
 0002:00010764       ??_C@_0BA@ICKN@r_simpleMipMaps?$AA@ 0060b764     renderer:tr_init.obj
 0002:00010774       ??_C@_0P@JCFE@r_customaspect?$AA@ 0060b774     renderer:tr_init.obj
 0002:00010784       ??_C@_0P@BIBK@r_customheight?$AA@ 0060b784     renderer:tr_init.obj
 0002:00010794       ??_C@_0O@BBHM@r_customwidth?$AA@ 0060b794     renderer:tr_init.obj
 0002:000107a4       ??_C@_04BBJC@1600?$AA@     0060b7a4     renderer:tr_init.obj
 0002:000107ac       ??_C@_06JIMO@r_mode?$AA@   0060b7ac     renderer:tr_init.obj
 0002:000107b4       ??_C@_0BA@BLLL@r_ignorehwgamma?$AA@ 0060b7b4     renderer:tr_init.obj
 0002:000107c4       ??_C@_0BB@IDIH@r_overBrightBits?$AA@ 0060b7c4     renderer:tr_init.obj
 0002:000107d8       ??_C@_0M@PLLC@r_depthbits?$AA@ 0060b7d8     renderer:tr_init.obj
 0002:000107e4       ??_C@_0O@HKDF@r_stencilbits?$AA@ 0060b7e4     renderer:tr_init.obj
 0002:000107f4       ??_C@_08JDAK@r_stereo?$AA@ 0060b7f4     renderer:tr_init.obj
 0002:00010800       ??_C@_0M@EIBE@r_colorbits?$AA@ 0060b800     renderer:tr_init.obj
 0002:0001080c       ??_C@_0O@NENM@r_texturebits?$AA@ 0060b80c     renderer:tr_init.obj
 0002:0001081c       ??_C@_0BB@JPMN@r_detailtextures?$AA@ 0060b81c     renderer:tr_init.obj
 0002:00010830       ??_C@_0BB@ELDF@r_colorMipLevels?$AA@ 0060b830     renderer:tr_init.obj
 0002:00010844       ??_C@_0BC@GMJG@r_roundImagesDown?$AA@ 0060b844     renderer:tr_init.obj
 0002:00010858       ??_C@_08JJKE@r_picmip?$AA@ 0060b858     renderer:tr_init.obj
 0002:00010864       ??_C@_0BG@KIAC@r_ext_texture_env_add?$AA@ 0060b864     renderer:tr_init.obj
 0002:0001087c       ??_C@_0BM@JEHC@r_ext_compiled_vertex_array?$AA@ 0060b87c     renderer:tr_init.obj
 0002:00010898       ??_C@_0BD@LPOL@r_ext_multitexture?$AA@ 0060b898     renderer:tr_init.obj
 0002:000108ac       ??_C@_0BE@OFL@r_ext_gamma_control?$AA@ 0060b8ac     renderer:tr_init.obj
 0002:000108c0       ??_C@_0BK@PPMF@r_ext_compressed_textures?$AA@ 0060b8c0     renderer:tr_init.obj
 0002:000108dc       ??_C@_0BC@NJAA@r_allowExtensions?$AA@ 0060b8dc     renderer:tr_init.obj
 0002:000108f0       ??_C@_08MLDJ@opengl32?$AA@ 0060b8f0     renderer:tr_init.obj
 0002:000108fc       ??_C@_0CL@GAJP@WARNING?3?5cvar?5?8?$CFs?8?5out?5of?5range?5@ 0060b8fc     renderer:tr_init.obj
 0002:00010928       ??_C@_0CL@ELNP@WARNING?3?5cvar?5?8?$CFs?8?5out?5of?5range?5@ 0060b928     renderer:tr_init.obj
 0002:00010954       ??_C@_0CK@JELO@WARNING?3?5cvar?5?8?$CFs?8?5must?5be?5integ@ 0060b954     renderer:tr_init.obj
 0002:00010980       ??_C@_0BC@HCNP@Forcing?5glFinish?6?$AA@ 0060b980     renderer:tr_init.obj
 0002:00010994       ??_C@_0CD@ODMA@Using?5dual?5processor?5acceleratio@ 0060b994     renderer:tr_init.obj
 0002:000109b8       ??_C@_0BO@LOOH@HACK?3?5riva128?5approximations?6?$AA@ 0060b9b8     renderer:tr_init.obj
 0002:000109d8       ??_C@_0BO@LDLG@HACK?3?5ragePro?5approximations?6?$AA@ 0060b9d8     renderer:tr_init.obj
 0002:000109f8       ??_C@_0CL@MDIG@HACK?3?5using?5vertex?5lightmap?5appr@ 0060b9f8     renderer:tr_init.obj
 0002:00010a24       ??_C@_0BJ@GKAH@compressed?5textures?3?5?$CFs?6?$AA@ 0060ba24     renderer:tr_init.obj
 0002:00010a40       ??_C@_0BA@MKDA@texenv?5add?3?5?$CFs?6?$AA@ 0060ba40     renderer:tr_init.obj
 0002:00010a50       ??_C@_0BM@EJNL@compiled?5vertex?5arrays?3?5?$CFs?6?$AA@ 0060ba50     renderer:tr_init.obj
 0002:00010a6c       ??_C@_0BC@OMHD@multitexture?3?5?$CFs?6?$AA@ 0060ba6c     renderer:tr_init.obj
 0002:00010a80       ??_C@_0BC@IAGF@texture?5bits?3?5?$CFd?6?$AA@ 0060ba80     renderer:tr_init.obj
 0002:00010a94       ??_C@_0M@CDNK@picmip?3?5?$CFd?6?$AA@ 0060ba94     renderer:tr_init.obj
 0002:00010aa0       ??_C@_0BB@NCHO@texturemode?3?5?$CFs?6?$AA@ 0060baa0     renderer:tr_init.obj
 0002:00010ab4       ??_C@_0DE@DOLJ@multiple?5glColor4ubv?5?$CL?5glTexCoor@ 0060bab4     renderer:tr_init.obj
 0002:00010ae8       ??_C@_0BJ@CDJM@multiple?5glArrayElement?6?$AA@ 0060bae8     renderer:tr_init.obj
 0002:00010b04       ??_C@_0BH@EIPI@single?5glDrawElements?6?$AA@ 0060bb04     renderer:tr_init.obj
 0002:00010b1c       ??_C@_05GLDO@none?6?$AA@   0060bb1c     renderer:tr_init.obj
 0002:00010b24       ??_C@_0BH@DBLC@rendering?5primitives?3?5?$AA@ 0060bb24     renderer:tr_init.obj
 0002:00010b3c       ??_C@_08PELM@CPU?3?5?$CFs?6?$AA@ 0060bb3c     renderer:tr_init.obj
 0002:00010b48       ??_C@_0CH@CNKC@GAMMA?3?5software?5w?1?5?$CFd?5overbright@ 0060bb48     renderer:tr_init.obj
 0002:00010b70       ??_C@_0CH@HIOB@GAMMA?3?5hardware?5w?1?5?$CFd?5overbright@ 0060bb70     renderer:tr_init.obj
 0002:00010b98       ??_C@_04HAGB@N?1A?6?$AA@   0060bb98     renderer:tr_init.obj
 0002:00010ba0       ??_C@_03HMFC@?$CFd?6?$AA@  0060bba0     renderer:tr_init.obj
 0002:00010ba4       ??_C@_0BJ@NKFC@MODE?3?5?$CFd?0?5?$CFd?5x?5?$CFd?5?$CFs?5hz?3?$AA@ 0060bba4     renderer:tr_init.obj
 0002:00010bc0       ??_C@_0DJ@DBOL@?6PIXELFORMAT?3?5color?$CI?$CFd?9bits?$CJ?5Z?$CI?$CF@ 0060bbc0     renderer:tr_init.obj
 0002:00010bfc       ??_C@_0CA@JMEA@GL_MAX_ACTIVE_TEXTURES_ARB?3?5?$CFd?6?$AA@ 0060bbfc     renderer:tr_init.obj
 0002:00010c1c       ??_C@_0BJ@IOHK@GL_MAX_TEXTURE_SIZE?3?5?$CFd?6?$AA@ 0060bc1c     renderer:tr_init.obj
 0002:00010c38       ??_C@_0BD@PFIA@GL_EXTENSIONS?3?5?$CFs?6?$AA@ 0060bc38     renderer:tr_init.obj
 0002:00010c4c       ??_C@_0BA@PCBE@GL_VERSION?3?5?$CFs?6?$AA@ 0060bc4c     renderer:tr_init.obj
 0002:00010c5c       ??_C@_0BB@KKEK@GL_RENDERER?3?5?$CFs?6?$AA@ 0060bc5c     renderer:tr_init.obj
 0002:00010c70       ??_C@_0BA@DDEC@?6GL_VENDOR?3?5?$CFs?6?$AA@ 0060bc70     renderer:tr_init.obj
 0002:00010c80       ??_C@_0L@EMDO@fullscreen?$AA@ 0060bc80     renderer:tr_init.obj
 0002:00010c8c       ??_C@_08MAAC@windowed?$AA@ 0060bc8c     renderer:tr_init.obj
 0002:00010c98       ??_C@_0BN@PNHD@?9?9?9?9?9?5finished?5R_Init?5?9?9?9?9?9?6?$AA@ 0060bc98     renderer:tr_init.obj
 0002:00010cb8       ??_C@_0BF@LPBA@glGetError?$CI?$CJ?5?$DN?50x?$CFx?6?$AA@ 0060bcb8     renderer:tr_init.obj
 0002:00010cd0       ??_C@_0FP@BMFA@sizeof?$CI?5?$CKbackEndData?$FL1?$FN?5?$CJ?5?$CL?5size@ 0060bcd0     renderer:tr_init.obj
 0002:00010d30       ??_C@_0FP@EIHN@sizeof?$CI?5?$CKbackEndData?$FL0?$FN?5?$CJ?5?$CL?5size@ 0060bd30     renderer:tr_init.obj
 0002:00010d90       ??_C@_0DL@GAHC@G?3?2trep?9engine?2q3nocd?2quake3?91?43@ 0060bd90     renderer:tr_init.obj
 0002:00010dcc       __real@4@4008ffc0000000000000 0060bdcc     renderer:tr_init.obj
 0002:00010dd0       ??_C@_0CH@OBGM@WARNING?3?5tess?4xyz?5not?516?5byte?5al@ 0060bdd0     renderer:tr_init.obj
 0002:00010df8       ??_C@_0BE@EEEJ@?9?9?9?9?9?5R_Init?5?9?9?9?9?9?6?$AA@ 0060bdf8     renderer:tr_init.obj
 0002:00010e0c       ??_C@_0M@JGGK@shaderstate?$AA@ 0060be0c     renderer:tr_init.obj
 0002:00010e18       ??_C@_0BD@JNFN@RE_Shutdown?$CI?5?$CFi?5?$CJ?6?$AA@ 0060be18     renderer:tr_init.obj
 0002:00010e2c       ??_C@_0DB@FADM@Mismatched?5REF_API_VERSION?3?5expe@ 0060be2c     renderer:tr_init.obj
 0002:00010e60       __real@4@3ff6c49ba60000000000 0060be60     renderer:tr_main.obj
 0002:00010e64       ??_C@_0CI@ICAJ@WARNING?3?5recursive?5mirror?1portal@ 0060be64     renderer:tr_main.obj
 0002:00010e8c       ??_C@_0BH@EDPH@tess?4numVertexes?5?$DM?5128?$AA@ 0060be8c     renderer:tr_main.obj
 0002:00010ea4       ??_C@_0DL@ECNA@G?3?2trep?9engine?2q3nocd?2quake3?91?43@ 0060bea4     renderer:tr_main.obj
 0002:00010ee0       ??_C@_0BM@BLMK@change?5SWAP_DRAW_SURF?5macro?$AA@ 0060bee0     renderer:tr_main.obj
 0002:00010efc       ??_C@_0BP@HILD@Shader?5?8?$CFs?8with?5sort?5?$DN?$DN?5SS_BAD?$AA@ 0060befc     renderer:tr_main.obj
 0002:00010f1c       ??_C@_0CA@MIKO@R_AddEntitySurfaces?3?5Bad?5reType?$AA@ 0060bf1c     renderer:tr_main.obj
 0002:00010f3c       ??_C@_0CD@FOCN@R_AddEntitySurfaces?3?5Bad?5modelty@ 0060bf3c     renderer:tr_main.obj
 0002:00010f60       ??_C@_0BJ@CHBA@?4?4?4unloading?5OpenGL?5DLL?6?$AA@ 0060bf60     renderer:win_qgl.obj
 0002:00010f7c       ??_C@_0BG@JIGI@?4?4?4shutting?5down?5QGL?6?$AA@ 0060bf7c     renderer:win_qgl.obj
 0002:00010f94       ??_C@_0P@EKFP@wglSwapBuffers?$AA@ 0060bf94     renderer:win_qgl.obj
 0002:00010fa4       ??_C@_0BC@PJLC@wglSetPixelFormat?$AA@ 0060bfa4     renderer:win_qgl.obj
 0002:00010fb8       ??_C@_0BC@HNOB@wglGetPixelFormat?$AA@ 0060bfb8     renderer:win_qgl.obj
 0002:00010fcc       ??_C@_0BH@IJMD@wglDescribePixelFormat?$AA@ 0060bfcc     renderer:win_qgl.obj
 0002:00010fe4       ??_C@_0BF@HPKH@wglChoosePixelFormat?$AA@ 0060bfe4     renderer:win_qgl.obj
 0002:00010ffc       ??_C@_0BE@BLEJ@wglUseFontOutlinesA?$AA@ 0060bffc     renderer:win_qgl.obj
 0002:00011010       ??_C@_0BD@HEJO@wglUseFontBitmapsA?$AA@ 0060c010     renderer:win_qgl.obj
 0002:00011024       ??_C@_0BE@OGBC@wglSwapLayerBuffers?$AA@ 0060c024     renderer:win_qgl.obj
 0002:00011038       ??_C@_0O@FEIN@wglShareLists?$AA@ 0060c038     renderer:win_qgl.obj
 0002:00011048       ??_C@_0BK@GALE@wglSetLayerPaletteEntries?$AA@ 0060c048     renderer:win_qgl.obj
 0002:00011064       ??_C@_0BH@PBCJ@wglRealizeLayerPalette?$AA@ 0060c064     renderer:win_qgl.obj
 0002:0001107c       ??_C@_0P@NFHG@wglMakeCurrent?$AA@ 0060c07c     renderer:win_qgl.obj
 0002:0001108c       ??_C@_0BC@HKHL@wglGetProcAddress?$AA@ 0060c08c     renderer:win_qgl.obj
 0002:000110a0       ??_C@_0BK@KDPB@wglGetLayerPaletteEntries?$AA@ 0060c0a0     renderer:win_qgl.obj
 0002:000110bc       ??_C@_0BA@CCCK@wglGetCurrentDC?$AA@ 0060c0bc     renderer:win_qgl.obj
 0002:000110cc       ??_C@_0BF@KNNO@wglGetCurrentContext?$AA@ 0060c0cc     renderer:win_qgl.obj
 0002:000110e4       ??_C@_0BG@EJKI@wglDescribeLayerPlane?$AA@ 0060c0e4     renderer:win_qgl.obj
 0002:000110fc       ??_C@_0BB@IOBP@wglDeleteContext?$AA@ 0060c0fc     renderer:win_qgl.obj
 0002:00011110       ??_C@_0BG@CDDJ@wglCreateLayerContext?$AA@ 0060c110     renderer:win_qgl.obj
 0002:00011128       ??_C@_0BB@GGNL@wglCreateContext?$AA@ 0060c128     renderer:win_qgl.obj
 0002:0001113c       ??_C@_0P@KOJI@wglCopyContext?$AA@ 0060c13c     renderer:win_qgl.obj
 0002:0001114c       ??_C@_0L@INIC@glViewport?$AA@ 0060c14c     renderer:win_qgl.obj
 0002:00011158       ??_C@_0BA@OGPO@glVertexPointer?$AA@ 0060c158     renderer:win_qgl.obj
 0002:00011168       ??_C@_0M@GIMB@glVertex4sv?$AA@ 0060c168     renderer:win_qgl.obj
 0002:00011174       ??_C@_0L@ODPL@glVertex4s?$AA@ 0060c174     renderer:win_qgl.obj
 0002:00011180       ??_C@_0M@JKGJ@glVertex4iv?$AA@ 0060c180     renderer:win_qgl.obj
 0002:0001118c       ??_C@_0L@ELBN@glVertex4i?$AA@ 0060c18c     renderer:win_qgl.obj
 0002:00011198       ??_C@_0M@EOGI@glVertex4fv?$AA@ 0060c198     renderer:win_qgl.obj
 0002:000111a4       ??_C@_0L@EKEA@glVertex4f?$AA@ 0060c1a4     renderer:win_qgl.obj
 0002:000111b0       ??_C@_0M@GDDN@glVertex4dv?$AA@ 0060c1b0     renderer:win_qgl.obj
 0002:000111bc       ??_C@_0L@BPGO@glVertex4d?$AA@ 0060c1bc     renderer:win_qgl.obj
 0002:000111c8       ??_C@_0M@NGKA@glVertex3sv?$AA@ 0060c1c8     renderer:win_qgl.obj
 0002:000111d4       ??_C@_0L@ICKO@glVertex3s?$AA@ 0060c1d4     renderer:win_qgl.obj
 0002:000111e0       ??_C@_0M@CEAI@glVertex3iv?$AA@ 0060c1e0     renderer:win_qgl.obj
 0002:000111ec       ??_C@_0L@CKEI@glVertex3i?$AA@ 0060c1ec     renderer:win_qgl.obj
 0002:000111f8       ??_C@_0M@PAAJ@glVertex3fv?$AA@ 0060c1f8     renderer:win_qgl.obj
 0002:00011204       ??_C@_0L@CLBF@glVertex3f?$AA@ 0060c204     renderer:win_qgl.obj
 0002:00011210       ??_C@_0M@NNFM@glVertex3dv?$AA@ 0060c210     renderer:win_qgl.obj
 0002:0001121c       ??_C@_0L@HODL@glVertex3d?$AA@ 0060c21c     renderer:win_qgl.obj
 0002:00011228       ??_C@_0M@IELG@glVertex2sv?$AA@ 0060c228     renderer:win_qgl.obj
 0002:00011234       ??_C@_0L@JEAE@glVertex2s?$AA@ 0060c234     renderer:win_qgl.obj
 0002:00011240       ??_C@_0M@HGBO@glVertex2iv?$AA@ 0060c240     renderer:win_qgl.obj
 0002:0001124c       ??_C@_0L@DMOC@glVertex2i?$AA@ 0060c24c     renderer:win_qgl.obj
 0002:00011258       ??_C@_0M@KCBP@glVertex2fv?$AA@ 0060c258     renderer:win_qgl.obj
 0002:00011264       ??_C@_0L@DNLP@glVertex2f?$AA@ 0060c264     renderer:win_qgl.obj
 0002:00011270       ??_C@_0M@IPEK@glVertex2dv?$AA@ 0060c270     renderer:win_qgl.obj
 0002:0001127c       ??_C@_0L@GIJB@glVertex2d?$AA@ 0060c27c     renderer:win_qgl.obj
 0002:00011288       ??_C@_0N@NKAJ@glTranslatef?$AA@ 0060c288     renderer:win_qgl.obj
 0002:00011298       ??_C@_0N@IPCH@glTranslated?$AA@ 0060c298     renderer:win_qgl.obj
 0002:000112a8       ??_C@_0BA@KFAN@glTexSubImage2D?$AA@ 0060c2a8     renderer:win_qgl.obj
 0002:000112b8       ??_C@_0BA@JOPC@glTexSubImage1D?$AA@ 0060c2b8     renderer:win_qgl.obj
 0002:000112c8       ??_C@_0BB@NAI@glTexParameteriv?$AA@ 0060c2c8     renderer:win_qgl.obj
 0002:000112dc       ??_C@_0BA@CKGN@glTexParameteri?$AA@ 0060c2dc     renderer:win_qgl.obj
 0002:000112ec       ??_C@_0BB@NJAJ@glTexParameterfv?$AA@ 0060c2ec     renderer:win_qgl.obj
 0002:00011300       ??_C@_0BA@CLDA@glTexParameterf?$AA@ 0060c300     renderer:win_qgl.obj
 0002:00011310       ??_C@_0N@IAMC@glTexImage2D?$AA@ 0060c310     renderer:win_qgl.obj
 0002:00011320       ??_C@_0N@LLDN@glTexImage1D?$AA@ 0060c320     renderer:win_qgl.obj
 0002:00011330       ??_C@_0L@OHPJ@glTexGeniv?$AA@ 0060c330     renderer:win_qgl.obj
 0002:0001133c       ??_C@_09NLNM@glTexGeni?$AA@ 0060c33c     renderer:win_qgl.obj
 0002:00011348       ??_C@_0L@DDPI@glTexGenfv?$AA@ 0060c348     renderer:win_qgl.obj
 0002:00011354       ??_C@_09NKIB@glTexGenf?$AA@ 0060c354     renderer:win_qgl.obj
 0002:00011360       ??_C@_0L@BOKN@glTexGendv?$AA@ 0060c360     renderer:win_qgl.obj
 0002:0001136c       ??_C@_09IPKP@glTexGend?$AA@ 0060c36c     renderer:win_qgl.obj
 0002:00011378       ??_C@_0L@FDAK@glTexEnviv?$AA@ 0060c378     renderer:win_qgl.obj
 0002:00011384       ??_C@_09CIAL@glTexEnvi?$AA@ 0060c384     renderer:win_qgl.obj
 0002:00011390       ??_C@_0L@IHAL@glTexEnvfv?$AA@ 0060c390     renderer:win_qgl.obj
 0002:0001139c       ??_C@_09CJFG@glTexEnvf?$AA@ 0060c39c     renderer:win_qgl.obj
 0002:000113a8       ??_C@_0BC@EKAK@glTexCoordPointer?$AA@ 0060c3a8     renderer:win_qgl.obj
 0002:000113bc       ??_C@_0O@CLAP@glTexCoord4sv?$AA@ 0060c3bc     renderer:win_qgl.obj
 0002:000113cc       ??_C@_0N@CNFG@glTexCoord4s?$AA@ 0060c3cc     renderer:win_qgl.obj
 0002:000113dc       ??_C@_0O@NJKH@glTexCoord4iv?$AA@ 0060c3dc     renderer:win_qgl.obj
 0002:000113ec       ??_C@_0N@IFLA@glTexCoord4i?$AA@ 0060c3ec     renderer:win_qgl.obj
 0002:000113fc       ??_C@_0O@NKG@glTexCoord4fv?$AA@ 0060c3fc     renderer:win_qgl.obj
 0002:0001140c       ??_C@_0N@IEON@glTexCoord4f?$AA@ 0060c40c     renderer:win_qgl.obj
 0002:0001141c       ??_C@_0O@CAPD@glTexCoord4dv?$AA@ 0060c41c     renderer:win_qgl.obj
 0002:0001142c       ??_C@_0N@NBMD@glTexCoord4d?$AA@ 0060c42c     renderer:win_qgl.obj
 0002:0001143c       ??_C@_0O@JFGO@glTexCoord3sv?$AA@ 0060c43c     renderer:win_qgl.obj
 0002:0001144c       ??_C@_0N@EMAD@glTexCoord3s?$AA@ 0060c44c     renderer:win_qgl.obj
 0002:0001145c       ??_C@_0O@GHMG@glTexCoord3iv?$AA@ 0060c45c     renderer:win_qgl.obj
 0002:0001146c       ??_C@_0N@OEOF@glTexCoord3i?$AA@ 0060c46c     renderer:win_qgl.obj
 0002:0001147c       ??_C@_0O@LDMH@glTexCoord3fv?$AA@ 0060c47c     renderer:win_qgl.obj
 0002:0001148c       ??_C@_0N@OFLI@glTexCoord3f?$AA@ 0060c48c     renderer:win_qgl.obj
 0002:0001149c       ??_C@_0O@JOJC@glTexCoord3dv?$AA@ 0060c49c     renderer:win_qgl.obj
 0002:000114ac       ??_C@_0N@LAJG@glTexCoord3d?$AA@ 0060c4ac     renderer:win_qgl.obj
 0002:000114bc       ??_C@_0O@MHHI@glTexCoord2sv?$AA@ 0060c4bc     renderer:win_qgl.obj
 0002:000114cc       ??_C@_0N@FKKJ@glTexCoord2s?$AA@ 0060c4cc     renderer:win_qgl.obj
 0002:000114dc       ??_C@_0O@DFNA@glTexCoord2iv?$AA@ 0060c4dc     renderer:win_qgl.obj
 0002:000114ec       ??_C@_0N@PCEP@glTexCoord2i?$AA@ 0060c4ec     renderer:win_qgl.obj
 0002:000114fc       ??_C@_0O@OBNB@glTexCoord2fv?$AA@ 0060c4fc     renderer:win_qgl.obj
 0002:0001150c       ??_C@_0N@PDBC@glTexCoord2f?$AA@ 0060c50c     renderer:win_qgl.obj
 0002:0001151c       ??_C@_0O@MMIE@glTexCoord2dv?$AA@ 0060c51c     renderer:win_qgl.obj
 0002:0001152c       ??_C@_0N@KGDM@glTexCoord2d?$AA@ 0060c52c     renderer:win_qgl.obj
 0002:0001153c       ??_C@_0O@DBED@glTexCoord1sv?$AA@ 0060c53c     renderer:win_qgl.obj
 0002:0001154c       ??_C@_0N@GBFG@glTexCoord1s?$AA@ 0060c54c     renderer:win_qgl.obj
 0002:0001155c       ??_C@_0O@MDOL@glTexCoord1iv?$AA@ 0060c55c     renderer:win_qgl.obj
 0002:0001156c       ??_C@_0N@MJLA@glTexCoord1i?$AA@ 0060c56c     renderer:win_qgl.obj
 0002:0001157c       ??_C@_0O@BHOK@glTexCoord1fv?$AA@ 0060c57c     renderer:win_qgl.obj
 0002:0001158c       ??_C@_0N@MION@glTexCoord1f?$AA@ 0060c58c     renderer:win_qgl.obj
 0002:0001159c       ??_C@_0O@DKLP@glTexCoord1dv?$AA@ 0060c59c     renderer:win_qgl.obj
 0002:000115ac       ??_C@_0N@JNMD@glTexCoord1d?$AA@ 0060c5ac     renderer:win_qgl.obj
 0002:000115bc       ??_C@_0M@LODB@glStencilOp?$AA@ 0060c5bc     renderer:win_qgl.obj
 0002:000115c8       ??_C@_0O@IKEL@glStencilMask?$AA@ 0060c5c8     renderer:win_qgl.obj
 0002:000115d8       ??_C@_0O@GBFI@glStencilFunc?$AA@ 0060c5d8     renderer:win_qgl.obj
 0002:000115e8       ??_C@_0N@LIFO@glShadeModel?$AA@ 0060c5e8     renderer:win_qgl.obj
 0002:000115f8       ??_C@_0P@JCNJ@glSelectBuffer?$AA@ 0060c5f8     renderer:win_qgl.obj
 0002:00011608       ??_C@_09HOGJ@glScissor?$AA@ 0060c608     renderer:win_qgl.obj
 0002:00011614       ??_C@_08NBED@glScalef?$AA@ 0060c614     renderer:win_qgl.obj
 0002:00011620       ??_C@_08IEGN@glScaled?$AA@ 0060c620     renderer:win_qgl.obj
 0002:0001162c       ??_C@_09LCHL@glRotatef?$AA@ 0060c62c     renderer:win_qgl.obj
 0002:00011638       ??_C@_09OHFF@glRotated?$AA@ 0060c638     renderer:win_qgl.obj
 0002:00011644       ??_C@_0N@FOMK@glRenderMode?$AA@ 0060c644     renderer:win_qgl.obj
 0002:00011654       ??_C@_08MLGB@glRectsv?$AA@ 0060c654     renderer:win_qgl.obj
 0002:00011660       ??_C@_07EDHH@glRects?$AA@  0060c660     renderer:win_qgl.obj
 0002:00011668       ??_C@_08DJMJ@glRectiv?$AA@ 0060c668     renderer:win_qgl.obj
 0002:00011674       ??_C@_07OLJB@glRecti?$AA@  0060c674     renderer:win_qgl.obj
 0002:0001167c       ??_C@_08ONMI@glRectfv?$AA@ 0060c67c     renderer:win_qgl.obj
 0002:00011688       ??_C@_07OKMM@glRectf?$AA@  0060c688     renderer:win_qgl.obj
 0002:00011690       ??_C@_08MAJN@glRectdv?$AA@ 0060c690     renderer:win_qgl.obj
 0002:0001169c       ??_C@_07LPOC@glRectd?$AA@  0060c69c     renderer:win_qgl.obj
 0002:000116a4       ??_C@_0N@LBPG@glReadPixels?$AA@ 0060c6a4     renderer:win_qgl.obj
 0002:000116b4       ??_C@_0N@BMFB@glReadBuffer?$AA@ 0060c6b4     renderer:win_qgl.obj
 0002:000116c4       ??_C@_0P@KJIO@glRasterPos4sv?$AA@ 0060c6c4     renderer:win_qgl.obj
 0002:000116d4       ??_C@_0O@KMJO@glRasterPos4s?$AA@ 0060c6d4     renderer:win_qgl.obj
 0002:000116e4       ??_C@_0P@FLCG@glRasterPos4iv?$AA@ 0060c6e4     renderer:win_qgl.obj
 0002:000116f4       ??_C@_0O@EHI@glRasterPos4i?$AA@ 0060c6f4     renderer:win_qgl.obj
 0002:00011704       ??_C@_0P@IPCH@glRasterPos4fv?$AA@ 0060c704     renderer:win_qgl.obj
 0002:00011714       ??_C@_0O@FCF@glRasterPos4f?$AA@ 0060c714     renderer:win_qgl.obj
 0002:00011724       ??_C@_0P@KCHC@glRasterPos4dv?$AA@ 0060c724     renderer:win_qgl.obj
 0002:00011734       ??_C@_0O@FAAL@glRasterPos4d?$AA@ 0060c734     renderer:win_qgl.obj
 0002:00011744       ??_C@_0P@BHOP@glRasterPos3sv?$AA@ 0060c744     renderer:win_qgl.obj
 0002:00011754       ??_C@_0O@MNML@glRasterPos3s?$AA@ 0060c754     renderer:win_qgl.obj
 0002:00011764       ??_C@_0P@OFEH@glRasterPos3iv?$AA@ 0060c764     renderer:win_qgl.obj
 0002:00011774       ??_C@_0O@GFCN@glRasterPos3i?$AA@ 0060c774     renderer:win_qgl.obj
 0002:00011784       ??_C@_0P@DBEG@glRasterPos3fv?$AA@ 0060c784     renderer:win_qgl.obj
 0002:00011794       ??_C@_0O@GEHA@glRasterPos3f?$AA@ 0060c794     renderer:win_qgl.obj
 0002:000117a4       ??_C@_0P@BMBD@glRasterPos3dv?$AA@ 0060c7a4     renderer:win_qgl.obj
 0002:000117b4       ??_C@_0O@DBFO@glRasterPos3d?$AA@ 0060c7b4     renderer:win_qgl.obj
 0002:000117c4       ??_C@_0P@EFPJ@glRasterPos2sv?$AA@ 0060c7c4     renderer:win_qgl.obj
 0002:000117d4       ??_C@_0O@NLGB@glRasterPos2s?$AA@ 0060c7d4     renderer:win_qgl.obj
 0002:000117e4       ??_C@_0P@LHFB@glRasterPos2iv?$AA@ 0060c7e4     renderer:win_qgl.obj
 0002:000117f4       ??_C@_0O@HDIH@glRasterPos2i?$AA@ 0060c7f4     renderer:win_qgl.obj
 0002:00011804       ??_C@_0P@GDFA@glRasterPos2fv?$AA@ 0060c804     renderer:win_qgl.obj
 0002:00011814       ??_C@_0O@HCNK@glRasterPos2f?$AA@ 0060c814     renderer:win_qgl.obj
 0002:00011824       ??_C@_0P@EOAF@glRasterPos2dv?$AA@ 0060c824     renderer:win_qgl.obj
 0002:00011834       ??_C@_0O@CHPE@glRasterPos2d?$AA@ 0060c834     renderer:win_qgl.obj
 0002:00011844       ??_C@_0L@JFBB@glPushName?$AA@ 0060c844     renderer:win_qgl.obj
 0002:00011850       ??_C@_0N@KEGE@glPushMatrix?$AA@ 0060c850     renderer:win_qgl.obj
 0002:00011860       ??_C@_0BD@KBII@glPushClientAttrib?$AA@ 0060c860     renderer:win_qgl.obj
 0002:00011874       ??_C@_0N@NFOG@glPushAttrib?$AA@ 0060c874     renderer:win_qgl.obj
 0002:00011884       ??_C@_0BF@HGIP@glPrioritizeTextures?$AA@ 0060c884     renderer:win_qgl.obj
 0002:0001189c       ??_C@_09GEGC@glPopName?$AA@ 0060c89c     renderer:win_qgl.obj
 0002:000118a8       ??_C@_0M@LACG@glPopMatrix?$AA@ 0060c8a8     renderer:win_qgl.obj
 0002:000118b4       ??_C@_0BC@JMIH@glPopClientAttrib?$AA@ 0060c8b4     renderer:win_qgl.obj
 0002:000118c8       ??_C@_0M@MBKE@glPopAttrib?$AA@ 0060c8c8     renderer:win_qgl.obj
 0002:000118d4       ??_C@_0BB@FIOF@glPolygonStipple?$AA@ 0060c8d4     renderer:win_qgl.obj
 0002:000118e8       ??_C@_0BA@BALB@glPolygonOffset?$AA@ 0060c8e8     renderer:win_qgl.obj
 0002:000118f8       ??_C@_0O@FGKK@glPolygonMode?$AA@ 0060c8f8     renderer:win_qgl.obj
 0002:00011908       ??_C@_0M@JAAI@glPointSize?$AA@ 0060c908     renderer:win_qgl.obj
 0002:00011914       ??_C@_0M@GGBK@glPixelZoom?$AA@ 0060c914     renderer:win_qgl.obj
 0002:00011920       ??_C@_0BB@KKOF@glPixelTransferi?$AA@ 0060c920     renderer:win_qgl.obj
 0002:00011934       ??_C@_0BB@KLLI@glPixelTransferf?$AA@ 0060c934     renderer:win_qgl.obj
 0002:00011948       ??_C@_0O@EKDI@glPixelStorei?$AA@ 0060c948     renderer:win_qgl.obj
 0002:00011958       ??_C@_0O@ELGF@glPixelStoref?$AA@ 0060c958     renderer:win_qgl.obj
 0002:00011968       ??_C@_0O@GMAL@glPixelMapusv?$AA@ 0060c968     renderer:win_qgl.obj
 0002:00011978       ??_C@_0O@JOKD@glPixelMapuiv?$AA@ 0060c978     renderer:win_qgl.obj
 0002:00011988       ??_C@_0N@HIIC@glPixelMapfv?$AA@ 0060c988     renderer:win_qgl.obj
 0002:00011998       ??_C@_0O@BJGF@glPassThrough?$AA@ 0060c998     renderer:win_qgl.obj
 0002:000119a8       ??_C@_07ICOP@glOrtho?$AA@  0060c9a8     renderer:win_qgl.obj
 0002:000119b0       ??_C@_0BA@GJEJ@glNormalPointer?$AA@ 0060c9b0     renderer:win_qgl.obj
 0002:000119c0       ??_C@_0M@BDBF@glNormal3sv?$AA@ 0060c9c0     renderer:win_qgl.obj
 0002:000119cc       ??_C@_0L@DHJH@glNormal3s?$AA@ 0060c9cc     renderer:win_qgl.obj
 0002:000119d8       ??_C@_0M@OBLN@glNormal3iv?$AA@ 0060c9d8     renderer:win_qgl.obj
 0002:000119e4       ??_C@_0L@JPHB@glNormal3i?$AA@ 0060c9e4     renderer:win_qgl.obj
 0002:000119f0       ??_C@_0M@DFLM@glNormal3fv?$AA@ 0060c9f0     renderer:win_qgl.obj
 0002:000119fc       ??_C@_0L@JOCM@glNormal3f?$AA@ 0060c9fc     renderer:win_qgl.obj
 0002:00011a08       ??_C@_0M@BIOJ@glNormal3dv?$AA@ 0060ca08     renderer:win_qgl.obj
 0002:00011a14       ??_C@_0L@MLAC@glNormal3d?$AA@ 0060ca14     renderer:win_qgl.obj
 0002:00011a20       ??_C@_0M@GPBG@glNormal3bv?$AA@ 0060ca20     renderer:win_qgl.obj
 0002:00011a2c       ??_C@_0L@DEHA@glNormal3b?$AA@ 0060ca2c     renderer:win_qgl.obj
 0002:00011a38       ??_C@_09IJKH@glNewList?$AA@ 0060ca38     renderer:win_qgl.obj
 0002:00011a44       ??_C@_0O@IPNI@glMultMatrixf?$AA@ 0060ca44     renderer:win_qgl.obj
 0002:00011a54       ??_C@_0O@NKPG@glMultMatrixd?$AA@ 0060ca54     renderer:win_qgl.obj
 0002:00011a64       ??_C@_0N@JNJF@glMatrixMode?$AA@ 0060ca64     renderer:win_qgl.obj
 0002:00011a74       ??_C@_0N@BKII@glMaterialiv?$AA@ 0060ca74     renderer:win_qgl.obj
 0002:00011a84       ??_C@_0M@KKGK@glMateriali?$AA@ 0060ca84     renderer:win_qgl.obj
 0002:00011a90       ??_C@_0N@MOIJ@glMaterialfv?$AA@ 0060ca90     renderer:win_qgl.obj
 0002:00011aa0       ??_C@_0M@KLDH@glMaterialf?$AA@ 0060caa0     renderer:win_qgl.obj
 0002:00011aac       ??_C@_0M@JGMO@glMapGrid2f?$AA@ 0060caac     renderer:win_qgl.obj
 0002:00011ab8       ??_C@_0M@MDOA@glMapGrid2d?$AA@ 0060cab8     renderer:win_qgl.obj
 0002:00011ac4       ??_C@_0M@KNDB@glMapGrid1f?$AA@ 0060cac4     renderer:win_qgl.obj
 0002:00011ad0       ??_C@_0M@PIBP@glMapGrid1d?$AA@ 0060cad0     renderer:win_qgl.obj
 0002:00011adc       ??_C@_07BGAK@glMap2f?$AA@  0060cadc     renderer:win_qgl.obj
 0002:00011ae4       ??_C@_07EDCE@glMap2d?$AA@  0060cae4     renderer:win_qgl.obj
 0002:00011aec       ??_C@_07CNPF@glMap1f?$AA@  0060caec     renderer:win_qgl.obj
 0002:00011af4       ??_C@_07HINL@glMap1d?$AA@  0060caf4     renderer:win_qgl.obj
 0002:00011afc       ??_C@_09IEAB@glLogicOp?$AA@ 0060cafc     renderer:win_qgl.obj
 0002:00011b08       ??_C@_0L@EGBH@glLoadName?$AA@ 0060cb08     renderer:win_qgl.obj
 0002:00011b14       ??_C@_0O@KDCF@glLoadMatrixf?$AA@ 0060cb14     renderer:win_qgl.obj
 0002:00011b24       ??_C@_0O@PGAL@glLoadMatrixd?$AA@ 0060cb24     renderer:win_qgl.obj
 0002:00011b34       ??_C@_0P@MLMG@glLoadIdentity?$AA@ 0060cb34     renderer:win_qgl.obj
 0002:00011b44       ??_C@_0L@MFKH@glListBase?$AA@ 0060cb44     renderer:win_qgl.obj
 0002:00011b50       ??_C@_0M@KCLG@glLineWidth?$AA@ 0060cb50     renderer:win_qgl.obj
 0002:00011b5c       ??_C@_0O@DAIP@glLineStipple?$AA@ 0060cb5c     renderer:win_qgl.obj
 0002:00011b6c       ??_C@_09BOEH@glLightiv?$AA@ 0060cb6c     renderer:win_qgl.obj
 0002:00011b78       ??_C@_08GFKI@glLighti?$AA@ 0060cb78     renderer:win_qgl.obj
 0002:00011b84       ??_C@_09MKEG@glLightfv?$AA@ 0060cb84     renderer:win_qgl.obj
 0002:00011b90       ??_C@_08GEPF@glLightf?$AA@ 0060cb90     renderer:win_qgl.obj
 0002:00011b9c       ??_C@_0P@JGOD@glLightModeliv?$AA@ 0060cb9c     renderer:win_qgl.obj
 0002:00011bac       ??_C@_0O@MBOJ@glLightModeli?$AA@ 0060cbac     renderer:win_qgl.obj
 0002:00011bbc       ??_C@_0P@ECOC@glLightModelfv?$AA@ 0060cbbc     renderer:win_qgl.obj
 0002:00011bcc       ??_C@_0O@MALE@glLightModelf?$AA@ 0060cbcc     renderer:win_qgl.obj
 0002:00011bdc       ??_C@_0M@NCFH@glIsTexture?$AA@ 0060cbdc     renderer:win_qgl.obj
 0002:00011be8       ??_C@_08MENJ@glIsList?$AA@ 0060cbe8     renderer:win_qgl.obj
 0002:00011bf4       ??_C@_0M@GNEM@glIsEnabled?$AA@ 0060cbf4     renderer:win_qgl.obj
 0002:00011c00       ??_C@_0BE@FKIG@glInterleavedArrays?$AA@ 0060cc00     renderer:win_qgl.obj
 0002:00011c14       ??_C@_0M@KCEG@glInitNames?$AA@ 0060cc14     renderer:win_qgl.obj
 0002:00011c20       ??_C@_0L@KIGE@glIndexubv?$AA@ 0060cc20     renderer:win_qgl.obj
 0002:00011c2c       ??_C@_09EGJF@glIndexub?$AA@ 0060cc2c     renderer:win_qgl.obj
 0002:00011c38       ??_C@_09DCEG@glIndexsv?$AA@ 0060cc38     renderer:win_qgl.obj
 0002:00011c44       ??_C@_08GEGF@glIndexs?$AA@ 0060cc44     renderer:win_qgl.obj
 0002:00011c50       ??_C@_09MAOO@glIndexiv?$AA@ 0060cc50     renderer:win_qgl.obj
 0002:00011c5c       ??_C@_08MMID@glIndexi?$AA@ 0060cc5c     renderer:win_qgl.obj
 0002:00011c68       ??_C@_09BEOP@glIndexfv?$AA@ 0060cc68     renderer:win_qgl.obj
 0002:00011c74       ??_C@_08MNNO@glIndexf?$AA@ 0060cc74     renderer:win_qgl.obj
 0002:00011c80       ??_C@_09DJLK@glIndexdv?$AA@ 0060cc80     renderer:win_qgl.obj
 0002:00011c8c       ??_C@_08JIPA@glIndexd?$AA@ 0060cc8c     renderer:win_qgl.obj
 0002:00011c98       ??_C@_0P@GIBI@glIndexPointer?$AA@ 0060cc98     renderer:win_qgl.obj
 0002:00011ca8       ??_C@_0M@GGEB@glIndexMask?$AA@ 0060cca8     renderer:win_qgl.obj
 0002:00011cb4       ??_C@_06IKLF@glHint?$AA@   0060ccb4     renderer:win_qgl.obj
 0002:00011cbc       ??_C@_0BE@DDEI@glGetTexParameteriv?$AA@ 0060ccbc     renderer:win_qgl.obj
 0002:00011cd0       ??_C@_0BE@OHEJ@glGetTexParameterfv?$AA@ 0060ccd0     renderer:win_qgl.obj
 0002:00011ce4       ??_C@_0O@HGPI@glGetTexImage?$AA@ 0060cce4     renderer:win_qgl.obj
 0002:00011cf4       ??_C@_0O@CHCL@glGetTexGeniv?$AA@ 0060ccf4     renderer:win_qgl.obj
 0002:00011d04       ??_C@_0O@PDCK@glGetTexGenfv?$AA@ 0060cd04     renderer:win_qgl.obj
 0002:00011d14       ??_C@_0O@NOHP@glGetTexGendv?$AA@ 0060cd14     renderer:win_qgl.obj
 0002:00011d24       ??_C@_0O@JDNI@glGetTexEnviv?$AA@ 0060cd24     renderer:win_qgl.obj
 0002:00011d34       ??_C@_0O@EHNJ@glGetTexEnvfv?$AA@ 0060cd34     renderer:win_qgl.obj
 0002:00011d44       ??_C@_0M@EJHF@glGetString?$AA@ 0060cd44     renderer:win_qgl.obj
 0002:00011d50       ??_C@_0BE@GGKF@glGetPolygonStipple?$AA@ 0060cd50     renderer:win_qgl.obj
 0002:00011d64       ??_C@_0O@LGOP@glGetPointerv?$AA@ 0060cd64     renderer:win_qgl.obj
 0002:00011d74       ??_C@_0BB@EEON@glGetPixelMapusv?$AA@ 0060cd74     renderer:win_qgl.obj
 0002:00011d88       ??_C@_0BB@LGEF@glGetPixelMapuiv?$AA@ 0060cd88     renderer:win_qgl.obj
 0002:00011d9c       ??_C@_0BA@JOGJ@glGetPixelMapfv?$AA@ 0060cd9c     renderer:win_qgl.obj
 0002:00011dac       ??_C@_0BA@PMGD@glGetMaterialiv?$AA@ 0060cdac     renderer:win_qgl.obj
 0002:00011dbc       ??_C@_0BA@CIGC@glGetMaterialfv?$AA@ 0060cdbc     renderer:win_qgl.obj
 0002:00011dcc       ??_C@_0L@MPGC@glGetMapiv?$AA@ 0060cdcc     renderer:win_qgl.obj
 0002:00011dd8       ??_C@_0L@BLGD@glGetMapfv?$AA@ 0060cdd8     renderer:win_qgl.obj
 0002:00011de4       ??_C@_0L@DGDG@glGetMapdv?$AA@ 0060cde4     renderer:win_qgl.obj
 0002:00011df0       ??_C@_0N@MMLJ@glGetLightiv?$AA@ 0060cdf0     renderer:win_qgl.obj
 0002:00011e00       ??_C@_0N@BILI@glGetLightfv?$AA@ 0060ce00     renderer:win_qgl.obj
 0002:00011e10       ??_C@_0O@PMHI@glGetIntegerv?$AA@ 0060ce10     renderer:win_qgl.obj
 0002:00011e20       ??_C@_0M@HNHJ@glGetFloatv?$AA@ 0060ce20     renderer:win_qgl.obj
 0002:00011e2c       ??_C@_0L@INBB@glGetError?$AA@ 0060ce2c     renderer:win_qgl.obj
 0002:00011e38       ??_C@_0N@LJNO@glGetDoublev?$AA@ 0060ce38     renderer:win_qgl.obj
 0002:00011e48       ??_C@_0P@EAOG@glGetClipPlane?$AA@ 0060ce48     renderer:win_qgl.obj
 0002:00011e58       ??_C@_0O@CEKP@glGetBooleanv?$AA@ 0060ce58     renderer:win_qgl.obj
 0002:00011e68       ??_C@_0O@DAHJ@glGenTextures?$AA@ 0060ce68     renderer:win_qgl.obj
 0002:00011e78       ??_C@_0L@PMJJ@glGenLists?$AA@ 0060ce78     renderer:win_qgl.obj
 0002:00011e84       ??_C@_09KLFM@glFrustum?$AA@ 0060ce84     renderer:win_qgl.obj
 0002:00011e90       ??_C@_0M@MJJH@glFrontFace?$AA@ 0060ce90     renderer:win_qgl.obj
 0002:00011e9c       ??_C@_07HKOP@glFogiv?$AA@  0060ce9c     renderer:win_qgl.obj
 0002:00011ea4       ??_C@_06MNED@glFogi?$AA@   0060cea4     renderer:win_qgl.obj
 0002:00011eac       ??_C@_07KOOO@glFogfv?$AA@  0060ceac     renderer:win_qgl.obj
 0002:00011eb4       ??_C@_06MMBO@glFogf?$AA@   0060ceb4     renderer:win_qgl.obj
 0002:00011ebc       ??_C@_07GAEM@glFlush?$AA@  0060cebc     renderer:win_qgl.obj
 0002:00011ec4       ??_C@_08HFPP@glFinish?$AA@ 0060cec4     renderer:win_qgl.obj
 0002:00011ed0       ??_C@_0BB@EKCC@glFeedbackBuffer?$AA@ 0060ced0     renderer:win_qgl.obj
 0002:00011ee4       ??_C@_0N@PCOC@glEvalPoint2?$AA@ 0060cee4     renderer:win_qgl.obj
 0002:00011ef4       ??_C@_0N@NFL@glEvalPoint1?$AA@ 0060cef4     renderer:win_qgl.obj
 0002:00011f04       ??_C@_0M@CHJI@glEvalMesh2?$AA@ 0060cf04     renderer:win_qgl.obj
 0002:00011f10       ??_C@_0M@NICB@glEvalMesh1?$AA@ 0060cf10     renderer:win_qgl.obj
 0002:00011f1c       ??_C@_0P@MPGL@glEvalCoord2fv?$AA@ 0060cf1c     renderer:win_qgl.obj
 0002:00011f2c       ??_C@_0O@EJAI@glEvalCoord2f?$AA@ 0060cf2c     renderer:win_qgl.obj
 0002:00011f3c       ??_C@_0P@OCDO@glEvalCoord2dv?$AA@ 0060cf3c     renderer:win_qgl.obj
 0002:00011f4c       ??_C@_0O@BMCG@glEvalCoord2d?$AA@ 0060cf4c     renderer:win_qgl.obj
 0002:00011f5c       ??_C@_0P@DJFA@glEvalCoord1fv?$AA@ 0060cf5c     renderer:win_qgl.obj
 0002:00011f6c       ??_C@_0O@HCPH@glEvalCoord1f?$AA@ 0060cf6c     renderer:win_qgl.obj
 0002:00011f7c       ??_C@_0P@BEAF@glEvalCoord1dv?$AA@ 0060cf7c     renderer:win_qgl.obj
 0002:00011f8c       ??_C@_0O@CHNJ@glEvalCoord1d?$AA@ 0060cf8c     renderer:win_qgl.obj
 0002:00011f9c       ??_C@_09HPGP@glEndList?$AA@ 0060cf9c     renderer:win_qgl.obj
 0002:00011fa8       ??_C@_05FDNN@glEnd?$AA@    0060cfa8     renderer:win_qgl.obj
 0002:00011fb0       ??_C@_0BE@JJFB@glEnableClientState?$AA@ 0060cfb0     renderer:win_qgl.obj
 0002:00011fc4       ??_C@_08PHJO@glEnable?$AA@ 0060cfc4     renderer:win_qgl.obj
 0002:00011fd0       ??_C@_0M@FKKN@glEdgeFlagv?$AA@ 0060cfd0     renderer:win_qgl.obj
 0002:00011fdc       ??_C@_0BC@DNAG@glEdgeFlagPointer?$AA@ 0060cfdc     renderer:win_qgl.obj
 0002:00011ff0       ??_C@_0L@IPAC@glEdgeFlag?$AA@ 0060cff0     renderer:win_qgl.obj
 0002:00011ffc       ??_C@_0N@JMMB@glDrawPixels?$AA@ 0060cffc     renderer:win_qgl.obj
 0002:0001200c       ??_C@_0P@EAHC@glDrawElements?$AA@ 0060d00c     renderer:win_qgl.obj
 0002:0001201c       ??_C@_0N@DBGG@glDrawBuffer?$AA@ 0060d01c     renderer:win_qgl.obj
 0002:0001202c       ??_C@_0N@LOLE@glDrawArrays?$AA@ 0060d02c     renderer:win_qgl.obj
 0002:0001203c       ??_C@_0BF@HABO@glDisableClientState?$AA@ 0060d03c     renderer:win_qgl.obj
 0002:00012054       ??_C@_09DADM@glDisable?$AA@ 0060d054     renderer:win_qgl.obj
 0002:00012060       ??_C@_0N@OLL@glDepthRange?$AA@ 0060d060     renderer:win_qgl.obj
 0002:00012070       ??_C@_0M@LIJE@glDepthMask?$AA@ 0060d070     renderer:win_qgl.obj
 0002:0001207c       ??_C@_0M@FDIH@glDepthFunc?$AA@ 0060d07c     renderer:win_qgl.obj
 0002:00012088       ??_C@_0BB@OKAI@glDeleteTextures?$AA@ 0060d088     renderer:win_qgl.obj
 0002:0001209c       ??_C@_0O@HELJ@glDeleteLists?$AA@ 0060d09c     renderer:win_qgl.obj
 0002:000120ac       ??_C@_0L@LIEG@glCullFace?$AA@ 0060d0ac     renderer:win_qgl.obj
 0002:000120b8       ??_C@_0BE@NHIK@glCopyTexSubImage2D?$AA@ 0060d0b8     renderer:win_qgl.obj
 0002:000120cc       ??_C@_0BE@OMHF@glCopyTexSubImage1D?$AA@ 0060d0cc     renderer:win_qgl.obj
 0002:000120e0       ??_C@_0BB@EGJO@glCopyTexImage2D?$AA@ 0060d0e0     renderer:win_qgl.obj
 0002:000120f4       ??_C@_0BB@HNGB@glCopyTexImage1D?$AA@ 0060d0f4     renderer:win_qgl.obj
 0002:00012108       ??_C@_0N@JHDC@glCopyPixels?$AA@ 0060d108     renderer:win_qgl.obj
 0002:00012118       ??_C@_0P@PPM@glColorPointer?$AA@ 0060d118     renderer:win_qgl.obj
 0002:00012128       ??_C@_0BA@IBCB@glColorMaterial?$AA@ 0060d128     renderer:win_qgl.obj
 0002:00012138       ??_C@_0M@LDC@glColorMask?$AA@ 0060d138     renderer:win_qgl.obj
 0002:00012144       ??_C@_0M@DLCF@glColor4usv?$AA@ 0060d144     renderer:win_qgl.obj
 0002:00012150       ??_C@_0L@HAG@glColor4us?$AA@ 0060d150     renderer:win_qgl.obj
 0002:0001215c       ??_C@_0M@MJIN@glColor4uiv?$AA@ 0060d15c     renderer:win_qgl.obj
 0002:00012168       ??_C@_0L@KPOA@glColor4ui?$AA@ 0060d168     renderer:win_qgl.obj
 0002:00012174       ??_C@_0M@EHCG@glColor4ubv?$AA@ 0060d174     renderer:win_qgl.obj
 0002:00012180       ??_C@_0L@EOB@glColor4ub?$AA@ 0060d180     renderer:win_qgl.obj
 0002:0001218c       ??_C@_0L@HADC@glColor4sv?$AA@ 0060d18c     renderer:win_qgl.obj
 0002:00012198       ??_C@_09BANN@glColor4s?$AA@ 0060d198     renderer:win_qgl.obj
 0002:000121a4       ??_C@_0L@ICJK@glColor4iv?$AA@ 0060d1a4     renderer:win_qgl.obj
 0002:000121b0       ??_C@_09LIDL@glColor4i?$AA@ 0060d1b0     renderer:win_qgl.obj
 0002:000121bc       ??_C@_0L@FGJL@glColor4fv?$AA@ 0060d1bc     renderer:win_qgl.obj
 0002:000121c8       ??_C@_09LJGG@glColor4f?$AA@ 0060d1c8     renderer:win_qgl.obj
 0002:000121d4       ??_C@_0L@HLMO@glColor4dv?$AA@ 0060d1d4     renderer:win_qgl.obj
 0002:000121e0       ??_C@_09OMEI@glColor4d?$AA@ 0060d1e0     renderer:win_qgl.obj
 0002:000121ec       ??_C@_0L@MDB@glColor4bv?$AA@ 0060d1ec     renderer:win_qgl.obj
 0002:000121f8       ??_C@_09BDDK@glColor4b?$AA@ 0060d1f8     renderer:win_qgl.obj
 0002:00012204       ??_C@_0M@MBJL@glColor3usv?$AA@ 0060d204     renderer:win_qgl.obj
 0002:00012210       ??_C@_0L@LJGH@glColor3us?$AA@ 0060d210     renderer:win_qgl.obj
 0002:0001221c       ??_C@_0M@DDDD@glColor3uiv?$AA@ 0060d21c     renderer:win_qgl.obj
 0002:00012228       ??_C@_0L@BBIB@glColor3ui?$AA@ 0060d228     renderer:win_qgl.obj
 0002:00012234       ??_C@_0M@LNJI@glColor3ubv?$AA@ 0060d234     renderer:win_qgl.obj
 0002:00012240       ??_C@_0L@LKIA@glColor3ub?$AA@ 0060d240     renderer:win_qgl.obj
 0002:0001224c       ??_C@_0L@MOFD@glColor3sv?$AA@ 0060d24c     renderer:win_qgl.obj
 0002:00012258       ??_C@_09HBII@glColor3s?$AA@ 0060d258     renderer:win_qgl.obj
 0002:00012264       ??_C@_0L@DMPL@glColor3iv?$AA@ 0060d264     renderer:win_qgl.obj
 0002:00012270       ??_C@_09NJGO@glColor3i?$AA@ 0060d270     renderer:win_qgl.obj
 0002:0001227c       ??_C@_0L@OIPK@glColor3fv?$AA@ 0060d27c     renderer:win_qgl.obj
 0002:00012288       ??_C@_09NIDD@glColor3f?$AA@ 0060d288     renderer:win_qgl.obj
 0002:00012294       ??_C@_0L@MFKP@glColor3dv?$AA@ 0060d294     renderer:win_qgl.obj
 0002:000122a0       ??_C@_09INBN@glColor3d?$AA@ 0060d2a0     renderer:win_qgl.obj
 0002:000122ac       ??_C@_0L@LCFA@glColor3bv?$AA@ 0060d2ac     renderer:win_qgl.obj
 0002:000122b8       ??_C@_09HCGP@glColor3b?$AA@ 0060d2b8     renderer:win_qgl.obj
 0002:000122c4       ??_C@_0M@KLCG@glClipPlane?$AA@ 0060d2c4     renderer:win_qgl.obj
 0002:000122d0       ??_C@_0P@JHOA@glClearStencil?$AA@ 0060d2d0     renderer:win_qgl.obj
 0002:000122e0       ??_C@_0N@ONKK@glClearIndex?$AA@ 0060d2e0     renderer:win_qgl.obj
 0002:000122f0       ??_C@_0N@DFBF@glClearDepth?$AA@ 0060d2f0     renderer:win_qgl.obj
 0002:00012300       ??_C@_0N@IALK@glClearColor?$AA@ 0060d300     renderer:win_qgl.obj
 0002:00012310       ??_C@_0N@LHJ@glClearAccum?$AA@ 0060d310     renderer:win_qgl.obj
 0002:00012320       ??_C@_07IOIM@glClear?$AA@  0060d320     renderer:win_qgl.obj
 0002:00012328       ??_C@_0M@KFJL@glCallLists?$AA@ 0060d328     renderer:win_qgl.obj
 0002:00012334       ??_C@_0L@HCIF@glCallList?$AA@ 0060d334     renderer:win_qgl.obj
 0002:00012340       ??_C@_0M@PHAI@glBlendFunc?$AA@ 0060d340     renderer:win_qgl.obj
 0002:0001234c       ??_C@_08OEAE@glBitmap?$AA@ 0060d34c     renderer:win_qgl.obj
 0002:00012358       ??_C@_0O@NAMD@glBindTexture?$AA@ 0060d358     renderer:win_qgl.obj
 0002:00012368       ??_C@_07GHIG@glBegin?$AA@  0060d368     renderer:win_qgl.obj
 0002:00012370       ??_C@_0P@ODMD@glArrayElement?$AA@ 0060d370     renderer:win_qgl.obj
 0002:00012380       ??_C@_0BG@CCBP@glAreTexturesResident?$AA@ 0060d380     renderer:win_qgl.obj
 0002:00012398       ??_C@_0M@JBDJ@glAlphaFunc?$AA@ 0060d398     renderer:win_qgl.obj
 0002:000123a4       ??_C@_07GKLB@glAccum?$AA@  0060d3a4     renderer:win_qgl.obj
 0002:000123ac       ??_C@_0L@CCCP@succeeded?6?$AA@ 0060d3ac     renderer:win_qgl.obj
 0002:000123b8       ??_C@_0CF@FFEH@?4?4?4calling?5LoadLibrary?$CI?5?8?$CFs?4dll?8@ 0060d3b8     renderer:win_qgl.obj
 0002:000123e0       ??_C@_0EE@KELH@?4?4?4WARNING?3?5missing?5Glide?5instal@ 0060d3e0     renderer:win_qgl.obj
 0002:00012424       ??_C@_0BF@ELAK@?4?4?4initializing?5QGL?6?$AA@ 0060d424     renderer:win_qgl.obj
 0002:0001243c       ??_C@_0BL@LPKH@glw_state?4hinstOpenGL?5?$DN?$DN?50?$AA@ 0060d43c     renderer:win_qgl.obj
 0002:00012458       ??_C@_0DI@NANH@g?3?2trep?9engine?2q3nocd?2quake3?91?43@ 0060d458     renderer:win_qgl.obj
 0002:00012490       ??_C@_07INEN@Glide3X?$AA@  0060d490     renderer:win_qgl.obj
 0002:00012498       ??_C@_0BF@BLBN@?$CK?$CK?$CK?5CLOSING?5LOG?5?$CK?$CK?$CK?6?$AA@ 0060d498     renderer:win_qgl.obj
 0002:000124b0       ??_C@_02IAAH@wt?$AA@       0060d4b0     renderer:win_qgl.obj
 0002:000124b4       ??_C@_09EIMA@?$CFs?1gl?4log?$AA@ 0060d4b4     renderer:win_qgl.obj
 0002:000124c0       ??_C@_08LFPM@glAccum?6?$AA@ 0060d4c0     renderer:win_qgl.obj
 0002:000124cc       ??_C@_0BJ@JKEG@glAlphaFunc?$CI?50x?$CFx?0?5?$CFf?5?$CJ?6?$AA@ 0060d4cc     renderer:win_qgl.obj
 0002:000124e8       ??_C@_0BH@GJLE@glAreTexturesResident?6?$AA@ 0060d4e8     renderer:win_qgl.obj
 0002:00012500       ??_C@_0BA@JBHF@glArrayElement?6?$AA@ 0060d500     renderer:win_qgl.obj
 0002:00012510       ??_C@_0P@EAJO@glBegin?$CI?5?$CFs?5?$CJ?6?$AA@ 0060d510     renderer:win_qgl.obj
 0002:00012520       ??_C@_04BKHJ@0x?$CFx?$AA@  0060d520     renderer:win_qgl.obj
 0002:00012528       ??_C@_0N@LFIO@GL_LINE_LOOP?$AA@ 0060d528     renderer:win_qgl.obj
 0002:00012538       ??_C@_0O@LAAD@GL_LINE_STRIP?$AA@ 0060d538     renderer:win_qgl.obj
 0002:00012548       ??_C@_08NAPN@GL_LINES?$AA@ 0060d548     renderer:win_qgl.obj
 0002:00012554       ??_C@_09NHOA@GL_POINTS?$AA@ 0060d554     renderer:win_qgl.obj
 0002:00012560       ??_C@_0L@EKPE@GL_POLYGON?$AA@ 0060d560     renderer:win_qgl.obj
 0002:0001256c       ??_C@_0O@CKDF@GL_QUAD_STRIP?$AA@ 0060d56c     renderer:win_qgl.obj
 0002:0001257c       ??_C@_08CBLF@GL_QUADS?$AA@ 0060d57c     renderer:win_qgl.obj
 0002:00012588       ??_C@_0BA@LIBB@GL_TRIANGLE_FAN?$AA@ 0060d588     renderer:win_qgl.obj
 0002:00012598       ??_C@_0BC@IMJF@GL_TRIANGLE_STRIP?$AA@ 0060d598     renderer:win_qgl.obj
 0002:000125ac       ??_C@_0N@HBFO@GL_TRIANGLES?$AA@ 0060d5ac     renderer:win_qgl.obj
 0002:000125bc       ??_C@_0BL@MHED@glBindTexture?$CI?50x?$CFx?0?5?$CFu?5?$CJ?6?$AA@ 0060d5bc     renderer:win_qgl.obj
 0002:000125d8       ??_C@_09INHC@glBitmap?6?$AA@ 0060d5d8     renderer:win_qgl.obj
 0002:000125e4       ??_C@_0BH@GEKO@glBlendFunc?$CI?5?$CFs?0?5?$CFs?5?$CJ?6?$AA@ 0060d5e4     renderer:win_qgl.obj
 0002:000125fc       ??_C@_0N@EGDM@GL_DST_ALPHA?$AA@ 0060d5fc     renderer:win_qgl.obj
 0002:0001260c       ??_C@_0BH@NDEA@GL_ONE_MINUS_DST_COLOR?$AA@ 0060d60c     renderer:win_qgl.obj
 0002:00012624       ??_C@_0N@KHJJ@GL_DST_COLOR?$AA@ 0060d624     renderer:win_qgl.obj
 0002:00012634       ??_C@_0BH@DBAD@GL_ONE_MINUS_SRC_ALPHA?$AA@ 0060d634     renderer:win_qgl.obj
 0002:0001264c       ??_C@_0N@EFNK@GL_SRC_ALPHA?$AA@ 0060d64c     renderer:win_qgl.obj
 0002:0001265c       ??_C@_07CCGL@GL_ZERO?$AA@  0060d65c     renderer:win_qgl.obj
 0002:00012664       ??_C@_06LPHD@GL_ONE?$AA@   0060d664     renderer:win_qgl.obj
 0002:0001266c       ??_C@_0BC@NOFA@glCallList?$CI?5?$CFu?5?$CJ?6?$AA@ 0060d66c     renderer:win_qgl.obj
 0002:00012680       ??_C@_0N@BPDD@glCallLists?6?$AA@ 0060d680     renderer:win_qgl.obj
 0002:00012690       ??_C@_02HHDK@?$CJ?6?$AA@   0060d690     renderer:win_qgl.obj
 0002:00012694       ??_C@_0BF@NPPP@GL_ACCUM_BUFFER_BIT?5?$AA@ 0060d694     renderer:win_qgl.obj
 0002:000126ac       ??_C@_0BH@FICL@GL_STENCIL_BUFFER_BIT?5?$AA@ 0060d6ac     renderer:win_qgl.obj
 0002:000126c4       ??_C@_0BF@OGLI@GL_DEPTH_BUFFER_BIT?5?$AA@ 0060d6c4     renderer:win_qgl.obj
 0002:000126dc       ??_C@_0BF@IKEP@GL_COLOR_BUFFER_BIT?5?$AA@ 0060d6dc     renderer:win_qgl.obj
 0002:000126f4       ??_C@_0BB@FBFF@glClear?$CI?50x?$CFx?5?$DN?5?$AA@ 0060d6f4     renderer:win_qgl.obj
 0002:00012708       ??_C@_0O@GFJN@glClearAccum?6?$AA@ 0060d708     renderer:win_qgl.obj
 0002:00012718       ??_C@_0O@LEBG@glClearColor?6?$AA@ 0060d718     renderer:win_qgl.obj
 0002:00012728       ??_C@_0BE@LFO@glClearDepth?$CI?5?$CFf?5?$CJ?6?$AA@ 0060d728     renderer:win_qgl.obj
 0002:0001273c       ??_C@_0O@BEHL@glClearIndex?6?$AA@ 0060d73c     renderer:win_qgl.obj
 0002:0001274c       ??_C@_0BG@NDIB@glClearStencil?$CI?5?$CFd?5?$CJ?6?$AA@ 0060d74c     renderer:win_qgl.obj
 0002:00012764       ??_C@_0N@BPDN@glClipPlane?6?$AA@ 0060d764     renderer:win_qgl.obj
 0002:00012774       ??_C@_0L@BCOE@glColor3b?6?$AA@ 0060d774     renderer:win_qgl.obj
 0002:00012780       ??_C@_0M@LCCE@glColor3bv?6?$AA@ 0060d780     renderer:win_qgl.obj
 0002:0001278c       ??_C@_0L@GFBL@glColor3d?6?$AA@ 0060d78c     renderer:win_qgl.obj
 0002:00012798       ??_C@_0M@FOFD@glColor3dv?6?$AA@ 0060d798     renderer:win_qgl.obj
 0002:000127a4       ??_C@_0L@EIEO@glColor3f?6?$AA@ 0060d7a4     renderer:win_qgl.obj
 0002:000127b0       ??_C@_0M@PKHO@glColor3fv?6?$AA@ 0060d7b0     renderer:win_qgl.obj
 0002:000127bc       ??_C@_0L@JMEP@glColor3i?6?$AA@ 0060d7bc     renderer:win_qgl.obj
 0002:000127c8       ??_C@_0M@NEKK@glColor3iv?6?$AA@ 0060d7c8     renderer:win_qgl.obj
 0002:000127d4       ??_C@_0L@GOOH@glColor3s?6?$AA@ 0060d7d4     renderer:win_qgl.obj
 0002:000127e0       ??_C@_0M@MBFI@glColor3sv?6?$AA@ 0060d7e0     renderer:win_qgl.obj
 0002:000127ec       ??_C@_0M@BNCM@glColor3ub?6?$AA@ 0060d7ec     renderer:win_qgl.obj
 0002:000127f8       ??_C@_0N@NJCL@glColor3ubv?6?$AA@ 0060d7f8     renderer:win_qgl.obj
 0002:00012808       ??_C@_0M@JDIH@glColor3ui?6?$AA@ 0060d808     renderer:win_qgl.obj
 0002:00012814       ??_C@_0N@LPKF@glColor3uiv?6?$AA@ 0060d814     renderer:win_qgl.obj
 0002:00012824       ??_C@_0M@GBCP@glColor3us?6?$AA@ 0060d824     renderer:win_qgl.obj
 0002:00012830       ??_C@_0N@KKFH@glColor3usv?6?$AA@ 0060d830     renderer:win_qgl.obj
 0002:00012840       ??_C@_0L@KMIF@glColor4b?6?$AA@ 0060d840     renderer:win_qgl.obj
 0002:0001284c       ??_C@_0M@EIJK@glColor4bv?6?$AA@ 0060d84c     renderer:win_qgl.obj
 0002:00012858       ??_C@_0L@NLHK@glColor4d?6?$AA@ 0060d858     renderer:win_qgl.obj
 0002:00012864       ??_C@_0M@KEON@glColor4dv?6?$AA@ 0060d864     renderer:win_qgl.obj
 0002:00012870       ??_C@_0BK@KBOE@glColor4f?$CI?5?$CFf?0?$CFf?0?$CFf?0?$CFf?5?$CJ?6?$AA@ 0060d870     renderer:win_qgl.obj
 0002:0001288c       ??_C@_0BL@NMNF@glColor4fv?$CI?5?$CFf?0?$CFf?0?$CFf?0?$CFf?5?$CJ?6?$AA@ 0060d88c     renderer:win_qgl.obj
 0002:000128a8       ??_C@_0L@CCCO@glColor4i?6?$AA@ 0060d8a8     renderer:win_qgl.obj
 0002:000128b4       ??_C@_0M@COBE@glColor4iv?6?$AA@ 0060d8b4     renderer:win_qgl.obj
 0002:000128c0       ??_C@_0L@NAIG@glColor4s?6?$AA@ 0060d8c0     renderer:win_qgl.obj
 0002:000128cc       ??_C@_0M@DLOG@glColor4sv?6?$AA@ 0060d8cc     renderer:win_qgl.obj
 0002:000128d8       ??_C@_0N@LJNB@glColor4ubv?6?$AA@ 0060d8d8     renderer:win_qgl.obj
 0002:000128e8       ??_C@_0M@GJDJ@glColor4ui?6?$AA@ 0060d8e8     renderer:win_qgl.obj
 0002:000128f4       ??_C@_0N@NPFP@glColor4uiv?6?$AA@ 0060d8f4     renderer:win_qgl.obj
 0002:00012904       ??_C@_0M@JLJB@glColor4us?6?$AA@ 0060d904     renderer:win_qgl.obj
 0002:00012910       ??_C@_0N@MKKN@glColor4usv?6?$AA@ 0060d910     renderer:win_qgl.obj
 0002:00012920       ??_C@_0N@DHJN@glColorMask?6?$AA@ 0060d920     renderer:win_qgl.obj
 0002:00012930       ??_C@_0BB@LKBH@glColorMaterial?6?$AA@ 0060d930     renderer:win_qgl.obj
 0002:00012944       ??_C@_0CD@FAHE@glColorPointer?$CI?5?$CFd?0?5?$CFs?0?5?$CFd?0?5MEM?5@ 0060d944     renderer:win_qgl.obj
 0002:00012968       ??_C@_0BA@KPKL@?$CB?$CB?$CB?5UNKNOWN?5?$CB?$CB?$CB?$AA@ 0060d968     renderer:win_qgl.obj
 0002:00012978       ??_C@_09GAIL@GL_DOUBLE?$AA@ 0060d978     renderer:win_qgl.obj
 0002:00012984       ??_C@_08HMNO@GL_FLOAT?$AA@ 0060d984     renderer:win_qgl.obj
 0002:00012990       ??_C@_0BA@JFGA@GL_UNSIGNED_INT?$AA@ 0060d990     renderer:win_qgl.obj
 0002:000129a0       ??_C@_06FAOD@GL_INT?$AA@   0060d9a0     renderer:win_qgl.obj
 0002:000129a8       ??_C@_0BC@MDLH@GL_UNSIGNED_SHORT?$AA@ 0060d9a8     renderer:win_qgl.obj
 0002:000129bc       ??_C@_08JKCF@GL_SHORT?$AA@ 0060d9bc     renderer:win_qgl.obj
 0002:000129c8       ??_C@_0BB@EAPD@GL_UNSIGNED_BYTE?$AA@ 0060d9c8     renderer:win_qgl.obj
 0002:000129dc       ??_C@_07NCDG@GL_BYTE?$AA@  0060d9dc     renderer:win_qgl.obj
 0002:000129e4       ??_C@_0O@DIAB@glCopyPixels?6?$AA@ 0060d9e4     renderer:win_qgl.obj
 0002:000129f4       ??_C@_0BC@KDOL@glCopyTexImage1D?6?$AA@ 0060d9f4     renderer:win_qgl.obj
 0002:00012a08       ??_C@_0BC@FFNA@glCopyTexImage2D?6?$AA@ 0060da08     renderer:win_qgl.obj
 0002:00012a1c       ??_C@_0BF@GHHK@glCopyTexSubImage1D?6?$AA@ 0060da1c     renderer:win_qgl.obj
 0002:00012a34       ??_C@_0BF@JBEB@glCopyTexSubImage2D?6?$AA@ 0060da34     renderer:win_qgl.obj
 0002:00012a4c       ??_C@_0BC@JENJ@glCullFace?$CI?5?$CFs?5?$CJ?6?$AA@ 0060da4c     renderer:win_qgl.obj
 0002:00012a60       ??_C@_08IIC@GL_FRONT?$AA@  0060da60     renderer:win_qgl.obj
 0002:00012a6c       ??_C@_0P@NEOC@glDeleteLists?6?$AA@ 0060da6c     renderer:win_qgl.obj
 0002:00012a7c       ??_C@_0BC@COHM@glDeleteTextures?6?$AA@ 0060da7c     renderer:win_qgl.obj
 0002:00012a90       ??_C@_0BD@MPJD@glDepthFunc?$CI?5?$CFs?5?$CJ?6?$AA@ 0060da90     renderer:win_qgl.obj
 0002:00012aa4       ??_C@_0M@LOMD@GL_NOTEQUAL?$AA@ 0060daa4     renderer:win_qgl.obj
 0002:00012ab0       ??_C@_09JCDD@GL_GEQUAL?$AA@ 0060dab0     renderer:win_qgl.obj
 0002:00012abc       ??_C@_0L@JIBP@GL_GREATER?$AA@ 0060dabc     renderer:win_qgl.obj
 0002:00012ac8       ??_C@_08LLCA@GL_EQUAL?$AA@ 0060dac8     renderer:win_qgl.obj
 0002:00012ad4       ??_C@_07OJJI@GL_LESS?$AA@  0060dad4     renderer:win_qgl.obj
 0002:00012adc       ??_C@_09IBNC@GL_LEQUAL?$AA@ 0060dadc     renderer:win_qgl.obj
 0002:00012ae8       ??_C@_08DECH@GL_NEVER?$AA@ 0060dae8     renderer:win_qgl.obj
 0002:00012af4       ??_C@_09IPPA@GL_ALWAYS?$AA@ 0060daf4     renderer:win_qgl.obj
 0002:00012b00       ??_C@_0BD@NLIP@glDepthMask?$CI?5?$CFs?5?$CJ?6?$AA@ 0060db00     renderer:win_qgl.obj
 0002:00012b14       ??_C@_0BJ@PIJF@OUT?5OF?5RANGE?5FOR?5BOOLEAN?$AA@ 0060db14     renderer:win_qgl.obj
 0002:00012b30       ??_C@_07CINP@GL_TRUE?$AA@  0060db30     renderer:win_qgl.obj
 0002:00012b38       ??_C@_08FEHE@GL_FALSE?$AA@ 0060db38     renderer:win_qgl.obj
 0002:00012b44       ??_C@_0BI@PLCN@glDepthRange?$CI?5?$CFf?0?5?$CFf?5?$CJ?6?$AA@ 0060db44     renderer:win_qgl.obj
 0002:00012b5c       ??_C@_0BB@LGDO@glDisable?$CI?5?$CFs?5?$CJ?6?$AA@ 0060db5c     renderer:win_qgl.obj
 0002:00012b70       ??_C@_0BA@HPEE@GL_STENCIL_TEST?$AA@ 0060db70     renderer:win_qgl.obj
 0002:00012b80       ??_C@_0O@OKCF@GL_ALPHA_TEST?$AA@ 0060db80     renderer:win_qgl.obj
 0002:00012b90       ??_C@_0BA@FEN@GL_VERTEX_ARRAY?$AA@ 0060db90     renderer:win_qgl.obj
 0002:00012ba0       ??_C@_0BH@PEDC@GL_TEXTURE_COORD_ARRAY?$AA@ 0060dba0     renderer:win_qgl.obj
 0002:00012bb8       ??_C@_0P@GGCH@GL_COLOR_ARRAY?$AA@ 0060dbb8     renderer:win_qgl.obj
 0002:00012bc8       ??_C@_0P@BCDP@GL_CLIP_PLANE0?$AA@ 0060dbc8     renderer:win_qgl.obj
 0002:00012bd8       ??_C@_0N@DECJ@GL_CULL_FACE?$AA@ 0060dbd8     renderer:win_qgl.obj
 0002:00012be8       ??_C@_0O@JFOH@GL_DEPTH_TEST?$AA@ 0060dbe8     renderer:win_qgl.obj
 0002:00012bf8       ??_C@_08LFKC@GL_BLEND?$AA@ 0060dbf8     renderer:win_qgl.obj
 0002:00012c04       ??_C@_0O@JIKC@GL_TEXTURE_2D?$AA@ 0060dc04     renderer:win_qgl.obj
 0002:00012c14       ??_C@_0BM@FPOA@glDisableClientState?$CI?5?$CFs?5?$CJ?6?$AA@ 0060dc14     renderer:win_qgl.obj
 0002:00012c30       ??_C@_0O@OJCI@glDrawArrays?6?$AA@ 0060dc30     renderer:win_qgl.obj
 0002:00012c40       ??_C@_0O@OFKH@glDrawBuffer?6?$AA@ 0060dc40     renderer:win_qgl.obj
 0002:00012c50       ??_C@_0CD@KLLC@glDrawElements?$CI?5?$CFs?0?5?$CFd?0?5?$CFs?0?5MEM?5@ 0060dc50     renderer:win_qgl.obj
 0002:00012c74       ??_C@_0O@IIAK@glDrawPixels?6?$AA@ 0060dc74     renderer:win_qgl.obj
 0002:00012c84       ??_C@_0M@PKBJ@glEdgeFlag?6?$AA@ 0060dc84     renderer:win_qgl.obj
 0002:00012c90       ??_C@_0BD@NCKL@glEdgeFlagPointer?6?$AA@ 0060dc90     renderer:win_qgl.obj
 0002:00012ca4       ??_C@_0N@BFMM@glEdgeFlagv?6?$AA@ 0060dca4     renderer:win_qgl.obj
 0002:00012cb4       ??_C@_0BA@MJBC@glEnable?$CI?5?$CFs?5?$CJ?6?$AA@ 0060dcb4     renderer:win_qgl.obj
 0002:00012cc4       ??_C@_0BL@GONF@glEnableClientState?$CI?5?$CFs?5?$CJ?6?$AA@ 0060dcc4     renderer:win_qgl.obj
 0002:00012ce0       ??_C@_06MDMF@glEnd?6?$AA@  0060dce0     renderer:win_qgl.obj
 0002:00012ce8       ??_C@_0L@ENOJ@glEndList?6?$AA@ 0060dce8     renderer:win_qgl.obj
 0002:00012cf4       ??_C@_0P@LELB@glEvalCoord1d?6?$AA@ 0060dcf4     renderer:win_qgl.obj
 0002:00012d04       ??_C@_0BA@PIIC@glEvalCoord1dv?6?$AA@ 0060dd04     renderer:win_qgl.obj
 0002:00012d14       ??_C@_0P@JJOE@glEvalCoord1f?6?$AA@ 0060dd14     renderer:win_qgl.obj
 0002:00012d24       ??_C@_0BA@FMKP@glEvalCoord1fv?6?$AA@ 0060dd24     renderer:win_qgl.obj
 0002:00012d34       ??_C@_0P@ECIK@glEvalCoord2d?6?$AA@ 0060dd34     renderer:win_qgl.obj
 0002:00012d44       ??_C@_0BA@JHHE@glEvalCoord2dv?6?$AA@ 0060dd44     renderer:win_qgl.obj
 0002:00012d54       ??_C@_0P@GPNP@glEvalCoord2f?6?$AA@ 0060dd54     renderer:win_qgl.obj
 0002:00012d64       ??_C@_0BA@DDFJ@glEvalCoord2fv?6?$AA@ 0060dd64     renderer:win_qgl.obj
 0002:00012d74       ??_C@_0N@BHEO@glEvalMesh1?6?$AA@ 0060dd74     renderer:win_qgl.obj
 0002:00012d84       ??_C@_0N@CMLB@glEvalMesh2?6?$AA@ 0060dd84     renderer:win_qgl.obj
 0002:00012d94       ??_C@_0O@OKJL@glEvalPoint1?6?$AA@ 0060dd94     renderer:win_qgl.obj
 0002:00012da4       ??_C@_0O@NBGE@glEvalPoint2?6?$AA@ 0060dda4     renderer:win_qgl.obj
 0002:00012db4       ??_C@_0BC@JENM@glFeedbackBuffer?6?$AA@ 0060ddb4     renderer:win_qgl.obj
 0002:00012dc8       ??_C@_09LLOD@glFinish?6?$AA@ 0060ddc8     renderer:win_qgl.obj
 0002:00012dd4       ??_C@_08BGPG@glFlush?6?$AA@ 0060ddd4     renderer:win_qgl.obj
 0002:00012de0       ??_C@_07OFK@glFogf?6?$AA@  0060dde0     renderer:win_qgl.obj
 0002:00012de8       ??_C@_08HKDI@glFogfv?6?$AA@ 0060dde8     renderer:win_qgl.obj
 0002:00012df4       ??_C@_07NKFL@glFogi?6?$AA@ 0060ddf4     renderer:win_qgl.obj
 0002:00012dfc       ??_C@_08FEOM@glFogiv?6?$AA@ 0060ddfc     renderer:win_qgl.obj
 0002:00012e08       ??_C@_0N@PDFP@glFrontFace?6?$AA@ 0060de08     renderer:win_qgl.obj
 0002:00012e18       ??_C@_0L@PADN@glFrustum?6?$AA@ 0060de18     renderer:win_qgl.obj
 0002:00012e24       ??_C@_0M@LGK@glGenLists?6?$AA@ 0060de24     renderer:win_qgl.obj
 0002:00012e30       ??_C@_0P@IHKG@glGenTextures?6?$AA@ 0060de30     renderer:win_qgl.obj
 0002:00012e40       ??_C@_0P@KHLC@glGetBooleanv?6?$AA@ 0060de40     renderer:win_qgl.obj
 0002:00012e50       ??_C@_0BA@PJNG@glGetClipPlane?6?$AA@ 0060de50     renderer:win_qgl.obj
 0002:00012e60       ??_C@_0O@LBCP@glGetDoublev?6?$AA@ 0060de60     renderer:win_qgl.obj
 0002:00012e70       ??_C@_0M@GEBL@glGetError?6?$AA@ 0060de70     renderer:win_qgl.obj
 0002:00012e7c       ??_C@_0N@DGOL@glGetFloatv?6?$AA@ 0060de7c     renderer:win_qgl.obj
 0002:00012e8c       ??_C@_0P@EBGK@glGetIntegerv?6?$AA@ 0060de8c     renderer:win_qgl.obj
 0002:00012e9c       ??_C@_0O@KOIO@glGetLightfv?6?$AA@ 0060de9c     renderer:win_qgl.obj
 0002:00012eac       ??_C@_0O@IAFK@glGetLightiv?6?$AA@ 0060deac     renderer:win_qgl.obj
 0002:00012ebc       ??_C@_0M@FNKA@glGetMapdv?6?$AA@ 0060debc     renderer:win_qgl.obj
 0002:00012ec8       ??_C@_0M@PJIN@glGetMapfv?6?$AA@ 0060dec8     renderer:win_qgl.obj
 0002:00012ed4       ??_C@_0M@NHFJ@glGetMapiv?6?$AA@ 0060ded4     renderer:win_qgl.obj
 0002:00012ee0       ??_C@_0BB@NELO@glGetMaterialfv?6?$AA@ 0060dee0     renderer:win_qgl.obj
 0002:00012ef4       ??_C@_0BB@PKGK@glGetMaterialiv?6?$AA@ 0060def4     renderer:win_qgl.obj
 0002:00012f08       ??_C@_0BB@HPAI@glGetPixelMapfv?6?$AA@ 0060df08     renderer:win_qgl.obj
 0002:00012f1c       ??_C@_0BC@BNCA@glGetPixelMapuiv?6?$AA@ 0060df1c     renderer:win_qgl.obj
 0002:00012f30       ??_C@_0BC@INC@glGetPixelMapusv?6?$AA@ 0060df30     renderer:win_qgl.obj
 0002:00012f44       ??_C@_0P@FCA@glGetPointerv?6?$AA@ 0060df44     renderer:win_qgl.obj
 0002:00012f54       ??_C@_0BF@NFPA@glGetPolygonStipple?6?$AA@ 0060df54     renderer:win_qgl.obj
 0002:00012f6c       ??_C@_0N@NMNP@glGetString?6?$AA@ 0060df6c     renderer:win_qgl.obj
 0002:00012f7c       ??_C@_0P@KNNB@glGetTexEnvfv?6?$AA@ 0060df7c     renderer:win_qgl.obj
 0002:00012f8c       ??_C@_0P@IDAF@glGetTexEnviv?6?$AA@ 0060df8c     renderer:win_qgl.obj
 0002:00012f9c       ??_C@_0P@LMEI@glGetTexGendv?6?$AA@ 0060df9c     renderer:win_qgl.obj
 0002:00012fac       ??_C@_0P@BIGF@glGetTexGenfv?6?$AA@ 0060dfac     renderer:win_qgl.obj
 0002:00012fbc       ??_C@_0P@DGLB@glGetTexGeniv?6?$AA@ 0060dfbc     renderer:win_qgl.obj
 0002:00012fcc       ??_C@_0P@BKOA@glGetTexImage?6?$AA@ 0060dfcc     renderer:win_qgl.obj
 0002:00012fdc       ??_C@_0BK@LLEB@glGetTexLevelParameterfv?6?$AA@ 0060dfdc     renderer:win_qgl.obj
 0002:00012ff8       ??_C@_0BK@JFJF@glGetTexLevelParameteriv?6?$AA@ 0060dff8     renderer:win_qgl.obj
 0002:00013014       ??_C@_0BF@OJHB@glGetTexParameterfv?6?$AA@ 0060e014     renderer:win_qgl.obj
 0002:0001302c       ??_C@_0BF@MHKF@glGetTexParameteriv?6?$AA@ 0060e02c     renderer:win_qgl.obj
 0002:00013044       ??_C@_0BG@PJGJ@glHint?$CI?50x?$CFx?0?50x?$CFx?5?$CJ?6?$AA@ 0060e044     renderer:win_qgl.obj
 0002:0001305c       ??_C@_0N@HKPA@glIndexMask?6?$AA@ 0060e05c     renderer:win_qgl.obj
 0002:0001306c       ??_C@_0BA@NFPO@glIndexPointer?6?$AA@ 0060e06c     renderer:win_qgl.obj
 0002:0001307c       ??_C@_09JJAO@glIndexd?6?$AA@ 0060e07c     renderer:win_qgl.obj
 0002:00013088       ??_C@_0L@ELKP@glIndexdv?6?$AA@ 0060e088     renderer:win_qgl.obj
 0002:00013094       ??_C@_09LEFL@glIndexf?6?$AA@ 0060e094     renderer:win_qgl.obj
 0002:000130a0       ??_C@_0L@OPIC@glIndexfv?6?$AA@ 0060e0a0     renderer:win_qgl.obj
 0002:000130ac       ??_C@_09GAFK@glIndexi?6?$AA@ 0060e0ac     renderer:win_qgl.obj
 0002:000130b8       ??_C@_0L@MBFG@glIndexiv?6?$AA@ 0060e0b8     renderer:win_qgl.obj
 0002:000130c4       ??_C@_09JCPC@glIndexs?6?$AA@ 0060e0c4     renderer:win_qgl.obj
 0002:000130d0       ??_C@_0L@NEKE@glIndexsv?6?$AA@ 0060e0d0     renderer:win_qgl.obj
 0002:000130dc       ??_C@_0L@INA@glIndexub?6?$AA@ 0060e0dc     renderer:win_qgl.obj
 0002:000130e8       ??_C@_0M@FEDO@glIndexubv?6?$AA@ 0060e0e8     renderer:win_qgl.obj
 0002:000130f4       ??_C@_0N@CPDE@glInitNames?6?$AA@ 0060e0f4     renderer:win_qgl.obj
 0002:00013104       ??_C@_0BF@IEMM@glInterleavedArrays?6?$AA@ 0060e104     renderer:win_qgl.obj
 0002:0001311c       ??_C@_0N@EJPL@glIsEnabled?6?$AA@ 0060e11c     renderer:win_qgl.obj
 0002:0001312c       ??_C@_09BLFC@glIsList?6?$AA@ 0060e12c     renderer:win_qgl.obj
 0002:00013138       ??_C@_0N@PHEE@glIsTexture?6?$AA@ 0060e138     renderer:win_qgl.obj
 0002:00013148       ??_C@_0P@OCFG@glLightModelf?6?$AA@ 0060e148     renderer:win_qgl.obj
 0002:00013158       ??_C@_0BA@NNNE@glLightModelfv?6?$AA@ 0060e158     renderer:win_qgl.obj
 0002:00013168       ??_C@_0P@DGFH@glLightModeli?6?$AA@ 0060e168     renderer:win_qgl.obj
 0002:00013178       ??_C@_0BA@PDAA@glLightModeliv?6?$AA@ 0060e178     renderer:win_qgl.obj
 0002:00013188       ??_C@_09GKPC@glLightf?6?$AA@ 0060e188     renderer:win_qgl.obj
 0002:00013194       ??_C@_0L@GOFM@glLightfv?6?$AA@ 0060e194     renderer:win_qgl.obj
 0002:000131a0       ??_C@_09LOPD@glLighti?6?$AA@ 0060e1a0     renderer:win_qgl.obj
 0002:000131ac       ??_C@_0L@EAII@glLightiv?6?$AA@ 0060e1ac     renderer:win_qgl.obj
 0002:000131b8       ??_C@_0P@HHKG@glLineStipple?6?$AA@ 0060e1b8     renderer:win_qgl.obj
 0002:000131c8       ??_C@_0N@BEDE@glLineWidth?6?$AA@ 0060e1c8     renderer:win_qgl.obj
 0002:000131d8       ??_C@_0M@CNFD@glListBase?6?$AA@ 0060e1d8     renderer:win_qgl.obj
 0002:000131e4       ??_C@_0BA@NLFN@glLoadIdentity?6?$AA@ 0060e1e4     renderer:win_qgl.obj
 0002:000131f4       ??_C@_0P@EEGA@glLoadMatrixd?6?$AA@ 0060e1f4     renderer:win_qgl.obj
 0002:00013204       ??_C@_0P@GJDF@glLoadMatrixf?6?$AA@ 0060e204     renderer:win_qgl.obj
 0002:00013214       ??_C@_0M@KPNA@glLoadName?6?$AA@ 0060e214     renderer:win_qgl.obj
 0002:00013220       ??_C@_0L@HBBC@glLogicOp?6?$AA@ 0060e220     renderer:win_qgl.obj
 0002:0001322c       ??_C@_08FKOO@glMap1d?6?$AA@ 0060e22c     renderer:win_qgl.obj
 0002:00013238       ??_C@_08HHLL@glMap1f?6?$AA@ 0060e238     renderer:win_qgl.obj
 0002:00013244       ??_C@_08KMNF@glMap2d?6?$AA@ 0060e244     renderer:win_qgl.obj
 0002:00013250       ??_C@_08IBIA@glMap2f?6?$AA@ 0060e250     renderer:win_qgl.obj
 0002:0001325c       ??_C@_0N@HCGO@glMapGrid1d?6?$AA@ 0060e25c     renderer:win_qgl.obj
 0002:0001326c       ??_C@_0N@FPDL@glMapGrid1f?6?$AA@ 0060e26c     renderer:win_qgl.obj
 0002:0001327c       ??_C@_0N@IEFF@glMapGrid2d?6?$AA@ 0060e27c     renderer:win_qgl.obj
 0002:0001328c       ??_C@_0N@KJAA@glMapGrid2f?6?$AA@ 0060e28c     renderer:win_qgl.obj
 0002:0001329c       ??_C@_0N@GODN@glMaterialf?6?$AA@ 0060e29c     renderer:win_qgl.obj
 0002:000132ac       ??_C@_0O@PMFI@glMaterialfv?6?$AA@ 0060e2ac     renderer:win_qgl.obj
 0002:000132bc       ??_C@_0N@LKDM@glMateriali?6?$AA@ 0060e2bc     renderer:win_qgl.obj
 0002:000132cc       ??_C@_0O@NCIM@glMaterialiv?6?$AA@ 0060e2cc     renderer:win_qgl.obj
 0002:000132dc       ??_C@_0O@LIAL@glMatrixMode?6?$AA@ 0060e2dc     renderer:win_qgl.obj
 0002:000132ec       ??_C@_0P@OKEM@glMultMatrixd?6?$AA@ 0060e2ec     renderer:win_qgl.obj
 0002:000132fc       ??_C@_0P@MHBJ@glMultMatrixf?6?$AA@ 0060e2fc     renderer:win_qgl.obj
 0002:0001330c       ??_C@_0L@DHBP@glNewList?6?$AA@ 0060e30c     renderer:win_qgl.obj
 0002:00013318       ??_C@_0M@MPKC@glNormal3b?6?$AA@ 0060e318     renderer:win_qgl.obj
 0002:00013324       ??_C@_0N@DMPJ@glNormal3bv?6?$AA@ 0060e324     renderer:win_qgl.obj
 0002:00013334       ??_C@_0M@LIFN@glNormal3d?6?$AA@ 0060e334     renderer:win_qgl.obj
 0002:00013340       ??_C@_0N@NAIO@glNormal3dv?6?$AA@ 0060e340     renderer:win_qgl.obj
 0002:00013350       ??_C@_0M@JFAI@glNormal3f?6?$AA@ 0060e350     renderer:win_qgl.obj
 0002:0001335c       ??_C@_0N@HEKD@glNormal3fv?6?$AA@ 0060e35c     renderer:win_qgl.obj
 0002:0001336c       ??_C@_0M@EBAJ@glNormal3i?6?$AA@ 0060e36c     renderer:win_qgl.obj
 0002:00013378       ??_C@_0N@FKHH@glNormal3iv?6?$AA@ 0060e378     renderer:win_qgl.obj
 0002:00013388       ??_C@_0M@LDKB@glNormal3s?6?$AA@ 0060e388     renderer:win_qgl.obj
 0002:00013394       ??_C@_0N@EPIF@glNormal3sv?6?$AA@ 0060e394     renderer:win_qgl.obj
 0002:000133a4       ??_C@_0BB@PP@glNormalPointer?6?$AA@ 0060e3a4     renderer:win_qgl.obj
 0002:000133b8       ??_C@_08OOBE@glOrtho?6?$AA@ 0060e3b8     renderer:win_qgl.obj
 0002:000133c4       ??_C@_0P@GEIP@glPassThrough?6?$AA@ 0060e3c4     renderer:win_qgl.obj
 0002:000133d4       ??_C@_0O@FHOO@glPixelMapfv?6?$AA@ 0060e3d4     renderer:win_qgl.obj
 0002:000133e4       ??_C@_0P@KEAI@glPixelMapuiv?6?$AA@ 0060e3e4     renderer:win_qgl.obj
 0002:000133f4       ??_C@_0P@LBPK@glPixelMapusv?6?$AA@ 0060e3f4     renderer:win_qgl.obj
 0002:00013404       ??_C@_0P@GMNN@glPixelStoref?6?$AA@ 0060e404     renderer:win_qgl.obj
 0002:00013414       ??_C@_0P@LINM@glPixelStorei?6?$AA@ 0060e414     renderer:win_qgl.obj
 0002:00013424       ??_C@_0BC@FPDN@glPixelTransferf?6?$AA@ 0060e424     renderer:win_qgl.obj
 0002:00013438       ??_C@_0BC@ILDM@glPixelTransferi?6?$AA@ 0060e438     renderer:win_qgl.obj
 0002:0001344c       ??_C@_0N@MOPA@glPixelZoom?6?$AA@ 0060e44c     renderer:win_qgl.obj
 0002:0001345c       ??_C@_0N@IJAG@glPointSize?6?$AA@ 0060e45c     renderer:win_qgl.obj
 0002:0001346c       ??_C@_0BN@EGCF@glPolygonMode?$CI?50x?$CFx?0?50x?$CFx?5?$CJ?6?$AA@ 0060e46c     renderer:win_qgl.obj
 0002:0001348c       ??_C@_0BB@BCIG@glPolygonOffset?6?$AA@ 0060e48c     renderer:win_qgl.obj
 0002:000134a0       ??_C@_0BC@DPMO@glPolygonStipple?6?$AA@ 0060e4a0     renderer:win_qgl.obj
 0002:000134b4       ??_C@_0N@KPFH@glPopAttrib?6?$AA@ 0060e4b4     renderer:win_qgl.obj
 0002:000134c4       ??_C@_0BD@EMAK@glPopClientAttrib?6?$AA@ 0060e4c4     renderer:win_qgl.obj
 0002:000134d8       ??_C@_0N@KCG@glPopMatrix?6?$AA@ 0060e4d8     renderer:win_qgl.obj
 0002:000134e8       ??_C@_0L@MOPC@glPopName?6?$AA@ 0060e4e8     renderer:win_qgl.obj
 0002:000134f4       ??_C@_0BG@GDOA@glPrioritizeTextures?6?$AA@ 0060e4f4     renderer:win_qgl.obj
 0002:0001350c       ??_C@_0O@FED@glPushAttrib?6?$AA@ 0060e50c     renderer:win_qgl.obj
 0002:0001351c       ??_C@_0BE@HLDH@glPushClientAttrib?6?$AA@ 0060e51c     renderer:win_qgl.obj
 0002:00013530       ??_C@_0O@KADC@glPushMatrix?6?$AA@ 0060e530     renderer:win_qgl.obj
 0002:00013540       ??_C@_0M@IMAD@glPushName?6?$AA@ 0060e540     renderer:win_qgl.obj
 0002:0001354c       ??_C@_0P@BEAP@glRasterPot2d?6?$AA@ 0060e54c     renderer:win_qgl.obj
 0002:0001355c       ??_C@_0BA@KINI@glRasterPos2dv?6?$AA@ 0060e55c     renderer:win_qgl.obj
 0002:0001356c       ??_C@_0P@MDOE@glRasterPos2f?6?$AA@ 0060e56c     renderer:win_qgl.obj
 0002:0001357c       ??_C@_0BA@EIII@glRasterPos2if?6?$AA@ 0060e57c     renderer:win_qgl.obj
 0002:0001358c       ??_C@_0BA@CCCB@glRasterPos2iv?6?$AA@ 0060e58c     renderer:win_qgl.obj
 0002:0001359c       ??_C@_0P@OFEN@glRasterPos2s?6?$AA@ 0060e59c     renderer:win_qgl.obj
 0002:000135ac       ??_C@_0BA@DHND@glRasterPos2sv?6?$AA@ 0060e5ac     renderer:win_qgl.obj
 0002:000135bc       ??_C@_0P@LMKH@glRasterPos3d?6?$AA@ 0060e5bc     renderer:win_qgl.obj
 0002:000135cc       ??_C@_0BA@INIK@glRasterPos3dv?6?$AA@ 0060e5cc     renderer:win_qgl.obj
 0002:000135dc       ??_C@_0P@JBPC@glRasterPos3f?6?$AA@ 0060e5dc     renderer:win_qgl.obj
 0002:000135ec       ??_C@_0BA@CJKH@glRasterPos3fv?6?$AA@ 0060e5ec     renderer:win_qgl.obj
 0002:000135fc       ??_C@_0P@EFPD@glRasterPos3i?6?$AA@ 0060e5fc     renderer:win_qgl.obj
 0002:0001360c       ??_C@_0BA@HHD@glRasterPos3iv?6?$AA@ 0060e60c     renderer:win_qgl.obj
 0002:0001361c       ??_C@_0P@LHFL@glRasterPos3s?6?$AA@ 0060e61c     renderer:win_qgl.obj
 0002:0001362c       ??_C@_0BA@BCIB@glRasterPos3sv?6?$AA@ 0060e62c     renderer:win_qgl.obj
 0002:0001363c       ??_C@_0P@CMG@glRasterPos4d?6?$AA@ 0060e63c     renderer:win_qgl.obj
 0002:0001364c       ??_C@_0BA@HHDE@glRasterPos4dv?6?$AA@ 0060e64c     renderer:win_qgl.obj
 0002:0001365c       ??_C@_0P@CPJD@glRasterPos4f?6?$AA@ 0060e65c     renderer:win_qgl.obj
 0002:0001366c       ??_C@_0BA@NDBJ@glRasterPos4fv?6?$AA@ 0060e66c     renderer:win_qgl.obj
 0002:0001367c       ??_C@_0P@PLJC@glRasterPos4i?6?$AA@ 0060e67c     renderer:win_qgl.obj
 0002:0001368c       ??_C@_0BA@PNMN@glRasterPos4iv?6?$AA@ 0060e68c     renderer:win_qgl.obj
 0002:0001369c       ??_C@_0P@JDK@glRasterPos4s?6?$AA@ 0060e69c     renderer:win_qgl.obj
 0002:000136ac       ??_C@_0BA@OIDP@glRasterPos4sv?6?$AA@ 0060e6ac     renderer:win_qgl.obj
 0002:000136bc       ??_C@_0O@DLIK@glReadBuffer?6?$AA@ 0060e6bc     renderer:win_qgl.obj
 0002:000136cc       ??_C@_0O@FGCH@glReadPixels?6?$AA@ 0060e6cc     renderer:win_qgl.obj
 0002:000136dc       ??_C@_08GACJ@glRectd?6?$AA@ 0060e6dc     renderer:win_qgl.obj
 0002:000136e8       ??_C@_09MKFG@glRectdv?6?$AA@ 0060e6e8     renderer:win_qgl.obj
 0002:000136f4       ??_C@_08ENHM@glRectf?6?$AA@ 0060e6f4     renderer:win_qgl.obj
 0002:00013700       ??_C@_09GOHL@glRectfv?6?$AA@ 0060e700     renderer:win_qgl.obj
 0002:0001370c       ??_C@_08JJHN@glRecti?6?$AA@ 0060e70c     renderer:win_qgl.obj
 0002:00013718       ??_C@_09EAKP@glRectiv?6?$AA@ 0060e718     renderer:win_qgl.obj
 0002:00013724       ??_C@_08GLNF@glRects?6?$AA@ 0060e724     renderer:win_qgl.obj
 0002:00013730       ??_C@_09FFFN@glRectsv?6?$AA@ 0060e730     renderer:win_qgl.obj
 0002:0001373c       ??_C@_0O@CGMI@glRenderMode?6?$AA@ 0060e73c     renderer:win_qgl.obj
 0002:0001374c       ??_C@_0L@OHB@glRotated?6?$AA@ 0060e74c     renderer:win_qgl.obj
 0002:00013758       ??_C@_0L@CDCE@glRotatef?6?$AA@ 0060e758     renderer:win_qgl.obj
 0002:00013764       ??_C@_09LDBC@glScaled?6?$AA@ 0060e764     renderer:win_qgl.obj
 0002:00013770       ??_C@_09JOEH@glScalef?6?$AA@ 0060e770     renderer:win_qgl.obj
 0002:0001377c       ??_C@_0BN@KPAO@glScissor?$CI?5?$CFd?0?5?$CFd?0?5?$CFd?0?5?$CFd?5?$CJ?6?$AA@ 0060e77c     renderer:win_qgl.obj
 0002:0001379c       ??_C@_0BA@LPAE@glSelectBuffer?6?$AA@ 0060e79c     renderer:win_qgl.obj
 0002:000137ac       ??_C@_0O@ECO@glShadeModel?6?$AA@ 0060e7ac     renderer:win_qgl.obj
 0002:000137bc       ??_C@_0P@CJPH@glStencilFunc?6?$AA@ 0060e7bc     renderer:win_qgl.obj
 0002:000137cc       ??_C@_0P@BGBM@glStencilMask?6?$AA@ 0060e7cc     renderer:win_qgl.obj
 0002:000137dc       ??_C@_0N@BCCI@glStencilOp?6?$AA@ 0060e7dc     renderer:win_qgl.obj
 0002:000137ec       ??_C@_0O@JKAL@glTexCoord1d?6?$AA@ 0060e7ec     renderer:win_qgl.obj
 0002:000137fc       ??_C@_0P@FDKM@glTexCoord1dv?6?$AA@ 0060e7fc     renderer:win_qgl.obj
 0002:0001380c       ??_C@_0O@LHFO@glTexCoord1f?6?$AA@ 0060e80c     renderer:win_qgl.obj
 0002:0001381c       ??_C@_0P@PHIB@glTexCoord1fv?6?$AA@ 0060e81c     renderer:win_qgl.obj
 0002:0001382c       ??_C@_0O@GDFP@glTexCoord1i?6?$AA@ 0060e82c     renderer:win_qgl.obj
 0002:0001383c       ??_C@_0P@NJFF@glTexCoord1iv?6?$AA@ 0060e83c     renderer:win_qgl.obj
 0002:0001384c       ??_C@_0O@JBPH@glTexCoord1s?6?$AA@ 0060e84c     renderer:win_qgl.obj
 0002:0001385c       ??_C@_0P@MMKH@glTexCoord1sv?6?$AA@ 0060e85c     renderer:win_qgl.obj
 0002:0001386c       ??_C@_0O@GMDA@glTexCoord2d?6?$AA@ 0060e86c     renderer:win_qgl.obj
 0002:0001387c       ??_C@_0P@DMFK@glTexCoord2dv?6?$AA@ 0060e87c     renderer:win_qgl.obj
 0002:0001388c       ??_C@_0O@EBGF@glTexCoord2f?6?$AA@ 0060e88c     renderer:win_qgl.obj
 0002:0001389c       ??_C@_0P@JIHH@glTexCoord2fv?6?$AA@ 0060e89c     renderer:win_qgl.obj
 0002:000138ac       ??_C@_0O@JFGE@glTexCoord2i?6?$AA@ 0060e8ac     renderer:win_qgl.obj
 0002:000138bc       ??_C@_0P@LGKD@glTexCoord2iv?6?$AA@ 0060e8bc     renderer:win_qgl.obj
 0002:000138cc       ??_C@_0O@GHMM@glTexCoord2s?6?$AA@ 0060e8cc     renderer:win_qgl.obj
 0002:000138dc       ??_C@_0P@KDFB@glTexCoord2sv?6?$AA@ 0060e8dc     renderer:win_qgl.obj
 0002:000138ec       ??_C@_0O@DOCG@glTexCoord3d?6?$AA@ 0060e8ec     renderer:win_qgl.obj
 0002:000138fc       ??_C@_0P@BJAI@glTexCoord3dv?6?$AA@ 0060e8fc     renderer:win_qgl.obj
 0002:0001390c       ??_C@_0O@BDHD@glTexCoord3f?6?$AA@ 0060e90c     renderer:win_qgl.obj
 0002:0001391c       ??_C@_0P@LNCF@glTexCoord3fv?6?$AA@ 0060e91c     renderer:win_qgl.obj
 0002:0001392c       ??_C@_0O@MHHC@glTexCoord3i?6?$AA@ 0060e92c     renderer:win_qgl.obj
 0002:0001393c       ??_C@_0P@JDPB@glTexCoord3iv?6?$AA@ 0060e93c     renderer:win_qgl.obj
 0002:0001394c       ??_C@_0O@DFNK@glTexCoord3s?6?$AA@ 0060e94c     renderer:win_qgl.obj
 0002:0001395c       ??_C@_0P@IGAD@glTexCoord3sv?6?$AA@ 0060e95c     renderer:win_qgl.obj
 0002:0001396c       ??_C@_0O@IAEH@glTexCoord4d?6?$AA@ 0060e96c     renderer:win_qgl.obj
 0002:0001397c       ??_C@_0P@ODLG@glTexCoord4dv?6?$AA@ 0060e97c     renderer:win_qgl.obj
 0002:0001398c       ??_C@_0O@KNBC@glTexCoord4f?6?$AA@ 0060e98c     renderer:win_qgl.obj
 0002:0001399c       ??_C@_0P@EHJL@glTexCoord4fv?6?$AA@ 0060e99c     renderer:win_qgl.obj
 0002:000139ac       ??_C@_0O@HJBD@glTexCoord4i?6?$AA@ 0060e9ac     renderer:win_qgl.obj
 0002:000139bc       ??_C@_0P@GJEP@glTexCoord4iv?6?$AA@ 0060e9bc     renderer:win_qgl.obj
 0002:000139cc       ??_C@_0O@ILLL@glTexCoord4s?6?$AA@ 0060e9cc     renderer:win_qgl.obj
 0002:000139dc       ??_C@_0P@HMLN@glTexCoord4sv?6?$AA@ 0060e9dc     renderer:win_qgl.obj
 0002:000139ec       ??_C@_0CG@PGG@glTexCoordPointer?$CI?5?$CFd?0?5?$CFs?0?5?$CFd?0?5M@ 0060e9ec     renderer:win_qgl.obj
 0002:00013a14       ??_C@_0BN@KOFE@glTexEnvf?$CI?50x?$CFx?0?50x?$CFx?0?5?$CFf?5?$CJ?6?$AA@ 0060ea14     renderer:win_qgl.obj
 0002:00013a34       ??_C@_0M@EGBB@glTexEnvfv?6?$AA@ 0060ea34     renderer:win_qgl.obj
 0002:00013a40       ??_C@_0BP@FJN@glTexEnvi?$CI?50x?$CFx?0?50x?$CFx?0?50x?$CFx?5?$CJ?6?$AA@ 0060ea40     renderer:win_qgl.obj
 0002:00013a60       ??_C@_0M@GIMF@glTexEnviv?6?$AA@ 0060ea60     renderer:win_qgl.obj
 0002:00013a6c       ??_C@_0L@LOBJ@glTexGend?6?$AA@ 0060ea6c     renderer:win_qgl.obj
 0002:00013a78       ??_C@_0M@FHII@glTexGendv?6?$AA@ 0060ea78     renderer:win_qgl.obj
 0002:00013a84       ??_C@_0L@JDEM@glTexGenf?6?$AA@ 0060ea84     renderer:win_qgl.obj
 0002:00013a90       ??_C@_0M@PDKF@glTexGenfv?6?$AA@ 0060ea90     renderer:win_qgl.obj
 0002:00013a9c       ??_C@_0L@EHEN@glTexGeni?6?$AA@ 0060ea9c     renderer:win_qgl.obj
 0002:00013aa8       ??_C@_0M@NNHB@glTexGeniv?6?$AA@ 0060eaa8     renderer:win_qgl.obj
 0002:00013ab4       ??_C@_0O@BECN@glTexImage1D?6?$AA@ 0060eab4     renderer:win_qgl.obj
 0002:00013ac4       ??_C@_0O@OCBG@glTexImage2D?6?$AA@ 0060eac4     renderer:win_qgl.obj
 0002:00013ad4       ??_C@_0CD@MGJM@glTexParameterf?$CI?50x?$CFx?0?50x?$CFx?0?5?$CFf?5@ 0060ead4     renderer:win_qgl.obj
 0002:00013af8       ??_C@_0BC@DEP@glTexParameterfv?6?$AA@ 0060eaf8     renderer:win_qgl.obj
 0002:00013b0c       ??_C@_0CF@LPLO@glTexParameteri?$CI?50x?$CFx?0?50x?$CFx?0?50x?$CF@ 0060eb0c     renderer:win_qgl.obj
 0002:00013b34       ??_C@_0BC@CNJL@glTexParameteriv?6?$AA@ 0060eb34     renderer:win_qgl.obj
 0002:00013b48       ??_C@_0BB@NKAI@glTexSubImage1D?6?$AA@ 0060eb48     renderer:win_qgl.obj
 0002:00013b5c       ??_C@_0BB@CMDD@glTexSubImage2D?6?$AA@ 0060eb5c     renderer:win_qgl.obj
 0002:00013b70       ??_C@_0O@NDBJ@glTranslated?6?$AA@ 0060eb70     renderer:win_qgl.obj
 0002:00013b80       ??_C@_0O@POEM@glTranslatef?6?$AA@ 0060eb80     renderer:win_qgl.obj
 0002:00013b90       ??_C@_0M@CPPO@glVertex2d?6?$AA@ 0060eb90     renderer:win_qgl.obj
 0002:00013b9c       ??_C@_0N@IGBJ@glVertex2dv?6?$AA@ 0060eb9c     renderer:win_qgl.obj
 0002:00013bac       ??_C@_0M@CKL@glVertex2f?6?$AA@ 0060ebac     renderer:win_qgl.obj
 0002:00013bb8       ??_C@_0N@CCDE@glVertex2fv?6?$AA@ 0060ebb8     renderer:win_qgl.obj
 0002:00013bc8       ??_C@_0M@NGKK@glVertex2i?6?$AA@ 0060ebc8     renderer:win_qgl.obj
 0002:00013bd4       ??_C@_0N@MOA@glVertex2iv?6?$AA@ 0060ebd4     renderer:win_qgl.obj
 0002:00013be4       ??_C@_0M@CEAC@glVertex2s?6?$AA@ 0060ebe4     renderer:win_qgl.obj
 0002:00013bf0       ??_C@_0N@BJBC@glVertex2sv?6?$AA@ 0060ebf0     renderer:win_qgl.obj
 0002:00013c00       ??_C@_0M@HNOI@glVertex3d?6?$AA@ 0060ec00     renderer:win_qgl.obj
 0002:00013c0c       ??_C@_0N@KDEL@glVertex3dv?6?$AA@ 0060ec0c     renderer:win_qgl.obj
 0002:00013c1c       ??_C@_0M@FALN@glVertex3f?6?$AA@ 0060ec1c     renderer:win_qgl.obj
 0002:00013c28       ??_C@_0N@HGG@glVertex3fv?6?$AA@ 0060ec28     renderer:win_qgl.obj
 0002:00013c38       ??_C@_0M@IELM@glVertex3i?6?$AA@ 0060ec38     renderer:win_qgl.obj
 0002:00013c44       ??_C@_0N@CJLC@glVertex3iv?6?$AA@ 0060ec44     renderer:win_qgl.obj
 0002:00013c54       ??_C@_0M@HGBE@glVertex3s?6?$AA@ 0060ec54     renderer:win_qgl.obj
 0002:00013c60       ??_C@_0N@DMEA@glVertex3sv?6?$AA@ 0060ec60     renderer:win_qgl.obj
 0002:00013c70       ??_C@_0M@MDIJ@glVertex4d?6?$AA@ 0060ec70     renderer:win_qgl.obj
 0002:00013c7c       ??_C@_0N@FJPF@glVertex4dv?6?$AA@ 0060ec7c     renderer:win_qgl.obj
 0002:00013c8c       ??_C@_0M@OONM@glVertex4f?6?$AA@ 0060ec8c     renderer:win_qgl.obj
 0002:00013c98       ??_C@_0N@PNNI@glVertex4fv?6?$AA@ 0060ec98     renderer:win_qgl.obj
 0002:00013ca8       ??_C@_0M@DKNN@glVertex4i?6?$AA@ 0060eca8     renderer:win_qgl.obj
 0002:00013cb4       ??_C@_0N@NDAM@glVertex4iv?6?$AA@ 0060ecb4     renderer:win_qgl.obj
 0002:00013cc4       ??_C@_0M@MIHF@glVertex4s?6?$AA@ 0060ecc4     renderer:win_qgl.obj
 0002:00013cd0       ??_C@_0N@MGPO@glVertex4sv?6?$AA@ 0060ecd0     renderer:win_qgl.obj
 0002:00013ce0       ??_C@_0CE@CJOO@glVertexPointer?$CI?5?$CFd?0?5?$CFs?0?5?$CFd?0?5MEM@ 0060ece0     renderer:win_qgl.obj
 0002:00013d04       ??_C@_0BO@KJAJ@glViewport?$CI?5?$CFd?0?5?$CFd?0?5?$CFd?0?5?$CFd?5?$CJ?6?$AA@ 0060ed04     renderer:win_qgl.obj
 0002:00013d24       ??_C@_0BI@KDJA@GL_LINEAR_MIPMAP_LINEAR?$AA@ 0060ed24     renderer:tr_image.obj
 0002:00013d3c       ??_C@_0BJ@FEEC@GL_NEAREST_MIPMAP_LINEAR?$AA@ 0060ed3c     renderer:tr_image.obj
 0002:00013d58       ??_C@_0BK@NEKN@GL_NEAREST_MIPMAP_NEAREST?$AA@ 0060ed58     renderer:tr_image.obj
 0002:00013d74       ??_C@_09KGLC@GL_LINEAR?$AA@ 0060ed74     renderer:tr_image.obj
 0002:00013d80       ??_C@_0L@FLFP@GL_NEAREST?$AA@ 0060ed80     renderer:tr_image.obj
 0002:00013d8c       ??_C@_0BB@KGGC@bad?5filter?5name?6?$AA@ 0060ed8c     renderer:tr_image.obj
 0002:00013da0       ??_C@_0CI@MCF@Refusing?5to?5set?5trilinear?5on?5a?5v@ 0060eda0     renderer:tr_image.obj
 0002:00013dc8       ??_C@_0BD@DJFH@?5?$CFi?5total?5images?6?6?$AA@ 0060edc8     renderer:tr_image.obj
 0002:00013ddc       ??_C@_0CK@MCDL@?5?$CFi?5total?5texels?5?$CInot?5including?5@ 0060eddc     renderer:tr_image.obj
 0002:00013e08       ??_C@_0M@MDMN@?5?9?9?9?9?9?9?9?9?9?6?$AA@ 0060ee08     renderer:tr_image.obj
 0002:00013e14       ??_C@_04NNOM@?5?$CFs?6?$AA@ 0060ee14     renderer:tr_image.obj
 0002:00013e1c       ??_C@_05KGLG@clmp?5?$AA@   0060ee1c     renderer:tr_image.obj
 0002:00013e24       ??_C@_05PKDN@rept?5?$AA@   0060ee24     renderer:tr_image.obj
 0002:00013e2c       ??_C@_05DMBD@?$DP?$DP?$DP?$DP?5?$AA@ 0060ee2c     renderer:tr_image.obj
 0002:00013e34       ??_C@_05GFOM@RGB5?5?$AA@   0060ee34     renderer:tr_image.obj
 0002:00013e3c       ??_C@_05CJDE@RGBA4?$AA@    0060ee3c     renderer:tr_image.obj
 0002:00013e44       ??_C@_05FENL@S3TC?5?$AA@   0060ee44     renderer:tr_image.obj
 0002:00013e4c       ??_C@_04FIBD@RGB8?$AA@     0060ee4c     renderer:tr_image.obj
 0002:00013e54       ??_C@_05NHNA@RGBA8?$AA@    0060ee54     renderer:tr_image.obj
 0002:00013e5c       ??_C@_05CKBI@RGBA?5?$AA@   0060ee5c     renderer:tr_image.obj
 0002:00013e64       ??_C@_05EDEF@RGB?5?5?$AA@  0060ee64     renderer:tr_image.obj
 0002:00013e6c       ??_C@_05BMOL@IA?5?5?5?$AA@ 0060ee6c     renderer:tr_image.obj
 0002:00013e74       ??_C@_05MHHO@I?5?5?5?5?$AA@ 0060ee74     renderer:tr_image.obj
 0002:00013e7c       ??_C@_0BJ@LMDA@?$CF4i?3?5?$CF4i?5?$CF4i?5?5?$CFs?5?5?5?$CFd?5?5?5?$AA@ 0060ee7c     renderer:tr_image.obj
 0002:00013e98       ??_C@_0DG@KMK@?6?5?5?5?5?5?5?9w?9?9?5?9h?9?9?5?9mm?9?5?9TMU?9?5?9if?9@ 0060ee98     renderer:tr_image.obj
 0002:00013ed0       ??_C@_03LGKI@yes?$AA@      0060eed0     renderer:tr_image.obj
 0002:00013ed4       ??_C@_03ECKL@no?5?$AA@     0060eed4     renderer:tr_image.obj
 0002:00013ed8       ??_C@_0BC@LLGP@sizeof?$CI?5image_t?5?$CJ?$AA@ 0060eed8     renderer:tr_image.obj
 0002:00013eec       ??_C@_0DM@LIDB@G?3?2trep?9engine?2q3nocd?2quake3?91?43@ 0060eeec     renderer:tr_image.obj
 0002:00013f28       ??_C@_0CD@JLCI@R_CreateImage?3?5MAX_DRAWIMAGES?5hi@ 0060ef28     renderer:tr_image.obj
 0002:00013f4c       ??_C@_09OBBF@?$CKlightmap?$AA@ 0060ef4c     renderer:tr_image.obj
 0002:00013f58       ??_C@_0CB@MGLM@R_CreateImage?3?5?$CC?$CFs?$CC?5is?5too?5long?6@ 0060ef58     renderer:tr_image.obj
 0002:00013f80       __real@8@3ffec000000000000000 0060ef80     renderer:tr_image.obj
 0002:00013f88       ??_C@_0BL@DPAG@ResampleTexture?3?5max?5width?$AA@ 0060ef88     renderer:tr_image.obj
 0002:00013fa4       ??_C@_04BLEC@?4jpg?$AA@    0060efa4     renderer:tr_image.obj
 0002:00013fac       ??_C@_04OEJP@?4bmp?$AA@    0060efac     renderer:tr_image.obj
 0002:00013fb4       ??_C@_04PHML@?4pcx?$AA@    0060efb4     renderer:tr_image.obj
 0002:00013fbc       ??_C@_04LCGE@?4tga?$AA@    0060efbc     renderer:tr_image.obj
 0002:00013fc4       ??_C@_0CP@GDHM@LoadBMP?3?5illegal?5pixel_size?5?8?$CFd?8@ 0060efc4     renderer:tr_image.obj
 0002:00013ff4       ??_C@_0DM@LGG@LoadBMP?3?5monochrome?5and?54?9bit?5BM@ 0060eff4     renderer:tr_image.obj
 0002:00014030       ??_C@_0DF@KADN@LoadBMP?3?5only?5uncompressed?5BMP?5f@ 0060f030     renderer:tr_image.obj
 0002:00014068       ??_C@_0EA@JCIE@LoadBMP?3?5header?5size?5does?5not?5ma@ 0060f068     renderer:tr_image.obj
 0002:000140a8       ??_C@_0DG@IFIO@LoadBMP?3?5only?5Windows?9style?5BMP?5@ 0060f0a8     renderer:tr_image.obj
 0002:000140e0       ??_C@_0BK@DMON@PCX?5file?5?$CFs?5was?5malformed?$AA@ 0060f0e0     renderer:tr_image.obj
 0002:000140fc       ??_C@_0CF@FDII@Bad?5pcx?5file?5?$CFs?5?$CI?$CFi?5x?5?$CFi?$CJ?5?$CI?$CFi?5x?5@ 0060f0fc     renderer:tr_image.obj
 0002:00014124       ??_C@_0EB@HDFH@WARNING?3?5?8?$CFs?8?5TGA?5file?5header?5de@ 0060f124     renderer:tr_image.obj
 0002:00014168       ??_C@_0CP@MBKH@LoadTGA?3?5illegal?5pixel_size?5?8?$CFd?8@ 0060f168     renderer:tr_image.obj
 0002:00014198       ??_C@_0DM@POND@LoadTGA?3?5Only?532?5or?524?5bit?5image@ 0060f198     renderer:tr_image.obj
 0002:000141d4       ??_C@_0CC@INNJ@LoadTGA?3?5colormaps?5not?5supported@ 0060f1d4     renderer:tr_image.obj
 0002:000141f8       ??_C@_0EJ@GPBB@LoadTGA?3?5Only?5type?52?5?$CIRGB?$CJ?0?53?5?$CIg@ 0060f1f8     renderer:tr_image.obj
 0002:00014244       ??_C@_0O@HFHM@trying?5?$CFs?4?4?4?6?$AA@ 0060f244     renderer:tr_image.obj
 0002:00014254       ??_C@_0DK@HCDM@WARNING?3?5reused?5image?5?$CFs?5with?5mi@ 0060f254     renderer:tr_image.obj
 0002:00014290       ??_C@_0DG@JLJH@WARNING?3?5reused?5image?5?$CFs?5with?5mi@ 0060f290     renderer:tr_image.obj
 0002:000142c8       ??_C@_0DB@JLGI@WARNING?3?5reused?5image?5?$CFs?5with?5mi@ 0060f2c8     renderer:tr_image.obj
 0002:000142fc       ??_C@_06DEIA@?$CKwhite?$AA@ 0060f2fc     renderer:tr_image.obj
 0002:00014304       __real@4@3ffef000000000000000 0060f304     renderer:tr_image.obj
 0002:00014308       __real@4@3ffa8000000000000000 0060f308     renderer:tr_image.obj
 0002:00014310       __real@8@3ffef800000000000000 0060f310     renderer:tr_image.obj
 0002:00014318       __real@8@3ffa8000000000000000 0060f318     renderer:tr_image.obj
 0002:00014320       __real@8@3ff68000000000000000 0060f320     renderer:tr_image.obj
 0002:00014328       ??_C@_08IGIF@?$CKscratch?$AA@ 0060f328     renderer:tr_image.obj
 0002:00014334       ??_C@_0P@CFMF@?$CKidentityLight?$AA@ 0060f334     renderer:tr_image.obj
 0002:00014344       ??_C@_07ELEK@?$CKdlight?$AA@ 0060f344     renderer:tr_image.obj
 0002:0001434c       __real@4@400afa00000000000000 0060f34c     renderer:tr_image.obj
 0002:00014350       __real@4@4001f000000000000000 0060f350     renderer:tr_image.obj
 0002:00014354       ??_C@_04OIEN@?$CKfog?$AA@  0060f354     renderer:tr_image.obj
 0002:0001435c       ??_C@_08IILE@?$CKdefault?$AA@ 0060f35c     renderer:tr_image.obj
 0002:00014368       __real@8@4006ff00000000000000 0060f368     renderer:tr_image.obj
 0002:00014370       ??_C@_03HJON@3?40?$AA@     0060f370     renderer:tr_image.obj
 0002:00014374       ??_C@_0BN@LCGL@sizeof?$CI?5?$CKskin?9?$DOsurfaces?$FL0?$FN?5?$CJ?$AA@ 0060f374     renderer:tr_image.obj
 0002:00014394       ??_C@_04LIII@tag_?$AA@     0060f394     renderer:tr_image.obj
 0002:0001439c       ??_C@_0BK@HPC@sizeof?$CIskin?9?$DOsurfaces?$FL0?$FN?$CJ?$AA@ 0060f39c     renderer:tr_image.obj
 0002:000143b8       ??_C@_05CAFN@?4skin?$AA@   0060f3b8     renderer:tr_image.obj
 0002:000143c0       ??_C@_0BB@MHOB@sizeof?$CI?5skin_t?5?$CJ?$AA@ 0060f3c0     renderer:tr_image.obj
 0002:000143d4       ??_C@_0DA@DHJJ@WARNING?3?5RE_RegisterSkin?$CI?5?8?$CFs?8?5?$CJ@ 0060f3d4     renderer:tr_image.obj
 0002:00014404       ??_C@_0BN@MMIP@Skin?5name?5exceeds?5MAX_QPATH?6?$AA@ 0060f404     renderer:tr_image.obj
 0002:00014424       ??_C@_0CG@LOIP@Empty?5name?5passed?5to?5RE_Register@ 0060f424     renderer:tr_image.obj
 0002:0001444c       ??_C@_0BK@CLHK@sizeof?$CI?5?$CKskin?9?$DOsurfaces?5?$CJ?$AA@ 0060f44c     renderer:tr_image.obj
 0002:00014468       ??_C@_0P@NPDA@?$DMdefault?5skin?$DO?$AA@ 0060f468     renderer:tr_image.obj
 0002:00014478       ??_C@_0BA@OAIM@?5?5?5?5?5?5?5?$CFs?5?$DN?5?$CFs?6?$AA@ 0060f478     renderer:tr_image.obj
 0002:00014488       ??_C@_0CD@FFHI@flare?5adds?3?$CFi?5tests?3?$CFi?5renders?3?$CF@ 0060f488     renderer:tr_cmds.obj
 0002:000144ac       ??_C@_0M@LJGG@zFar?3?5?$CF?40f?6?$AA@ 0060f4ac     renderer:tr_cmds.obj
 0002:000144b8       ??_C@_0CN@DEGI@dlight?5srf?3?$CFi?5?5culled?3?$CFi?5?5verts?3@ 0060f4b8     renderer:tr_cmds.obj
 0002:000144e8       ??_C@_0BB@FINE@viewcluster?3?5?$CFi?6?$AA@ 0060f4e8     renderer:tr_cmds.obj
 0002:000144fc       ??_C@_0DI@ICDC@?$CImd3?$CJ?5?$CFi?5sin?5?$CFi?5sclip?5?5?$CFi?5sout?5?$CF@ 0060f4fc     renderer:tr_cmds.obj
 0002:00014534       ??_C@_0DK@DAAP@?$CIpatch?$CJ?5?$CFi?5sin?5?$CFi?5sclip?5?5?$CFi?5sout@ 0060f534     renderer:tr_cmds.obj
 0002:00014570       ??_C@_0EE@IEID@?$CFi?1?$CFi?5shaders?1surfs?5?$CFi?5leafs?5?$CFi?5@ 0060f570     renderer:tr_cmds.obj
 0002:000145b4       __real@4@4012f424000000000000 0060f5b4     renderer:tr_cmds.obj
 0002:000145b8       ??_C@_0M@FCCH@?4?4?4failed?4?6?$AA@ 0060f5b8     renderer:tr_cmds.obj
 0002:000145c4       ??_C@_0P@PKMJ@?4?4?4succeeded?4?6?$AA@ 0060f5c4     renderer:tr_cmds.obj
 0002:000145d4       ??_C@_0BM@EKDF@Trying?5SMP?5acceleration?4?4?4?6?$AA@ 0060f5d4     renderer:tr_cmds.obj
 0002:000145f0       ??_C@_07PAJ@cmdList?$AA@   0060f5f0     renderer:tr_cmds.obj
 0002:000145f8       ??_C@_0DL@CCLH@G?3?2trep?9engine?2q3nocd?2quake3?91?43@ 0060f5f8     renderer:tr_cmds.obj
 0002:00014634       ??_C@_0CA@EFLI@R_GetCommandBuffer?3?5bad?5size?5?$CFi?$AA@ 0060f634     renderer:tr_cmds.obj
 0002:00014654       ??_C@_0DK@NJBH@RE_BeginFrame?3?5Stereo?5is?5disable@ 0060f654     renderer:tr_cmds.obj
 0002:00014690       ??_C@_0DJ@DKL@RE_BeginFrame?3?5Stereo?5is?5enabled@ 0060f690     renderer:tr_cmds.obj
 0002:000146cc       ??_C@_0CP@LPLB@RE_BeginFrame?$CI?$CJ?5?9?5glGetError?$CI?$CJ?5f@ 0060f6cc     renderer:tr_cmds.obj
 0002:000146fc       ??_C@_0EK@MIAI@Warning?3?5stencil?5shadows?5and?5ove@ 0060f6fc     renderer:tr_cmds.obj
 0002:00014748       ??_C@_0DK@LLBO@Warning?3?5not?5enough?5stencil?5bits@ 0060f748     renderer:tr_cmds.obj
 0002:00014784       ??_C@_0BF@NBOJ@GL_Bind?3?5NULL?5image?6?$AA@ 0060f784     renderer:tr_backend.obj
 0002:0001479c       ??_C@_0BM@CKCH@GL_SelectTexture?3?5unit?5?$DN?5?$CFi?$AA@ 0060f79c     renderer:tr_backend.obj
 0002:000147b8       ??_C@_0CN@FGAC@glClientActiveTextureARB?$CI?5GL_TEX@ 0060f7b8     renderer:tr_backend.obj
 0002:000147e8       ??_C@_0CH@NOOK@glActiveTextureARB?$CI?5GL_TEXTURE1_@ 0060f7e8     renderer:tr_backend.obj
 0002:00014810       ??_C@_0CN@BOCM@glClientActiveTextureARB?$CI?5GL_TEX@ 0060f810     renderer:tr_backend.obj
 0002:00014840       ??_C@_0CH@JGME@glActiveTextureARB?$CI?5GL_TEXTURE0_@ 0060f840     renderer:tr_backend.obj
 0002:00014868       ??_C@_0CE@HHFF@GL_TexEnv?3?5invalid?5env?5?8?$CFd?8?5pass@ 0060f868     renderer:tr_backend.obj
 0002:0001488c       ??_C@_0DO@IAJA@G?3?2trep?9engine?2q3nocd?2quake3?91?43@ 0060f88c     renderer:tr_backend.obj
 0002:000148cc       ??_C@_0CI@LJND@GL_State?3?5invalid?5dst?5blend?5stat@ 0060f8cc     renderer:tr_backend.obj
 0002:000148f4       ??_C@_0CI@BEOP@GL_State?3?5invalid?5src?5blend?5stat@ 0060f8f4     renderer:tr_backend.obj
 0002:0001491c       ??_C@_0CC@BADP@qglTexSubImage2D?5?$CFi?0?5?$CFi?3?5?$CFi?5msec@ 0060f91c     renderer:tr_backend.obj
 0002:00014940       ??_C@_0DB@LCEP@Draw_StretchRaw?3?5size?5not?5a?5powe@ 0060f940     renderer:tr_backend.obj
 0002:00014974       ??_C@_0BM@EPKG@?$CFi?5msec?5to?5draw?5all?5images?6?$AA@ 0060f974     renderer:tr_backend.obj
 0002:00014990       ??_C@_0DG@FFAE@?$CK?$CK?$CK?$CK?$CK?$CK?$CK?$CK?$CK?$CK?$CK?$CK?$CK?$CK?$CK?$CK?$CK?5RB_SwapBuffers@ 0060f990     renderer:tr_backend.obj
 0002:000149c8       ??_C@_0CD@KKPI@sizeof?$CI?5?$CKtr?4models?$FLtr?4numModels?$FN@ 0060f9c8     renderer:tr_model.obj
 0002:000149ec       ??_C@_0DM@IBJA@G?3?2trep?9engine?2q3nocd?2quake3?91?43@ 0060f9ec     renderer:tr_model.obj
 0002:00014a28       ??_C@_0CE@HNNF@RE_RegisterModel?3?5couldn?8t?5load?5@ 0060fa28     renderer:tr_model.obj
 0002:00014a4c       ??_C@_0CJ@EDEL@RE_RegisterModel?3?5unknown?5fileid@ 0060fa4c     renderer:tr_model.obj
 0002:00014a78       ??_C@_07DIPE@_?$CFd?4md3?$AA@ 0060fa78     renderer:tr_model.obj
 0002:00014a80       ??_C@_0DC@HBON@RE_RegisterModel?3?5R_AllocModel?$CI?$CJ@ 0060fa80     renderer:tr_model.obj
 0002:00014ab4       ??_C@_0BO@KMBL@Model?5name?5exceeds?5MAX_QPATH?6?$AA@ 0060fab4     renderer:tr_model.obj
 0002:00014ad4       ??_C@_0BN@HLOA@RE_RegisterModel?3?5NULL?5name?6?$AA@ 0060fad4     renderer:tr_model.obj
 0002:00014af4       ??_C@_0DL@MPCO@R_LoadMD3?3?5?$CFs?5has?5more?5than?5?$CFi?5t@ 0060faf4     renderer:tr_model.obj
 0002:00014b30       ??_C@_0DH@NMLH@R_LoadMD3?3?5?$CFs?5has?5more?5than?5?$CFi?5v@ 0060fb30     renderer:tr_model.obj
 0002:00014b68       ??_C@_0BN@EDGN@R_LoadMD3?3?5?$CFs?5has?5no?5frames?6?$AA@ 0060fb68     renderer:tr_model.obj
 0002:00014b88       ??_C@_0DD@PCLI@R_LoadMD3?3?5?$CFs?5has?5wrong?5version?5@ 0060fb88     renderer:tr_model.obj
 0002:00014bbc       ??_C@_0BN@IIJH@R_LoadMD4?3?5?$CFs?5has?5no?5frames?6?$AA@ 0060fbbc     renderer:tr_model.obj
 0002:00014bdc       ??_C@_0DD@FFHC@R_LoadMD4?3?5?$CFs?5has?5wrong?5version?5@ 0060fbdc     renderer:tr_model.obj
 0002:00014c10       ??_C@_0BE@GBEI@?$CF8i?5?3?5Total?5models?6?$AA@ 0060fc10     renderer:tr_model.obj
 0002:00014c24       ??_C@_0P@LNEL@?$CF8i?5?3?5?$CI?$CFi?$CJ?5?$CFs?6?$AA@ 0060fc24     renderer:tr_model.obj
 0002:00014c34       ??_C@_04ENHL@dust?$AA@     0060fc34     renderer:tr_shader.obj
 0002:00014c3c       ??_C@_08IFAF@nodlight?$AA@ 0060fc3c     renderer:tr_shader.obj
 0002:00014c48       ??_C@_0L@OODC@nolightmap?$AA@ 0060fc48     renderer:tr_shader.obj
 0002:00014c54       ??_C@_0L@HLBD@pointlight?$AA@ 0060fc54     renderer:tr_shader.obj
 0002:00014c60       ??_C@_06CLLN@nodraw?$AA@   0060fc60     renderer:tr_shader.obj
 0002:00014c68       ??_C@_07MFIO@nosteps?$AA@  0060fc68     renderer:tr_shader.obj
 0002:00014c70       ??_C@_05NMDE@flesh?$AA@    0060fc70     renderer:tr_shader.obj
 0002:00014c78       ??_C@_0L@LMGL@metalsteps?$AA@ 0060fc78     renderer:tr_shader.obj
 0002:00014c84       ??_C@_08KEG@nodamage?$AA@  0060fc84     renderer:tr_shader.obj
 0002:00014c90       ??_C@_06FGHE@ladder?$AA@   0060fc90     renderer:tr_shader.obj
 0002:00014c98       ??_C@_07JIBM@nomarks?$AA@  0060fc98     renderer:tr_shader.obj
 0002:00014ca0       ??_C@_08HDDO@noimpact?$AA@ 0060fca0     renderer:tr_shader.obj
 0002:00014cac       ??_C@_05LDCO@slick?$AA@    0060fcac     renderer:tr_shader.obj
 0002:00014cb4       ??_C@_04JINL@hint?$AA@     0060fcb4     renderer:tr_shader.obj
 0002:00014cbc       ??_C@_0M@HIEJ@alphashadow?$AA@ 0060fcbc     renderer:tr_shader.obj
 0002:00014cc8       ??_C@_0M@NAIC@lightfilter?$AA@ 0060fcc8     renderer:tr_shader.obj
 0002:00014cd4       ??_C@_03EBAN@sky?$AA@      0060fcd4     renderer:tr_shader.obj
 0002:00014cd8       ??_C@_03CCDL@fog?$AA@      0060fcd8     renderer:tr_shader.obj
 0002:00014cdc       ??_C@_0L@OEKE@donotenter?$AA@ 0060fcdc     renderer:tr_shader.obj
 0002:00014ce8       ??_C@_0O@HCNH@clusterportal?$AA@ 0060fce8     renderer:tr_shader.obj
 0002:00014cf8       ??_C@_0L@GBK@areaportal?$AA@ 0060fcf8     renderer:tr_shader.obj
 0002:00014d04       ??_C@_0L@FABN@structural?$AA@ 0060fd04     renderer:tr_shader.obj
 0002:00014d10       ??_C@_06NJMJ@detail?$AA@   0060fd10     renderer:tr_shader.obj
 0002:00014d18       ??_C@_05OHKA@trans?$AA@    0060fd18     renderer:tr_shader.obj
 0002:00014d20       ??_C@_08GGHJ@nonsolid?$AA@ 0060fd20     renderer:tr_shader.obj
 0002:00014d2c       ??_C@_06LMPD@nodrop?$AA@   0060fd2c     renderer:tr_shader.obj
 0002:00014d34       ??_C@_0M@FHLG@monsterclip?$AA@ 0060fd34     renderer:tr_shader.obj
 0002:00014d40       ??_C@_0L@OKED@playerclip?$AA@ 0060fd40     renderer:tr_shader.obj
 0002:00014d4c       ??_C@_04OLGA@lava?$AA@     0060fd4c     renderer:tr_shader.obj
 0002:00014d54       ??_C@_05NKEP@slime?$AA@    0060fd54     renderer:tr_shader.obj
 0002:00014d5c       ??_C@_05CCAC@water?$AA@    0060fd5c     renderer:tr_shader.obj
 0002:00014d64       ??_C@_02HJLH@dn?$AA@       0060fd64     renderer:tr_shader.obj
 0002:00014d68       ??_C@_02HAO@up?$AA@        0060fd68     renderer:tr_shader.obj
 0002:00014d6c       ??_C@_02PMAE@ft?$AA@       0060fd6c     renderer:tr_shader.obj
 0002:00014d70       ??_C@_02JIFL@lf?$AA@       0060fd70     renderer:tr_shader.obj
 0002:00014d74       ??_C@_02OID@bk?$AA@        0060fd74     renderer:tr_shader.obj
 0002:00014d78       ??_C@_02MMAH@rt?$AA@       0060fd78     renderer:tr_shader.obj
 0002:00014d7c       ??_C@_0DB@HBMG@WARNING?3?5R_RemapShader?3?5new?5shad@ 0060fd7c     renderer:tr_shader.obj
 0002:00014db0       ??_C@_0CN@NPFO@WARNING?3?5R_RemapShader?3?5shader?5?$CF@ 0060fdb0     renderer:tr_shader.obj
 0002:00014de0       ??_C@_0L@ECFE@underwater?$AA@ 0060fde0     renderer:tr_shader.obj
 0002:00014dec       ??_C@_07LACG@nearest?$AA@  0060fdec     renderer:tr_shader.obj
 0002:00014df4       ??_C@_08DJH@additive?$AA@  0060fdf4     renderer:tr_shader.obj
 0002:00014e00       ??_C@_06NCBJ@banner?$AA@   0060fe00     renderer:tr_shader.obj
 0002:00014e08       ??_C@_0L@LFDP@seeThrough?$AA@ 0060fe08     renderer:tr_shader.obj
 0002:00014e14       ??_C@_05JCGL@decal?$AA@    0060fe14     renderer:tr_shader.obj
 0002:00014e1c       ??_C@_06FHOE@opaque?$AA@   0060fe1c     renderer:tr_shader.obj
 0002:00014e24       ??_C@_06MFLF@portal?$AA@   0060fe24     renderer:tr_shader.obj
 0002:00014e2c       ??_C@_0DA@LGJK@WARNING?3?5missing?5sort?5parameter?5@ 0060fe2c     renderer:tr_shader.obj
 0002:00014e5c       ??_C@_0CD@NBAK@Couldn?8t?5find?5image?5for?5shader?5?$CF@ 0060fe5c     renderer:tr_shader.obj
 0002:00014e80       ??_C@_0N@HIFG@?$CKSHADER?$CK?5?$CFs?6?$AA@ 0060fe80     renderer:tr_shader.obj
 0002:00014e90       ??_C@_0DI@GPK@WARNING?3?5unknown?5general?5shader?5@ 0060fe90     renderer:tr_shader.obj
 0002:00014ec8       ??_C@_04OBLM@sort?$AA@     0060fec8     renderer:tr_shader.obj
 0002:00014ed0       ??_C@_0DA@FDBH@WARNING?3?5invalid?5cull?5parm?5?8?$CFs?8?5@ 0060fed0     renderer:tr_shader.obj
 0002:00014f00       ??_C@_09CNCG@backsided?$AA@ 0060ff00     renderer:tr_shader.obj
 0002:00014f0c       ??_C@_08FKEP@backside?$AA@ 0060ff0c     renderer:tr_shader.obj
 0002:00014f18       ??_C@_04DJCD@back?$AA@     0060ff18     renderer:tr_shader.obj
 0002:00014f20       ??_C@_07BJMH@disable?$AA@  0060ff20     renderer:tr_shader.obj
 0002:00014f28       ??_C@_08JNEJ@twosided?$AA@ 0060ff28     renderer:tr_shader.obj
 0002:00014f34       ??_C@_04KIKH@none?$AA@     0060ff34     renderer:tr_shader.obj
 0002:00014f3c       ??_C@_0CM@EIJA@WARNING?3?5missing?5cull?5parms?5in?5s@ 0060ff3c     renderer:tr_shader.obj
 0002:00014f68       ??_C@_04PEKF@cull?$AA@     0060ff68     renderer:tr_shader.obj
 0002:00014f70       ??_C@_05DKPF@light?$AA@    0060ff70     renderer:tr_shader.obj
 0002:00014f78       ??_C@_08CLMA@skyparms?$AA@ 0060ff78     renderer:tr_shader.obj
 0002:00014f84       ??_C@_0DN@IFJO@WARNING?3?5missing?5parm?5for?5?8fogPa@ 0060ff84     renderer:tr_shader.obj
 0002:00014fc4       ??_C@_08PFIC@fogParms?$AA@ 0060ffc4     renderer:tr_shader.obj
 0002:00014fd0       ??_C@_0P@PNOI@entityMergable?$AA@ 0060ffd0     renderer:tr_shader.obj
 0002:00014fe0       ??_C@_0O@BBML@polygonOffset?$AA@ 0060ffe0     renderer:tr_shader.obj
 0002:00014ff0       ??_C@_08EBGN@nopicmip?$AA@ 0060fff0     renderer:tr_shader.obj
 0002:00014ffc       ??_C@_09MKBD@nomipmaps?$AA@ 0060fffc     renderer:tr_shader.obj
 0002:00015008       ??_C@_0M@PNKD@surfaceParm?$AA@ 00610008     renderer:tr_shader.obj
 0002:00015014       ??_C@_05EFJA@q3map?$AA@    00610014     renderer:tr_shader.obj
 0002:0001501c       ??_C@_09PGNJ@clampTime?$AA@ 0061001c     renderer:tr_shader.obj
 0002:00015028       ??_C@_08CDGI@tesssize?$AA@ 00610028     renderer:tr_shader.obj
 0002:00015034       ??_C@_0P@NOIA@deformVertexes?$AA@ 00610034     renderer:tr_shader.obj
 0002:00015044       ??_C@_09HHCI@q3map_sun?$AA@ 00610044     renderer:tr_shader.obj
 0002:00015050       ??_C@_03IMIK@qer?$AA@      00610050     renderer:tr_shader.obj
 0002:00015054       ??_C@_0CJ@FPFL@WARNING?3?5no?5concluding?5?8?$HN?8?5in?5sh@ 00610054     renderer:tr_shader.obj
 0002:00015080       ??_C@_0DL@KNCN@WARNING?3?5expecting?5?8?$HL?8?0?5found?5?8?$CF@ 00610080     renderer:tr_shader.obj
 0002:000150bc       ??_C@_0DA@ICAJ@WARNING?3?5missing?5vector?5element?5@ 006100bc     renderer:tr_shader.obj
 0002:000150ec       ??_C@_0CN@EFBI@WARNING?3?5missing?5parenthesis?5in?5@ 006100ec     renderer:tr_shader.obj
 0002:0001511c       ??_C@_0DA@HFGH@WARNING?3?5unknown?5parameter?5?8?$CFs?8?5@ 0061011c     renderer:tr_shader.obj
 0002:0001514c       ??_C@_0L@MNCG@depthwrite?$AA@ 0061014c     renderer:tr_shader.obj
 0002:00015158       ??_C@_05OHNG@tcMod?$AA@    00610158     renderer:tr_shader.obj
 0002:00015160       ??_C@_0CN@MJAO@WARNING?3?5unknown?5texgen?5parm?5in?5@ 00610160     renderer:tr_shader.obj
 0002:00015190       ??_C@_06EJHH@vector?$AA@   00610190     renderer:tr_shader.obj
 0002:00015198       ??_C@_04PIEA@base?$AA@     00610198     renderer:tr_shader.obj
 0002:000151a0       ??_C@_07DIGL@texture?$AA@  006101a0     renderer:tr_shader.obj
 0002:000151a8       ??_C@_08DOMB@lightmap?$AA@ 006101a8     renderer:tr_shader.obj
 0002:000151b4       ??_C@_0M@PHAJ@environment?$AA@ 006101b4     renderer:tr_shader.obj
 0002:000151c0       ??_C@_0CN@MNKF@WARNING?3?5missing?5texgen?5parm?5in?5@ 006101c0     renderer:tr_shader.obj
 0002:000151f0       ??_C@_05EKNJ@tcGen?$AA@    006101f0     renderer:tr_shader.obj
 0002:000151f8       ??_C@_06GKLE@texgen?$AA@   006101f8     renderer:tr_shader.obj
 0002:00015200       ??_C@_0DJ@DNMM@WARNING?3?5unknown?5alphaGen?5parame@ 00610200     renderer:tr_shader.obj
 0002:0001523c       ??_C@_0FI@MBPJ@WARNING?3?5missing?5range?5parameter@ 0061023c     renderer:tr_shader.obj
 0002:00015294       ??_C@_0BB@BDMG@lightingSpecular?$AA@ 00610294     renderer:tr_shader.obj
 0002:000152a8       ??_C@_0DJ@MDBL@WARNING?3?5missing?5parameters?5for?5@ 006102a8     renderer:tr_shader.obj
 0002:000152e4       ??_C@_08PKOG@alphaGen?$AA@ 006102e4     renderer:tr_shader.obj
 0002:000152f0       ??_C@_0DH@FJKB@WARNING?3?5unknown?5rgbGen?5paramete@ 006102f0     renderer:tr_shader.obj
 0002:00015328       ??_C@_0P@GNFC@oneMinusVertex?$AA@ 00610328     renderer:tr_shader.obj
 0002:00015338       ??_C@_0BA@LOFL@lightingDiffuse?$AA@ 00610338     renderer:tr_shader.obj
 0002:00015348       ??_C@_0M@MHFA@exactVertex?$AA@ 00610348     renderer:tr_shader.obj
 0002:00015354       ??_C@_06KAJD@vertex?$AA@   00610354     renderer:tr_shader.obj
 0002:0001535c       ??_C@_0P@MKBO@oneMinusEntity?$AA@ 0061035c     renderer:tr_shader.obj
 0002:0001536c       ??_C@_06HNP@entity?$AA@    0061036c     renderer:tr_shader.obj
 0002:00015374       ??_C@_0BB@OJLF@identityLighting?$AA@ 00610374     renderer:tr_shader.obj
 0002:00015388       ??_C@_08MNHI@identity?$AA@ 00610388     renderer:tr_shader.obj
 0002:00015394       ??_C@_05KCGI@const?$AA@    00610394     renderer:tr_shader.obj
 0002:0001539c       ??_C@_04FBHL@wave?$AA@     0061039c     renderer:tr_shader.obj
 0002:000153a4       ??_C@_0DH@ECEH@WARNING?3?5missing?5parameters?5for?5@ 006103a4     renderer:tr_shader.obj
 0002:000153dc       ??_C@_06CAPO@rgbGen?$AA@   006103dc     renderer:tr_shader.obj
 0002:000153e4       ??_C@_05DBLI@blend?$AA@    006103e4     renderer:tr_shader.obj
 0002:000153ec       ??_C@_06NKOF@filter?$AA@   006103ec     renderer:tr_shader.obj
 0002:000153f4       ??_C@_03ONEI@add?$AA@      006103f4     renderer:tr_shader.obj
 0002:000153f8       ??_C@_0DE@EDJP@WARNING?3?5missing?5parm?5for?5blendF@ 006103f8     renderer:tr_shader.obj
 0002:0001542c       ??_C@_09DKCI@blendfunc?$AA@ 0061042c     renderer:tr_shader.obj
 0002:00015438       ??_C@_0DA@FFNA@WARNING?3?5unknown?5depthfunc?5?8?$CFs?8?5@ 00610438     renderer:tr_shader.obj
 0002:00015468       ??_C@_05DPDK@equal?$AA@    00610468     renderer:tr_shader.obj
 0002:00015470       ??_C@_06BILG@lequal?$AA@   00610470     renderer:tr_shader.obj
 0002:00015478       ??_C@_0ED@IGIG@WARNING?3?5missing?5parameter?5for?5?8@ 00610478     renderer:tr_shader.obj
 0002:000154bc       ??_C@_09JOKH@depthfunc?$AA@ 006104bc     renderer:tr_shader.obj
 0002:000154c8       ??_C@_0ED@CCM@WARNING?3?5missing?5parameter?5for?5?8@ 006104c8     renderer:tr_shader.obj
 0002:0001550c       ??_C@_09PGFL@alphaFunc?$AA@ 0061050c     renderer:tr_shader.obj
 0002:00015518       ??_C@_0ED@EPID@WARNING?3?5missing?5parameter?5for?5?8@ 00610518     renderer:tr_shader.obj
 0002:0001555c       ??_C@_08KAOJ@videoMap?$AA@ 0061055c     renderer:tr_shader.obj
 0002:00015568       ??_C@_0EC@BKCA@WARNING?3?5missing?5parameter?5for?5?8@ 00610568     renderer:tr_shader.obj
 0002:000155ac       ??_C@_07KFGH@animMap?$AA@  006105ac     renderer:tr_shader.obj
 0002:000155b4       ??_C@_0EC@JIJL@WARNING?3?5missing?5parameter?5for?5?8@ 006105b4     renderer:tr_shader.obj
 0002:000155f8       ??_C@_08NLIH@clampmap?$AA@ 006105f8     renderer:tr_shader.obj
 0002:00015604       ??_C@_0DN@CEGA@WARNING?3?5R_FindImageFile?5could?5n@ 00610604     renderer:tr_shader.obj
 0002:00015644       ??_C@_09HOOE@$lightmap?$AA@ 00610644     renderer:tr_shader.obj
 0002:00015650       ??_C@_0M@OBHE@$whiteimage?$AA@ 00610650     renderer:tr_shader.obj
 0002:0001565c       ??_C@_0DN@MEAB@WARNING?3?5missing?5parameter?5for?5?8@ 0061065c     renderer:tr_shader.obj
 0002:0001569c       ??_C@_0CA@DJCC@WARNING?3?5no?5matching?5?8?$HN?8?5found?6?$AA@ 0061069c     renderer:tr_shader.obj
 0002:000156bc       ??_C@_0DF@ENOO@WARNING?3?5invalid?5alphaFunc?5name?5@ 006106bc     renderer:tr_shader.obj
 0002:000156f4       ??_C@_05IBBO@GE128?$AA@    006106f4     renderer:tr_shader.obj
 0002:000156fc       ??_C@_05BACI@LT128?$AA@    006106fc     renderer:tr_shader.obj
 0002:00015704       ??_C@_03FKPN@GT0?$AA@      00610704     renderer:tr_shader.obj
 0002:00015708       ??_C@_0EG@NGDL@WARNING?3?5unknown?5blend?5mode?5?8?$CFs?8@ 00610708     renderer:tr_shader.obj
 0002:00015750       ??_C@_0BG@MGBN@GL_SRC_ALPHA_SATURATE?$AA@ 00610750     renderer:tr_shader.obj
 0002:00015768       ??_C@_0BH@DCOF@GL_ONE_MINUS_DST_ALPHA?$AA@ 00610768     renderer:tr_shader.obj
 0002:00015780       ??_C@_0BH@NAKG@GL_ONE_MINUS_SRC_COLOR?$AA@ 00610780     renderer:tr_shader.obj
 0002:00015798       ??_C@_0N@KEHP@GL_SRC_COLOR?$AA@ 00610798     renderer:tr_shader.obj
 0002:000157a8       ??_C@_0CP@MFMN@WARNING?3?5missing?5waveform?5parm?5i@ 006107a8     renderer:tr_shader.obj
 0002:000157d8       ??_C@_0DD@CJEN@WARNING?3?5invalid?5genfunc?5name?5?8?$CF@ 006107d8     renderer:tr_shader.obj
 0002:0001580c       ??_C@_05DOHE@noise?$AA@    0061080c     renderer:tr_shader.obj
 0002:00015814       ??_C@_0BA@FAIO@inversesawtooth?$AA@ 00610814     renderer:tr_shader.obj
 0002:00015824       ??_C@_08MHNL@sawtooth?$AA@ 00610824     renderer:tr_shader.obj
 0002:00015830       ??_C@_08DDLJ@triangle?$AA@ 00610830     renderer:tr_shader.obj
 0002:0001583c       ??_C@_06NGBE@square?$AA@   0061083c     renderer:tr_shader.obj
 0002:00015844       ??_C@_03JAMN@sin?$AA@      00610844     renderer:tr_shader.obj
 0002:00015848       ??_C@_0CM@OFKJ@WARNING?3?5unknown?5tcMod?5?8?$CFs?8?5in?5s@ 00610848     renderer:tr_shader.obj
 0002:00015874       ??_C@_0BA@IJGB@entityTranslate?$AA@ 00610874     renderer:tr_shader.obj
 0002:00015884       ??_C@_0DE@PL@WARNING?3?5missing?5tcMod?5rotate?5pa@ 00610884     renderer:tr_shader.obj
 0002:000158b8       ??_C@_06NCLJ@rotate?$AA@   006108b8     renderer:tr_shader.obj
 0002:000158c0       ??_C@_0DB@NEOK@WARNING?3?5missing?5transform?5parms@ 006108c0     renderer:tr_shader.obj
 0002:000158f4       ??_C@_09DPG@transform?$AA@ 006108f4     renderer:tr_shader.obj
 0002:00015900       ??_C@_0CP@BBJN@WARNING?3?5missing?5stretch?5parms?5i@ 00610900     renderer:tr_shader.obj
 0002:00015930       ??_C@_07HFFE@stretch?$AA@  00610930     renderer:tr_shader.obj
 0002:00015938       ??_C@_0DE@PPOE@WARNING?3?5missing?5scale?5scroll?5pa@ 00610938     renderer:tr_shader.obj
 0002:0001596c       ??_C@_06EEFK@scroll?$AA@   0061096c     renderer:tr_shader.obj
 0002:00015974       ??_C@_0CN@EKPF@WARNING?3?5missing?5scale?5parms?5in?5@ 00610974     renderer:tr_shader.obj
 0002:000159a4       ??_C@_05IMHO@scale?$AA@    006109a4     renderer:tr_shader.obj
 0002:000159ac       ??_C@_0CM@BHFK@WARNING?3?5missing?5tcMod?5turb?5in?5s@ 006109ac     renderer:tr_shader.obj
 0002:000159d8       ??_C@_0DC@JJC@WARNING?3?5missing?5tcMod?5turb?5parm@ 006109d8     renderer:tr_shader.obj
 0002:00015a0c       ??_C@_04FIPC@turb?$AA@     00610a0c     renderer:tr_shader.obj
 0002:00015a14       ??_C@_0CN@KOEG@ERROR?3?5too?5many?5tcMod?5stages?5in?5@ 00610a14     renderer:tr_shader.obj
 0002:00015a44       ??_C@_0ED@GHKJ@WARNING?3?5unknown?5deformVertexes?5@ 00610a44     renderer:tr_shader.obj
 0002:00015a88       ??_C@_04BIKM@move?$AA@     00610a88     renderer:tr_shader.obj
 0002:00015a90       ??_C@_06KMLP@normal?$AA@   00610a90     renderer:tr_shader.obj
 0002:00015a98       ??_C@_0EL@BBGI@WARNING?3?5illegal?5div?5value?5of?50?5@ 00610a98     renderer:tr_shader.obj
 0002:00015ae4       ??_C@_0DF@OLKP@WARNING?3?5missing?5deformVertexes?5@ 00610ae4     renderer:tr_shader.obj
 0002:00015b1c       ??_C@_0DL@OMAG@WARNING?3?5missing?5deformVertexes?5@ 00610b1c     renderer:tr_shader.obj
 0002:00015b58       ??_C@_05KAJB@bulge?$AA@    00610b58     renderer:tr_shader.obj
 0002:00015b60       ??_C@_04LHJL@text?$AA@     00610b60     renderer:tr_shader.obj
 0002:00015b68       ??_C@_0M@PLAA@autosprite2?$AA@ 00610b68     renderer:tr_shader.obj
 0002:00015b74       ??_C@_0L@LOIF@autosprite?$AA@ 00610b74     renderer:tr_shader.obj
 0002:00015b80       ??_C@_0BB@BCGE@projectionShadow?$AA@ 00610b80     renderer:tr_shader.obj
 0002:00015b94       ??_C@_0CF@DMNC@WARNING?3?5MAX_SHADER_DEFORMS?5in?5?8@ 00610b94     renderer:tr_shader.obj
 0002:00015bbc       ??_C@_0CN@FCKF@WARNING?3?5missing?5deform?5parm?5in?5@ 00610bbc     renderer:tr_shader.obj
 0002:00015bec       ??_C@_09NHD@?$CFs_?$CFs?4tga?$AA@ 00610bec     renderer:tr_shader.obj
 0002:00015bf8       ??_C@_0DG@OOH@WARNING?3?5?8skyParms?8?5missing?5para@ 00610bf8     renderer:tr_shader.obj
 0002:00015c30       ??_C@_0DK@NBOP@WARNING?3?5shader?5?8?$CFs?8?5has?5lightma@ 00610c30     renderer:tr_shader.obj
 0002:00015c6c       ??_C@_0DC@CACA@WARNING?3?5shader?5?8?$CFs?8?5has?5VERTEX?5@ 00610c6c     renderer:tr_shader.obj
 0002:00015ca0       ??_C@_0CF@JIGC@Shader?5?$CFs?5has?5a?5stage?5with?5no?5im@ 00610ca0     renderer:tr_shader.obj
 0002:00015cc8       ??_C@_0BE@CEG@sizeof?$CI?5stages?$FLi?$FN?5?$CJ?$AA@ 00610cc8     renderer:tr_shader.obj
 0002:00015cdc       ??_C@_0BD@EJGA@sizeof?$CI?5shader_t?5?$CJ?$AA@ 00610cdc     renderer:tr_shader.obj
 0002:00015cf0       ??_C@_0DN@OJJD@G?3?2trep?9engine?2q3nocd?2quake3?91?43@ 00610cf0     renderer:tr_shader.obj
 0002:00015d30       ??_C@_0DE@EEFN@WARNING?3?5GeneratePermanentShader@ 00610d30     renderer:tr_shader.obj
 0002:00015d64       ??_C@_0BP@CFOI@Shader?5name?5exceeds?5MAX_QPATH?6?$AA@ 00610d64     renderer:tr_shader.obj
 0002:00015d84       ??_C@_0DA@LCBK@R_GetShaderByHandle?3?5out?5of?5rang@ 00610d84     renderer:tr_shader.obj
 0002:00015db4       ??_C@_0BC@EEAJ@?$CFi?5total?5shaders?6?$AA@ 00610db4     renderer:tr_shader.obj
 0002:00015dc8       ??_C@_05JKHD@?3?5?$CFs?6?$AA@ 00610dc8     renderer:tr_shader.obj
 0002:00015dd0       ??_C@_0BC@KECD@?3?5?$CFs?5?$CIDEFAULTED?$CJ?6?$AA@ 00610dd0     renderer:tr_shader.obj
 0002:00015de4       ??_C@_04GPCF@?5?5?5?5?$AA@ 00610de4     renderer:tr_shader.obj
 0002:00015dec       ??_C@_04HGIO@vlt?5?$AA@    00610dec     renderer:tr_shader.obj
 0002:00015df4       ??_C@_04HODG@lmmt?$AA@     00610df4     renderer:tr_shader.obj
 0002:00015dfc       ??_C@_04IBKB@sky?5?$AA@    00610dfc     renderer:tr_shader.obj
 0002:00015e04       ??_C@_04DGPG@gen?5?$AA@    00610e04     renderer:tr_shader.obj
 0002:00015e0c       ??_C@_02LEEF@E?5?$AA@      00610e0c     renderer:tr_shader.obj
 0002:00015e10       ??_C@_06NPIL@?5?5?5?5?5?5?$AA@ 00610e10     renderer:tr_shader.obj
 0002:00015e18       ??_C@_06KGAH@MT?$CId?$CJ?5?$AA@ 00610e18     renderer:tr_shader.obj
 0002:00015e20       ??_C@_06GEKE@MT?$CIm?$CJ?5?$AA@ 00610e20     renderer:tr_shader.obj
 0002:00015e28       ??_C@_06LMEL@MT?$CIa?$CJ?5?$AA@ 00610e28     renderer:tr_shader.obj
 0002:00015e30       ??_C@_02IHLC@?5?5?$AA@     00610e30     renderer:tr_shader.obj
 0002:00015e34       ??_C@_02BHLL@L?5?$AA@      00610e34     renderer:tr_shader.obj
 0002:00015e38       ??_C@_0BG@HGGD@Initializing?5Shaders?6?$AA@ 00610e38     renderer:tr_shader.obj
 0002:00015e50       ??_C@_0BG@OHGB@size?5?$CK?5sizeof?$CIchar?5?$CK?$CJ?$AA@ 00610e50     renderer:tr_shader.obj
 0002:00015e68       ??_C@_0BD@HCCF@sum?5?$CL?5numShaders?$CK2?$AA@ 00610e68     renderer:tr_shader.obj
 0002:00015e7c       ??_C@_0BB@OOFL@?4?4?4loading?5?8?$CFs?8?6?$AA@ 00610e7c     renderer:tr_shader.obj
 0002:00015e90       ??_C@_0L@FBND@scripts?1?$CFs?$AA@ 00610e90     renderer:tr_shader.obj
 0002:00015e9c       ??_C@_0CA@OJCA@WARNING?3?5no?5shader?5files?5found?6?$AA@ 00610e9c     renderer:tr_shader.obj
 0002:00015ebc       ??_C@_07DJDJ@scripts?$AA@  00610ebc     renderer:tr_shader.obj
 0002:00015ec4       ??_C@_0BB@GGMP@?$DMstencil?5shadow?$DO?$AA@ 00610ec4     renderer:tr_shader.obj
 0002:00015ed8       ??_C@_09KMOA@?$DMdefault?$DO?$AA@ 00610ed8     renderer:tr_shader.obj
 0002:00015ee4       ??_C@_03BFJK@sun?$AA@      00610ee4     renderer:tr_shader.obj
 0002:00015ee8       ??_C@_0M@MOHE@flareShader?$AA@ 00610ee8     renderer:tr_shader.obj
 0002:00015ef4       ??_C@_0CO@GLDH@RE_RegisterFont?3?5FreeType?5code?5n@ 00610ef4     renderer:tr_font.obj
 0002:00015f24       ??_C@_0BH@BMNB@fonts?1fontImage_?$CFi?4dat?$AA@ 00610f24     renderer:tr_font.obj
 0002:00015f3c       ??_C@_0DF@GKAA@RE_RegisterFont?3?5Too?5many?5fonts?5@ 00610f3c     renderer:tr_font.obj
 0002:00015f74       __real@4@40059000000000000000 00610f74     renderer:tr_font.obj
 0002:00015f78       ??_C@_0EE@DKFB@WARNING?3?5RE_AddPolyToScene?3?5r_ma@ 00610f78     renderer:tr_scene.obj
 0002:00015fbc       ??_C@_0CO@JBDH@WARNING?3?5RE_AddPolyToScene?3?5NULL@ 00610fbc     renderer:tr_scene.obj
 0002:00015fec       ??_C@_0CG@ONE@RE_AddRefEntityToScene?3?5bad?5reTy@ 00610fec     renderer:tr_scene.obj
 0002:00016014       ??_C@_0BP@DIMN@R_RenderScene?3?5NULL?5worldmodel?$AA@ 00611014     renderer:tr_scene.obj
 0002:00016034       ??_C@_0BN@HCDM@?$DN?$DN?$DN?$DN?$DN?$DN?5RE_RenderScene?5?$DN?$DN?$DN?$DN?$DN?6?$AA@ 00611034     renderer:tr_scene.obj
 0002:00016054       ??_C@_0BD@JOFK@glUnlockArraysEXT?6?$AA@ 00611054     renderer:tr_shade.obj
 0002:00016068       ??_C@_0BB@CBEN@glLockArraysEXT?6?$AA@ 00611068     renderer:tr_shade.obj
 0002:0001607c       ??_C@_0CH@BMLP@?9?9?9?5RB_StageIteratorGeneric?$CI?5?$CFs?5@ 0061107c     renderer:tr_shade.obj
 0002:000160a4       ??_C@_0CA@DKBP@indexes?$FLi?$CL2?$FN?5?$DM?5tess?4numVertexes?$AA@ 006110a4     renderer:tr_shade.obj
 0002:000160c4       ??_C@_0DM@NEDL@G?3?2trep?9engine?2q3nocd?2quake3?91?43@ 006110c4     renderer:tr_shade.obj
 0002:00016100       ??_C@_0CL@EJOA@ERROR?3?5unknown?5texmod?5?8?$CFd?8?5in?5sh@ 00611100     renderer:tr_shade.obj
 0002:0001612c       ??_C@_0DJ@OAAD@?9?9?9?5RB_StageIteratorVertexLitTex@ 0061112c     renderer:tr_shade.obj
 0002:00016168       ??_C@_0DH@LFML@?9?9?9?5RB_StageIteratorLightmappedM@ 00611168     renderer:tr_shade.obj
 0002:000161a0       ??_C@_0M@NHAD@?9?9?9?9?9?9?9?9?9?9?6?$AA@ 006111a0     renderer:tr_shade.obj
 0002:000161ac       ??_C@_0CK@FJEO@RB_EndSurface?$CI?$CJ?5?9?5SHADER_MAX_VER@ 006111ac     renderer:tr_shade.obj
 0002:000161d8       ??_C@_0CJ@GDEE@RB_EndSurface?$CI?$CJ?5?9?5SHADER_MAX_IND@ 006111d8     renderer:tr_shade.obj
 0002:00016204       ??_C@_0CK@PHLH@GLimp_EndFrame?$CI?$CJ?5?9?5SwapBuffers?$CI?$CJ@ 00611204     renderer:win_glimp.obj
 0002:00016230       ??_C@_09NAMK@riva?5tnt?5?$AA@ 00611230     renderer:win_glimp.obj
 0002:0001623c       ??_C@_08MBFO@riva?5128?$AA@ 0061123c     renderer:win_glimp.obj
 0002:00016248       ??_C@_09GMBA@permedia2?$AA@ 00611248     renderer:win_glimp.obj
 0002:00016254       ??_C@_07IBLK@ragepro?$AA@  00611254     renderer:win_glimp.obj
 0002:0001625c       ??_C@_08JJIP@Rage?5Pro?$AA@ 0061125c     renderer:win_glimp.obj
 0002:00016268       ??_C@_08NOII@rage?5pro?$AA@ 00611268     renderer:win_glimp.obj
 0002:00016274       ??_C@_06GPFG@glzicd?$AA@   00611274     renderer:win_glimp.obj
 0002:0001627c       ??_C@_07KBEC@voodoo3?$AA@  0061127c     renderer:win_glimp.obj
 0002:00016284       ??_C@_07PIJH@banshee?$AA@  00611284     renderer:win_glimp.obj
 0002:0001628c       ??_C@_0O@NECO@r_texturemode?$AA@ 0061128c     renderer:win_glimp.obj
 0002:0001629c       ??_C@_0L@OBGF@s3?5savage4?$AA@ 0061129c     renderer:win_glimp.obj
 0002:000162a8       ??_C@_08FLIC@savage3d?$AA@ 006112a8     renderer:win_glimp.obj
 0002:000162b4       ??_C@_07KFPG@rage128?$AA@  006112b4     renderer:win_glimp.obj
 0002:000162bc       ??_C@_08PKME@rage?5128?$AA@ 006112bc     renderer:win_glimp.obj
 0002:000162c8       ??_C@_0BL@MAOG@voodoo?5graphics?11?5tmu?12?5mb?$AA@ 006112c8     renderer:win_glimp.obj
 0002:000162e4       ??_C@_0BB@CP@r_maskMinidriver?$AA@ 006112e4     renderer:win_glimp.obj
 0002:000162f8       ??_C@_0BC@DDKK@r_allowSoftwareGL?$AA@ 006112f8     renderer:win_glimp.obj
 0002:0001630c       ??_C@_0CL@HAOD@GLimp_Init?$CI?$CJ?5?9?5incorrect?5operati@ 0061130c     renderer:win_glimp.obj
 0002:00016338       ??_C@_0BP@CKBE@Initializing?5OpenGL?5subsystem?6?$AA@ 00611338     renderer:win_glimp.obj
 0002:00016358       ??_C@_0BE@EJMI@r_lastValidRenderer?$AA@ 00611358     renderer:win_glimp.obj
 0002:0001636c       ??_C@_0BA@DIGP@?$CIuninitialized?$CJ?$AA@ 0061136c     renderer:win_glimp.obj
 0002:0001637c       ??_C@_0CF@LAOK@?4?4?4WGL_3DFX_gamma_control?5not?5fo@ 0061137c     renderer:win_glimp.obj
 0002:000163a4       ??_C@_0CE@LFKC@?4?4?4ignoring?5WGL_3DFX_gamma_contr@ 006113a4     renderer:win_glimp.obj
 0002:000163c8       ??_C@_0CB@KNAH@?4?4?4using?5WGL_3DFX_gamma_control?6@ 006113c8     renderer:win_glimp.obj
 0002:000163ec       ??_C@_0BK@KLMC@wglSetDeviceGammaRamp3DFX?$AA@ 006113ec     renderer:win_glimp.obj
 0002:00016408       ??_C@_0BK@GIIH@wglGetDeviceGammaRamp3DFX?$AA@ 00611408     renderer:win_glimp.obj
 0002:00016424       ??_C@_0BH@NCNN@WGL_3DFX_gamma_control?$AA@ 00611424     renderer:win_glimp.obj
 0002:0001643c       ??_C@_0CL@MHED@?4?4?4GL_EXT_compiled_vertex_array?5@ 0061143c     renderer:win_glimp.obj
 0002:00016468       ??_C@_0CK@FINF@?4?4?4ignoring?5GL_EXT_compiled_vert@ 00611468     renderer:win_glimp.obj
 0002:00016494       ??_C@_0BD@LEHG@bad?5getprocaddress?$AA@ 00611494     renderer:win_glimp.obj
 0002:000164a8       ??_C@_0BC@MMDJ@glUnlockArraysEXT?$AA@ 006114a8     renderer:win_glimp.obj
 0002:000164bc       ??_C@_0BA@NLCH@glLockArraysEXT?$AA@ 006114bc     renderer:win_glimp.obj
 0002:000164cc       ??_C@_0CH@EGLJ@?4?4?4using?5GL_EXT_compiled_vertex_@ 006114cc     renderer:win_glimp.obj
 0002:000164f4       ??_C@_0BN@MLLO@GL_EXT_compiled_vertex_array?$AA@ 006114f4     renderer:win_glimp.obj
 0002:00016514       ??_C@_0CC@GFL@?4?4?4GL_ARB_multitexture?5not?5found@ 00611514     renderer:win_glimp.obj
 0002:00016538       ??_C@_0CB@FGHI@?4?4?4ignoring?5GL_ARB_multitexture?6@ 00611538     renderer:win_glimp.obj
 0002:0001655c       ??_C@_0DF@CAKI@?4?4?4not?5using?5GL_ARB_multitexture@ 0061155c     renderer:win_glimp.obj
 0002:00016594       ??_C@_0BO@EPJH@?4?4?4using?5GL_ARB_multitexture?6?$AA@ 00611594     renderer:win_glimp.obj
 0002:000165b4       ??_C@_0BJ@NIEC@glClientActiveTextureARB?$AA@ 006115b4     renderer:win_glimp.obj
 0002:000165d0       ??_C@_0BD@IJD@glActiveTextureARB?$AA@ 006115d0     renderer:win_glimp.obj
 0002:000165e4       ??_C@_0BF@HBBL@glMultiTexCoord2fARB?$AA@ 006115e4     renderer:win_glimp.obj
 0002:000165fc       ??_C@_0BE@EHGK@GL_ARB_multitexture?$AA@ 006115fc     renderer:win_glimp.obj
 0002:00016610       ??_C@_0CD@PMPI@?4?4?4WGL_EXT_swap_control?5not?5foun@ 00611610     renderer:win_glimp.obj
 0002:00016634       ??_C@_0BP@PILO@?4?4?4using?5WGL_EXT_swap_control?6?$AA@ 00611634     renderer:win_glimp.obj
 0002:00016654       ??_C@_0BD@LGGF@wglSwapIntervalEXT?$AA@ 00611654     renderer:win_glimp.obj
 0002:00016668       ??_C@_0CF@CPF@?4?4?4GL_EXT_texture_env_add?5not?5fo@ 00611668     renderer:win_glimp.obj
 0002:00016690       ??_C@_0CE@GEGO@?4?4?4ignoring?5GL_EXT_texture_env_a@ 00611690     renderer:win_glimp.obj
 0002:000166b4       ??_C@_0CB@HMML@?4?4?4using?5GL_EXT_texture_env_add?6@ 006116b4     renderer:win_glimp.obj
 0002:000166d8       ??_C@_0BE@HIFG@EXT_texture_env_add?$AA@ 006116d8     renderer:win_glimp.obj
 0002:000166ec       ??_C@_0BJ@GMKK@?4?4?4GL_S3_s3tc?5not?5found?6?$AA@ 006116ec     renderer:win_glimp.obj
 0002:00016708       ??_C@_0BI@FAO@?4?4?4ignoring?5GL_S3_s3tc?6?$AA@ 00611708     renderer:win_glimp.obj
 0002:00016720       ??_C@_0BF@HCHH@?4?4?4using?5GL_S3_s3tc?6?$AA@ 00611720     renderer:win_glimp.obj
 0002:00016738       ??_C@_0L@PFAE@GL_S3_s3tc?$AA@ 00611738     renderer:win_glimp.obj
 0002:00016744       ??_C@_0CA@MNFH@Initializing?5OpenGL?5extensions?6?$AA@ 00611744     renderer:win_glimp.obj
 0002:00016764       ??_C@_0CE@KBGL@?$CK?$CK?$CK?5IGNORING?5OPENGL?5EXTENSIONS?5?$CK@ 00611764     renderer:win_glimp.obj
 0002:00016788       ??_C@_0CM@FFPA@GLW_CheckOSVersion?$CI?$CJ?5?9?5GetVersio@ 00611788     renderer:win_glimp.obj
 0002:000167b4       ??_C@_0DF@JBOP@GLW_StartOpenGL?$CI?$CJ?5?9?5could?5not?5lo@ 006117b4     renderer:win_glimp.obj
 0002:000167ec       ??_C@_0BF@PGBM@FX_GLIDE_NO_SPLASH?$DN0?$AA@ 006117ec     renderer:win_glimp.obj
 0002:00016804       ??_C@_0CJ@NNLI@?4?4?4assuming?5?8?$CFs?8?5is?5a?5standalone@ 00611804     renderer:win_glimp.obj
 0002:00016830       ??_C@_0CP@MNFJ@?4?4?4WARNING?3?5could?5not?5set?5the?5gi@ 00611830     renderer:win_glimp.obj
 0002:00016860       ??_C@_0DB@PFKN@?4?4?4WARNING?3?5fullscreen?5unavailab@ 00611860     renderer:win_glimp.obj
 0002:00016894       ??_C@_09GPIF@?5failed?0?5?$AA@ 00611894     renderer:win_glimp.obj
 0002:000168a0       ??_C@_04LDCD@?5ok?6?$AA@   006118a0     renderer:win_glimp.obj
 0002:000168a8       ??_C@_0CC@GLME@?4?4?4trying?5next?5higher?5resolution@ 006118a8     renderer:win_glimp.obj
 0002:000168cc       ??_C@_08CGIA@failed?0?5?$AA@ 006118cc     renderer:win_glimp.obj
 0002:000168d8       ??_C@_0BB@GOGC@?4?4?4calling?5CDS?3?5?$AA@ 006118d8     renderer:win_glimp.obj
 0002:000168ec       ??_C@_0BP@MIIC@?4?4?4restoring?5display?5settings?6?$AA@ 006118ec     renderer:win_glimp.obj
 0002:0001690c       ??_C@_0CP@FIIJ@?4?4?4already?5fullscreen?0?5avoiding?5@ 0061190c     renderer:win_glimp.obj
 0002:0001693c       ??_C@_0CG@DLHK@?4?4?4using?5desktop?5display?5depth?5o@ 0061193c     renderer:win_glimp.obj
 0002:00016964       ??_C@_0EA@DLKC@WARNING?3?4?4?4changing?5depth?5not?5su@ 00611964     renderer:win_glimp.obj
 0002:000169a4       ??_C@_0BL@JECA@?4?4?4using?5colorsbits?5of?5?$CFd?6?$AA@ 006119a4     renderer:win_glimp.obj
 0002:000169c0       ??_C@_0BAN@EDNF@It?5is?5highly?5unlikely?5that?5a?5cor@ 006119c0     renderer:win_glimp.obj
 0002:00016ad0       ??_C@_0BI@CMML@Low?5Desktop?5Color?5Depth?$AA@ 00611ad0     renderer:win_glimp.obj
 0002:00016ae8       ??_C@_0L@KBPO@?5?$CFd?5?$CFd?5?$CFs?6?$AA@ 00611ae8     renderer:win_glimp.obj
 0002:00016af4       ??_C@_0P@MBPJ@?5invalid?5mode?6?$AA@ 00611af4     renderer:win_glimp.obj
 0002:00016b04       ??_C@_0BE@GOGB@?4?4?4setting?5mode?5?$CFd?3?$AA@ 00611b04     renderer:win_glimp.obj
 0002:00016b18       ??_C@_02COFD@FS?$AA@       00611b18     renderer:win_glimp.obj
 0002:00016b1c       ??_C@_01FJFF@W?$AA@        00611b1c     renderer:win_glimp.obj
 0002:00016b20       ??_C@_0DD@EKEH@?4?4?4window?5already?5present?0?5Creat@ 00611b20     renderer:win_glimp.obj
 0002:00016b54       ??_C@_0CB@FBGC@?4?4?4created?5window?$EA?$CFd?0?$CFd?5?$CI?$CFdx?$CFd?$CJ?6@ 00611b54     renderer:win_glimp.obj
 0002:00016b78       ??_C@_0CM@KMOF@GLW_CreateWindow?$CI?$CJ?5?9?5Couldn?8t?5cr@ 00611b78     renderer:win_glimp.obj
 0002:00016ba4       ??_C@_0BM@NCHM@?4?4?4registered?5window?5class?6?$AA@ 00611ba4     renderer:win_glimp.obj
 0002:00016bc0       ??_C@_0DC@BLNO@GLW_CreateWindow?3?5could?5not?5regi@ 00611bc0     renderer:win_glimp.obj
 0002:00016bf4       ??_C@_0P@ILPL@Quake?53?3?5Arena?$AA@ 00611bf4     renderer:win_glimp.obj
 0002:00016c04       ??_C@_0CJ@DGDH@?4?4?4failed?5to?5select?5stereo?5pixel@ 00611c04     renderer:win_glimp.obj
 0002:00016c30       ??_C@_0CO@MHPJ@?4?4?4failed?5to?5find?5an?5appropriate@ 00611c30     renderer:win_glimp.obj
 0002:00016c60       ??_C@_0BA@GCIH@?4?4?4failed?5hard?6?$AA@ 00611c60     renderer:win_glimp.obj
 0002:00016c70       ??_C@_0BA@BLBD@?4?4?4getting?5DC?3?5?$AA@ 00611c70     renderer:win_glimp.obj
 0002:00016c80       ??_C@_0BM@EEKE@Initializing?5OpenGL?5driver?6?$AA@ 00611c80     renderer:win_glimp.obj
 0002:00016c9c       ??_C@_0BN@PFPF@?4?4?4attempting?5to?5use?5stereo?6?$AA@ 00611c9c     renderer:win_glimp.obj
 0002:00016cbc       ??_C@_0BM@MMEL@?4?4?4making?5context?5current?3?5?$AA@ 00611cbc     renderer:win_glimp.obj
 0002:00016cd8       ??_C@_0BJ@CMBM@?4?4?4creating?5GL?5context?3?5?$AA@ 00611cd8     renderer:win_glimp.obj
 0002:00016cf4       ??_C@_0BK@OMO@?4?4?4SetPixelFormat?5failed?6?$AA@ 00611cf4     renderer:win_glimp.obj
 0002:00016d10       ??_C@_0BO@NFBN@?4?4?4qwglSetPixelFormat?5failed?6?$AA@ 00611d10     renderer:win_glimp.obj
 0002:00016d30       ??_C@_0BM@LGJ@?4?4?4PIXELFORMAT?5?$CFd?5selected?6?$AA@ 00611d30     renderer:win_glimp.obj
 0002:00016d4c       ??_C@_0BJ@CIGK@?4?4?4GLW_ChoosePFD?5failed?6?$AA@ 00611d4c     renderer:win_glimp.obj
 0002:00016d68       ??_C@_0CA@BKOJ@?4?4?4hardware?5acceleration?5found?6?$AA@ 00611d68     renderer:win_glimp.obj
 0002:00016d88       ??_C@_0BL@IOAI@?4?4?4MCD?5acceleration?5found?6?$AA@ 00611d88     renderer:win_glimp.obj
 0002:00016da4       ??_C@_0BN@KOEE@?4?4?4using?5software?5emulation?6?$AA@ 00611da4     renderer:win_glimp.obj
 0002:00016dc4       ??_C@_0CD@KDBN@?4?4?4no?5hardware?5acceleration?5foun@ 00611dc4     renderer:win_glimp.obj
 0002:00016de8       ??_C@_0DH@HKAD@?4?4?4PFD?5?$CFd?5rejected?0?5improper?5fla@ 00611de8     renderer:win_glimp.obj
 0002:00016e20       ??_C@_0BO@HHA@?4?4?4PFD?5?$CFd?5rejected?0?5not?5RGBA?6?$AA@ 00611e20     renderer:win_glimp.obj
 0002:00016e40       ??_C@_0CL@KOJD@?4?4?4PFD?5?$CFd?5rejected?0?5software?5acc@ 00611e40     renderer:win_glimp.obj
 0002:00016e6c       ??_C@_0BC@LOF@?4?4?4?$CFd?5PFDs?5found?6?$AA@ 00611e6c     renderer:win_glimp.obj
 0002:00016e80       ??_C@_0CB@FHLB@?4?4?4numPFDs?5?$DO?5MAX_PFDS?5?$CI?$CFd?5?$DO?5?$CFd?$CJ?6@ 00611e80     renderer:win_glimp.obj
 0002:00016ea4       ??_C@_0CA@DGPA@?4?4?4GLW_ChoosePFD?$CI?5?$CFd?0?5?$CFd?0?5?$CFd?5?$CJ?6?$AA@ 00611ea4     renderer:win_glimp.obj
 0002:00016ec4       ??_C@_0BC@KGJO@unknown?5error?5?$CFd?6?$AA@ 00611ec4     renderer:win_glimp.obj
 0002:00016ed8       ??_C@_0N@OPHP@not?5updated?6?$AA@ 00611ed8     renderer:win_glimp.obj
 0002:00016ee8       ??_C@_09NPIA@bad?5mode?6?$AA@ 00611ee8     renderer:win_glimp.obj
 0002:00016ef4       ??_C@_0BE@EFFJ@DISP_CHANGE_FAILED?6?$AA@ 00611ef4     renderer:win_glimp.obj
 0002:00016f08       ??_C@_0L@FCFA@bad?5flags?6?$AA@ 00611f08     renderer:win_glimp.obj
 0002:00016f14       ??_C@_0L@CKKK@bad?5param?6?$AA@ 00611f14     renderer:win_glimp.obj
 0002:00016f20       ??_C@_0BC@HCNC@restart?5required?6?$AA@ 00611f20     renderer:win_glimp.obj
 0002:00016f34       ??_C@_0BG@DCPI@?4?4?4resetting?5display?6?$AA@ 00611f34     renderer:win_glimp.obj
 0002:00016f4c       ??_C@_0BG@OLGM@?4?4?4destroying?5window?6?$AA@ 00611f4c     renderer:win_glimp.obj
 0002:00016f64       ??_C@_0BF@PHGI@?4?4?4releasing?5DC?3?5?$CFs?6?$AA@ 00611f64     renderer:win_glimp.obj
 0002:00016f7c       ??_C@_0BM@EHIH@?4?4?4deleting?5GL?5context?3?5?$CFs?6?$AA@ 00611f7c     renderer:win_glimp.obj
 0002:00016f98       ??_C@_0CF@EDFK@?4?4?4wglMakeCurrent?$CI?5NULL?0?5NULL?5?$CJ?3@ 00611f98     renderer:win_glimp.obj
 0002:00016fc0       ??_C@_0CA@KHAL@Shutting?5down?5OpenGL?5subsystem?6?$AA@ 00611fc0     renderer:win_glimp.obj
 0002:00016fe0       ??_C@_07IGMM@success?$AA@  00611fe0     renderer:win_glimp.obj
 0002:00016fe8       ??_C@_06IMAI@failed?$AA@   00611fe8     renderer:win_glimp.obj
 0002:00016ff0       ??_C@_0BJ@IDMC@R_PointInLeaf?3?5bad?5model?$AA@ 00611ff0     renderer:tr_world.obj
 0002:0001700c       ??_C@_0BF@BOKD@cluster?3?$CFi?5?5area?3?$CFi?6?$AA@ 0061200c     renderer:tr_world.obj
 0002:00017024       ??_C@_0BI@KFPK@stitched?5?$CFd?5LoD?5cracks?6?$AA@ 00612024     renderer:tr_bsp.obj
 0002:0001703c       ??_C@_0BB@NCDM@grid?9?$DOheight?5?$CK?54?$AA@ 0061203c     renderer:tr_bsp.obj
 0002:00017050       ??_C@_0BA@NHPN@grid?9?$DOwidth?5?$CK?54?$AA@ 00612050     renderer:tr_bsp.obj
 0002:00017060       ??_C@_0DK@IPPO@G?3?2trep?9engine?2q3nocd?2quake3?91?43@ 00612060     renderer:tr_bsp.obj
 0002:0001709c       ??_C@_0BO@LAOP@WARNING?3?5light?5grid?5mismatch?6?$AA@ 0061209c     renderer:tr_bsp.obj
 0002:000170bc       ??_C@_08JPAH@?$CFf?5?$CFf?5?$CFf?$AA@ 006120bc     renderer:tr_bsp.obj
 0002:000170c8       ??_C@_08OHKM@gridsize?$AA@ 006120c8     renderer:tr_bsp.obj
 0002:000170d4       ??_C@_0CM@FFKO@WARNING?3?5no?5semi?5colon?5in?5shader@ 006120d4     renderer:tr_bsp.obj
 0002:00017100       ??_C@_0M@LFAB@remapshader?$AA@ 00612100     renderer:tr_bsp.obj
 0002:0001710c       ??_C@_0DC@HPGE@WARNING?3?5no?5semi?5colon?5in?5vertex@ 0061210c     renderer:tr_bsp.obj
 0002:00017140       ??_C@_0BC@HAMI@vertexremapshader?$AA@ 00612140     renderer:tr_bsp.obj
 0002:00017154       ??_C@_0P@PNIA@l?9?$DOfilelen?5?$CL?51?$AA@ 00612154     renderer:tr_bsp.obj
 0002:00017164       ??_C@_0DP@IADD@RE_LoadWorldMap?3?5?$CFs?5has?5wrong?5ve@ 00612164     renderer:tr_bsp.obj
 0002:000171a4       ??_C@_0BO@EGLA@RE_LoadWorldMap?3?5?$CFs?5not?5found?$AA@ 006121a4     renderer:tr_bsp.obj
 0002:000171c4       ??_C@_0DA@LKEP@ERROR?3?5attempted?5to?5redundantly?5@ 006121c4     renderer:tr_bsp.obj
 0002:000171f4       ??_C@_0BO@HDBJ@Brightest?5lightmap?5value?3?5?$CFd?6?$AA@ 006121f4     renderer:tr_bsp.obj
 0002:00017214       ??_C@_0M@GCNE@?$CKlightmap?$CFd?$AA@ 00612214     renderer:tr_bsp.obj
 0002:00017220       __real@4@3ffb8106250000000000 00612220     renderer:tr_bsp.obj
 0002:00017224       __real@4@3ffeaf5c290000000000 00612224     renderer:tr_bsp.obj
 0002:00017228       ??_C@_07HCBF@len?5?9?58?$AA@ 00612228     renderer:tr_bsp.obj
 0002:00017230       ??_C@_0DH@FHME@?4?4?4loaded?5?$CFd?5faces?0?5?$CFi?5meshes?0?5?$CF@ 00612230     renderer:tr_bsp.obj
 0002:00017268       ??_C@_0BA@LNIL@Bad?5surfaceType?$AA@ 00612268     renderer:tr_bsp.obj
 0002:00017278       ??_C@_0BF@MPL@count?5?$CK?5sizeof?$CI?$CKout?$CJ?$AA@ 00612278     renderer:tr_bsp.obj
 0002:00017290       ??_C@_0BP@OMCP@LoadMap?3?5funny?5lump?5size?5in?5?$CFs?$AA@ 00612290     renderer:tr_bsp.obj
 0002:000172b0       ??_C@_09BE@sfaceSize?$AA@  006122b0     renderer:tr_bsp.obj
 0002:000172bc       ??_C@_0CH@GEFA@WARNING?3?5MAX_FACE_POINTS?5exceede@ 006122bc     renderer:tr_bsp.obj
 0002:000172e4       ??_C@_0BP@BMPG@ShaderForShaderNum?3?5bad?5num?5?$CFi?$AA@ 006122e4     renderer:tr_bsp.obj
 0002:00017304       ??_C@_0BO@ICEM@Bad?5index?5in?5triangle?5surface?$AA@ 00612304     renderer:tr_bsp.obj
 0002:00017324       ??_C@_0FN@KIHE@sizeof?$CI?5?$CKtri?5?$CJ?5?$CL?5numVerts?5?$CK?5size@ 00612324     renderer:tr_bsp.obj
 0002:00017384       ??_C@_0BB@EGNN@sizeof?$CI?5?$CKflare?5?$CJ?$AA@ 00612384     renderer:tr_bsp.obj
 0002:00017398       ??_C@_03LCGD@?$CK?$CFd?$AA@ 00612398     renderer:tr_bsp.obj
 0002:0001739c       ??_C@_0O@BMHN@model?5?$CB?$DN?5NULL?$AA@ 0061239c     renderer:tr_bsp.obj
 0002:000173ac       ??_C@_0CF@EEDI@?$CInumNodes?5?$CL?5numLeafs?$CJ?5?$CK?5sizeof?$CI?$CK@ 006123ac     renderer:tr_bsp.obj
 0002:000173d4       ??_C@_0BD@DKGA@count?$CKsizeof?$CI?$CKout?$CJ?$AA@ 006123d4     renderer:tr_bsp.obj
 0002:000173e8       ??_C@_0BF@LCJA@count?$CK2?$CKsizeof?$CI?$CKout?$CJ?$AA@ 006123e8     renderer:tr_bsp.obj
 0002:00017400       ??_C@_0CC@FIGP@fog?5brush?5sideNumber?5out?5of?5rang@ 00612400     renderer:tr_bsp.obj
 0002:00017424       ??_C@_0BN@KFDH@fog?5brushNumber?5out?5of?5range?$AA@ 00612424     renderer:tr_bsp.obj
 0002:00017444       ??_C@_0CB@MPDA@s_worldData?4numfogs?$CKsizeof?$CI?$CKout?$CJ@ 00612444     renderer:tr_bsp.obj
 0002:00017468       ??_C@_0BI@ECKH@tr?4world?9?$DOlightGridData?$AA@ 00612468     renderer:tr_light.obj
 0002:00017480       ??_C@_0DM@BJPP@G?3?2trep?9engine?2q3nocd?2quake3?91?43@ 00612480     renderer:tr_light.obj
 0002:000174bc       ??_C@_0BA@NIDB@amb?3?$CFi?5?5dir?3?$CFi?6?$AA@ 006124bc     renderer:tr_light.obj
 0002:000174d0       __real@8@bffaccccccccccccd000 006124d0     renderer:tr_marks.obj
 0002:000174d8       __real@4@c003a000000000000000 006124d8     renderer:tr_marks.obj
 0002:000174dc       ??_C@_0CK@KOJC@RB_CheckOverflow?3?5indices?5?$DO?5MAX?5@ 006124dc     renderer:tr_surface.obj
 0002:00017508       ??_C@_0CI@BJNE@RB_CheckOverflow?3?5verts?5?$DO?5MAX?5?$CI?$CF@ 00612508     renderer:tr_surface.obj
 0002:00017530       __real@8@4004f000000000000000 00612530     renderer:tr_surface.obj
 0002:00017538       __real@8@3ff98000000000000000 00612538     renderer:tr_surface.obj
 0002:00017540       ??_C@_0BJ@HAJB@Bad?5surface?5tesselated?4?6?$AA@ 00612540     renderer:tr_surface.obj
 0002:0001755c       ??_C@_0CJ@NDEN@WARNING?3?5shader?5?$CFs?5in?5skin?5?$CFs?5no@ 0061255c     renderer:tr_mesh.obj
 0002:00017588       ??_C@_0CO@BLNP@WARNING?3?5no?5shader?5for?5surface?5?$CF@ 00612588     renderer:tr_mesh.obj
 0002:000175b8       ??_C@_0DD@GEJ@R_AddMD3Surfaces?3?5no?5such?5frame?5@ 006125b8     renderer:tr_mesh.obj
 0002:0001799c       _jpeg_std_message_table    0061299c     renderer:jerror.obj
 0002:00017b78       ??_C@_0CL@KPEE@Application?5transferred?5too?5many@ 00612b78     renderer:jerror.obj
 0002:00017ba4       ??_C@_0CL@DGCP@Invalid?5SOS?5parameters?5for?5seque@ 00612ba4     renderer:jerror.obj
 0002:00017bd0       ??_C@_0DI@KKMD@Corrupt?5JPEG?5data?3?5found?5marker?5@ 00612bd0     renderer:jerror.obj
 0002:00017c08       ??_C@_0BL@CCLA@Premature?5end?5of?5JPEG?5file?$AA@ 00612c08     renderer:jerror.obj
 0002:00017c24       ??_C@_0CO@KOEI@Warning?3?5unknown?5JFIF?5revision?5n@ 00612c24     renderer:jerror.obj
 0002:00017c54       ??_C@_0CE@LJLO@Corrupt?5JPEG?5data?3?5bad?5Huffman?5c@ 00612c54     renderer:jerror.obj
 0002:00017c78       ??_C@_0DB@NJCK@Corrupt?5JPEG?5data?3?5premature?5end@ 00612c78     renderer:jerror.obj
 0002:00017cac       ??_C@_0DM@LCPP@Corrupt?5JPEG?5data?3?5?$CFu?5extraneous@ 00612cac     renderer:jerror.obj
 0002:00017ce8       ??_C@_0EC@HHMG@Inconsistent?5progression?5sequenc@ 00612ce8     renderer:jerror.obj
 0002:00017d2c       ??_C@_0CG@NMIJ@Unknown?5Adobe?5color?5transform?5co@ 00612d2c     renderer:jerror.obj
 0002:00017d54       ??_C@_0BH@FJIP@Obtained?5XMS?5handle?5?$CFu?$AA@ 00612d54     renderer:jerror.obj
 0002:00017d6c       ??_C@_0BE@OPPB@Freed?5XMS?5handle?5?$CFu?$AA@ 00612d6c     renderer:jerror.obj
 0002:00017d80       ??_C@_0DE@HBF@Unrecognized?5component?5IDs?5?$CFd?5?$CFd@ 00612d80     renderer:jerror.obj
 0002:00017db4       ??_C@_0BJ@EFFL@Opened?5temporary?5file?5?$CFs?$AA@ 00612db4     renderer:jerror.obj
 0002:00017dd0       ??_C@_0BJ@DBD@Closed?5temporary?5file?5?$CFs?$AA@ 00612dd0     renderer:jerror.obj
 0002:00017dec       ??_C@_0BN@DPAO@?5?5Ss?$DN?$CFd?0?5Se?$DN?$CFd?0?5Ah?$DN?$CFd?0?5Al?$DN?$CFd?$AA@ 00612dec     renderer:jerror.obj
 0002:00017e0c       ??_C@_0BO@DMDD@?5?5?5?5Component?5?$CFd?3?5dc?$DN?$CFd?5ac?$DN?$CFd?$AA@ 00612e0c     renderer:jerror.obj
 0002:00017e2c       ??_C@_0BN@BLFJ@Start?5Of?5Scan?3?5?$CFd?5components?$AA@ 00612e2c     renderer:jerror.obj
 0002:00017e4c       ??_C@_0P@FAEJ@Start?5of?5Image?$AA@ 00612e4c     renderer:jerror.obj
 0002:00017e5c       ??_C@_0BP@FKBK@?5?5?5?5Component?5?$CFd?3?5?$CFdhx?$CFdv?5q?$DN?$CFd?$AA@ 00612e5c     renderer:jerror.obj
 0002:00017e7c       ??_C@_0DK@IGCC@Start?5Of?5Frame?50x?$CF02x?3?5width?$DN?$CFu?0@ 00612e7c     renderer:jerror.obj
 0002:00017eb8       ??_C@_0DJ@BEKA@Smoothing?5not?5supported?5with?5non@ 00612eb8     renderer:jerror.obj
 0002:00017ef4       ??_C@_05NKN@RST?$CFd?$AA@  00612ef4     renderer:jerror.obj
 0002:00017efc       ??_C@_0CF@DIDH@At?5marker?50x?$CF02x?0?5recovery?5actio@ 00612efc     renderer:jerror.obj
 0002:00017f24       ??_C@_0CE@OOJH@Selected?5?$CFd?5colors?5for?5quantizat@ 00612f24     renderer:jerror.obj
 0002:00017f48       ??_C@_0BI@IPAL@Quantizing?5to?5?$CFd?5colors?$AA@ 00612f48     renderer:jerror.obj
 0002:00017f60       ??_C@_0CD@IBAL@Quantizing?5to?5?$CFd?5?$DN?5?$CFd?$CK?$CFd?$CK?$CFd?5colo@ 00612f60     renderer:jerror.obj
 0002:00017f84       ??_C@_0CI@JOIL@?5?5?5?5?5?5?5?5?$CF4u?5?$CF4u?5?$CF4u?5?$CF4u?5?$CF4u?5?$CF4u?5@ 00612f84     renderer:jerror.obj
 0002:00017fac       ??_C@_0BJ@LGOI@Unexpected?5marker?50x?$CF02x?$AA@ 00612fac     renderer:jerror.obj
 0002:00017fc8       ??_C@_0CC@JLCA@Skipping?5marker?50x?$CF02x?0?5length?5?$CF@ 00612fc8     renderer:jerror.obj
 0002:00017fec       ??_C@_0CB@KGBF@?5?5?5?5with?5?$CFd?5x?5?$CFd?5thumbnail?5image@ 00612fec     renderer:jerror.obj
 0002:00018010       ??_C@_0CL@LPBC@Unknown?5JFIF?5minor?5revision?5numb@ 00613010     renderer:jerror.obj
 0002:0001803c       ??_C@_0DM@PAHO@Warning?3?5thumbnail?5image?5size?5do@ 0061303c     renderer:jerror.obj
 0002:00018078       ??_C@_0CE@NJL@JFIF?5APP0?5marker?0?5density?5?$CFdx?$CFd?5@ 00613078     renderer:jerror.obj
 0002:0001809c       ??_C@_0CI@HOID@?5?5?5?5?5?5?5?5?$CF3d?5?$CF3d?5?$CF3d?5?$CF3d?5?$CF3d?5?$CF3d?5@ 0061309c     renderer:jerror.obj
 0002:000180c4       ??_C@_0N@CBOJ@End?5Of?5Image?$AA@ 006130c4     renderer:jerror.obj
 0002:000180d4       ??_C@_0BH@NAOE@Obtained?5EMS?5handle?5?$CFu?$AA@ 006130d4     renderer:jerror.obj
 0002:000180ec       ??_C@_0BE@GGJK@Freed?5EMS?5handle?5?$CFu?$AA@ 006130ec     renderer:jerror.obj
 0002:00018100       ??_C@_0BL@COFD@Define?5Restart?5Interval?5?$CFu?$AA@ 00613100     renderer:jerror.obj
 0002:0001811c       ??_C@_0CL@OPD@Define?5Quantization?5Table?5?$CFd?5?5pr@ 0061311c     renderer:jerror.obj
 0002:00018148       ??_C@_0BM@NIIN@Define?5Huffman?5Table?50x?$CF02x?$AA@ 00613148     renderer:jerror.obj
 0002:00018164       ??_C@_0CH@CAM@Define?5Arithmetic?5Table?50x?$CF02x?3?5@ 00613164     renderer:jerror.obj
 0002:0001818c       ??_C@_0CM@ONLH@Unknown?5APP14?5marker?5?$CInot?5Adobe?$CJ@ 0061318c     renderer:jerror.obj
 0002:000181b8       ??_C@_0CK@CFHB@Unknown?5APP0?5marker?5?$CInot?5JFIF?$CJ?0?5@ 006131b8     renderer:jerror.obj
 0002:000181e4       ??_C@_0EC@JKMJ@Adobe?5APP14?5marker?3?5version?5?$CFd?0?5@ 006131e4     renderer:jerror.obj
 0002:00018228       ??_C@_0DO@IFPM@Caution?3?5quantization?5tables?5are@ 00613228     renderer:jerror.obj
 0002:00018268       ??_C@_0M@OLGN@6?5?52?9Aug?995?$AA@ 00613268     renderer:jerror.obj
 0002:00018274       ??_C@_0CD@KAMB@Copyright?5?$CIC?$CJ?51995?0?5Thomas?5G?4?5La@ 00613274     renderer:jerror.obj
 0002:00018298       ??_C@_0BE@PGKE@Write?5to?5XMS?5failed?$AA@ 00613298     renderer:jerror.obj
 0002:000182ac       ??_C@_0BF@MCFF@Read?5from?5XMS?5failed?$AA@ 006132ac     renderer:jerror.obj
 0002:000182c4       ??_C@_0CH@JLNP@Image?5too?5wide?5for?5this?5implemen@ 006132c4     renderer:jerror.obj
 0002:000182ec       ??_C@_0CD@CKND@Virtual?5array?5controller?5messed?5@ 006132ec     renderer:jerror.obj
 0002:00018310       ??_C@_0BP@GHDH@Unsupported?5marker?5type?50x?$CF02x?$AA@ 00613310     renderer:jerror.obj
 0002:00018330       ??_C@_0CK@HFBB@Application?5transferred?5too?5few?5@ 00613330     renderer:jerror.obj
 0002:0001835c       ??_C@_0DG@FGBC@Write?5failed?5on?5temporary?5file?5?9@ 0061335c     renderer:jerror.obj
 0002:00018394       ??_C@_0BO@POJN@Seek?5failed?5on?5temporary?5file?$AA@ 00613394     renderer:jerror.obj
 0002:000183b4       ??_C@_0BO@NLPB@Read?5failed?5on?5temporary?5file?$AA@ 006133b4     renderer:jerror.obj
 0002:000183d4       ??_C@_0CD@OPHA@Failed?5to?5create?5temporary?5file?5@ 006133d4     renderer:jerror.obj
 0002:000183f8       ??_C@_0CM@LEOA@Invalid?5JPEG?5file?5structure?3?5SOS@ 006133f8     renderer:jerror.obj
 0002:00018424       ??_C@_0CN@BOPG@Invalid?5JPEG?5file?5structure?3?5two@ 00613424     renderer:jerror.obj
 0002:00018454       ??_C@_0CK@JIMH@Unsupported?5JPEG?5process?3?5SOF?5ty@ 00613454     renderer:jerror.obj
 0002:00018480       ??_C@_0DA@EFHH@Invalid?5JPEG?5file?5structure?3?5mis@ 00613480     renderer:jerror.obj
 0002:000184b0       ??_C@_0CN@EDEP@Invalid?5JPEG?5file?5structure?3?5two@ 006134b0     renderer:jerror.obj
 0002:000184e0       ??_C@_0CH@GIKM@Cannot?5quantize?5to?5more?5than?5?$CFd?5@ 006134e0     renderer:jerror.obj
 0002:00018508       ??_C@_0CI@GPJB@Cannot?5quantize?5to?5fewer?5than?5?$CFd@ 00613508     renderer:jerror.obj
 0002:00018530       ??_C@_0CO@BMMA@Cannot?5quantize?5more?5than?5?$CFd?5col@ 00613530     renderer:jerror.obj
 0002:00018560       ??_C@_0BO@DGCL@Insufficient?5memory?5?$CIcase?5?$CFd?$CJ?$AA@ 00613560     renderer:jerror.obj
 0002:00018580       ??_C@_0CL@CCLH@Not?5a?5JPEG?5file?3?5starts?5with?50x?$CF@ 00613580     renderer:jerror.obj
 0002:000185ac       ??_C@_0CK@MKLH@Quantization?5table?50x?$CF02x?5was?5no@ 006135ac     renderer:jerror.obj
 0002:000185d8       ??_C@_0CC@FLIL@JPEG?5datastream?5contains?5no?5imag@ 006135d8     renderer:jerror.obj
 0002:000185fc       ??_C@_0CF@IGEA@Huffman?5table?50x?$CF02x?5was?5not?5def@ 006135fc     renderer:jerror.obj
 0002:00018624       ??_C@_0BM@LFDP@Backing?5store?5not?5supported?$AA@ 00613624     renderer:jerror.obj
 0002:00018640       ??_C@_0CO@LEJG@Requested?5feature?5was?5omitted?5at@ 00613640     renderer:jerror.obj
 0002:00018670       ??_C@_0BE@FPCJ@Not?5implemented?5yet?$AA@ 00613670     renderer:jerror.obj
 0002:00018684       ??_C@_0CH@JKLM@Invalid?5color?5quantization?5mode?5@ 00613684     renderer:jerror.obj
 0002:000186ac       ??_C@_0CH@IKIP@Scan?5script?5does?5not?5transmit?5al@ 006136ac     renderer:jerror.obj
 0002:000186d4       ??_C@_0DO@CPDA@Cannot?5transcode?5due?5to?5multiple@ 006136d4     renderer:jerror.obj
 0002:00018714       ??_C@_0BM@LFEG@Premature?5end?5of?5input?5file?$AA@ 00613714     renderer:jerror.obj
 0002:00018730       ??_C@_0BB@CPJA@Empty?5input?5file?$AA@ 00613730     renderer:jerror.obj
 0002:00018744       ??_C@_0CP@OHKB@Maximum?5supported?5image?5dimensio@ 00613744     renderer:jerror.obj
 0002:00018774       ??_C@_0CB@LEBD@Missing?5Huffman?5code?5table?5entry@ 00613774     renderer:jerror.obj
 0002:00018798       ??_C@_0CB@CLO@Huffman?5code?5size?5table?5overflow@ 00613798     renderer:jerror.obj
 0002:000187bc       ??_C@_0CI@GGDO@Fractional?5sampling?5not?5implemen@ 006137bc     renderer:jerror.obj
 0002:000187e4       ??_C@_0CP@LPEK@Output?5file?5write?5error?5?9?9?9?5out?5@ 006137e4     renderer:jerror.obj
 0002:00018814       ??_C@_0BG@JKLB@Input?5file?5read?5error?$AA@ 00613814     renderer:jerror.obj
 0002:0001882c       ??_C@_0CB@LEKJ@Didn?8t?5expect?5more?5than?5one?5scan@ 0061382c     renderer:jerror.obj
 0002:00018850       ??_C@_0BE@MEFJ@Write?5to?5EMS?5failed?$AA@ 00613850     renderer:jerror.obj
 0002:00018864       ??_C@_0BF@PAKI@Read?5from?5EMS?5failed?$AA@ 00613864     renderer:jerror.obj
 0002:0001887c       ??_C@_0CF@NBMO@Empty?5JPEG?5image?5?$CIDNL?5not?5suppor@ 0061387c     renderer:jerror.obj
 0002:000188a4       ??_C@_0BD@MHLJ@Bogus?5DQT?5index?5?$CFd?$AA@ 006138a4     renderer:jerror.obj
 0002:000188b8       ??_C@_0BD@NBLE@Bogus?5DHT?5index?5?$CFd?$AA@ 006138b8     renderer:jerror.obj
 0002:000188cc       ??_C@_0BB@BGMC@Bogus?5DHT?5counts?$AA@ 006138cc     renderer:jerror.obj
 0002:000188e0       ??_C@_0BF@LMAO@Bogus?5DAC?5value?50x?$CFx?$AA@ 006138e0     renderer:jerror.obj
 0002:000188f8       ??_C@_0BD@DMCO@Bogus?5DAC?5index?5?$CFd?$AA@ 006138f8     renderer:jerror.obj
 0002:0001890c       ??_C@_0CF@POAA@Unsupported?5color?5conversion?5req@ 0061390c     renderer:jerror.obj
 0002:00018934       ??_C@_0CG@GHCD@Too?5many?5color?5components?3?5?$CFd?0?5m@ 00613934     renderer:jerror.obj
 0002:0001895c       ??_C@_0CF@MONF@CCIR601?5sampling?5not?5implemented@ 0061395c     renderer:jerror.obj
 0002:00018984       ??_C@_0BM@MGNK@Suspension?5not?5allowed?5here?$AA@ 00613984     renderer:jerror.obj
 0002:000189a0       ??_C@_0CL@EPCK@Buffer?5passed?5to?5JPEG?5library?5is@ 006139a0     renderer:jerror.obj
 0002:000189cc       ??_C@_0BL@IGMP@Bogus?5virtual?5array?5access?$AA@ 006139cc     renderer:jerror.obj
 0002:000189e8       ??_C@_0CK@CEON@Improper?5call?5to?5JPEG?5library?5in@ 006139e8     renderer:jerror.obj
 0002:00018a14       ??_C@_0CA@FMAB@Invalid?5scan?5script?5at?5entry?5?$CFd?$AA@ 00613a14     renderer:jerror.obj
 0002:00018a34       ??_C@_0BH@MNN@Bogus?5sampling?5factors?$AA@ 00613a34     renderer:jerror.obj
 0002:00018a4c       ??_C@_0DH@DIJK@Invalid?5progressive?5parameters?5a@ 00613a4c     renderer:jerror.obj
 0002:00018a84       ??_C@_0DH@HHBL@Invalid?5progressive?5parameters?5S@ 00613a84     renderer:jerror.obj
 0002:00018abc       ??_C@_0CD@BPNC@Unsupported?5JPEG?5data?5precision?5@ 00613abc     renderer:jerror.obj
 0002:00018ae0       ??_C@_0BM@HOOF@Invalid?5memory?5pool?5code?5?$CFd?$AA@ 00613ae0     renderer:jerror.obj
 0002:00018afc       ??_C@_0DA@FGHF@Sampling?5factors?5too?5large?5for?5i@ 00613afc     renderer:jerror.obj
 0002:00018b2c       ??_C@_0BE@DFMG@Bogus?5marker?5length?$AA@ 00613b2c     renderer:jerror.obj
 0002:00018b40       ??_C@_0BG@NFIP@Bogus?5JPEG?5colorspace?$AA@ 00613b40     renderer:jerror.obj
 0002:00018b58       ??_C@_0BH@FCFN@Bogus?5input?5colorspace?$AA@ 00613b58     renderer:jerror.obj
 0002:00018b70       ??_C@_0CI@PMIN@IDCT?5output?5block?5size?5?$CFd?5not?5su@ 00613b70     renderer:jerror.obj
 0002:00018b98       ??_C@_0BP@PHIG@Invalid?5component?5ID?5?$CFd?5in?5SOS?$AA@ 00613b98     renderer:jerror.obj
 0002:00018bb8       ??_C@_0BK@NLEP@Bogus?5buffer?5control?5mode?$AA@ 00613bb8     renderer:jerror.obj
 0002:00018bd4       ??_C@_0CF@JENB@MAX_ALLOC_CHUNK?5is?5wrong?0?5please@ 00613bd4     renderer:jerror.obj
 0002:00018bfc       ??_C@_0CA@GCN@ALIGN_TYPE?5is?5wrong?0?5please?5fix?$AA@ 00613bfc     renderer:jerror.obj
 0002:00018c1c       ??_C@_0DJ@LIJI@Sorry?0?5there?5are?5legal?5restricti@ 00613c1c     renderer:jerror.obj
 0002:00018c58       ??_C@_0BG@LNGG@Bogus?5message?5code?5?$CFd?$AA@ 00613c58     renderer:jerror.obj
 0002:00018c70       ??_C@_0EF@FPJN@WARNING?3?5suspicious?5gamma?5tables@ 00613c70     renderer:win_gamma.obj
 0002:00018cb8       ??_C@_0DP@PMKC@WARNING?3?5device?5has?5broken?5gamma@ 00613cb8     renderer:win_gamma.obj
 0002:00018cf8       ??_C@_0BM@BKKC@SetDeviceGammaRamp?5failed?4?6?$AA@ 00613cf8     renderer:win_gamma.obj
 0002:00018d14       ??_C@_0BL@MCOP@skipping?5W2K?5gamma?5clamp?4?6?$AA@ 00613d14     renderer:win_gamma.obj
 0002:00018d30       ??_C@_0BN@PLDC@performing?5W2K?5gamma?5clamp?4?6?$AA@ 00613d30     renderer:win_gamma.obj
 0002:00018d50       __real@4@4008a000000000000000 00613d50     renderer:tr_flares.obj
 0002:00018d54       __real@4@c0088000000000000000 00613d54     renderer:tr_shadows.obj
 0002:00018d58       ??_C@_0BP@NDMM@ClipSkyPolygon?3?5MAX_CLIP_VERTS?$AA@ 00613d58     renderer:tr_sky.obj
 0002:00018d78       ??_C@_0O@HPNN@shader?9?$DOisSky?$AA@ 00613d78     renderer:tr_sky.obj
 0002:00018d88       ??_C@_0DK@JAJM@G?3?2trep?9engine?2q3nocd?2quake3?91?43@ 00613d88     renderer:tr_sky.obj
 0002:00018dc8       __real@8@3fffe000000000000000 00613dc8     renderer:tr_sky.obj
 0002:00018dd0       ??_C@_0DA@IMAG@SHADER_MAX_VERTEXES?5hit?5in?5FillC@ 00613dd0     renderer:tr_sky.obj
 0002:00018e00       ??_C@_0DP@NBAK@TableForFunc?5called?5with?5invalid@ 00613e00     renderer:tr_shade_calc.obj
 0002:00018e40       __real@4@4006a2f9830000000000 00613e40     renderer:tr_shade_calc.obj
 0002:00018e44       __real@4@3ffb8000000000000000 00613e44     renderer:tr_shade_calc.obj
 0002:00018e48       __real@4@bffec000000000000000 00613e48     renderer:tr_shade_calc.obj
 0002:00018e4c       __real@4@3ffd8000000000000000 00613e4c     renderer:tr_shade_calc.obj
 0002:00018e50       __real@4@3ffeb4fdf40000000000 00613e50     renderer:tr_shade_calc.obj
 0002:00018e54       ??_C@_0CJ@EGCD@Autosprite?5shader?5?$CFs?5had?5odd?5ind@ 00613e54     renderer:tr_shade_calc.obj
 0002:00018e80       ??_C@_0CK@KHDH@Autosprite?5shader?5?$CFs?5had?5odd?5ver@ 00613e80     renderer:tr_shade_calc.obj
 0002:00018eac       ??_C@_0CK@POFO@Autosprite2?5shader?5?$CFs?5had?5odd?5in@ 00613eac     renderer:tr_shade_calc.obj
 0002:00018ed8       ??_C@_0CL@EAIP@Autosprite2?5shader?5?$CFs?5had?5odd?5ve@ 00613ed8     renderer:tr_shade_calc.obj
 0002:00018f08       __real@8@3ffef000000000000000 00613f08     renderer:tr_shade_calc.obj
 0002:00018f10       __real@8@40098000000000000000 00613f10     renderer:tr_shade_calc.obj
 0002:00018f18       __real@8@40068000000000000000 00613f18     renderer:tr_shade_calc.obj
 0002:00018f20       __real@4@4000b60b610000000000 00613f20     renderer:tr_shade_calc.obj
 0002:00018f24       __real@4@4008f9c0000000000000 00613f24     renderer:tr_curve.obj
 0002:00018f68       __real@4@400d8001000000000000 00613f68     renderer:jcdctmgr.obj
 0002:00018f7c       ??_C@_05HLOL@?$CFld?$CFc?$AA@ 00613f7c     renderer:jmemmgr.obj
 0002:00018f84       ??_C@_07CBHP@JPEGMEM?$AA@  00613f84     renderer:jmemmgr.obj
 0002:00018f8c       _jpeg_zigzag_order         00613f8c     renderer:jutils.obj
 0002:0001908c       _jpeg_natural_order        0061408c     renderer:jutils.obj
 0002:000191cc       __real@4@3fffa73d750000000000 006141cc     renderer:jfdctflt.obj
 0002:000191d0       __real@4@3ffe8a8bd40000000000 006141d0     renderer:jfdctflt.obj
 0002:000191d4       __real@4@3ffdc3ef150000000000 006141d4     renderer:jfdctflt.obj
 0002:000191d8       __real@4@3ffeb504f30000000000 006141d8     renderer:jfdctflt.obj
 0002:000192a0       __real@4@c000a73d750000000000 006142a0     renderer:jidctflt.obj
 0002:000192a4       __real@4@3fff8a8bd40000000000 006142a4     renderer:jidctflt.obj
 0002:000192a8       __real@4@3fffec835e0000000000 006142a8     renderer:jidctflt.obj
 0002:000192ac       __real@4@3fffb504f30000000000 006142ac     renderer:jidctflt.obj
 0002:000192b0       ??_C@_0O@FHMD@i386?2chkesp?4c?$AA@ 006142b0     LIBCMTD:chkesp.obj
 0002:000192c0       ??_C@_0NM@ELEE@The?5value?5of?5ESP?5was?5not?5properl@ 006142c0     LIBCMTD:chkesp.obj
 0002:0001939c       ??_C@_02JJJH@?6?6?$AA@     0061439c     LIBCMTD:assert.obj
 0002:000193a0       ??_C@_0CF@JPDF@Microsoft?5Visual?5C?$CL?$CL?5Runtime?5Lib@ 006143a0     LIBCMTD:assert.obj
 0002:000193c8       ??_C@_0DN@MHHJ@?$CIPress?5Retry?5to?5debug?5the?5applic@ 006143c8     LIBCMTD:assert.obj
 0002:00019408       ??_C@_0HA@EJLJ@For?5information?5on?5how?5your?5prog@ 00614408     LIBCMTD:assert.obj
 0002:00019478       ??_C@_0N@NOAB@Expression?3?5?$AA@ 00614478     LIBCMTD:assert.obj
 0002:00019488       ??_C@_06JMOL@Line?3?5?$AA@ 00614488     LIBCMTD:assert.obj
 0002:00019490       ??_C@_06FAAO@File?3?5?$AA@ 00614490     LIBCMTD:assert.obj
 0002:00019498       ??_C@_0BH@NNCD@?$DMprogram?5name?5unknown?$DO?$AA@ 00614498     LIBCMTD:assert.obj
 0002:000194b0       ??_C@_09PIFG@Program?3?5?$AA@ 006144b0     LIBCMTD:assert.obj
 0002:000194bc       ??_C@_0BC@OIMC@Assertion?5failed?$CB?$AA@ 006144bc     LIBCMTD:assert.obj
 0002:000194d0       ??_C@_0P@LNLA@format?5?$CB?$DN?5NULL?$AA@ 006144d0     LIBCMTD:vsnprint.obj
 0002:000194e0       ??_C@_0L@HE@vsprintf?4c?$AA@ 006144e0     LIBCMTD:vsnprint.obj
 0002:000194ec       ??_C@_0P@OOIN@string?5?$CB?$DN?5NULL?$AA@ 006144ec     LIBCMTD:vsnprint.obj
 0002:000194fc       ??_C@_08GNFC@printf?4c?$AA@ 006144fc     LIBCMTD:printf.obj
 0002:00019508       ??_C@_08EJDA@sscanf?4c?$AA@ 00614508     LIBCMTD:sscanf.obj
 0002:00019514       ??_C@_09NEAG@sprintf?4c?$AA@ 00614514     LIBCMTD:sprintf.obj
 0002:00019520       ??_C@_09JDKJ@asctime?4c?$AA@ 00614520     LIBCMTD:asctime.obj
 0002:0001952c       ??_C@_06DPMO@Client?$AA@   0061452c     LIBCMTD:dbgheap.obj
 0002:00019534       ??_C@_06BAFM@Ignore?$AA@   00614534     LIBCMTD:dbgheap.obj
 0002:0001953c       ??_C@_03DICE@CRT?$AA@      0061453c     LIBCMTD:dbgheap.obj
 0002:00019540       ??_C@_06BILL@Normal?$AA@   00614540     LIBCMTD:dbgheap.obj
 0002:00019548       ??_C@_04NEN@Free?$AA@      00614548     LIBCMTD:dbgheap.obj
 0002:00019550       ??_C@_0DC@CGID@Error?3?5memory?5allocation?3?5bad?5me@ 00614550     LIBCMTD:dbgheap.obj
 0002:00019584       ??_C@_0CE@FMIA@Invalid?5allocation?5size?3?5?$CFu?5byte@ 00614584     LIBCMTD:dbgheap.obj
 0002:000195a8       ??_C@_0CB@CPBI@Client?5hook?5allocation?5failure?4?6@ 006145a8     LIBCMTD:dbgheap.obj
 0002:000195cc       ??_C@_0DF@DKHF@Client?5hook?5allocation?5failure?5a@ 006145cc     LIBCMTD:dbgheap.obj
 0002:00019604       ??_C@_09IMJC@dbgheap?4c?$AA@ 00614604     LIBCMTD:dbgheap.obj
 0002:00019610       ??_C@_0BC@EPKL@_CrtCheckMemory?$CI?$CJ?$AA@ 00614610     LIBCMTD:dbgheap.obj
 0002:00019624       ??_C@_0BK@JDHA@_pFirstBlock?5?$DN?$DN?5pOldBlock?$AA@ 00614624     LIBCMTD:dbgheap.obj
 0002:00019640       ??_C@_0BJ@NMEF@_pLastBlock?5?$DN?$DN?5pOldBlock?$AA@ 00614640     LIBCMTD:dbgheap.obj
 0002:0001965c       ??_C@_0DC@BOCN@fRealloc?5?$HM?$HM?5?$CI?$CBfRealloc?5?$CG?$CG?5pNewBl@ 0061465c     LIBCMTD:dbgheap.obj
 0002:00019690       ??_C@_0DK@DKOM@_BLOCK_TYPE?$CIpOldBlock?9?$DOnBlockUse@ 00614690     LIBCMTD:dbgheap.obj
 0002:000196cc       ??_C@_0EF@EDKM@pOldBlock?9?$DOnLine?5?$DN?$DN?5IGNORE_LINE?5@ 006146cc     LIBCMTD:dbgheap.obj
 0002:00019714       ??_C@_0CC@GPMO@_CrtIsValidHeapPointer?$CIpUserData@ 00614714     LIBCMTD:dbgheap.obj
 0002:00019738       ??_C@_0CN@FHGE@Allocation?5too?5large?5or?5negative@ 00614738     LIBCMTD:dbgheap.obj
 0002:00019768       ??_C@_0CE@EAMN@Client?5hook?5re?9allocation?5failur@ 00614768     LIBCMTD:dbgheap.obj
 0002:0001978c       ??_C@_0DI@KKMM@Client?5hook?5re?9allocation?5failur@ 0061478c     LIBCMTD:dbgheap.obj
 0002:000197c4       ??_C@_0BG@JCEC@_pFirstBlock?5?$DN?$DN?5pHead?$AA@ 006147c4     LIBCMTD:dbgheap.obj
 0002:000197dc       ??_C@_0BF@NLNN@_pLastBlock?5?$DN?$DN?5pHead?$AA@ 006147dc     LIBCMTD:dbgheap.obj
 0002:000197f4       ??_C@_0BO@PLHH@pHead?9?$DOnBlockUse?5?$DN?$DN?5nBlockUse?$AA@ 006147f4     LIBCMTD:dbgheap.obj
 0002:00019814       ??_C@_0DN@KKIO@pHead?9?$DOnLine?5?$DN?$DN?5IGNORE_LINE?5?$CG?$CG?5p@ 00614814     LIBCMTD:dbgheap.obj
 0002:00019854       ??_C@_0CK@OJNB@DAMAGE?3?5after?5?$CFhs?5block?5?$CI?$CD?$CFd?$CJ?5at@ 00614854     LIBCMTD:dbgheap.obj
 0002:00019880       ??_C@_0CL@IJIL@DAMAGE?3?5before?5?$CFhs?5block?5?$CI?$CD?$CFd?$CJ?5a@ 00614880     LIBCMTD:dbgheap.obj
 0002:000198ac       ??_C@_0CH@PHOC@_BLOCK_TYPE_IS_VALID?$CIpHead?9?$DOnBlo@ 006148ac     LIBCMTD:dbgheap.obj
 0002:000198d4       ??_C@_0BL@MBNA@Client?5hook?5free?5failure?4?6?$AA@ 006148d4     LIBCMTD:dbgheap.obj
 0002:000198f0       ??_C@_0DK@EKKL@memory?5check?5error?5at?50x?$CF08X?5?$DN?50@ 006148f0     LIBCMTD:dbgheap.obj
 0002:0001992c       ??_C@_0CJ@GCII@?$CFhs?5located?5at?50x?$CF08X?5is?5?$CFu?5byte@ 0061492c     LIBCMTD:dbgheap.obj
 0002:00019958       ??_C@_0CA@EJPI@?$CFhs?5allocated?5at?5file?5?$CFhs?$CI?$CFd?$CJ?4?6?$AA@ 00614958     LIBCMTD:dbgheap.obj
 0002:00019978       ??_C@_0CJ@LHHG@DAMAGE?3?5on?5top?5of?5Free?5block?5at?5@ 00614978     LIBCMTD:dbgheap.obj
 0002:000199a4       ??_C@_07GJHM@DAMAGED?$AA@  006149a4     LIBCMTD:dbgheap.obj
 0002:000199ac       ??_C@_0CL@ODIE@_heapchk?5fails?5with?5unknown?5retu@ 006149ac     LIBCMTD:dbgheap.obj
 0002:000199d8       ??_C@_0CC@EHNC@_heapchk?5fails?5with?5_HEAPBADPTR?4@ 006149d8     LIBCMTD:dbgheap.obj
 0002:000199fc       ??_C@_0CC@JNDP@_heapchk?5fails?5with?5_HEAPBADEND?4@ 006149fc     LIBCMTD:dbgheap.obj
 0002:00019a20       ??_C@_0CD@DNMG@_heapchk?5fails?5with?5_HEAPBADNODE@ 00614a20     LIBCMTD:dbgheap.obj
 0002:00019a44       ??_C@_0CE@JMCB@_heapchk?5fails?5with?5_HEAPBADBEGI@ 00614a44     LIBCMTD:dbgheap.obj
 0002:00019a68       ??_C@_0CD@MEMI@Bad?5memory?5block?5found?5at?50x?$CF08X@ 00614a68     LIBCMTD:dbgheap.obj
 0002:00019a8c       ??_C@_0CI@GMAO@_CrtMemCheckPoint?3?5NULL?5state?5po@ 00614a8c     LIBCMTD:dbgheap.obj
 0002:00019ab4       ??_C@_0CI@MNAE@_CrtMemDifference?3?5NULL?5state?5po@ 00614ab4     LIBCMTD:dbgheap.obj
 0002:00019adc       ??_C@_0BH@PKIJ@Object?5dump?5complete?4?6?$AA@ 00614adc     LIBCMTD:dbgheap.obj
 0002:00019af4       ??_C@_0DB@DBPF@crt?5block?5at?50x?$CF08X?0?5subtype?5?$CFx?0@ 00614af4     LIBCMTD:dbgheap.obj
 0002:00019b28       ??_C@_0CI@JLM@normal?5block?5at?50x?$CF08X?0?5?$CFu?5bytes@ 00614b28     LIBCMTD:dbgheap.obj
 0002:00019b50       ??_C@_0DE@PFEA@client?5block?5at?50x?$CF08X?0?5subtype?5@ 00614b50     LIBCMTD:dbgheap.obj
 0002:00019b84       ??_C@_06MBCE@?$HL?$CFld?$HN?5?$AA@ 00614b84     LIBCMTD:dbgheap.obj
 0002:00019b8c       ??_C@_0L@BLDJ@?$CFhs?$CI?$CFd?$CJ?5?3?5?$AA@ 00614b8c     LIBCMTD:dbgheap.obj
 0002:00019b98       ??_C@_0BE@FEMA@?$CDFile?5Error?$CD?$CI?$CFd?$CJ?5?3?5?$AA@ 00614b98     LIBCMTD:dbgheap.obj
 0002:00019bac       ??_C@_0BE@FPPM@Dumping?5objects?5?9?$DO?6?$AA@ 00614bac     LIBCMTD:dbgheap.obj
 0002:00019bc0       ??_C@_0BA@POLM@?5Data?3?5?$DM?$CFs?$DO?5?$CFs?6?$AA@ 00614bc0     LIBCMTD:dbgheap.obj
 0002:00019bd0       ??_C@_05JLAO@?$CF?42X?5?$AA@ 00614bd0     LIBCMTD:dbgheap.obj
 0002:00019bd8       ??_C@_0BI@KONA@Detected?5memory?5leaks?$CB?6?$AA@ 00614bd8     LIBCMTD:dbgheap.obj
 0002:00019bf0       ??_C@_0BP@LCCN@Total?5allocations?3?5?$CFld?5bytes?4?6?$AA@ 00614bf0     LIBCMTD:dbgheap.obj
 0002:00019c10       ??_C@_0CB@COID@Largest?5number?5used?3?5?$CFld?5bytes?4?6@ 00614c10     LIBCMTD:dbgheap.obj
 0002:00019c34       ??_C@_0BO@MEJD@?$CFld?5bytes?5in?5?$CFld?5?$CFhs?5Blocks?4?6?$AA@ 00614c34     LIBCMTD:dbgheap.obj
 0002:00019c54       ??_C@_09GCII@setvbuf?4c?$AA@ 00614c54     LIBCMTD:setvbuf.obj
 0002:00019c60       ??_C@_0M@KJPK@str?5?$CB?$DN?5NULL?$AA@ 00614c60     LIBCMTD:setvbuf.obj
 0002:00019c6c       ??_C@_07HFEM@fseek?4c?$AA@ 00614c6c     LIBCMTD:fseek.obj
 0002:00019c74       ??_C@_0P@FHEA@stream?5?$CB?$DN?5NULL?$AA@ 00614c74     LIBCMTD:fseek.obj
 0002:00019c84       ??_C@_07CMIP@ftell?4c?$AA@ 00614c84     LIBCMTD:ftell.obj
 0002:00019c8c       ??_C@_08PHBD@fclose?4c?$AA@ 00614c8c     LIBCMTD:fclose.obj
 0002:00019c98       ??_C@_0BC@IPFL@?$CKmode?5?$CB?$DN?5_T?$CI?8?20?8?$CJ?$AA@ 00614c98     LIBCMTD:fopen.obj
 0002:00019cac       ??_C@_0N@BKPP@mode?5?$CB?$DN?5NULL?$AA@ 00614cac     LIBCMTD:fopen.obj
 0002:00019cbc       ??_C@_0BC@GOED@?$CKfile?5?$CB?$DN?5_T?$CI?8?20?8?$CJ?$AA@ 00614cbc     LIBCMTD:fopen.obj
 0002:00019cd0       ??_C@_07OMGG@fopen?4c?$AA@ 00614cd0     LIBCMTD:fopen.obj
 0002:00019cd8       ??_C@_0N@MCKG@file?5?$CB?$DN?5NULL?$AA@ 00614cd8     LIBCMTD:fopen.obj
 0002:00019ce8       ??_C@_09DLOM@fprintf?4c?$AA@ 00614ce8     LIBCMTD:fprintf.obj
 0002:00019d04       ??_C@_0L@OPJO@vfprintf?4c?$AA@ 00614d04     LIBCMTD:vfprintf.obj
 0002:00019d10       ??_C@_08GFKD@putenv?4c?$AA@ 00614d10     LIBCMTD:putenv.obj
 0002:00019d1c       ??_C@_0BB@BLL@Assertion?5Failed?$AA@ 00614d1c     LIBCMTD:dbgrpt.obj
 0002:00019d30       ??_C@_05CKBG@Error?$AA@    00614d30     LIBCMTD:dbgrpt.obj
 0002:00019d38       ??_C@_07JCGI@Warning?$AA@  00614d38     LIBCMTD:dbgrpt.obj
 0002:00019d40       ??_C@_0M@ODEP@?$CFs?$CI?$CFd?$CJ?5?3?5?$CFs?$AA@ 00614d40     LIBCMTD:dbgrpt.obj
 0002:00019d4c       ??_C@_01FEHD@?$AN?$AA@     00614d4c     LIBCMTD:dbgrpt.obj
 0002:00019d50       ??_C@_0BD@BEAK@Assertion?5failed?3?5?$AA@ 00614d50     LIBCMTD:dbgrpt.obj
 0002:00019d64       ??_C@_0CL@LCCP@_CrtDbgReport?3?5String?5too?5long?5o@ 00614d64     LIBCMTD:dbgrpt.obj
 0002:00019d90       ??_C@_0DC@EMDK@Second?5Chance?5Assertion?5Failed?3?5@ 00614d90     LIBCMTD:dbgrpt.obj
 0002:00019dc4       ??_C@_09NJAK@wsprintfA?$AA@ 00614dc4     LIBCMTD:dbgrpt.obj
 0002:00019dd0       ??_C@_0L@HKL@user32?4dll?$AA@ 00614dd0     LIBCMTD:dbgrpt.obj
 0002:00019ddc       ??_C@_0CD@GCMD@Microsoft?5Visual?5C?$CL?$CL?5Debug?5Libra@ 00614ddc     LIBCMTD:dbgrpt.obj
 0002:00019e00       ??_C@_0FD@EBDD@Debug?5?$CFs?$CB?6?6Program?3?5?$CFs?$CFs?$CFs?$CFs?$CFs?$CFs@ 00614e00     LIBCMTD:dbgrpt.obj
 0002:00019e54       ??_C@_09DCKN@?6Module?3?5?$AA@ 00614e54     LIBCMTD:dbgrpt.obj
 0002:00019e60       ??_C@_07HJII@?6File?3?5?$AA@ 00614e60     LIBCMTD:dbgrpt.obj
 0002:00019e68       ??_C@_07LFGN@?6Line?3?5?$AA@ 00614e68     LIBCMTD:dbgrpt.obj
 0002:00019e70       ??_C@_0HD@BHFH@?6?6For?5information?5on?5how?5your?5pr@ 00614e70     LIBCMTD:dbgrpt.obj
 0002:00019ee4       ??_C@_08GFHP@dbgrpt?4c?$AA@ 00614ee4     LIBCMTD:dbgrpt.obj
 0002:00019ef0       ??_C@_0BG@FBEA@szUserMessage?5?$CB?$DN?5NULL?$AA@ 00614ef0     LIBCMTD:dbgrpt.obj
 0002:00019f08       ??_C@_0BK@JEGK@IsProcessorFeaturePresent?$AA@ 00614f08     LIBCMTD:testfdiv.obj
 0002:00019f24       ??_C@_08OBID@KERNEL32?$AA@ 00614f24     LIBCMTD:testfdiv.obj
 0002:00019f30       ??_C@_05OFLO@e?$CL000?$AA@ 00614f30     LIBCMTD:cvt.obj
 0002:00019f38       ??_C@_08CNMA@winsig?4c?$AA@ 00614f38     LIBCMTD:winsig.obj
 0002:00019f44       ??_C@_0BD@NJFP@GetLastActivePopup?$AA@ 00614f44     LIBCMTD:crtmbox.obj
 0002:00019f58       ??_C@_0BA@GILI@GetActiveWindow?$AA@ 00614f58     LIBCMTD:crtmbox.obj
 0002:00019f68       ??_C@_0M@PKCK@MessageBoxA?$AA@ 00614f68     LIBCMTD:crtmbox.obj
 0002:00019f74       ??_C@_07HPAH@_file?4c?$AA@ 00614f74     LIBCMTD:_file.obj
 0002:00019f7c       ??_C@_03GAFO@_yn?$AA@      00614f7c     LIBCMTD:fpexcept.obj
 0002:00019f80       ??_C@_03GNLD@_y1?$AA@      00614f80     LIBCMTD:fpexcept.obj
 0002:00019f84       ??_C@_03MHCE@_y0?$AA@      00614f84     LIBCMTD:fpexcept.obj
 0002:00019f88       ??_C@_05PAK@frexp?$AA@     00614f88     LIBCMTD:fpexcept.obj
 0002:00019f90       ??_C@_04JKCH@fmod?$AA@     00614f90     LIBCMTD:fpexcept.obj
 0002:00019f98       ??_C@_06GGHF@_hypot?$AA@   00614f98     LIBCMTD:fpexcept.obj
 0002:00019fa0       ??_C@_05JNMC@_cabs?$AA@    00614fa0     LIBCMTD:fpexcept.obj
 0002:00019fa8       ??_C@_05MEKH@ldexp?$AA@    00614fa8     LIBCMTD:fpexcept.obj
 0002:00019fb0       ??_C@_04KAOJ@modf?$AA@     00614fb0     LIBCMTD:fpexcept.obj
 0002:00019fb8       ??_C@_04EHAJ@fabs?$AA@     00614fb8     LIBCMTD:fpexcept.obj
 0002:00019fc0       ??_C@_05MFBN@floor?$AA@    00614fc0     LIBCMTD:fpexcept.obj
 0002:00019fc8       ??_C@_04JJMP@ceil?$AA@     00614fc8     LIBCMTD:fpexcept.obj
 0002:00019fd0       ??_C@_03JLPI@tan?$AA@      00614fd0     LIBCMTD:fpexcept.obj
 0002:00019fd4       ??_C@_03DLFL@cos?$AA@      00614fd4     LIBCMTD:fpexcept.obj
 0002:00019fd8       ??_C@_04LMBE@sqrt?$AA@     00614fd8     LIBCMTD:fpexcept.obj
 0002:00019fe0       ??_C@_05BFPO@atan2?$AA@    00614fe0     LIBCMTD:fpexcept.obj
 0002:00019fe8       ??_C@_04EAGN@atan?$AA@     00614fe8     LIBCMTD:fpexcept.obj
 0002:00019ff0       ??_C@_04OAMO@acos?$AA@     00614ff0     LIBCMTD:fpexcept.obj
 0002:00019ff8       ??_C@_04ELFI@asin?$AA@     00614ff8     LIBCMTD:fpexcept.obj
 0002:0001a000       ??_C@_04LFAD@tanh?$AA@     00615000     LIBCMTD:fpexcept.obj
 0002:0001a008       ??_C@_04PFKD@cosh?$AA@     00615008     LIBCMTD:fpexcept.obj
 0002:0001a010       ??_C@_04NPAI@sinh?$AA@     00615010     LIBCMTD:fpexcept.obj
 0002:0001a018       ??_C@_05IJHH@log10?$AA@    00615018     LIBCMTD:fpexcept.obj
 0002:0001a020       ??_C@_03EGFG@pow?$AA@      00615020     LIBCMTD:fpexcept.obj
 0002:0001a024       ??_C@_03CDGJ@exp?$AA@      00615024     LIBCMTD:fpexcept.obj
 0002:0001a038       __DEFAULT_CW_in_mem        00615038     LIBCMTD:common.obj
 0002:0001a03a       __pi_by_2_to_61            0061503a     LIBCMTD:common.obj
 0002:0001a0b0       ??_C@_07PDLA@mlock?4c?$AA@ 006150b0     LIBCMTD:mlock.obj
 0002:0001a0b8       ??_C@_07PCLE@LC_TIME?$AA@  006150b8     LIBCMTD:setlocal.obj
 0002:0001a0c0       ??_C@_0L@NKG@LC_NUMERIC?$AA@ 006150c0     LIBCMTD:setlocal.obj
 0002:0001a0cc       ??_C@_0M@CBIH@LC_MONETARY?$AA@ 006150cc     LIBCMTD:setlocal.obj
 0002:0001a0d8       ??_C@_08LFGE@LC_CTYPE?$AA@ 006150d8     LIBCMTD:setlocal.obj
 0002:0001a0e4       ??_C@_0L@CFLC@LC_COLLATE?$AA@ 006150e4     LIBCMTD:setlocal.obj
 0002:0001a0f0       ??_C@_06GCPK@LC_ALL?$AA@   006150f0     LIBCMTD:setlocal.obj
 0002:0001a0f8       ??_C@_02BGDO@?$DN?$DL?$AA@ 006150f8     LIBCMTD:setlocal.obj
 0002:0001a0fc       ??_C@_0L@MOEE@setlocal?4c?$AA@ 006150fc     LIBCMTD:setlocal.obj
 0002:0001a108       ??_C@_03DBOJ@_?4?0?$AA@    00615108     LIBCMTD:setlocal.obj
 0002:0001a10c       ??_C@_01NON@_?$AA@         0061510c     LIBCMTD:setlocal.obj
 0002:0001a110       ??_C@_01A@?$AA?$AA@        00615110     LIBCMTD:a_map.obj
 0002:0001a114       ??_C@_13A@?$AA?$AA?$AA?$AA@ 00615114     LIBCMTD:a_map.obj
 0002:0001a130       ??_C@_0L@ENLJ@tidtable?4c?$AA@ 00615130     LIBCMTD:tidtable.obj
 0002:0001a13c       ??_C@_0L@EJNO@wtombenv?4c?$AA@ 0061513c     LIBCMTD:wtombenv.obj
 0002:0001a148       ??_C@_0DP@IHIN@?$CI?$CCinconsistent?5IOB?5fields?$CC?0?5stre@ 00615148     LIBCMTD:_flsbuf.obj
 0002:0001a188       ??_C@_09LGEI@_flsbuf?4c?$AA@ 00615188     LIBCMTD:_flsbuf.obj
 0002:0001a194       ___lookuptable             00615194     LIBCMTD:output.obj
 0002:0001a1f0       ??_C@_1O@POHA@?$AA?$CI?$AAn?$AAu?$AAl?$AAl?$AA?$CJ?$AA?$AA@ 006151f0     LIBCMTD:output.obj
 0002:0001a200       ??_C@_06ONKE@?$CInull?$CJ?$AA@ 00615200     LIBCMTD:output.obj
 0002:0001a208       ??_C@_08MIHI@output?4c?$AA@ 00615208     LIBCMTD:output.obj
 0002:0001a214       ??_C@_0P@PIHB@ch?5?$CB?$DN?5_T?$CI?8?20?8?$CJ?$AA@ 00615214     LIBCMTD:output.obj
 0002:0001a224       ??_C@_09JNND@_sftbuf?4c?$AA@ 00615224     LIBCMTD:_sftbuf.obj
 0002:0001a230       ??_C@_0BH@EOPG@flag?5?$DN?$DN?50?5?$HM?$HM?5flag?5?$DN?$DN?51?$AA@ 00615230     LIBCMTD:_sftbuf.obj
 0002:0001a248       ??_C@_07IEFA@input?4c?$AA@ 00615248     LIBCMTD:input.obj
 0002:0001a250       ___dnames                  00615250     LIBCMTD:timeset.obj
 0002:0001a268       ___mnames                  00615268     LIBCMTD:timeset.obj
 0002:0001a290       ??_C@_07DEKI@tzset?4c?$AA@ 00615290     LIBCMTD:tzset.obj
 0002:0001a298       ??_C@_02JHIA@TZ?$AA@       00615298     LIBCMTD:tzset.obj
 0002:0001a29c       ??_C@_08LLGM@gmtime?4c?$AA@ 0061529c     LIBCMTD:gmtime.obj
 0002:0001a2b4       ??_C@_0L@JIE@_freebuf?4c?$AA@ 006152b4     LIBCMTD:_freebuf.obj
 0002:0001a2c0       ??_C@_08KFDJ@ioinit?4c?$AA@ 006152c0     LIBCMTD:ioinit.obj
 0002:0001a2cc       ??_C@_07INLA@_open?4c?$AA@ 006152cc     LIBCMTD:_open.obj
 0002:0001a2d4       ??_C@_0BB@COCE@filename?5?$CB?$DN?5NULL?$AA@ 006152d4     LIBCMTD:_open.obj
 0002:0001a2e8       ??_C@_08HJEP@stream?4c?$AA@ 006152e8     LIBCMTD:stream.obj
 0002:0001a2f4       ??_C@_09DNOI@_filbuf?4c?$AA@ 006152f4     LIBCMTD:_filbuf.obj
 0002:0001a300       ??_C@_09LNLM@osfinfo?4c?$AA@ 00615300     LIBCMTD:osfinfo.obj
 0002:0001a30c       ??_C@_09IGKD@stdenvp?4c?$AA@ 0061530c     LIBCMTD:stdenvp.obj
 0002:0001a318       ??_C@_09MPMN@stdargv?4c?$AA@ 00615318     LIBCMTD:stdargv.obj
 0002:0001a324       ??_C@_07BNNE@a_env?4c?$AA@ 00615324     LIBCMTD:a_env.obj
 0002:0001a32c       ??_C@_0P@GGKG@runtime?5error?5?$AA@ 0061532c     LIBCMTD:crt0msg.obj
 0002:0001a33c       ??_C@_0O@DELO@TLOSS?5error?$AN?6?$AA@ 0061533c     LIBCMTD:crt0msg.obj
 0002:0001a34c       ??_C@_0N@OMLL@SING?5error?$AN?6?$AA@ 0061534c     LIBCMTD:crt0msg.obj
 0002:0001a35c       ??_C@_0P@OJAK@DOMAIN?5error?$AN?6?$AA@ 0061535c     LIBCMTD:crt0msg.obj
 0002:0001a36c       ??_C@_0CF@EANP@R6028?$AN?6?9?5unable?5to?5initialize?5he@ 0061536c     LIBCMTD:crt0msg.obj
 0002:0001a394       ??_C@_0DF@ECGN@R6027?$AN?6?9?5not?5enough?5space?5for?5lo@ 00615394     LIBCMTD:crt0msg.obj
 0002:0001a3cc       ??_C@_0DF@FKAC@R6026?$AN?6?9?5not?5enough?5space?5for?5st@ 006153cc     LIBCMTD:crt0msg.obj
 0002:0001a404       ??_C@_0CG@DPMN@R6025?$AN?6?9?5pure?5virtual?5function?5c@ 00615404     LIBCMTD:crt0msg.obj
 0002:0001a42c       ??_C@_0DF@CKIP@R6024?$AN?6?9?5not?5enough?5space?5for?5_o@ 0061542c     LIBCMTD:crt0msg.obj
 0002:0001a464       ??_C@_0CJ@GGOE@R6019?$AN?6?9?5unable?5to?5open?5console?5@ 00615464     LIBCMTD:crt0msg.obj
 0002:0001a490       ??_C@_0CB@LBOB@R6018?$AN?6?9?5unexpected?5heap?5error?$AN?6@ 00615490     LIBCMTD:crt0msg.obj
 0002:0001a4b4       ??_C@_0CN@FPEG@R6017?$AN?6?9?5unexpected?5multithread?5@ 006154b4     LIBCMTD:crt0msg.obj
 0002:0001a4e4       ??_C@_0CM@OBIC@R6016?$AN?6?9?5not?5enough?5space?5for?5th@ 006154e4     LIBCMTD:crt0msg.obj
 0002:0001a510       ??_C@_0CB@HPAL@?$AN?6abnormal?5program?5termination?$AN?6@ 00615510     LIBCMTD:crt0msg.obj
 0002:0001a534       ??_C@_0CM@JOOB@R6009?$AN?6?9?5not?5enough?5space?5for?5en@ 00615534     LIBCMTD:crt0msg.obj
 0002:0001a560       ??_C@_0CK@OIBL@R6008?$AN?6?9?5not?5enough?5space?5for?5ar@ 00615560     LIBCMTD:crt0msg.obj
 0002:0001a58c       ??_C@_0CF@LKPB@R6002?$AN?6?9?5floating?5point?5not?5load@ 0061558c     LIBCMTD:crt0msg.obj
 0002:0001a5b4       ??_C@_0BK@DEOK@Runtime?5Error?$CB?6?6Program?3?5?$AA@ 006155b4     LIBCMTD:crt0msg.obj
 0002:0001a5d0       ??_C@_08FEIK@setenv?4c?$AA@ 006155d0     LIBCMTD:wsetenv.obj
 0002:0001a5ec       ??_C@_0L@EEGJ@inittime?4c?$AA@ 006155ec     LIBCMTD:inittime.obj
 0002:0001a5f8       ??_C@_09IMJJ@initnum?4c?$AA@ 006155f8     LIBCMTD:initnum.obj
 0002:0001a604       ??_C@_09KPNI@initmon?4c?$AA@ 00615604     LIBCMTD:initmon.obj
 0002:0001a610       ??_C@_0L@COIL@initctyp?4c?$AA@ 00615610     LIBCMTD:initctyp.obj
 0002:0001a61c       ??_C@_08OBJD@Paraguay?$AA@ 0061561c     LIBCMTD:getqloc.obj
 0002:0001a628       ??_C@_07GLKH@Uruguay?$AA@  00615628     LIBCMTD:getqloc.obj
 0002:0001a630       ??_C@_05FPFC@Chile?$AA@    00615630     LIBCMTD:getqloc.obj
 0002:0001a638       ??_C@_07IIGF@Ecuador?$AA@  00615638     LIBCMTD:getqloc.obj
 0002:0001a640       ??_C@_09PKAL@Argentina?$AA@ 00615640     LIBCMTD:getqloc.obj
 0002:0001a64c       ??_C@_04LKAH@Peru?$AA@     0061564c     LIBCMTD:getqloc.obj
 0002:0001a654       ??_C@_08NEEM@Colombia?$AA@ 00615654     LIBCMTD:getqloc.obj
 0002:0001a660       ??_C@_09ODEB@Venezuela?$AA@ 00615660     LIBCMTD:getqloc.obj
 0002:0001a66c       ??_C@_0BD@CLEL@Dominican?5Republic?$AA@ 0061566c     LIBCMTD:getqloc.obj
 0002:0001a680       ??_C@_0N@MDGL@South?5Africa?$AA@ 00615680     LIBCMTD:getqloc.obj
 0002:0001a690       ??_C@_06NKBG@Panama?$AA@   00615690     LIBCMTD:getqloc.obj
 0002:0001a698       ??_C@_0L@BMHO@Luxembourg?$AA@ 00615698     LIBCMTD:getqloc.obj
 0002:0001a6a4       ??_C@_0L@IMDK@Costa?5Rica?$AA@ 006156a4     LIBCMTD:getqloc.obj
 0002:0001a6b0       ??_C@_0M@BLJF@Switzerland?$AA@ 006156b0     LIBCMTD:getqloc.obj
 0002:0001a6bc       ??_C@_09KBOL@Guatemala?$AA@ 006156bc     LIBCMTD:getqloc.obj
 0002:0001a6c8       ??_C@_06JNAK@Canada?$AA@   006156c8     LIBCMTD:getqloc.obj
 0002:0001a6d0       ??_C@_0BG@OLLP@Spanish?5?9?5Modern?5Sort?$AA@ 006156d0     LIBCMTD:getqloc.obj
 0002:0001a6e8       ??_C@_09IDKE@Australia?$AA@ 006156e8     LIBCMTD:getqloc.obj
 0002:0001a6f4       ??_C@_07JJJJ@English?$AA@  006156f4     LIBCMTD:getqloc.obj
 0002:0001a6fc       ??_C@_07NMDO@Austria?$AA@  006156fc     LIBCMTD:getqloc.obj
 0002:0001a704       ??_C@_06DEFE@German?$AA@   00615704     LIBCMTD:getqloc.obj
 0002:0001a70c       ??_C@_07JAIH@Belgium?$AA@  0061570c     LIBCMTD:getqloc.obj
 0002:0001a714       ??_C@_06BNLJ@Mexico?$AA@   00615714     LIBCMTD:getqloc.obj
 0002:0001a71c       ??_C@_07JHAG@Spanish?$AA@  0061571c     LIBCMTD:getqloc.obj
 0002:0001a724       ??_C@_06DADE@Basque?$AA@   00615724     LIBCMTD:getqloc.obj
 0002:0001a72c       ??_C@_06ENFP@Sweden?$AA@   0061572c     LIBCMTD:getqloc.obj
 0002:0001a734       ??_C@_07JPMH@Swedish?$AA@  00615734     LIBCMTD:getqloc.obj
 0002:0001a73c       ??_C@_07IEKF@Iceland?$AA@  0061573c     LIBCMTD:getqloc.obj
 0002:0001a744       ??_C@_09KNEA@Icelandic?$AA@ 00615744     LIBCMTD:getqloc.obj
 0002:0001a750       ??_C@_06IJOD@France?$AA@   00615750     LIBCMTD:getqloc.obj
 0002:0001a758       ??_C@_06EINI@French?$AA@   00615758     LIBCMTD:getqloc.obj
 0002:0001a760       ??_C@_07FOOE@Finland?$AA@  00615760     LIBCMTD:getqloc.obj
 0002:0001a768       ??_C@_07OJOM@Finnish?$AA@  00615768     LIBCMTD:getqloc.obj
 0002:0001a770       ??_C@_05FFAC@Spain?$AA@    00615770     LIBCMTD:getqloc.obj
 0002:0001a778       ??_C@_0BL@BIHM@Spanish?5?9?5Traditional?5Sort?$AA@ 00615778     LIBCMTD:getqloc.obj
 0002:0001a794       ??_C@_0O@GLHB@united?9states?$AA@ 00615794     LIBCMTD:getqloc.obj
 0002:0001a7a4       ??_C@_0P@IIKK@united?9kingdom?$AA@ 006157a4     LIBCMTD:getqloc.obj
 0002:0001a7b4       ??_C@_0BC@FHBO@trinidad?5?$CG?5tobago?$AA@ 006157b4     LIBCMTD:getqloc.obj
 0002:0001a7c8       ??_C@_0M@BDFM@south?9korea?$AA@ 006157c8     LIBCMTD:getqloc.obj
 0002:0001a7d4       ??_C@_0N@CKFA@south?9africa?$AA@ 006157d4     LIBCMTD:getqloc.obj
 0002:0001a7e4       ??_C@_0M@HNHN@south?5korea?$AA@ 006157e4     LIBCMTD:getqloc.obj
 0002:0001a7f0       ??_C@_0N@MKDO@south?5africa?$AA@ 006157f0     LIBCMTD:getqloc.obj
 0002:0001a800       ??_C@_06KFFJ@slovak?$AA@   00615800     LIBCMTD:getqloc.obj
 0002:0001a808       ??_C@_0M@NMAC@puerto?9rico?$AA@ 00615808     LIBCMTD:getqloc.obj
 0002:0001a814       ??_C@_08EJOH@pr?9china?$AA@ 00615814     LIBCMTD:getqloc.obj
 0002:0001a820       ??_C@_08CHMG@pr?5china?$AA@ 00615820     LIBCMTD:getqloc.obj
 0002:0001a82c       ??_C@_02OCJK@nz?$AA@       0061582c     LIBCMTD:getqloc.obj
 0002:0001a830       ??_C@_0M@MMKA@new?9zealand?$AA@ 00615830     LIBCMTD:getqloc.obj
 0002:0001a83c       ??_C@_09MGEH@hong?9kong?$AA@ 0061583c     LIBCMTD:getqloc.obj
 0002:0001a848       ??_C@_07CCAK@holland?$AA@  00615848     LIBCMTD:getqloc.obj
 0002:0001a850       ??_C@_0O@MEPL@great?5britain?$AA@ 00615850     LIBCMTD:getqloc.obj
 0002:0001a860       ??_C@_07LGIB@england?$AA@  00615860     LIBCMTD:getqloc.obj
 0002:0001a868       ??_C@_05BMOA@czech?$AA@    00615868     LIBCMTD:getqloc.obj
 0002:0001a870       ??_C@_05NMPB@china?$AA@    00615870     LIBCMTD:getqloc.obj
 0002:0001a878       ??_C@_07GN@britain?$AA@    00615878     LIBCMTD:getqloc.obj
 0002:0001a880       ??_C@_07DLAK@america?$AA@  00615880     LIBCMTD:getqloc.obj
 0002:0001a888       ??_C@_03IPEP@usa?$AA@      00615888     LIBCMTD:getqloc.obj
 0002:0001a88c       ??_C@_02PILH@us?$AA@       0061588c     LIBCMTD:getqloc.obj
 0002:0001a890       ??_C@_02FHP@uk?$AA@        00615890     LIBCMTD:getqloc.obj
 0002:0001a894       ??_C@_05DEAI@swiss?$AA@    00615894     LIBCMTD:getqloc.obj
 0002:0001a89c       ??_C@_0BA@LIAF@swedish?9finland?$AA@ 0061589c     LIBCMTD:getqloc.obj
 0002:0001a8ac       ??_C@_0BC@FMEG@spanish?9venezuela?$AA@ 006158ac     LIBCMTD:getqloc.obj
 0002:0001a8c0       ??_C@_0BA@BNMG@spanish?9uruguay?$AA@ 006158c0     LIBCMTD:getqloc.obj
 0002:0001a8d0       ??_C@_0BE@BKDJ@spanish?9puerto?5rico?$AA@ 006158d0     LIBCMTD:getqloc.obj
 0002:0001a8e4       ??_C@_0N@JIBL@spanish?9peru?$AA@ 006158e4     LIBCMTD:getqloc.obj
 0002:0001a8f4       ??_C@_0BB@OGOF@spanish?9paraguay?$AA@ 006158f4     LIBCMTD:getqloc.obj
 0002:0001a908       ??_C@_0P@LLFA@spanish?9panama?$AA@ 00615908     LIBCMTD:getqloc.obj
 0002:0001a918       ??_C@_0BC@BBJM@spanish?9nicaragua?$AA@ 00615918     LIBCMTD:getqloc.obj
 0002:0001a92c       ??_C@_0P@NJBN@spanish?9modern?$AA@ 0061592c     LIBCMTD:getqloc.obj
 0002:0001a93c       ??_C@_0BA@NHDN@spanish?9mexican?$AA@ 0061593c     LIBCMTD:getqloc.obj
 0002:0001a94c       ??_C@_0BB@JHOJ@spanish?9honduras?$AA@ 0061594c     LIBCMTD:getqloc.obj
 0002:0001a960       ??_C@_0BC@BOOM@spanish?9guatemala?$AA@ 00615960     LIBCMTD:getqloc.obj
 0002:0001a974       ??_C@_0BE@EELI@spanish?9el?5salvador?$AA@ 00615974     LIBCMTD:getqloc.obj
 0002:0001a988       ??_C@_0BA@POAE@spanish?9ecuador?$AA@ 00615988     LIBCMTD:getqloc.obj
 0002:0001a998       ??_C@_0BL@LDKN@spanish?9dominican?5republic?$AA@ 00615998     LIBCMTD:getqloc.obj
 0002:0001a9b4       ??_C@_0BD@HPMH@spanish?9costa?5rica?$AA@ 006159b4     LIBCMTD:getqloc.obj
 0002:0001a9c8       ??_C@_0BB@NDDK@spanish?9colombia?$AA@ 006159c8     LIBCMTD:getqloc.obj
 0002:0001a9dc       ??_C@_0O@BJHA@spanish?9chile?$AA@ 006159dc     LIBCMTD:getqloc.obj
 0002:0001a9ec       ??_C@_0BA@OBNG@spanish?9bolivia?$AA@ 006159ec     LIBCMTD:getqloc.obj
 0002:0001a9fc       ??_C@_0BC@EFAM@spanish?9argentina?$AA@ 006159fc     LIBCMTD:getqloc.obj
 0002:0001aa10       ??_C@_0BF@KMMM@portuguese?9brazilian?$AA@ 00615a10     LIBCMTD:getqloc.obj
 0002:0001aa28       ??_C@_0BC@BAAE@norwegian?9nynorsk?$AA@ 00615a28     LIBCMTD:getqloc.obj
 0002:0001aa3c       ??_C@_0BB@PBHK@norwegian?9bokmal?$AA@ 00615a3c     LIBCMTD:getqloc.obj
 0002:0001aa50       ??_C@_09EHKL@norwegian?$AA@ 00615a50     LIBCMTD:getqloc.obj
 0002:0001aa5c       ??_C@_0O@BEAN@italian?9swiss?$AA@ 00615a5c     LIBCMTD:getqloc.obj
 0002:0001aa6c       ??_C@_0O@OIFK@irish?9english?$AA@ 00615a6c     LIBCMTD:getqloc.obj
 0002:0001aa7c       ??_C@_0N@NBPL@german?9swiss?$AA@ 00615a7c     LIBCMTD:getqloc.obj
 0002:0001aa8c       ??_C@_0BC@ICFJ@german?9luxembourg?$AA@ 00615a8c     LIBCMTD:getqloc.obj
 0002:0001aaa0       ??_C@_0BE@GGPC@german?9lichtenstein?$AA@ 00615aa0     LIBCMTD:getqloc.obj
 0002:0001aab4       ??_C@_0BA@MKDC@german?9austrian?$AA@ 00615ab4     LIBCMTD:getqloc.obj
 0002:0001aac4       ??_C@_0N@ODNB@french?9swiss?$AA@ 00615ac4     LIBCMTD:getqloc.obj
 0002:0001aad4       ??_C@_0BC@MGCM@french?9luxembourg?$AA@ 00615ad4     LIBCMTD:getqloc.obj
 0002:0001aae8       ??_C@_0BA@NABK@french?9canadian?$AA@ 00615ae8     LIBCMTD:getqloc.obj
 0002:0001aaf8       ??_C@_0P@CJNO@french?9belgian?$AA@ 00615af8     LIBCMTD:getqloc.obj
 0002:0001ab08       ??_C@_0M@LJOL@english?9usa?$AA@ 00615b08     LIBCMTD:getqloc.obj
 0002:0001ab14       ??_C@_0L@FMNC@english?9us?$AA@ 00615b14     LIBCMTD:getqloc.obj
 0002:0001ab20       ??_C@_0L@KBBK@english?9uk?$AA@ 00615b20     LIBCMTD:getqloc.obj
 0002:0001ab2c       ??_C@_0BK@NDDE@english?9trinidad?5y?5tobago?$AA@ 00615b2c     LIBCMTD:getqloc.obj
 0002:0001ab48       ??_C@_0BF@LKML@english?9south?5africa?$AA@ 00615b48     LIBCMTD:getqloc.obj
 0002:0001ab60       ??_C@_0L@EGPP@english?9nz?$AA@ 00615b60     LIBCMTD:getqloc.obj
 0002:0001ab6c       ??_C@_0BA@HLH@english?9jamaica?$AA@ 00615b6c     LIBCMTD:getqloc.obj
 0002:0001ab7c       ??_C@_0M@PMJI@english?9ire?$AA@ 00615b7c     LIBCMTD:getqloc.obj
 0002:0001ab88       ??_C@_0BC@HINE@english?9caribbean?$AA@ 00615b88     LIBCMTD:getqloc.obj
 0002:0001ab9c       ??_C@_0M@DCFH@english?9can?$AA@ 00615b9c     LIBCMTD:getqloc.obj
 0002:0001aba8       ??_C@_0P@DGHK@english?9belize?$AA@ 00615ba8     LIBCMTD:getqloc.obj
 0002:0001abb8       ??_C@_0M@FLHK@english?9aus?$AA@ 00615bb8     LIBCMTD:getqloc.obj
 0002:0001abc4       ??_C@_0BB@HNCK@english?9american?$AA@ 00615bc4     LIBCMTD:getqloc.obj
 0002:0001abd8       ??_C@_0O@PAMI@dutch?9belgian?$AA@ 00615bd8     LIBCMTD:getqloc.obj
 0002:0001abe8       ??_C@_0BE@FPEJ@chinese?9traditional?$AA@ 00615be8     LIBCMTD:getqloc.obj
 0002:0001abfc       ??_C@_0BC@CHFL@chinese?9singapore?$AA@ 00615bfc     LIBCMTD:getqloc.obj
 0002:0001ac10       ??_C@_0BD@DCMH@chinese?9simplified?$AA@ 00615c10     LIBCMTD:getqloc.obj
 0002:0001ac24       ??_C@_0BB@JMOE@chinese?9hongkong?$AA@ 00615c24     LIBCMTD:getqloc.obj
 0002:0001ac38       ??_C@_07NGFN@chinese?$AA@  00615c38     LIBCMTD:getqloc.obj
 0002:0001ac40       ??_C@_03PCOI@chi?$AA@      00615c40     LIBCMTD:getqloc.obj
 0002:0001ac44       ??_C@_03FIHP@chh?$AA@      00615c44     LIBCMTD:getqloc.obj
 0002:0001ac48       ??_C@_08HFLO@canadian?$AA@ 00615c48     LIBCMTD:getqloc.obj
 0002:0001ac54       ??_C@_07INIJ@belgian?$AA@  00615c54     LIBCMTD:getqloc.obj
 0002:0001ac5c       ??_C@_0L@LCCA@australian?$AA@ 00615c5c     LIBCMTD:getqloc.obj
 0002:0001ac68       ??_C@_0BB@BJIO@american?9english?$AA@ 00615c68     LIBCMTD:getqloc.obj
 0002:0001ac7c       ??_C@_0BB@DAGO@american?5english?$AA@ 00615c7c     LIBCMTD:getqloc.obj
 0002:0001ac90       ??_C@_08HENB@american?$AA@ 00615c90     LIBCMTD:getqloc.obj
 0002:0001ac9c       ??_C@_03DGJE@OCP?$AA@      00615c9c     LIBCMTD:getqloc.obj
 0002:0001aca0       ??_C@_03EKFG@ACP?$AA@      00615ca0     LIBCMTD:getqloc.obj
 0002:0001aca4       ??_C@_07FOIK@a_cmp?4c?$AA@ 00615ca4     LIBCMTD:a_cmp.obj
 0002:0001acac       ??_C@_0DN@PPKB@cchCount1?$DN?$DN0?5?$CG?$CG?5cchCount2?$DN?$DN1?5?$HM?$HM?5@ 00615cac     LIBCMTD:a_cmp.obj
 0002:0001ad08       ??_C@_09EMDO@_getbuf?4c?$AA@ 00615d08     LIBCMTD:_getbuf.obj
 0002:0001ad14       ??_C@_08MOLN@mbtowc?4c?$AA@ 00615d14     LIBCMTD:mbtowc.obj
 0002:0001ad20       ??_C@_0CD@NPPL@MB_CUR_MAX?5?$DN?$DN?51?5?$HM?$HM?5MB_CUR_MAX?5?$DN?$DN@ 00615d20     LIBCMTD:mbtowc.obj
 0002:0001ad44       ??_C@_08JKP@ungetc?4c?$AA@ 00615d44     LIBCMTD:ungetc.obj
 0002:0001ad50       ??_C@_0L@KCLJ@mbtowenv?4c?$AA@ 00615d50     LIBCMTD:mbtowenv.obj
 0002:0001ad5c       ??_C@_06PAPI@1?$CDQNAN?$AA@ 00615d5c     LIBCMTD:x10fout.obj
 0002:0001ad64       ??_C@_05BGNL@1?$CDINF?$AA@ 00615d64     LIBCMTD:x10fout.obj
 0002:0001ad6c       ??_C@_05EDPF@1?$CDIND?$AA@ 00615d6c     LIBCMTD:x10fout.obj
 0002:0001ad74       ??_C@_06LKFM@1?$CDSNAN?$AA@ 00615d74     LIBCMTD:x10fout.obj
 0002:0001ad7c       ??_C@_07CJME@H?3mm?3ss?$AA@ 00615d7c     LIBCMTD:strftime.obj
 0002:0001ad84       ??_C@_0BE@MHI@dddd?0?5MMMM?5dd?0?5yyyy?$AA@ 00615d84     LIBCMTD:strftime.obj
 0002:0001ad98       ??_C@_06HCAD@M?1d?1yy?$AA@ 00615d98     LIBCMTD:strftime.obj
 0002:0001ada0       ??_C@_02DBLP@PM?$AA@       00615da0     LIBCMTD:strftime.obj
 0002:0001ada4       ??_C@_02ENLM@AM?$AA@       00615da4     LIBCMTD:strftime.obj
 0002:0001ada8       ??_C@_08LIDF@December?$AA@ 00615da8     LIBCMTD:strftime.obj
 0002:0001adb4       ??_C@_08NJLI@November?$AA@ 00615db4     LIBCMTD:strftime.obj
 0002:0001adc0       ??_C@_07IAMM@October?$AA@  00615dc0     LIBCMTD:strftime.obj
 0002:0001adc8       ??_C@_09MKGD@September?$AA@ 00615dc8     LIBCMTD:strftime.obj
 0002:0001add4       ??_C@_06PADP@August?$AA@   00615dd4     LIBCMTD:strftime.obj
 0002:0001addc       ??_C@_04PIJO@July?$AA@     00615ddc     LIBCMTD:strftime.obj
 0002:0001ade4       ??_C@_04ICFP@June?$AA@     00615de4     LIBCMTD:strftime.obj
 0002:0001adec       ??_C@_05JFGC@April?$AA@    00615dec     LIBCMTD:strftime.obj
 0002:0001adf4       ??_C@_05FGPD@March?$AA@    00615df4     LIBCMTD:strftime.obj
 0002:0001adfc       ??_C@_08PGBA@February?$AA@ 00615dfc     LIBCMTD:strftime.obj
 0002:0001ae08       ??_C@_07BPKJ@January?$AA@  00615e08     LIBCMTD:strftime.obj
 0002:0001ae10       ??_C@_03PGJO@Dec?$AA@      00615e10     LIBCMTD:strftime.obj
 0002:0001ae14       ??_C@_03PDLM@Nov?$AA@      00615e14     LIBCMTD:strftime.obj
 0002:0001ae18       ??_C@_03BLHK@Oct?$AA@      00615e18     LIBCMTD:strftime.obj
 0002:0001ae1c       ??_C@_03DPFM@Sep?$AA@      00615e1c     LIBCMTD:strftime.obj
 0002:0001ae20       ??_C@_03CMCH@Aug?$AA@      00615e20     LIBCMTD:strftime.obj
 0002:0001ae24       ??_C@_03OBKI@Jul?$AA@      00615e24     LIBCMTD:strftime.obj
 0002:0001ae28       ??_C@_03LEIG@Jun?$AA@      00615e28     LIBCMTD:strftime.obj
 0002:0001ae2c       ??_C@_03MGHB@May?$AA@      00615e2c     LIBCMTD:strftime.obj
 0002:0001ae30       ??_C@_03MJJM@Apr?$AA@      00615e30     LIBCMTD:strftime.obj
 0002:0001ae34       ??_C@_03GNHA@Mar?$AA@      00615e34     LIBCMTD:strftime.obj
 0002:0001ae38       ??_C@_03PICE@Feb?$AA@      00615e38     LIBCMTD:strftime.obj
 0002:0001ae3c       ??_C@_03IEIF@Jan?$AA@      00615e3c     LIBCMTD:strftime.obj
 0002:0001ae40       ??_C@_08FAKH@Saturday?$AA@ 00615e40     LIBCMTD:strftime.obj
 0002:0001ae4c       ??_C@_06ONCK@Friday?$AA@   00615e4c     LIBCMTD:strftime.obj
 0002:0001ae54       ??_C@_08CCFO@Thursday?$AA@ 00615e54     LIBCMTD:strftime.obj
 0002:0001ae60       ??_C@_09PBIN@Wednesday?$AA@ 00615e60     LIBCMTD:strftime.obj
 0002:0001ae6c       ??_C@_07BMBC@Tuesday?$AA@  00615e6c     LIBCMTD:strftime.obj
 0002:0001ae74       ??_C@_06CHLK@Monday?$AA@   00615e74     LIBCMTD:strftime.obj
 0002:0001ae7c       ??_C@_06OOEM@Sunday?$AA@   00615e7c     LIBCMTD:strftime.obj
 0002:0001ae84       ??_C@_03MPKK@Sat?$AA@      00615e84     LIBCMTD:strftime.obj
 0002:0001ae88       ??_C@_03FINJ@Fri?$AA@      00615e88     LIBCMTD:strftime.obj
 0002:0001ae8c       ??_C@_03HIKC@Thu?$AA@      00615e8c     LIBCMTD:strftime.obj
 0002:0001ae90       ??_C@_03HECK@Wed?$AA@      00615e90     LIBCMTD:strftime.obj
 0002:0001ae94       ??_C@_03ECCP@Tue?$AA@      00615e94     LIBCMTD:strftime.obj
 0002:0001ae98       ??_C@_03PIEP@Mon?$AA@      00615e98     LIBCMTD:strftime.obj
 0002:0001ae9c       ??_C@_03FHEP@Sun?$AA@      00615e9c     LIBCMTD:strftime.obj
 0002:0001aea0       ??_C@_03MKGK@a?1p?$AA@     00615ea0     LIBCMTD:strftime.obj
 0002:0001aea4       ??_C@_05BDJK@am?1pm?$AA@   00615ea4     LIBCMTD:strftime.obj
 0002:0001aeac       ??_C@_0L@HKCB@inithelp?4c?$AA@ 00615eac     LIBCMTD:inithelp.obj
 0002:0001aed0       ??_C@_08EIOK@chsize?4c?$AA@ 00615ed0     LIBCMTD:chsize.obj
 0002:0001aedc       ??_C@_09NPGF@size?5?$DO?$DN?50?$AA@ 00615edc     LIBCMTD:chsize.obj
 0003:00000000       ___xc_a                    0061a000     LIBCMTD:crt0init.obj
 0003:00000104       ___xc_z                    0061a104     LIBCMTD:crt0init.obj
 0003:00000208       ___xi_a                    0061a208     LIBCMTD:crt0init.obj
 0003:0000041c       ___xi_z                    0061a41c     LIBCMTD:crt0init.obj
 0003:00000520       ___xp_a                    0061a520     LIBCMTD:crt0init.obj
 0003:00000728       ___xp_z                    0061a728     LIBCMTD:crt0init.obj
 0003:0000082c       ___xt_a                    0061a82c     LIBCMTD:crt0init.obj
 0003:00000930       ___xt_z                    0061a930     LIBCMTD:crt0init.obj
 0003:00000a40       ?__LINE__Var@?1??CL_CgameSystemCalls@@9@9 0061aa40     cl_cgame.obj
 0003:00000a50       _g_console_field_width     0061aa50     cl_console.obj
 0003:00000a54       _console_color             0061aa54     cl_console.obj
 0003:00000a68       _keynames                  0061aa68     cl_keys.obj
 0003:00000e74       ?__LINE__Var@?1??CL_RefMalloc@@9@9 0061ae74     cl_main.obj
 0003:00000e78       _svc_strings               0061ae78     cl_parse.obj
 0003:00001344       ?__LINE__Var@?1??SCR_DrawNamedPic@@9@9 0061b344     cl_scrn.obj
 0003:00001348       ?__LINE__Var@?1??CMod_LoadShaders@@9@9 0061b348     cm_load.obj
 0003:0000134c       ?__LINE__Var@?1??CMod_LoadSubmodels@@9@9 0061b34c     cm_load.obj
 0003:00001350       ?__LINE__Var@?1??CMod_LoadNodes@@9@9 0061b350     cm_load.obj
 0003:00001354       ?__LINE__Var@?1??CMod_LoadBrushes@@9@9 0061b354     cm_load.obj
 0003:00001358       ?__LINE__Var@?1??CMod_LoadLeafs@@9@9 0061b358     cm_load.obj
 0003:0000135c       ?__LINE__Var@?1??CMod_LoadPlanes@@9@9 0061b35c     cm_load.obj
 0003:00001360       ?__LINE__Var@?1??CMod_LoadLeafBrushes@@9@9 0061b360     cm_load.obj
 0003:00001364       ?__LINE__Var@?1??CMod_LoadLeafSurfaces@@9@9 0061b364     cm_load.obj
 0003:00001368       ?__LINE__Var@?1??CMod_LoadBrushSides@@9@9 0061b368     cm_load.obj
 0003:0000136c       ?__LINE__Var@?1??CMod_LoadEntityString@@9@9 0061b36c     cm_load.obj
 0003:00001370       ?__LINE__Var@?1??CMod_LoadVisibility@@9@9 0061b370     cm_load.obj
 0003:00001374       ?__LINE__Var@?1??CMod_LoadPatches@@9@9 0061b374     cm_load.obj
 0003:00001378       ?__LINE__Var@?1??CM_LoadMap@@9@9 0061b378     cm_load.obj
 0003:0000137c       ?__LINE__Var@?1??CM_GeneratePatchCollide@@9@9 0061b37c     cm_patch.obj
 0003:00001380       ?__LINE__Var@?1??CM_PatchCollideFromGrid@@9@9@32658a97 0061b380     cm_patch.obj
 0003:00001384       ?__LINE__Var@?1??AllocWinding@@9@9 0061b384     cm_polylib.obj
 0003:00001388       ?__LINE__Var@?1??CM_Trace@@9@9 0061b388     cm_trace.obj
 0003:0000138c       ?__LINE__Var@?1??Cmd_AddCommand@@9@9 0061b38c     cmd.obj
 0003:00001390       _demo_protocols            0061b390     common.obj
 0003:000013a0       _emptystring               0061b3a0     common.obj
 0003:000013c8       _numberstring              0061b3c8     common.obj
 0003:00001558       _cl_cdkey                  0061b558     common.obj
 0003:000015dc       ?__LINE__Var@?1??CopyString@@9@9 0061b5dc     common.obj
 0003:000015e0       ?__LINE__Var@?1??Hunk_AllocateTempMemory@@9@9 0061b5e0     common.obj
 0003:000015e4       ?__LINE__Var@?1??Com_GetRealEvent@@9@9 0061b5e4     common.obj
 0003:000015e8       ?__LINE__Var@?1??Cvar_Update@@9@9 0061b5e8     cvar.obj
 0003:000016a4       ?__LINE__Var@?1??FS_ListFilteredFiles@@9@9 0061b6a4     files.obj
 0003:000016a8       ?__LINE__Var@?1??Sys_ConcatenateFileLists@@9@9@4fe4095d 0061b6a8     files.obj
 0003:000016ac       ?__LINE__Var@?1??FS_SortFileList@@9@9 0061b6ac     files.obj
 0003:000016b0       ?__LINE__Var@?1??FS_AddGameDirectory@@9@9@4fe4095d 0061b6b0     files.obj
 0003:000016b4       ?__LINE__Var@?1??FS_LoadZipFile@@9@9@4fe4095d 0061b6b4     files.obj
 0003:00001708       _kbitmask                  0061b708     msg.obj
 0003:00001788       _entityStateFields         0061b788     msg.obj
 0003:000019f0       _playerStateFields         0061b9f0     msg.obj
 0003:00001c30       _msg_hData                 0061bc30     msg.obj
 0003:00002204       ?__LINE__Var@?1??MSG_WriteDeltaEntity@@9@9 0061c204     msg.obj
 0003:00002214       _axisDefault               0061c214     q_math.obj
 0003:00002238       _colorBlack                0061c238     q_math.obj
 0003:00002248       _colorRed                  0061c248     q_math.obj
 0003:00002258       _colorGreen                0061c258     q_math.obj
 0003:00002268       _colorBlue                 0061c268     q_math.obj
 0003:00002278       _colorYellow               0061c278     q_math.obj
 0003:00002288       _colorMagenta              0061c288     q_math.obj
 0003:00002298       _colorCyan                 0061c298     q_math.obj
 0003:000022a8       _colorWhite                0061c2a8     q_math.obj
 0003:000022b8       _colorLtGrey               0061c2b8     q_math.obj
 0003:000022c8       _colorMdGrey               0061c2c8     q_math.obj
 0003:000022d8       _colorDkGrey               0061c2d8     q_math.obj
 0003:000022e8       _g_color_table             0061c2e8     q_math.obj
 0003:00002368       _bytedirs                  0061c368     q_math.obj
 0003:00002cc8       ?__LINE__Var@?1??ProjectPointOnPlane@@9@9 0061ccc8     q_math.obj
 0003:00003004       ?__LINE__Var@?1??BotImport_GetMemory@@9@9 0061d004     sv_bot.obj
 0003:00003008       ?__LINE__Var@?1??BotImport_HunkAlloc@@9@9 0061d008     sv_bot.obj
 0003:0000300c       ?__LINE__Var@?1??SV_BotInitBotLib@@9@9 0061d00c     sv_bot.obj
 0003:00003068       ?__LINE__Var@?1??SV_WriteDownloadToClient@@9@9 0061d068     sv_client.obj
 0003:0000306c       ?__LINE__Var@?1??SV_Startup@@9@9 0061d06c     sv_init.obj
 0003:00003070       ?__LINE__Var@?1??SV_ChangeMaxClients@@9@9 0061d070     sv_init.obj
 0003:00003074       ?__LINE__Var@?1??SV_SpawnServer@@9@9 0061d074     sv_init.obj
 0003:00003078       ?__LINE__Var@?1??SV_Netchan_Transmit@@9@9 0061d078     sv_net_chan.obj
 0003:00004548       ?__LINE__Var@?1??unzlocal_SearchCentralDir@@9@9 0061e548     unzip.obj
 0003:0000454c       ?__LINE__Var@?1??unzReOpen@@9@9 0061e54c     unzip.obj
 0003:00004550       ?__LINE__Var@?1??unzOpen@@9@9 0061e550     unzip.obj
 0003:00004554       ?__LINE__Var@?1??unzOpenCurrentFile@@9@9 0061e554     unzip.obj
 0003:00004558       ?__LINE__Var@?1??zcalloc@@9@9@a3e7dc75 0061e558     unzip.obj
 0003:0000455c       ?__LINE__Var@?1??VM_LoadSymbols@@9@9 0061e55c     vm.obj
 0003:00004560       ?__LINE__Var@?1??VM_Create@@9@9 0061e560     vm.obj
 0003:00004564       ?__LINE__Var@?1??VM_VmProfile_f@@9@9 0061e564     vm.obj
 0003:0000456c       ?__LINE__Var@?1??VM_PrepareInterpreter@@9@9 0061e56c     vm_interpreted.obj
 0003:0000457c       ?__LINE__Var@?1??VM_Compile@@9@9 0061e57c     vm_x86.obj
 0003:00004608       _joyDirectionKeys          0061e608     win_input.obj
 0003:00004670       ?__LINE__Var@?1??Sys_ListFiles@@9@9 0061e670     win_main.obj
 0003:00004674       ?__LINE__Var@?1??Sys_GetClipboardData@@9@9 0061e674     win_main.obj
 0003:00004678       ?__LINE__Var@?1??Sys_GetEvent@@9@9 0061e678     win_main.obj
 0003:00004720       ?__LINE__Var@?1??GetBotLibAPI@@9@9 0061e720     botlib:be_interface.obj
 0003:00004724       ?__LINE__Var@?1??StringsMatch@@9@9 0061e724     botlib:be_ai_chat.obj
 0003:00004728       ?__LINE__Var@?1??BotMatchVariable@@9@9 0061e728     botlib:be_ai_chat.obj
 0003:0000472c       ?__LINE__Var@?1??BotExpandChatMessage@@9@9 0061e72c     botlib:be_ai_chat.obj
 0003:00004730       _iteminfo_fields           0061e730     botlib:be_ai_goal.obj
 0003:00004830       _iteminfo_struct           0061e830     botlib:be_ai_goal.obj
 0003:00004c78       _directives                0061ec78     botlib:l_precomp.obj
 0003:00004d18       _dollardirectives          0061ed18     botlib:l_precomp.obj
 0003:00004de8       _default_punctuations      0061ede8     botlib:l_script.obj
 0003:00005064       _nofaceflood               0061f064     botlib:be_aas_cluster.obj
 0003:00005068       _crctable                  0061f068     botlib:l_crc.obj
 0003:00005270       _r_vidModes                0061f270     renderer:tr_init.obj
 0003:0000533c       ?__LINE__Var@?1??R_Init@@9@9 0061f33c     renderer:tr_init.obj
 0003:00005380       _entitySurface             0061f380     renderer:tr_main.obj
 0003:00005384       ?__LINE__Var@?1??SurfIsOffscreen@@9@9@b428e97c 0061f384     renderer:tr_main.obj
 0003:00005388       ?__LINE__Var@?1??QGL_Init@@9@9 0061f388     renderer:win_qgl.obj
 0003:00005390       _gl_filter_min             0061f390     renderer:tr_image.obj
 0003:00005394       _gl_filter_max             0061f394     renderer:tr_image.obj
 0003:00005398       _modes                     0061f398     renderer:tr_image.obj
 0003:000053e0       _mipBlendColors            0061f3e0     renderer:tr_image.obj
 0003:00005420       ?__LINE__Var@?1??R_CreateImage@@9@9 0061f420     renderer:tr_image.obj
 0003:00005424       ?__LINE__Var@?1??RE_RegisterSkin@@9@9 0061f424     renderer:tr_image.obj
 0003:00005428       ?__LINE__Var@?1??R_InitSkins@@9@9 0061f428     renderer:tr_image.obj
 0003:0000543c       ?__LINE__Var@?1??R_IssueRenderCommands@@9@9 0061f43c     renderer:tr_cmds.obj
 0003:00005480       ?__LINE__Var@?1??GL_State@@9@9 0061f480     renderer:tr_backend.obj
 0003:00005484       ?__LINE__Var@?1??R_AllocModel@@9@9 0061f484     renderer:tr_model.obj
 0003:00005488       ?__LINE__Var@?1??R_LoadMD3@@9@9@aeee6f3a 0061f488     renderer:tr_model.obj
 0003:0000548c       ?__LINE__Var@?1??R_LoadMD4@@9@9@aeee6f3a 0061f48c     renderer:tr_model.obj
 0003:000054a8       _infoParms                 0061f4a8     renderer:tr_shader.obj
 0003:00005738       ?__LINE__Var@?1??GeneratePermanentShader@@9@9@8e5b0bbd 0061f738     renderer:tr_shader.obj
 0003:0000573c       ?__LINE__Var@?1??ScanAndLoadShaderFiles@@9@9@8e5b0bbd 0061f73c     renderer:tr_shader.obj
 0003:00005740       ?__LINE__Var@?1??R_DrawStripElements@@9@9@fb876b8b 0061f740     renderer:tr_shade.obj
 0003:00005748       ?__LINE__Var@?1??R_MovePatchSurfacesToHunk@@9@9 0061f748     renderer:tr_bsp.obj
 0003:0000574c       ?__LINE__Var@?1??R_LoadLightGrid@@9@9 0061f74c     renderer:tr_bsp.obj
 0003:00005750       ?__LINE__Var@?1??R_LoadEntities@@9@9 0061f750     renderer:tr_bsp.obj
 0003:00005754       ?__LINE__Var@?1??RE_LoadWorldMap@@9@9 0061f754     renderer:tr_bsp.obj
 0003:00005758       ?__LINE__Var@?1??R_LoadVisibility@@9@9@b0f4a98d 0061f758     renderer:tr_bsp.obj
 0003:0000575c       ?__LINE__Var@?1??R_LoadSurfaces@@9@9@b0f4a98d 0061f75c     renderer:tr_bsp.obj
 0003:00005760       ?__LINE__Var@?1??ParseFace@@9@9@b0f4a98d 0061f760     renderer:tr_bsp.obj
 0003:00005764       ?__LINE__Var@?1??ParseTriSurf@@9@9@b0f4a98d 0061f764     renderer:tr_bsp.obj
 0003:00005768       ?__LINE__Var@?1??ParseFlare@@9@9@b0f4a98d 0061f768     renderer:tr_bsp.obj
 0003:0000576c       ?__LINE__Var@?1??R_LoadSubmodels@@9@9@b0f4a98d 0061f76c     renderer:tr_bsp.obj
 0003:00005770       ?__LINE__Var@?1??R_LoadNodesAndLeafs@@9@9@b0f4a98d 0061f770     renderer:tr_bsp.obj
 0003:00005774       ?__LINE__Var@?1??R_LoadShaders@@9@9@b0f4a98d 0061f774     renderer:tr_bsp.obj
 0003:00005778       ?__LINE__Var@?1??R_LoadMarksurfaces@@9@9@b0f4a98d 0061f778     renderer:tr_bsp.obj
 0003:0000577c       ?__LINE__Var@?1??R_LoadPlanes@@9@9@b0f4a98d 0061f77c     renderer:tr_bsp.obj
 0003:00005780       ?__LINE__Var@?1??R_LoadFogs@@9@9@b0f4a98d 0061f780     renderer:tr_bsp.obj
 0003:00005784       ?__LINE__Var@?1??R_SetupEntityLightingGrid@@9@9@793fd756 0061f784     renderer:tr_light.obj
 0003:00005788       _rb_surfaceTable           0061f788     renderer:tr_surface.obj
 0003:000058a4       ?__LINE__Var@?1??R_BuildCloudData@@9@9 0061f8a4     renderer:tr_sky.obj
 0003:000058a8       _edgeVerts                 0061f8a8     renderer:tr_shade_calc.obj
 0003:000058d8       _lightOrigin               0061f8d8     renderer:tr_shade_calc.obj
 0003:00005924       __fltused                  0061f924     LIBCMTD:fpinit.obj
 0003:00005928       __ldused                   0061f928     LIBCMTD:fpinit.obj
 0003:0000592c       __FPinit                   0061f92c     LIBCMTD:fpinit.obj
 0003:00005930       __FPmtinit                 0061f930     LIBCMTD:fpinit.obj
 0003:00005934       __FPmtterm                 0061f934     LIBCMTD:fpinit.obj
 0003:000059b0       __crtDbgFlag               0061f9b0     LIBCMTD:dbgheap.obj
 0003:000059b8       __crtBreakAlloc            0061f9b8     LIBCMTD:dbgheap.obj
 0003:000059f0       __aexit_rtn                0061f9f0     LIBCMTD:wincrt0.obj
 0003:000059f4       ___app_type                0061f9f4     LIBCMTD:wincrt0.obj
 0003:00005a10       __half                     0061fa10     LIBCMTD:pow.obj
 0003:00005a20       __crtAssertBusy            0061fa20     LIBCMTD:dbgrpt.obj
 0003:00005a24       __CrtDbgMode               0061fa24     LIBCMTD:dbgrpt.obj
 0003:00005a30       __CrtDbgFile               0061fa30     LIBCMTD:dbgrpt.obj
 0003:00005a48       __cfltcvt_tab              0061fa48     LIBCMTD:cmiscdat.obj
 0003:00005a60       __pctype                   0061fa60     LIBCMTD:ctype.obj
 0003:00005a64       __pwctype                  0061fa64     LIBCMTD:ctype.obj
 0003:00005a68       __ctype                    0061fa68     LIBCMTD:ctype.obj
 0003:00005c6c       ___mb_cur_max              0061fc6c     LIBCMTD:nlsdata1.obj
 0003:00005c70       ___decimal_point           0061fc70     LIBCMTD:nlsdata1.obj
 0003:00005c74       ___decimal_point_length    0061fc74     LIBCMTD:nlsdata1.obj
 0003:00005c80       __iob                      0061fc80     LIBCMTD:_file.obj
 0003:00005fd8       __d_inf                    0061ffd8     LIBCMTD:util.obj
 0003:00005fe0       __d_ind                    0061ffe0     LIBCMTD:util.obj
 0003:00005fe8       __d_max                    0061ffe8     LIBCMTD:util.obj
 0003:00005ff0       __d_min                    0061fff0     LIBCMTD:util.obj
 0003:00005ff8       __d_mzero                  0061fff8     LIBCMTD:util.obj
 0003:00006020       __indefinite               00620020     LIBCMTD:87disp.obj
 0003:0000602a       __piby2                    0062002a     LIBCMTD:87disp.obj
 0003:00006050       __OP_ATAN2jmptab           00620050     LIBCMTD:87triga.obj
 0003:000060a0       __locktable                006200a0     LIBCMTD:mlock.obj
 0003:00006270       ___lc_category             00620270     LIBCMTD:setlocal.obj
 0003:000062b8       ___tlsindex                006202b8     LIBCMTD:tidtable.obj
 0003:000062bc       ___nullstring              006202bc     LIBCMTD:output.obj
 0003:000062c0       ___wnullstring             006202c0     LIBCMTD:output.obj
 0003:000062d0       __timezone                 006202d0     LIBCMTD:timeset.obj
 0003:000062d4       __daylight                 006202d4     LIBCMTD:timeset.obj
 0003:000062d8       __dstbias                  006202d8     LIBCMTD:timeset.obj
 0003:0000635c       __tzname                   0062035c     LIBCMTD:timeset.obj
 0003:00006384       __NLG_Destination          00620384     LIBCMTD:exsup.obj
 0003:00006394       __pfnAllocHook             00620394     LIBCMTD:dbghook.obj
 0003:00006398       __amblksiz                 00620398     LIBCMTD:heapinit.obj
 0003:0000639c       ___sbh_threshold           0062039c     LIBCMTD:sbheap.obj
 0003:00006508       ___badioinfo               00620508     LIBCMTD:ioinit.obj
 0003:00006530       __XcptActTab               00620530     LIBCMTD:winxfltr.obj
 0003:000065a8       __First_FPE_Indx           006205a8     LIBCMTD:winxfltr.obj
 0003:000065ac       __Num_FPE                  006205ac     LIBCMTD:winxfltr.obj
 0003:000065b0       __XcptActTabSize           006205b0     LIBCMTD:winxfltr.obj
 0003:000065b4       __XcptActTabCount          006205b4     LIBCMTD:winxfltr.obj
 0003:00006650       __infinity                 00620650     LIBCMTD:87tran.obj
 0003:0000665a       __minfinity                0062065a     LIBCMTD:87tran.obj
 0003:00006664       __logemax                  00620664     LIBCMTD:87tran.obj
 0003:0000668a       __OP_EXPjmptab             0062068a     LIBCMTD:87tran.obj
 0003:000066e0       __matherr_flag             006206e0     LIBCMTD:matherr.obj
 0003:000066f0       ___rgLocInfo               006206f0     LIBCMTD:getqloc.obj
 0003:00006b94       ___rglangidNotDefault      00620b94     LIBCMTD:getqloc.obj
 0003:00006ba8       ___rg_country              00620ba8     LIBCMTD:getqloc.obj
 0003:00006c60       ___rg_language             00620c60     LIBCMTD:getqloc.obj
 0003:00006e68       __lpdays                   00620e68     LIBCMTD:days.obj
 0003:00006e9c       __days                     00620e9c     LIBCMTD:days.obj
 0003:00007130       ___lc_time_curr            00621130     LIBCMTD:strftime.obj
 0003:00007138       ___lc_time_c               00621138     LIBCMTD:strftime.obj
 0003:000071e8       ___lconv_static_decimal    006211e8     LIBCMTD:lconv.obj
 0003:000071f0       ___lconv_c                 006211f0     LIBCMTD:lconv.obj
 0003:00007220       ___lconv                   00621220     LIBCMTD:lconv.obj
 0003:00007230       __pow10pos                 00621230     LIBCMTD:constpow.obj
 0003:00007390       __pow10neg                 00621390     LIBCMTD:constpow.obj
 0003:0039e74c       _newsize                   009b874c     cl_net_chan.obj
 0003:004b87fc       _oldsize                   00ad27fc     msg.obj
 0003:004bbd64       _vec3_origin               00ad5d64     q_math.obj
 0003:004e4908       _s_numSfx                  00afe908     snd_dma.obj
 0003:004e7690       _sfxScratchBuffer          00b01690     snd_mem.obj
 0003:004e7694       _sfxScratchPointer         00b01694     snd_mem.obj
 0003:004e7698       _sfxScratchIndex           00b01698     snd_mem.obj
 0003:004f14d4       _gvm                       00b0b4d4     sv_main.obj
 0003:004f19dc       _currentVM                 00b0b9dc     vm.obj
 0003:004f19e0       _lastVM                    00b0b9e0     vm.obj
 0003:004f2518       _fh                        00b0c518     win_main.obj
 0003:004f46d4       _botlibsetup               00b0e6d4     botlib:be_interface.obj
 0003:004f46d8       _consolemessageheap        00b0e6d8     botlib:be_ai_chat.obj
 0003:004f46dc       _freeconsolemessages       00b0e6dc     botlib:be_ai_chat.obj
 0003:004f46e0       _matchtemplates            00b0e6e0     botlib:be_ai_chat.obj
 0003:004f46e4       _synonyms                  00b0e6e4     botlib:be_ai_chat.obj
 0003:004f46e8       _randomstrings             00b0e6e8     botlib:be_ai_chat.obj
 0003:004f46ec       _replychats                00b0e6ec     botlib:be_ai_chat.obj
 0003:004f46f0       _itemconfig                00b0e6f0     botlib:be_ai_goal.obj
 0003:004f46f4       _levelitemheap             00b0e6f4     botlib:be_ai_goal.obj
 0003:004f46f8       _freelevelitems            00b0e6f8     botlib:be_ai_goal.obj
 0003:004f46fc       _levelitems                00b0e6fc     botlib:be_ai_goal.obj
 0003:004f4700       _numlevelitems             00b0e700     botlib:be_ai_goal.obj
 0003:004f4704       _maplocations              00b0e704     botlib:be_ai_goal.obj
 0003:004f4708       _campspots                 00b0e708     botlib:be_ai_goal.obj
 0003:004f470c       _g_gametype                00b0e70c     botlib:be_ai_goal.obj
 0003:004f4710       _droppedweight             00b0e710     botlib:be_ai_goal.obj
 0003:00565928       ___fastflag                00b7f928     LIBCMTD:fpinit.obj
 0003:0056592c       __adjust_fdiv              00b7f92c     LIBCMTD:fpinit.obj
 0003:00565978       __umaskval                 00b7f978     LIBCMTD:crt0dat.obj
 0003:0056597c       __osver                    00b7f97c     LIBCMTD:crt0dat.obj
 0003:00565980       __winver                   00b7f980     LIBCMTD:crt0dat.obj
 0003:00565984       __winmajor                 00b7f984     LIBCMTD:crt0dat.obj
 0003:00565988       __winminor                 00b7f988     LIBCMTD:crt0dat.obj
 0003:0056598c       ___argc                    00b7f98c     LIBCMTD:crt0dat.obj
 0003:00565990       ___argv                    00b7f990     LIBCMTD:crt0dat.obj
 0003:00565994       ___wargv                   00b7f994     LIBCMTD:crt0dat.obj
 0003:00565998       __environ                  00b7f998     LIBCMTD:crt0dat.obj
 0003:0056599c       ___initenv                 00b7f99c     LIBCMTD:crt0dat.obj
 0003:005659a0       __wenviron                 00b7f9a0     LIBCMTD:crt0dat.obj
 0003:005659a4       ___winitenv                00b7f9a4     LIBCMTD:crt0dat.obj
 0003:005659a8       __pgmptr                   00b7f9a8     LIBCMTD:crt0dat.obj
 0003:005659ac       __wpgmptr                  00b7f9ac     LIBCMTD:crt0dat.obj
 0003:005659b0       __exitflag                 00b7f9b0     LIBCMTD:crt0dat.obj
 0003:005659b4       __C_Termination_Done       00b7f9b4     LIBCMTD:crt0dat.obj
 0003:005659b8       __C_Exit_Done              00b7f9b8     LIBCMTD:crt0dat.obj
 0003:005659c0       __aenvptr                  00b7f9c0     LIBCMTD:wincrt0.obj
 0003:005659c4       __wenvptr                  00b7f9c4     LIBCMTD:wincrt0.obj
 0003:005659c8       ___error_mode              00b7f9c8     LIBCMTD:wincrt0.obj
 0003:005659fc       __cflush                   00b7f9fc     LIBCMTD:_file.obj
 0003:00565a6c       ___lc_handle               00b7fa6c     LIBCMTD:nlsdata2.obj
 0003:00565a84       ___lc_codepage             00b7fa84     LIBCMTD:nlsdata2.obj
 0003:00565a88       ___lc_collate_cp           00b7fa88     LIBCMTD:nlsdata2.obj
 0003:00565a90       __stdbuf                   00b7fa90     LIBCMTD:_sftbuf.obj
 0003:00565b7c       __newmode                  00b7fb7c     LIBCMTD:_newmode.obj
 0003:00565b80       ?_pnhHeap@@3P6AHI@ZA       00b7fb80     LIBCMTD:handler.obj
 0003:00565c8c       __adbgmsg                  00b7fc8c     LIBCMTD:crt0msg.obj
 0003:00565c94       ___lc_time_intl            00b7fc94     LIBCMTD:inittime.obj
 0003:00565cb0       ___lc_id                   00b7fcb0     LIBCMTD:nlsdata3.obj
 0003:00565d00       __commode                  00b7fd00     LIBCMTD:ncommode.obj
 0003:00565d0c       ___lconv_static_null       00b7fd0c     LIBCMTD:lconv.obj
 0003:00565d14       __fmode                    00b7fd14     LIBCMTD:txtmode.obj
 0003:00565d28       _vid_xpos                  00b7fd28     <common>
 0003:00565d5c       _vid_ypos                  00b7fd5c     <common>
 0003:00565d60       _r_fullscreen              00b7fd60     <common>
 0003:00565d80       _g_wv                      00b7fd80     <common>
 0003:00565e30       _pDirectSoundCreate        00b7fe30     <common>
 0003:00565e3c       _sys_timeBase              00b7fe3c     <common>
 0003:00565e48       _recvfromCount             00b7fe48     <common>
 0003:00565e60       _sys_packetReceived        00b7fe60     <common>
 0003:0056b004       _eventTail                 00b85004     <common>
 0003:0056b020       _eventQue                  00b85020     <common>
 0003:0056c820       _countMsec                 00b86820     <common>
 0003:0056c824       _eventHead                 00b86824     <common>
 0003:0056c828       _totalMsec                 00b86828     <common>
 0003:0056c82c       _in_appactive              00b8682c     <common>
 0003:0056c844       _in_joystick               00b86844     <common>
 0003:0056c848       _in_logitechbug            00b86848     <common>
 0003:0056c84c       _in_joyBallScale           00b8684c     <common>
 0003:0056c850       _in_midiport               00b86850     <common>
 0003:0056c854       _in_midi                   00b86854     <common>
 0003:0056c858       _in_mouse                  00b86858     <common>
 0003:0056c85c       _joy_threshold             00b8685c     <common>
 0003:0056c860       _in_mididevice             00b86860     <common>
 0003:0056c864       _in_debugJoystick          00b86864     <common>
 0003:0056c868       _pDirectInputCreate        00b86868     <common>
 0003:0056c86c       _in_midichannel            00b8686c     <common>
 0003:0056c870       _vm_debugLevel             00b86870     <common>
 0003:0056c900       _vmTable                   00b86900     <common>
 0003:0056cb64       _sv_numworldSectors        00b86b64     <common>
 0003:0056cc80       _sv_worldSectors           00b86c80     <common>
 0003:0056d180       _sv_pure                   00b87180     <common>
 0003:0057e5c0       _sv_serverid               00b985c0     <common>
 0003:0057e5c4       _sv_privatePassword        00b985c4     <common>
 0003:0057e5c8       _sv_strictAuth             00b985c8     <common>
 0003:0057e5cc       _sv_minPing                00b985cc     <common>
 0003:0057e5d0       _sv_maxPing                00b985d0     <common>
 0003:0057e5d4       _sv_mapChecksum            00b985d4     <common>
 0003:0057e5d8       _sv_floodProtect           00b985d8     <common>
 0003:0057e5dc       _sv_gametype               00b985dc     <common>
 0003:0057e5e0       _sv_maxclients             00b985e0     <common>
 0003:0057e5e4       _sv_reconnectlimit         00b985e4     <common>
 0003:0057e5e8       _sv_rconPassword           00b985e8     <common>
 0003:0057e5ec       _sv_maxRate                00b985ec     <common>
 0003:0057e600       _svs                       00b98600     <common>
 0003:00588660       _sv                        00ba2660     <common>
 0003:005d4aa0       _sv_timeout                00beeaa0     <common>
 0003:005d4aa4       _sv_privateClients         00beeaa4     <common>
 0003:005d4ac0       _sv_master                 00beeac0     <common>
 0003:005d4ad4       _sv_padPackets             00beead4     <common>
 0003:005d4ad8       _sv_showloss               00beead8     <common>
 0003:005d4adc       _sv_lanForceRate           00beeadc     <common>
 0003:005d4ae0       _sv_mapname                00beeae0     <common>
 0003:005d4ae4       _sv_hostname               00beeae4     <common>
 0003:005d4ae8       _sv_allowDownload          00beeae8     <common>
 0003:005d4aec       _sv_killserver             00beeaec     <common>
 0003:005d4af0       _sv_zombietime             00beeaf0     <common>
 0003:005d4af4       _sv_fps                    00beeaf4     <common>
 0003:005d4af8       _botlib_export             00beeaf8     <common>
 0003:005d4b04       _bot_maxdebugpolys         00beeb04     <common>
 0003:005d4b14       _bot_enable                00beeb14     <common>
 0003:005d4b20       _mulawToShort              00beeb20     <common>
 0003:005d4d90       _snd_linear_count          00beed90     <common>
 0003:005d4da0       _snd_out                   00beeda0     <common>
 0003:005d4da4       _snd_p                     00beeda4     <common>
 0003:005d4da8       _s_khz                     00beeda8     <common>
 0003:005ef060       _dma                       00c09060     <common>
 0003:005ef078       _s_show                    00c09078     <common>
 0003:005ef07c       _s_doppler                 00c0907c     <common>
 0003:005ef080       _numLoopChannels           00c09080     <common>
 0003:005ef0a0       _s_knownSfx                00c090a0     <common>
 0003:0064f0a0       _s_volume                  00c690a0     <common>
 0003:0064f0c0       _s_channels                00c690c0     <common>
 0003:00650740       _s_rawsamples              00c6a740     <common>
 0003:00670740       _loop_channels             00c8a740     <common>
 0003:00671dc0       _s_mixPreStep              00c8bdc0     <common>
 0003:00671dc4       _s_soundtime               00c8bdc4     <common>
 0003:00671dc8       _s_separation              00c8bdc8     <common>
 0003:00671dcc       _s_rawend                  00c8bdcc     <common>
 0003:00671dd0       _s_paintedtime             00c8bdd0     <common>
 0003:00671dd4       _s_testsound               00c8bdd4     <common>
 0003:00671dd8       _s_mixahead                00c8bdd8     <common>
 0003:00671ddc       _s_musicVolume             00c8bddc     <common>
 0003:00671de0       _loopbacks                 00c8bde0     <common>
 0003:0067f098       _showdrop                  00c99098     <common>
 0003:0067f09c       _qport                     00c9909c     <common>
 0003:0067f0a0       _showpackets               00c990a0     <common>
 0003:0067f0c0       _pcount                    00c990c0     <common>
 0003:0067f598       _overflows                 00c99598     <common>
 0003:0067f5a0       _lastValidBase             00c995a0     <common>
 0003:0067f720       _lastValidGame             00c99720     <common>
 0003:0067f820       _cvar_cheats               00c99820     <common>
 0003:00681b80       _cvar_indexes              00c9bb80     <common>
 0003:0068cb80       _cvar_modifiedFlags        00ca6b80     <common>
 0003:0068cb84       _cvar_vars                 00ca6b84     <common>
 0003:0068cb88       _cvar_numIndexes           00ca6b88     <common>
 0003:0068cb8c       _com_viewlog               00ca6b8c     <common>
 0003:0068cf38       _com_developer             00ca6f38     <common>
 0003:0068cf3c       _com_dedicated             00ca6f3c     <common>
 0003:0068cf40       _com_cl_running            00ca6f40     <common>
 0003:0068cf60       _abortframe                00ca6f60     <common>
 0003:0068cfa0       _com_cameraMode            00ca6fa0     <common>
 0003:0068cfc0       _com_consoleLines          00ca6fc0     <common>
 0003:0068d040       _com_maxfps                00ca7040     <common>
 0003:0068d044       _com_blood                 00ca7044     <common>
 0003:0068d048       _com_version               00ca7048     <common>
 0003:0068d04c       _debuglogfile              00ca704c     <common>
 0003:0068d050       _time_game                 00ca7050     <common>
 0003:0068d054       _com_introPlayed           00ca7054     <common>
 0003:0068d058       _com_noErrorInterrupt      00ca7058     <common>
 0003:0068d05c       _com_showtrace             00ca705c     <common>
 0003:0068d060       _mainzone                  00ca7060     <common>
 0003:0068d064       _com_journal               00ca7064     <common>
 0003:0068d068       _com_fixedtime             00ca7068     <common>
 0003:0068d06c       _com_logfile               00ca706c     <common>
 0003:0068d070       _com_frameMsec             00ca7070     <common>
 0003:0068d074       _com_timedemo              00ca7074     <common>
 0003:0068d078       _com_speeds                00ca7078     <common>
 0003:0068d07c       _com_sv_running            00ca707c     <common>
 0003:0068d080       _com_argc                  00ca7080     <common>
 0003:0068d084       _smallzone                 00ca7084     <common>
 0003:0068d0a0       _com_argv                  00ca70a0     <common>
 0003:0068d16c       _com_fullyInitialized      00ca716c     <common>
 0003:0068d170       _time_backend              00ca7170     <common>
 0003:0068d174       _com_numConsoleLines       00ca7174     <common>
 0003:0068d178       _com_frameTime             00ca7178     <common>
 0003:0068d17c       _com_journalFile           00ca717c     <common>
 0003:0068d180       _com_timescale             00ca7180     <common>
 0003:0068d1a0       _com_errorMessage          00ca71a0     <common>
 0003:0068e1a0       _com_journalDataFile       00ca81a0     <common>
 0003:0068e1a4       _com_errorEntered          00ca81a4     <common>
 0003:0068e1a8       _com_dropsim               00ca81a8     <common>
 0003:0068e1ac       _time_frontend             00ca81ac     <common>
 0003:0068e1b0       _com_frameNumber           00ca81b0     <common>
 0003:0068e1b4       _cl_paused                 00ca81b4     <common>
 0003:0068e1b8       _com_buildScript           00ca81b8     <common>
 0003:0068e1bc       _sv_paused                 00ca81bc     <common>
 0003:0068e1c0       _cmd_text                  00ca81c0     <common>
 0003:0068eea4       _cmd_wait                  00ca8ea4     <common>
 0003:0068eec0       _cmd_text_buf              00ca8ec0     <common>
 0003:00692ec0       _c_winding_points          00cacec0     <common>
 0003:00692ed0       _c_active_windings         00caced0     <common>
 0003:00692ed4       _c_winding_allocs          00caced4     <common>
 0003:00692ed8       _c_peak_windings           00caced8     <common>
 0003:00692edc       _c_removed                 00cacedc     <common>
 0003:00692ee0       _c_totalPatchSurfaces      00cacee0     <common>
 0003:00692ef0       _c_totalPatchEdges         00cacef0     <common>
 0003:00692ef4       _c_totalPatchBlocks        00cacef4     <common>
 0003:00692f00       _box_model                 00cacf00     <common>
 0003:00692f70       _cm_noCurves               00cacf70     <common>
 0003:00692f74       _c_pointcontents           00cacf74     <common>
 0003:00692f80       _cm                        00cacf80     <common>
 0003:0069303c       _c_patch_traces            00cad03c     <common>
 0003:00693040       _c_traces                  00cad040     <common>
 0003:00693044       _cmod_base                 00cad044     <common>
 0003:00693048       _box_brush                 00cad048     <common>
 0003:0069304c       _c_brush_traces            00cad04c     <common>
 0003:00693050       _box_planes                00cad050     <common>
 0003:00693054       _cm_noAreas                00cad054     <common>
 0003:00693058       _cm_playerCurveClip        00cad058     <common>
 0003:0069305c       _uivm                      00cad05c     <common>
 0003:00693068       _cl_debuggraph             00cad068     <common>
 0003:00693078       _cl_timegraph              00cad078     <common>
 0003:0069307c       _cl_graphscale             00cad07c     <common>
 0003:00693080       _cl_graphshift             00cad080     <common>
 0003:00693084       _cl_graphheight            00cad084     <common>
 0003:00693088       _scr_initialized           00cad088     <common>
 0003:0069308c       _cl_connectedToPureServer  00cad08c     <common>
 0003:00693098       _cl_sensitivity            00cad098     <common>
 0003:006e78a8       _cl_freelook               00d018a8     <common>
 0003:006e78ac       _rconAddress               00d018ac     <common>
 0003:006e78b0       _cl_packetdup              00d018b0     <common>
 0003:006e78c0       _clc                       00d018c0     <common>
 0003:007103bc       _m_pitch                   00d2a3bc     <common>
 0003:007103c0       _cls                       00d2a3c0     <common>
 0003:007bfd84       _cl_activeAction           00dd9d84     <common>
 0003:007bfd88       _cl_forceavidemo           00dd9d88     <common>
 0003:007bfd8c       _cl_shownet                00dd9d8c     <common>
 0003:007bfd90       _cl_debugMove              00dd9d90     <common>
 0003:007bfd94       _cl_showSend               00dd9d94     <common>
 0003:007bfd98       _cl_timeout                00dd9d98     <common>
 0003:007bfd9c       _m_filter                  00dd9d9c     <common>
 0003:007bfda0       _cl_allowDownload          00dd9da0     <common>
 0003:007bfda4       _cl_maxpackets             00dd9da4     <common>
 0003:007bfda8       _cl_trn                    00dd9da8     <common>
 0003:007bfdc0       _cl_serverStatusList       00dd9dc0     <common>
 0003:007e0040       _cl_timedemo               00dfa040     <common>
 0003:007e0044       _cl_serverStatusResendTime 00dfa044     <common>
 0003:007e0048       _cl_inGameVideo            00dfa048     <common>
 0003:007e004c       _cl_conXOffset             00dfa04c     <common>
 0003:007e0060       _cl                        00dfa060     <common>
 0003:00885ca8       _m_side                    00e9fca8     <common>
 0003:00885cac       _rcon_client_password      00e9fcac     <common>
 0003:00885cb0       _cl_avidemo                00e9fcb0     <common>
 0003:00885cb4       _cl_freezeDemo             00e9fcb4     <common>
 0003:00885cc0       _re                        00e9fcc0     <common>
 0003:00885d34       _cl_motd                   00e9fd34     <common>
 0003:00885d38       _m_yaw                     00e9fd38     <common>
 0003:00885d3c       _cl_motdString             00e9fd3c     <common>
 0003:00885d40       _cl_mouseAccel             00e9fd40     <common>
 0003:00885d44       _m_forward                 00e9fd44     <common>
 0003:00885d48       _cgvm                      00e9fd48     <common>
 0003:00885d4c       _serverStatusCount         00e9fd4c     <common>
 0003:00885d60       _cl_pinglist               00e9fd60     <common>
 0003:0088e0e0       _cl_timeNudge              00ea80e0     <common>
 0003:0088e0e4       _cl_showMouseRate          00ea80e4     <common>
 0003:0088e0e8       _cl_showTimeDelta          00ea80e8     <common>
 0003:0088e0ec       _cl_nodelta                00ea80ec     <common>
 0003:0088e0f0       _cl_noprint                00ea80f0     <common>
 0003:0088e100       _historyEditLines          00ea8100     <common>
 0003:00890c20       _keys                      00eaac20     <common>
 0003:00891820       _chatField                 00eab820     <common>
 0003:0089192c       _anykeydown                00eab92c     <common>
 0003:00891940       _g_consoleField            00eab940     <common>
 0003:00891a4c       _key_overstrikeMode        00eaba4c     <common>
 0003:00891a50       _nextHistoryLine           00eaba50     <common>
 0003:00891a54       _historyLine               00eaba54     <common>
 0003:00891a58       _chat_team                 00eaba58     <common>
 0003:00891a5c       _chat_playerNum            00eaba5c     <common>
 0003:00891a60       _in_lookdown               00eaba60     <common>
 0003:00891b20       _in_speed                  00eabb20     <common>
 0003:00891b38       _old_com_frameTime         00eabb38     <common>
 0003:00891b40       _in_up                     00eabb40     <common>
 0003:00891b58       _cl_forwardspeed           00eabb58     <common>
 0003:00891b5c       _cl_run                    00eabb5c     <common>
 0003:00891b60       _in_down                   00eabb60     <common>
 0003:00891b78       _frame_msec                00eabb78     <common>
 0003:00891b7c       _cl_yawspeed               00eabb7c     <common>
 0003:00891b80       _in_forward                00eabb80     <common>
 0003:00891ba0       _in_left                   00eabba0     <common>
 0003:00891bc0       _in_right                  00eabbc0     <common>
 0003:00891be0       _in_moveleft               00eabbe0     <common>
 0003:00891c00       _in_lookup                 00eabc00     <common>
 0003:00891c20       _in_strafe                 00eabc20     <common>
 0003:00891c40       _in_moveright              00eabc40     <common>
 0003:00891c58       _cl_sidespeed              00eabc58     <common>
 0003:00891c60       _in_back                   00eabc60     <common>
 0003:00891c78       _in_mlooking               00eabc78     <common>
 0003:00891c80       _in_buttons                00eabc80     <common>
 0003:00891e00       _cl_upspeed                00eabe00     <common>
 0003:00891e04       _cl_pitchspeed             00eabe04     <common>
 0003:00891e08       _cl_anglespeedkey          00eabe08     <common>
 0003:00891e0c       _con_notifytime            00eabe0c     <common>
 0003:00895160       _con                       00eaf160     <common>
 0003:008a51a8       _con_conspeed              00ebf1a8     <common>
 0003:008a51c0       _basefolder                00ebf1c0     <common>
 0003:008a5220       _bspworld                  00ebf220     <common>
 0003:008a78a4       _areareachability          00ec18a4     <common>
 0003:008a78c4       _reach_ladder              00ec18c4     <common>
 0003:008a78c8       _numlreachabilities        00ec18c8     <common>
 0003:008a78cc       _calcgrapplereach          00ec18cc     <common>
 0003:008a78d0       _reach_bfgjump             00ec18d0     <common>
 0003:008a78d4       _reach_elevator            00ec18d4     <common>
 0003:008a78d8       _reachabilityheap          00ec18d8     <common>
 0003:008a78dc       _reach_jump                00ec18dc     <common>
 0003:008a78e0       _reach_grapple             00ec18e0     <common>
 0003:008a78e4       _reach_waterjump           00ec18e4     <common>
 0003:008a78e8       _reach_teleport            00ec18e8     <common>
 0003:008a78ec       _reach_doublejump          00ec18ec     <common>
 0003:008a78f0       _reach_funcbob             00ec18f0     <common>
 0003:008a78f4       _reach_barrier             00ec18f4     <common>
 0003:008a78f8       _reach_swim                00ec18f8     <common>
 0003:008a78fc       _reach_rampjump            00ec18fc     <common>
 0003:008a7900       _reach_equalfloor          00ec1900     <common>
 0003:008a7904       _reach_strafejump          00ec1904     <common>
 0003:008a7908       _nextreachability          00ec1908     <common>
 0003:008a790c       _reach_jumppad             00ec190c     <common>
 0003:008a7910       _reach_walkoffledge        00ec1910     <common>
 0003:008a7914       _reach_rocketjump          00ec1914     <common>
 0003:008a7918       _reach_step                00ec1918     <common>
 0003:008a791c       _reach_walk                00ec191c     <common>
 0003:008a7920       _numclusterareas           00ec1920     <common>
 0003:008a7930       _midrangeareas             00ec1930     <common>
 0003:008a7934       _clusterareas              00ec1934     <common>
 0003:008a7940       _aassettings               00ec1940     <common>
 0003:008a7a04       _numaaslinks               00ec1a04     <common>
 0003:008a7a10       _numportalcacheupdates     00ec1a10     <common>
 0003:008a7a20       _max_routingcachesize      00ec1a20     <common>
 0003:008a7a24       _numareacacheupdates       00ec1a24     <common>
 0003:008a7a28       _routingcachesize          00ec1a28     <common>
 0003:008a7a2c       _numdebuglines             00ec1a2c     <common>
 0003:008a80a0       _debuglinevisible          00ec20a0     <common>
 0003:008a90a0       _debuglines                00ec30a0     <common>
 0003:008aa0a0       _weightFileList            00ec40a0     <common>
 0003:008aa320       _botcharacters             00ec4320     <common>
 0003:008aa460       _totalmemorysize           00ec4460     <common>
 0003:008aa470       _numblocks                 00ec4470     <common>
 0003:008aa474       _allocatedmemory           00ec4474     <common>
 0003:008aa478       _numtokens                 00ec4478     <common>
 0003:008aa4b8       _globaldefines             00ec44b8     <common>
 0003:008aa4c0       _sourceFiles               00ec44c0     <common>
 0003:008aa5c0       _libvarlist                00ec45c0     <common>
 0003:008aa5cc       _saveroutingcache          00ec45cc     <common>
 0003:008aa980       _aasworld                  00ec4980     <common>
 0003:008abb64       _botinputs                 00ec5b64     <common>
 0003:008abb80       _botgoalstates             00ec5b80     <common>
 0003:008abcc0       _ichatdata                 00ec5cc0     <common>
 0003:008abe40       _botchatstates             00ec5e40     <common>
 0003:008abf44       _weapindex_rocketlauncher  00ec5f44     <common>
 0003:008ac060       _botmovestates             00ec6060     <common>
 0003:008ac164       _offhandgrapple            00ec6164     <common>
 0003:008ac168       _sv_maxbarrier             00ec6168     <common>
 0003:008ac16c       _weapindex_bfg10k          00ec616c     <common>
 0003:008ac170       _sv_maxstep                00ec6170     <common>
 0003:008ac174       _entitytypemissile         00ec6174     <common>
 0003:008ac178       _weapindex_grapple         00ec6178     <common>
 0003:008ac17c       _cmd_grappleoff            00ec617c     <common>
 0003:008ac180       _modeltypes                00ec6180     <common>
 0003:008ac580       _sv_gravity                00ec6580     <common>
 0003:008ac584       _cmd_grappleon             00ec6584     <common>
 0003:008ac588       _bot_developer             00ec6588     <common>
 0003:008ac620       _be_botlib_export          00ec6620     <common>
 0003:008ac840       _botimport                 00ec6840     <common>
 0003:008ac8a0       _botlibglobals             00ec68a0     <common>
 0003:008ac8c8       _r_activeFlares            00ec68c8     <common>
 0003:008aced8       _r_inactiveFlares          00ec6ed8     <common>
 0003:008acee0       _r_flareStructs            00ec6ee0     <common>
 0003:008aece0       _c_subdivisions            00ec8ce0     <common>
 0003:008aecf0       _c_gridVerts               00ec8cf0     <common>
 0003:008aed00       _glw_state                 00ec8d00     <common>
 0003:008aed44       _renderActiveEvent         00ec8d44     <common>
 0003:008aed48       _r_maskMinidriver          00ec8d48     <common>
 0003:008aed4c       _renderThreadHandle        00ec8d4c     <common>
 0003:008aed50       _glimpRenderThread         00ec8d50     <common>
 0003:008aed54       _renderCompletedEvent      00ec8d54     <common>
 0003:008aed58       _renderThreadId            00ec8d58     <common>
 0003:008aed5c       _renderCommandsEvent       00ec8d5c     <common>
 0003:008aed60       _r_allowSoftwareGL         00ec8d60     <common>
 0003:008aed80       _tess                      00ec8d80     <common>
 0003:008cd534       _r_firstSceneDrawSurf      00ee7534     <common>
 0003:008cd548       _r_firstSceneDlight        00ee7548     <common>
 0003:008cd54c       _r_numpolys                00ee754c     <common>
 0003:008cd550       _r_firstSceneEntity        00ee7550     <common>
 0003:008cd554       _r_numpolyverts            00ee7554     <common>
 0003:008cd558       _r_firstScenePoly          00ee7558     <common>
 0003:008cd55c       _r_numentities             00ee755c     <common>
 0003:008cd560       _r_numdlights              00ee7560     <common>
 0003:008cd564       _loadmodel                 00ee7564     <common>
 0003:008cd570       _backEndData               00ee7570     <common>
 0003:008cd6a0       _backEnd                   00ee76a0     <common>
 0003:008cdbac       _c_blockedOnRender         00ee7bac     <common>
 0003:008cdbbc       _renderCommandList         00ee7bbc     <common>
 0003:008cdbc0       _renderThreadActive        00ee7bc0     <common>
 0003:008cdbc4       _c_blockedOnMain           00ee7bc4     <common>
 0003:008cdbc8       _qglRasterPos4sv           00ee7bc8     <common>
 0003:008cdcfc       _qglListBase               00ee7cfc     <common>
 0003:008cdd00       _qglLightModelf            00ee7d00     <common>
 0003:008cdd04       _qglLightModeli            00ee7d04     <common>
 0003:008cdd08       _qglRectdv                 00ee7d08     <common>
 0003:008cdd0c       _qglGenLists               00ee7d0c     <common>
 0003:008cdd10       _qglRectfv                 00ee7d10     <common>
 0003:008cdd14       _qglTexGend                00ee7d14     <common>
 0003:008cdd18       _qglColor3uiv              00ee7d18     <common>
 0003:008cdd1c       _qglPixelMapfv             00ee7d1c     <common>
 0003:008cdd20       _qglRasterPos2sv           00ee7d20     <common>
 0003:008cdd24       _qglRotatef                00ee7d24     <common>
 0003:008cdd28       _qglRotated                00ee7d28     <common>
 0003:008cdd2c       _qglGetPolygonStipple      00ee7d2c     <common>
 0003:008cdd30       _qglPixelMapusv            00ee7d30     <common>
 0003:008cdd34       _qglClearIndex             00ee7d34     <common>
 0003:008cdd38       _qglRasterPos3sv           00ee7d38     <common>
 0003:008cdd3c       _qglColor3ubv              00ee7d3c     <common>
 0003:008cdd40       _qglFrustum                00ee7d40     <common>
 0003:008cdd44       _qglGetMapdv               00ee7d44     <common>
 0003:008cdd48       _qglRasterPos4dv           00ee7d48     <common>
 0003:008cdd4c       _qglRasterPos3iv           00ee7d4c     <common>
 0003:008cdd50       _qglReadPixels             00ee7d50     <common>
 0003:008cdd54       _qglRasterPos4fv           00ee7d54     <common>
 0003:008cdd58       _qglGetMapiv               00ee7d58     <common>
 0003:008cdd5c       _qglDrawPixels             00ee7d5c     <common>
 0003:008cdd60       _qglTexEnvf                00ee7d60     <common>
 0003:008cdd64       _qglRectsv                 00ee7d64     <common>
 0003:008cdd68       _qglTexEnvi                00ee7d68     <common>
 0003:008cdd6c       _qglRasterPos4iv           00ee7d6c     <common>
 0003:008cdd70       _qglPushClientAttrib       00ee7d70     <common>
 0003:008cdd74       _qglGetMapfv               00ee7d74     <common>
 0003:008cdd78       _qglLoadIdentity           00ee7d78     <common>
 0003:008cdd7c       _qglTexGeni                00ee7d7c     <common>
 0003:008cdd80       _qglTexGenf                00ee7d80     <common>
 0003:008cdd84       _qglRasterPos2dv           00ee7d84     <common>
 0003:008cdd88       _qglRectiv                 00ee7d88     <common>
 0003:008cdd8c       _qglEndList                00ee7d8c     <common>
 0003:008cdd90       _qglRasterPos2fv           00ee7d90     <common>
 0003:008cdd94       _qglRasterPos3dv           00ee7d94     <common>
 0003:008cdd98       _qglRasterPos2iv           00ee7d98     <common>
 0003:008cdd9c       _qglPixelMapuiv            00ee7d9c     <common>
 0003:008cdda0       _qglRasterPos3fv           00ee7da0     <common>
 0003:008cdda4       _qglReadBuffer             00ee7da4     <common>
 0003:008cdda8       _qglRectd                  00ee7da8     <common>
 0003:008cddac       _qglNormal3sv              00ee7dac     <common>
 0003:008cddb0       _qglRectf                  00ee7db0     <common>
 0003:008cddb4       _qglColor4usv              00ee7db4     <common>
 0003:008cddb8       _qglDrawElements           00ee7db8     <common>
 0003:008cddbc       _qglEnable                 00ee7dbc     <common>
 0003:008cddc0       _qglTexParameterfv         00ee7dc0     <common>
 0003:008cddc4       _qglCopyTexImage1D         00ee7dc4     <common>
 0003:008cddc8       _qglRects                  00ee7dc8     <common>
 0003:008cddcc       _qglCopyTexImage2D         00ee7dcc     <common>
 0003:008cddd0       _qglPopName                00ee7dd0     <common>
 0003:008cddd4       _qglRecti                  00ee7dd4     <common>
 0003:008cddd8       _qglTexParameteriv         00ee7dd8     <common>
 0003:008cdddc       _qglDepthFunc              00ee7ddc     <common>
 0003:008cdde0       _qglColor4b                00ee7de0     <common>
 0003:008cdde4       _qglColor3f                00ee7de4     <common>
 0003:008cdde8       _dllRenderMode             00ee7de8     <common>
 0003:008cddec       _qglVertexPointer          00ee7dec     <common>
 0003:008cddf0       _qglColor4d                00ee7df0     <common>
 0003:008cddf4       _qwglGetDeviceGammaRamp3DFX 00ee7df4     <common>
 0003:008cddf8       _qglColor4f                00ee7df8     <common>
 0003:008cddfc       _qglColor3i                00ee7dfc     <common>
 0003:008cde00       _qglColor4i                00ee7e00     <common>
 0003:008cde04       _qglColor3s                00ee7e04     <common>
 0003:008cde08       _qglColor4s                00ee7e08     <common>
 0003:008cde0c       _qglEvalPoint1             00ee7e0c     <common>
 0003:008cde10       _qglEvalPoint2             00ee7e10     <common>
 0003:008cde14       _qglNormal3iv              00ee7e14     <common>
 0003:008cde18       _qglEnd                    00ee7e18     <common>
 0003:008cde1c       _qglNormal3dv              00ee7e1c     <common>
 0003:008cde20       _qglSelectBuffer           00ee7e20     <common>
 0003:008cde24       _qglNormal3fv              00ee7e24     <common>
 0003:008cde28       _qglIndexMask              00ee7e28     <common>
 0003:008cde2c       _qglGetFloatv              00ee7e2c     <common>
 0003:008cde30       _qglNormal3bv              00ee7e30     <common>
 0003:008cde34       _qglPopClientAttrib        00ee7e34     <common>
 0003:008cde38       _qglColor4uiv              00ee7e38     <common>
 0003:008cde3c       _qglDepthRange             00ee7e3c     <common>
 0003:008cde40       _qglGetTexImage            00ee7e40     <common>
 0003:008cde44       _qglFeedbackBuffer         00ee7e44     <common>
 0003:008cde48       _qglColor4ubv              00ee7e48     <common>
 0003:008cde4c       _qglLoadMatrixf            00ee7e4c     <common>
 0003:008cde50       _qglLoadMatrixd            00ee7e50     <common>
 0003:008cde54       _qglColor3usv              00ee7e54     <common>
 0003:008cde58       _qwglGetCurrentContext     00ee7e58     <common>
 0003:008cde5c       _dllIsEnabled              00ee7e5c     <common>
 0003:008cde60       _qglScaled                 00ee7e60     <common>
 0003:008cde64       _qglAreTexturesResident    00ee7e64     <common>
 0003:008cde68       _qglScalef                 00ee7e68     <common>
 0003:008cde6c       _qglGetIntegerv            00ee7e6c     <common>
 0003:008cde70       _qglColorMaterial          00ee7e70     <common>
 0003:008cde74       _qglIsList                 00ee7e74     <common>
 0003:008cde78       _qglGetTexGeniv            00ee7e78     <common>
 0003:008cde7c       _dllGenLists               00ee7e7c     <common>
 0003:008cde80       _qglClearAccum             00ee7e80     <common>
 0003:008cde84       _qglGetTexGenfv            00ee7e84     <common>
 0003:008cde88       _qglAlphaFunc              00ee7e88     <common>
 0003:008cde8c       _qglGetTexGendv            00ee7e8c     <common>
 0003:008cde90       _qglMaterialiv             00ee7e90     <common>
 0003:008cde94       _qglNewList                00ee7e94     <common>
 0003:008cde98       _qglStencilMask            00ee7e98     <common>
 0003:008cde9c       _qglLineWidth              00ee7e9c     <common>
 0003:008cdea0       _qwglCreateContext         00ee7ea0     <common>
 0003:008cdea4       _qglMaterialfv             00ee7ea4     <common>
 0003:008cdea8       _qglPushMatrix             00ee7ea8     <common>
 0003:008cdeac       _qglMatrixMode             00ee7eac     <common>
 0003:008cdeb0       _qwglCreateLayerContext    00ee7eb0     <common>
 0003:008cdeb4       _qwglGetLayerPaletteEntries 00ee7eb4     <common>
 0003:008cdeb8       _qglRasterPos2s            00ee7eb8     <common>
 0003:008cdebc       _qglPolygonOffset          00ee7ebc     <common>
 0003:008cdec0       _qglRasterPos3s            00ee7ec0     <common>
 0003:008cdec4       _qglClearDepth             00ee7ec4     <common>
 0003:008cdec8       _qglStencilFunc            00ee7ec8     <common>
 0003:008cdecc       _qglRasterPos4s            00ee7ecc     <common>
 0003:008cded0       _qwglRealizeLayerPalette   00ee7ed0     <common>
 0003:008cded4       _qglLoadName               00ee7ed4     <common>
 0003:008cded8       _qglIndexdv                00ee7ed8     <common>
 0003:008cdedc       _qwglSetPixelFormat        00ee7edc     <common>
 0003:008cdee0       _qwglChoosePixelFormat     00ee7ee0     <common>
 0003:008cdee4       _qglClearStencil           00ee7ee4     <common>
 0003:008cdee8       _qglArrayElement           00ee7ee8     <common>
 0003:008cdeec       _qglStencilOp              00ee7eec     <common>
 0003:008cdef0       _qglGetError               00ee7ef0     <common>
 0003:008cdef4       _qglIndexPointer           00ee7ef4     <common>
 0003:008cdef8       _qglTexImage1D             00ee7ef8     <common>
 0003:008cdefc       _qglTexImage2D             00ee7efc     <common>
 0003:008cdf00       _qglEvalCoord2dv           00ee7f00     <common>
 0003:008cdf04       _qglGetMaterialiv          00ee7f04     <common>
 0003:008cdf08       _qglMap1f                  00ee7f08     <common>
 0003:008cdf0c       _qglIndexub                00ee7f0c     <common>
 0003:008cdf10       _qglOrtho                  00ee7f10     <common>
 0003:008cdf14       _qglPolygonMode            00ee7f14     <common>
 0003:008cdf18       _qglMap2d                  00ee7f18     <common>
 0003:008cdf1c       _qglGetMaterialfv          00ee7f1c     <common>
 0003:008cdf20       _qglEvalCoord1fv           00ee7f20     <common>
 0003:008cdf24       _qglMap2f                  00ee7f24     <common>
 0003:008cdf28       _qglTexCoordPointer        00ee7f28     <common>
 0003:008cdf2c       _qwglDescribeLayerPlane    00ee7f2c     <common>
 0003:008cdf30       _qglIndexsv                00ee7f30     <common>
 0003:008cdf34       _qglPushName               00ee7f34     <common>
 0003:008cdf38       _qwglGetPixelFormat        00ee7f38     <common>
 0003:008cdf3c       _qglEvalCoord2fv           00ee7f3c     <common>
 0003:008cdf40       _qglIndexfv                00ee7f40     <common>
 0003:008cdf44       _qglEdgeFlagv              00ee7f44     <common>
 0003:008cdf48       _qglIndexiv                00ee7f48     <common>
 0003:008cdf4c       _qglRasterPos2f            00ee7f4c     <common>
 0003:008cdf50       _qglRasterPos2d            00ee7f50     <common>
 0003:008cdf54       _qglEvalCoord1dv           00ee7f54     <common>
 0003:008cdf58       _qglRasterPos3f            00ee7f58     <common>
 0003:008cdf5c       _qglRasterPos2i            00ee7f5c     <common>
 0003:008cdf60       _qglRasterPos3d            00ee7f60     <common>
 0003:008cdf64       _qglMap1d                  00ee7f64     <common>
 0003:008cdf68       _qglGetTexParameteriv      00ee7f68     <common>
 0003:008cdf6c       _qglRasterPos4f            00ee7f6c     <common>
 0003:008cdf70       _qglRasterPos3i            00ee7f70     <common>
 0003:008cdf74       _qglRasterPos4d            00ee7f74     <common>
 0003:008cdf78       _qglGetTexParameterfv      00ee7f78     <common>
 0003:008cdf7c       _qglRasterPos4i            00ee7f7c     <common>
 0003:008cdf80       _qglVertex2sv              00ee7f80     <common>
 0003:008cdf84       _qglTexCoord4fv            00ee7f84     <common>
 0003:008cdf88       _qglGetLightfv             00ee7f88     <common>
 0003:008cdf8c       _qglTexCoord1sv            00ee7f8c     <common>
 0003:008cdf90       _qglVertex4iv              00ee7f90     <common>
 0003:008cdf94       _qglEdgeFlagPointer        00ee7f94     <common>
 0003:008cdf98       _qglBindTexture            00ee7f98     <common>
 0003:008cdf9c       _qglTexCoord4iv            00ee7f9c     <common>
 0003:008cdfa0       _qglTexCoord3fv            00ee7fa0     <common>
 0003:008cdfa4       _qglTexCoord4dv            00ee7fa4     <common>
 0003:008cdfa8       _qglVertex3iv              00ee7fa8     <common>
 0003:008cdfac       _qglNormalPointer          00ee7fac     <common>
 0003:008cdfb0       _qglVertex4fv              00ee7fb0     <common>
 0003:008cdfb4       _qglTexCoord3iv            00ee7fb4     <common>
 0003:008cdfb8       _qglIndexubv               00ee7fb8     <common>
 0003:008cdfbc       _qglTexCoord2fv            00ee7fbc     <common>
 0003:008cdfc0       _qglVertex4dv              00ee7fc0     <common>
 0003:008cdfc4       _qglTexCoord3dv            00ee7fc4     <common>
 0003:008cdfc8       _qglVertex2iv              00ee7fc8     <common>
 0003:008cdfcc       _qglTexCoord2iv            00ee7fcc     <common>
 0003:008cdfd0       _qglCallLists              00ee7fd0     <common>
 0003:008cdfd4       _qglVertex3fv              00ee7fd4     <common>
 0003:008cdfd8       _qglTranslated             00ee7fd8     <common>
 0003:008cdfdc       _qglAccum                  00ee7fdc     <common>
 0003:008cdfe0       _qglTranslatef             00ee7fe0     <common>
 0003:008cdfe4       _qglTexCoord1fv            00ee7fe4     <common>
 0003:008cdfe8       _qglVertex3dv              00ee7fe8     <common>
 0003:008cdfec       _qglVertex2fv              00ee7fec     <common>
 0003:008cdff0       _qglTexParameterf          00ee7ff0     <common>
 0003:008cdff4       _qglTexParameteri          00ee7ff4     <common>
 0003:008cdff8       _qglTexCoord2dv            00ee7ff8     <common>
 0003:008cdffc       _qglGetLightiv             00ee7ffc     <common>
 0003:008ce000       _qglTexCoord1iv            00ee8000     <common>
 0003:008ce004       _qglVertex2dv              00ee8004     <common>
 0003:008ce008       _qglMultMatrixf            00ee8008     <common>
 0003:008ce00c       _qglGetDoublev             00ee800c     <common>
 0003:008ce010       _qglColorPointer           00ee8010     <common>
 0003:008ce014       _qglTexCoord1dv            00ee8014     <common>
 0003:008ce018       _qglGenTextures            00ee8018     <common>
 0003:008ce01c       _qglLighti                 00ee801c     <common>
 0003:008ce020       _qglLightf                 00ee8020     <common>
 0003:008ce024       _dllIsList                 00ee8024     <common>
 0003:008ce028       _qwglDescribePixelFormat   00ee8028     <common>
 0003:008ce02c       _qglMapGrid2f              00ee802c     <common>
 0003:008ce030       _qglMapGrid2d              00ee8030     <common>
 0003:008ce034       _qglMapGrid1f              00ee8034     <common>
 0003:008ce038       _qglMultMatrixd            00ee8038     <common>
 0003:008ce03c       _qglMapGrid1d              00ee803c     <common>
 0003:008ce040       _qglColorMask              00ee8040     <common>
 0003:008ce044       _qglGetTexEnviv            00ee8044     <common>
 0003:008ce048       _qglRenderMode             00ee8048     <common>
 0003:008ce04c       _qglPushAttrib             00ee804c     <common>
 0003:008ce050       _qglGetPointerv            00ee8050     <common>
 0003:008ce054       _qglCopyPixels             00ee8054     <common>
 0003:008ce058       _qglClear                  00ee8058     <common>
 0003:008ce05c       _qglGetTexEnvfv            00ee805c     <common>
 0003:008ce060       _qglGetBooleanv            00ee8060     <common>
 0003:008ce064       _qglEdgeFlag               00ee8064     <common>
 0003:008ce068       _qglBlendFunc              00ee8068     <common>
 0003:008ce06c       _qglLightModeliv           00ee806c     <common>
 0003:008ce070       _qwglGetProcAddress        00ee8070     <common>
 0003:008ce074       _qwglUseFontOutlines       00ee8074     <common>
 0003:008ce078       _qglPointSize              00ee8078     <common>
 0003:008ce07c       _qwglSwapIntervalEXT       00ee807c     <common>
 0003:008ce080       _dllIsTexture              00ee8080     <common>
 0003:008ce084       _qglViewport               00ee8084     <common>
 0003:008ce088       _qglTexSubImage1D          00ee8088     <common>
 0003:008ce08c       _qglGetString              00ee808c     <common>
 0003:008ce090       _qglTexSubImage2D          00ee8090     <common>
 0003:008ce094       _qglFogfv                  00ee8094     <common>
 0003:008ce098       _qglLightModelfv           00ee8098     <common>
 0003:008ce09c       _qglFogiv                  00ee809c     <common>
 0003:008ce0a0       _qglIndexd                 00ee80a0     <common>
 0003:008ce0a4       _qglIndexi                 00ee80a4     <common>
 0003:008ce0a8       _qglIndexf                 00ee80a8     <common>
 0003:008ce0ac       _qglTexGenfv               00ee80ac     <common>
 0003:008ce0b0       _qglIndexs                 00ee80b0     <common>
 0003:008ce0b4       _qglTexCoord4sv            00ee80b4     <common>
 0003:008ce0b8       _qglCopyTexSubImage2D      00ee80b8     <common>
 0003:008ce0bc       _qglCopyTexSubImage1D      00ee80bc     <common>
 0003:008ce0c0       _qglTexGeniv               00ee80c0     <common>
 0003:008ce0c4       _qglGetPixelMapfv          00ee80c4     <common>
 0003:008ce0c8       _qglVertex4sv              00ee80c8     <common>
 0003:008ce0cc       _qglFlush                  00ee80cc     <common>
 0003:008ce0d0       _qglTexCoord3sv            00ee80d0     <common>
 0003:008ce0d4       _qglPopMatrix              00ee80d4     <common>
 0003:008ce0d8       _qglPopAttrib              00ee80d8     <common>
 0003:008ce0dc       _qglPixelZoom              00ee80dc     <common>
 0003:008ce0e0       _qglTexGendv               00ee80e0     <common>
 0003:008ce0e4       _qwglCopyContext           00ee80e4     <common>
 0003:008ce0e8       _qglDeleteTextures         00ee80e8     <common>
 0003:008ce0ec       _qglDisableClientState     00ee80ec     <common>
 0003:008ce0f0       _dllAreTexturesResident    00ee80f0     <common>
 0003:008ce0f4       _qglVertex3sv              00ee80f4     <common>
 0003:008ce0f8       _qwglGetCurrentDC          00ee80f8     <common>
 0003:008ce0fc       _qwglSwapLayerBuffers      00ee80fc     <common>
 0003:008ce100       _qglTexCoord2sv            00ee8100     <common>
 0003:008ce104       _qglBitmap                 00ee8104     <common>
 0003:008ce108       _qglColor4us               00ee8108     <common>
 0003:008ce10c       _qglColor3sv               00ee810c     <common>
 0003:008ce110       _qwglUseFontBitmaps        00ee8110     <common>
 0003:008ce114       _qglColor3ui               00ee8114     <common>
 0003:008ce118       _qglColor3ub               00ee8118     <common>
 0003:008ce11c       _qglColor4sv               00ee811c     <common>
 0003:008ce120       _qglColor4ui               00ee8120     <common>
 0003:008ce124       _qglGetPixelMapusv         00ee8124     <common>
 0003:008ce128       _qglColor3us               00ee8128     <common>
 0003:008ce12c       _qglColor4ub               00ee812c     <common>
 0003:008ce130       _qglDrawBuffer             00ee8130     <common>
 0003:008ce134       _qglClipPlane              00ee8134     <common>
 0003:008ce138       _qglEvalCoord2f            00ee8138     <common>
 0003:008ce13c       _qglFogi                   00ee813c     <common>
 0003:008ce140       _qglCallList               00ee8140     <common>
 0003:008ce144       _qwglSetDeviceGammaRamp3DFX 00ee8144     <common>
 0003:008ce148       _qglEvalCoord2d            00ee8148     <common>
 0003:008ce14c       _qglEvalCoord1f            00ee814c     <common>
 0003:008ce150       _qglColor3b                00ee8150     <common>
 0003:008ce154       _qglFogf                   00ee8154     <common>
 0003:008ce158       _qglEvalCoord1d            00ee8158     <common>
 0003:008ce15c       _qglColor3d                00ee815c     <common>
 0003:008ce160       _qglLogicOp                00ee8160     <common>
 0003:008ce164       _qglIsTexture              00ee8164     <common>
 0003:008ce168       _qglFrontFace              00ee8168     <common>
 0003:008ce16c       _qglInterleavedArrays      00ee816c     <common>
 0003:008ce170       _qglGetTexLevelParameterfv 00ee8170     <common>
 0003:008ce174       _qglGetTexLevelParameteriv 00ee8174     <common>
 0003:008ce178       _qglInitNames              00ee8178     <common>
 0003:008ce17c       _qwglSwapBuffers           00ee817c     <common>
 0003:008ce180       _qglDrawArrays             00ee8180     <common>
 0003:008ce184       _qglCullFace               00ee8184     <common>
 0003:008ce188       _qglLightfv                00ee8188     <common>
 0003:008ce18c       _qglClearColor             00ee818c     <common>
 0003:008ce190       _qglScissor                00ee8190     <common>
 0003:008ce194       _qglLightiv                00ee8194     <common>
 0003:008ce198       _qglVertex4s               00ee8198     <common>
 0003:008ce19c       _qglVertex3s               00ee819c     <common>
 0003:008ce1a0       _qglTexEnviv               00ee81a0     <common>
 0003:008ce1a4       _qglNormal3d               00ee81a4     <common>
 0003:008ce1a8       _qglShadeModel             00ee81a8     <common>
 0003:008ce1ac       _qglNormal3b               00ee81ac     <common>
 0003:008ce1b0       _qwglDeleteContext         00ee81b0     <common>
 0003:008ce1b4       _qglIsEnabled              00ee81b4     <common>
 0003:008ce1b8       _qglNormal3f               00ee81b8     <common>
 0003:008ce1bc       _qglEnableClientState      00ee81bc     <common>
 0003:008ce1c0       _qglVertex4d               00ee81c0     <common>
 0003:008ce1c4       _qglVertex3i               00ee81c4     <common>
 0003:008ce1c8       _qglVertex4f               00ee81c8     <common>
 0003:008ce1cc       _qglVertex3d               00ee81cc     <common>
 0003:008ce1d0       _qglVertex2i               00ee81d0     <common>
 0003:008ce1d4       _dllGetError               00ee81d4     <common>
 0003:008ce1d8       _qglVertex3f               00ee81d8     <common>
 0003:008ce1dc       _qglVertex2s               00ee81dc     <common>
 0003:008ce1e0       _qglMateriali              00ee81e0     <common>
 0003:008ce1e4       _qglTexEnvfv               00ee81e4     <common>
 0003:008ce1e8       _qglMaterialf              00ee81e8     <common>
 0003:008ce1ec       _qwglShareLists            00ee81ec     <common>
 0003:008ce1f0       _qglVertex4i               00ee81f0     <common>
 0003:008ce1f4       _qglGetClipPlane           00ee81f4     <common>
 0003:008ce1f8       _qglEvalMesh2              00ee81f8     <common>
 0003:008ce1fc       _qglEvalMesh1              00ee81fc     <common>
 0003:008ce200       _qglVertex2d               00ee8200     <common>
 0003:008ce204       _qglPolygonStipple         00ee8204     <common>
 0003:008ce208       _qglVertex2f               00ee8208     <common>
 0003:008ce20c       _qglHint                   00ee820c     <common>
 0003:008ce210       _qglDisable                00ee8210     <common>
 0003:008ce214       _qglFinish                 00ee8214     <common>
 0003:008ce218       _qwglSetLayerPaletteEntries 00ee8218     <common>
 0003:008ce21c       _qglPixelStorei            00ee821c     <common>
 0003:008ce220       _qglColor4fv               00ee8220     <common>
 0003:008ce224       _qglPixelStoref            00ee8224     <common>
 0003:008ce228       _qglPixelTransferf         00ee8228     <common>
 0003:008ce22c       _qglColor3iv               00ee822c     <common>
 0003:008ce230       _qglPixelTransferi         00ee8230     <common>
 0003:008ce234       _qglColor4dv               00ee8234     <common>
 0003:008ce238       _qglPassThrough            00ee8238     <common>
 0003:008ce23c       _qglColor4iv               00ee823c     <common>
 0003:008ce240       _qwglMakeCurrent           00ee8240     <common>
 0003:008ce244       _qglGetPixelMapuiv         00ee8244     <common>
 0003:008ce248       _qglTexCoord3s             00ee8248     <common>
 0003:008ce24c       _qglBegin                  00ee824c     <common>
 0003:008ce250       _qglDeleteLists            00ee8250     <common>
 0003:008ce254       _qglTexCoord4s             00ee8254     <common>
 0003:008ce258       _qglPrioritizeTextures     00ee8258     <common>
 0003:008ce25c       _qglLineStipple            00ee825c     <common>
 0003:008ce260       _qglColor3bv               00ee8260     <common>
 0003:008ce264       _qglTexCoord1s             00ee8264     <common>
 0003:008ce268       _dllGetString              00ee8268     <common>
 0003:008ce26c       _qglTexCoord3i             00ee826c     <common>
 0003:008ce270       _qglTexCoord4f             00ee8270     <common>
 0003:008ce274       _qglTexCoord2s             00ee8274     <common>
 0003:008ce278       _qglTexCoord4i             00ee8278     <common>
 0003:008ce27c       _qglTexCoord3d             00ee827c     <common>
 0003:008ce280       _qglTexCoord1i             00ee8280     <common>
 0003:008ce284       _qglNormal3i               00ee8284     <common>
 0003:008ce288       _qglTexCoord2f             00ee8288     <common>
 0003:008ce28c       _qglTexCoord4d             00ee828c     <common>
 0003:008ce290       _qglColor4bv               00ee8290     <common>
 0003:008ce294       _qglColor3fv               00ee8294     <common>
 0003:008ce298       _qglTexCoord2i             00ee8298     <common>
 0003:008ce29c       _qglTexCoord3f             00ee829c     <common>
 0003:008ce2a0       _qglNormal3s               00ee82a0     <common>
 0003:008ce2a4       _qglTexCoord1d             00ee82a4     <common>
 0003:008ce2a8       _qglTexCoord2d             00ee82a8     <common>
 0003:008ce2ac       _qglColor3dv               00ee82ac     <common>
 0003:008ce2b0       _qglTexCoord1f             00ee82b0     <common>
 0003:008ce2b4       _qglDepthMask              00ee82b4     <common>
 0003:008ce2c0       _ri                        00ee82c0     <common>
 0003:008d6960       _tr                        00ef0960     <common>
 0003:00900780       _r_showSmp                 00f1a780     <common>
 0003:009010bc       _r_ext_multitexture        00f1b0bc     <common>
 0003:009010c0       _r_offsetUnits             00f1b0c0     <common>
 0003:009010c4       _r_norefresh               00f1b0c4     <common>
 0003:009010c8       _r_overBrightBits          00f1b0c8     <common>
 0003:009010cc       _r_drawSun                 00f1b0cc     <common>
 0003:009010d0       _r_debugLight              00f1b0d0     <common>
 0003:009010d4       _r_allowExtensions         00f1b0d4     <common>
 0003:009010d8       _r_dynamiclight            00f1b0d8     <common>
 0003:009010dc       _r_shownormals             00f1b0dc     <common>
 0003:009010e0       _r_debugSurface            00f1b0e0     <common>
 0003:009010e4       _r_singleShader            00f1b0e4     <common>
 0003:009010e8       _r_showtris                00f1b0e8     <common>
 0003:009010ec       _qglMultiTexCoord2fARB     00f1b0ec     <common>
 0003:009010f0       _r_customaspect            00f1b0f0     <common>
 0003:009010f4       _r_textureMode             00f1b0f4     <common>
 0003:009010f8       _r_drawBuffer              00f1b0f8     <common>
 0003:009010fc       _r_picmip                  00f1b0fc     <common>
 0003:00901100       _max_polys                 00f1b100     <common>
 0003:00901104       _r_lodCurveError           00f1b104     <common>
 0003:00901108       _r_ignorehwgamma           00f1b108     <common>
 0003:0090110c       _r_flareSize               00f1b10c     <common>
 0003:00901110       _r_clear                   00f1b110     <common>
 0003:00901114       _r_finish                  00f1b114     <common>
 0003:00901118       _r_colorMipLevels          00f1b118     <common>
 0003:0090111c       _r_speeds                  00f1b11c     <common>
 0003:00901120       _r_subdivisions            00f1b120     <common>
 0003:00901124       _r_skipBackEnd             00f1b124     <common>
 0003:00901128       _r_swapInterval            00f1b128     <common>
 0003:0090112c       _r_colorbits               00f1b12c     <common>
 0003:00901130       _r_noportals               00f1b130     <common>
 0003:00901134       _r_flares                  00f1b134     <common>
 0003:00901138       _r_maxpolys                00f1b138     <common>
 0003:0090113c       _r_showImages              00f1b13c     <common>
 0003:00901140       _glConfig                  00f1b140     <common>
 0003:00903d84       _r_depthbits               00f1dd84     <common>
 0003:00903d88       _r_lightmap                00f1dd88     <common>
 0003:00903d8c       _r_saveFontData            00f1dd8c     <common>
 0003:00903d90       _r_facePlaneCull           00f1dd90     <common>
 0003:00903d94       _r_maxpolyverts            00f1dd94     <common>
 0003:00903d98       _r_ambientScale            00f1dd98     <common>
 0003:00903d9c       _r_ext_compressed_textures 00f1dd9c     <common>
 0003:00903da0       _r_primitives              00f1dda0     <common>
 0003:00903da4       _r_ignoreGLErrors          00f1dda4     <common>
 0003:00903da8       _r_logFile                 00f1dda8     <common>
 0003:00903dac       _r_glDriver                00f1ddac     <common>
 0003:00903db0       _r_ignoreFastPath          00f1ddb0     <common>
 0003:00903db4       _r_lodbias                 00f1ddb4     <common>
 0003:00903db8       _r_nocurves                00f1ddb8     <common>
 0003:00903dbc       _r_mapOverBrightBits       00f1ddbc     <common>
 0003:00903dc0       _r_stereo                  00f1ddc0     <common>
 0003:00903dc4       _r_verbose                 00f1ddc4     <common>
 0003:00903dc8       _r_znear                   00f1ddc8     <common>
 0003:00903dcc       _r_nobind                  00f1ddcc     <common>
 0003:00903dd0       _r_railWidth               00f1ddd0     <common>
 0003:00903dd4       _r_shadows                 00f1ddd4     <common>
 0003:00903dd8       _r_showcluster             00f1ddd8     <common>
 0003:00903ddc       _max_polyverts             00f1dddc     <common>
 0003:00903de0       _r_railCoreWidth           00f1dde0     <common>
 0003:00903de4       _qglActiveTextureARB       00f1dde4     <common>
 0003:00903de8       _r_inGameVideo             00f1dde8     <common>
 0003:00903dec       _r_customheight            00f1ddec     <common>
 0003:00903df0       _r_detailTextures          00f1ddf0     <common>
 0003:00903df4       _r_stencilbits             00f1ddf4     <common>
 0003:00903df8       _r_measureOverdraw         00f1ddf8     <common>
 0003:00903dfc       _r_showsky                 00f1ddfc     <common>
 0003:00903e00       _r_fastsky                 00f1de00     <common>
 0003:00903e04       _r_texturebits             00f1de04     <common>
 0003:00903e08       _r_ext_compiled_vertex_array 00f1de08     <common>
 0003:00903e0c       _qglClientActiveTextureARB 00f1de0c     <common>
 0003:00903e10       _r_portalOnly              00f1de10     <common>
 0003:00903e14       _r_uiFullScreen            00f1de14     <common>
 0003:00903e18       _r_displayRefresh          00f1de18     <common>
 0003:00903e1c       _r_novis                   00f1de1c     <common>
 0003:00903e20       _r_roundImagesDown         00f1de20     <common>
 0003:00903e24       _r_nocull                  00f1de24     <common>
 0003:00903e28       _r_gamma                   00f1de28     <common>
 0003:00903e2c       _r_mode                    00f1de2c     <common>
 0003:00903e30       _r_ext_gamma_control       00f1de30     <common>
 0003:00903e34       _r_customwidth             00f1de34     <common>
 0003:00903e38       _r_offsetFactor            00f1de38     <common>
 0003:00903e3c       _r_dlightBacks             00f1de3c     <common>
 0003:00903e40       _r_flareFade               00f1de40     <common>
 0003:00903e44       _r_debugSort               00f1de44     <common>
 0003:00903e48       _r_lodscale                00f1de48     <common>
 0003:00903e4c       _r_directedScale           00f1de4c     <common>
 0003:00903e50       _r_intensity               00f1de50     <common>
 0003:00903e54       _r_drawentities            00f1de54     <common>
 0003:00903e60       _glState                   00f1de60     <common>
 0003:00903e80       _r_ext_texture_env_add     00f1de80     <common>
 0003:00903e84       _r_smp                     00f1de84     <common>
 0003:00903e88       _r_printShaders            00f1de88     <common>
 0003:00903e8c       _r_vertexLight             00f1de8c     <common>
 0003:00903e90       _r_railSegmentLength       00f1de90     <common>
 0003:00903e94       _qglLockArraysEXT          00f1de94     <common>
 0003:00903e98       _r_simpleMipMaps           00f1de98     <common>
 0003:00903e9c       _r_fullbright              00f1de9c     <common>
 0003:00903ea0       _r_drawworld               00f1dea0     <common>
 0003:00903ea4       _r_lockpvs                 00f1dea4     <common>
 0003:00903ea8       _r_ignore                  00f1dea8     <common>
 0003:00903eac       _qglUnlockArraysEXT        00f1deac     <common>
 0003:00903eb0       ___alternate_form          00f1deb0     <common>
 0003:00903ec0       ___no_lead_zeros           00f1dec0     <common>
 0003:00903ec4       ___mbcodepage              00f1dec4     <common>
 0003:00903f40       ___mbulinfo                00f1df40     <common>
 0003:00903f4c       ___ismbcodepage            00f1df4c     <common>
 0003:00903f60       __mbcasemap                00f1df60     <common>
 0003:00904060       __mbctype                  00f1e060     <common>
 0003:00904164       ___mblcid                  00f1e164     <common>
 0003:00904180       ___pioinfo                 00f1e180     <common>
 0003:009042bc       __nhandle                  00f1e2bc     <common>
 0003:009042c0       ___sbh_sizeHeaderList      00f1e2c0     <common>
 0003:009042d0       ___sbh_indGroupDefer       00f1e2d0     <common>
 0003:009042d4       ___sbh_pHeaderScan         00f1e2d4     <common>
 0003:009042d8       ___sbh_pHeaderDefer        00f1e2d8     <common>
 0003:009042dc       ___sbh_cntHeaderList       00f1e2dc     <common>
 0003:009042e0       ___sbh_pHeaderList         00f1e2e0     <common>
 0003:009042e4       __crtheap                  00f1e2e4     <common>
 0003:009042f0       ___setlc_active            00f1e2f0     <common>
 0003:00904300       ___unguarded_readlc_active 00f1e300     <common>
 0003:00904304       ___piob                    00f1e304     <common>
 0003:00904660       __bufin                    00f1e660     <common>
 0003:00905660       __nstream                  00f1f660     <common>
 0003:00905664       __pfnReportHook            00f1f664     <common>
 0003:00905670       __acmdln                   00f1f670     <common>
 0003:0090567c       ___env_initialized         00f1f67c     <common>
 0003:0090568c       ___mbctype_initialized     00f1f68c     <common>
 0003:00905690       ___onexitend               00f1f690     <common>
 0003:00905694       ___onexitbegin             00f1f694     <common>
 0003:00905698       __pfnDumpClient            00f1f698     <common>
 0003:009056a4       __setjmpexused             00f1f6a4     <common>
 0004:00000000       __IMPORT_DESCRIPTOR_KERNEL32 00f20000     kernel32:KERNEL32.dll
 0004:00000014       __IMPORT_DESCRIPTOR_USER32 00f20014     user32:USER32.dll
 0004:00000028       __IMPORT_DESCRIPTOR_GDI32  00f20028     gdi32:GDI32.dll
 0004:0000003c       __IMPORT_DESCRIPTOR_ADVAPI32 00f2003c     advapi32:ADVAPI32.dll
 0004:00000050       __IMPORT_DESCRIPTOR_ole32  00f20050     ole32:ole32.dll
 0004:00000064       __IMPORT_DESCRIPTOR_WINMM  00f20064     winmm:WINMM.dll
 0004:00000078       __IMPORT_DESCRIPTOR_WSOCK32 00f20078     wsock32:WSOCK32.dll
 0004:0000008c       __NULL_IMPORT_DESCRIPTOR   00f2008c     kernel32:KERNEL32.dll
 0004:00000570       __imp__GetUserNameA@8      00f20570     advapi32:ADVAPI32.dll
 0004:00000574       \177ADVAPI32_NULL_THUNK_DATA 00f20574     advapi32:ADVAPI32.dll
 0004:000005a0       __imp__CreateFontA@56      00f205a0     gdi32:GDI32.dll
 0004:000005a4       __imp__SetDeviceGammaRamp@8 00f205a4     gdi32:GDI32.dll
 0004:000005a8       __imp__GetDeviceGammaRamp@8 00f205a8     gdi32:GDI32.dll
 0004:000005ac       __imp__SetTextColor@8      00f205ac     gdi32:GDI32.dll
 0004:000005b0       __imp__SetBkColor@8        00f205b0     gdi32:GDI32.dll
 0004:000005b4       __imp__CreateSolidBrush@4  00f205b4     gdi32:GDI32.dll
 0004:000005b8       __imp__GetDeviceCaps@8     00f205b8     gdi32:GDI32.dll
 0004:000005bc       __imp__DescribePixelFormat@16 00f205bc     gdi32:GDI32.dll
 0004:000005c0       __imp__SwapBuffers@4       00f205c0     gdi32:GDI32.dll
 0004:000005c4       __imp__SetPixelFormat@12   00f205c4     gdi32:GDI32.dll
 0004:000005c8       \177GDI32_NULL_THUNK_DATA  00f205c8     gdi32:GDI32.dll
 0004:000005fc       __imp__GlobalLock@4        00f205fc     kernel32:KERNEL32.dll
 0004:00000600       __imp__MulDiv@12           00f20600     kernel32:KERNEL32.dll
 0004:00000604       __imp__SetErrorMode@4      00f20604     kernel32:KERNEL32.dll
 0004:00000608       __imp__Sleep@4             00f20608     kernel32:KERNEL32.dll
 0004:0000060c       __imp__GetVersionExA@4     00f2060c     kernel32:KERNEL32.dll
 0004:00000610       __imp__GlobalMemoryStatus@4 00f20610     kernel32:KERNEL32.dll
 0004:00000614       __imp__LoadLibraryA@4      00f20614     kernel32:KERNEL32.dll
 0004:00000618       __imp__FreeLibrary@4       00f20618     kernel32:KERNEL32.dll
 0004:0000061c       __imp__GetDriveTypeA@4     00f2061c     kernel32:KERNEL32.dll
 0004:00000620       __imp__GlobalSize@4        00f20620     kernel32:KERNEL32.dll
 0004:00000624       __imp__GlobalUnlock@4      00f20624     kernel32:KERNEL32.dll
 0004:00000628       __imp__GetSystemDirectoryA@8 00f20628     kernel32:KERNEL32.dll
 0004:0000062c       __imp__IsBadReadPtr@8      00f2062c     kernel32:KERNEL32.dll
 0004:00000630       __imp__HeapValidate@12     00f20630     kernel32:KERNEL32.dll
 0004:00000634       __imp__SetFilePointer@16   00f20634     kernel32:KERNEL32.dll
 0004:00000638       __imp__VirtualAlloc@16     00f20638     kernel32:KERNEL32.dll
 0004:0000063c       __imp__RtlUnwind@16        00f2063c     kernel32:KERNEL32.dll
 0004:00000640       __imp__GetCurrentThread@0  00f20640     kernel32:KERNEL32.dll
 0004:00000644       __imp__TlsGetValue@4       00f20644     kernel32:KERNEL32.dll
 0004:00000648       __imp__SetLastError@4      00f20648     kernel32:KERNEL32.dll
 0004:0000064c       __imp__TlsFree@4           00f2064c     kernel32:KERNEL32.dll
 0004:00000650       __imp__TlsAlloc@0          00f20650     kernel32:KERNEL32.dll
 0004:00000654       __imp__TlsSetValue@8       00f20654     kernel32:KERNEL32.dll
 0004:00000658       __imp__GetCurrentThreadId@0 00f20658     kernel32:KERNEL32.dll
 0004:0000065c       __imp__LCMapStringW@24     00f2065c     kernel32:KERNEL32.dll
 0004:00000660       __imp__LCMapStringA@24     00f20660     kernel32:KERNEL32.dll
 0004:00000664       __imp__WideCharToMultiByte@32 00f20664     kernel32:KERNEL32.dll
 0004:00000668       __imp__FatalAppExitA@8     00f20668     kernel32:KERNEL32.dll
 0004:0000066c       __imp__DeleteCriticalSection@4 00f2066c     kernel32:KERNEL32.dll
 0004:00000670       __imp__InitializeCriticalSection@4 00f20670     kernel32:KERNEL32.dll
 0004:00000674       __imp__RaiseException@16   00f20674     kernel32:KERNEL32.dll
 0004:00000678       __imp__LeaveCriticalSection@4 00f20678     kernel32:KERNEL32.dll
 0004:0000067c       __imp__EnterCriticalSection@4 00f2067c     kernel32:KERNEL32.dll
 0004:00000680       __imp__SetConsoleCtrlHandler@8 00f20680     kernel32:KERNEL32.dll
 0004:00000684       __imp__OutputDebugStringA@4 00f20684     kernel32:KERNEL32.dll
 0004:00000688       __imp__WriteFile@20        00f20688     kernel32:KERNEL32.dll
 0004:0000068c       __imp__GetStdHandle@4      00f2068c     kernel32:KERNEL32.dll
 0004:00000690       __imp__DebugBreak@0        00f20690     kernel32:KERNEL32.dll
 0004:00000694       __imp__MultiByteToWideChar@24 00f20694     kernel32:KERNEL32.dll
 0004:00000698       __imp__GetSystemTimeAsFileTime@4 00f20698     kernel32:KERNEL32.dll
 0004:0000069c       __imp__GetVersion@0        00f2069c     kernel32:KERNEL32.dll
 0004:000006a0       __imp__GetCommandLineA@0   00f206a0     kernel32:KERNEL32.dll
 0004:000006a4       __imp__GetStartupInfoA@4   00f206a4     kernel32:KERNEL32.dll
 0004:000006a8       __imp__GetModuleHandleA@4  00f206a8     kernel32:KERNEL32.dll
 0004:000006ac       __imp__FileTimeToLocalFileTime@8 00f206ac     kernel32:KERNEL32.dll
 0004:000006b0       __imp__FileTimeToSystemTime@8 00f206b0     kernel32:KERNEL32.dll
 0004:000006b4       __imp__FindClose@4         00f206b4     kernel32:KERNEL32.dll
 0004:000006b8       __imp__FindNextFileA@8     00f206b8     kernel32:KERNEL32.dll
 0004:000006bc       __imp__FindFirstFileA@8    00f206bc     kernel32:KERNEL32.dll
 0004:000006c0       __imp__GetFullPathNameA@16 00f206c0     kernel32:KERNEL32.dll
 0004:000006c4       __imp__GetCurrentDirectoryA@8 00f206c4     kernel32:KERNEL32.dll
 0004:000006c8       __imp__GetLocaleInfoW@16   00f206c8     kernel32:KERNEL32.dll
 0004:000006cc       __imp__SetEndOfFile@4      00f206cc     kernel32:KERNEL32.dll
 0004:000006d0       __imp__CreateFileA@28      00f206d0     kernel32:KERNEL32.dll
 0004:000006d4       __imp__GetOEMCP@0          00f206d4     kernel32:KERNEL32.dll
 0004:000006d8       __imp__GetACP@0            00f206d8     kernel32:KERNEL32.dll
 0004:000006dc       __imp__CompareStringW@24   00f206dc     kernel32:KERNEL32.dll
 0004:000006e0       __imp__CompareStringA@24   00f206e0     kernel32:KERNEL32.dll
 0004:000006e4       __imp__GetUserDefaultLCID@0 00f206e4     kernel32:KERNEL32.dll
 0004:000006e8       __imp__EnumSystemLocalesA@8 00f206e8     kernel32:KERNEL32.dll
 0004:000006ec       __imp__GetLocaleInfoA@16   00f206ec     kernel32:KERNEL32.dll
 0004:000006f0       __imp__IsValidCodePage@4   00f206f0     kernel32:KERNEL32.dll
 0004:000006f4       __imp__IsValidLocale@8     00f206f4     kernel32:KERNEL32.dll
 0004:000006f8       __imp__GetCPInfo@8         00f206f8     kernel32:KERNEL32.dll
 0004:000006fc       __imp__GetStringTypeW@16   00f206fc     kernel32:KERNEL32.dll
 0004:00000700       __imp__GetStringTypeA@20   00f20700     kernel32:KERNEL32.dll
 0004:00000704       __imp__SetEnvironmentVariableA@8 00f20704     kernel32:KERNEL32.dll
 0004:00000708       __imp__SetEnvironmentVariableW@8 00f20708     kernel32:KERNEL32.dll
 0004:0000070c       __imp__GetEnvironmentStringsW@0 00f2070c     kernel32:KERNEL32.dll
 0004:00000710       __imp__GetEnvironmentStrings@0 00f20710     kernel32:KERNEL32.dll
 0004:00000714       __imp__FreeEnvironmentStringsW@4 00f20714     kernel32:KERNEL32.dll
 0004:00000718       __imp__FreeEnvironmentStringsA@4 00f20718     kernel32:KERNEL32.dll
 0004:0000071c       __imp__UnhandledExceptionFilter@4 00f2071c     kernel32:KERNEL32.dll
 0004:00000720       __imp__SetStdHandle@8      00f20720     kernel32:KERNEL32.dll
 0004:00000724       __imp__ReadFile@20         00f20724     kernel32:KERNEL32.dll
 0004:00000728       __imp__CloseHandle@4       00f20728     kernel32:KERNEL32.dll
 0004:0000072c       __imp__GetFileType@4       00f2072c     kernel32:KERNEL32.dll
 0004:00000730       __imp__SetHandleCount@4    00f20730     kernel32:KERNEL32.dll
 0004:00000734       __imp__GetCurrentProcess@0 00f20734     kernel32:KERNEL32.dll
 0004:00000738       __imp__CreateDirectoryA@8  00f20738     kernel32:KERNEL32.dll
 0004:0000073c       __imp__VirtualFree@12      00f2073c     kernel32:KERNEL32.dll
 0004:00000740       __imp__HeapCreate@12       00f20740     kernel32:KERNEL32.dll
 0004:00000744       __imp__HeapDestroy@4       00f20744     kernel32:KERNEL32.dll
 0004:00000748       __imp__HeapFree@12         00f20748     kernel32:KERNEL32.dll
 0004:0000074c       __imp__HeapReAlloc@16      00f2074c     kernel32:KERNEL32.dll
 0004:00000750       __imp__HeapAlloc@12        00f20750     kernel32:KERNEL32.dll
 0004:00000754       __imp__GetProcAddress@8    00f20754     kernel32:KERNEL32.dll
 0004:00000758       __imp__CreateThread@24     00f20758     kernel32:KERNEL32.dll
 0004:0000075c       __imp__CreateEventA@16     00f2075c     kernel32:KERNEL32.dll
 0004:00000760       __imp__WaitForSingleObject@8 00f20760     kernel32:KERNEL32.dll
 0004:00000764       __imp__SetEvent@4          00f20764     kernel32:KERNEL32.dll
 0004:00000768       __imp__ResetEvent@4        00f20768     kernel32:KERNEL32.dll
 0004:0000076c       __imp__GetModuleFileNameA@12 00f2076c     kernel32:KERNEL32.dll
 0004:00000770       __imp__InterlockedDecrement@4 00f20770     kernel32:KERNEL32.dll
 0004:00000774       __imp__InterlockedIncrement@4 00f20774     kernel32:KERNEL32.dll
 0004:00000778       __imp__GetTimeZoneInformation@4 00f20778     kernel32:KERNEL32.dll
 0004:0000077c       __imp__GetSystemTime@4     00f2077c     kernel32:KERNEL32.dll
 0004:00000780       __imp__GetLocalTime@4      00f20780     kernel32:KERNEL32.dll
 0004:00000784       __imp__IsBadWritePtr@8     00f20784     kernel32:KERNEL32.dll
 0004:00000788       __imp__ExitProcess@4       00f20788     kernel32:KERNEL32.dll
 0004:0000078c       __imp__GetLastError@0      00f2078c     kernel32:KERNEL32.dll
 0004:00000790       __imp__MoveFileA@8         00f20790     kernel32:KERNEL32.dll
 0004:00000794       __imp__DeleteFileA@4       00f20794     kernel32:KERNEL32.dll
 0004:00000798       __imp__FlushFileBuffers@4  00f20798     kernel32:KERNEL32.dll
 0004:0000079c       __imp__TerminateProcess@8  00f2079c     kernel32:KERNEL32.dll
 0004:000007a0       \177KERNEL32_NULL_THUNK_DATA 00f207a0     kernel32:KERNEL32.dll
 0004:00000820       __imp__CallWindowProcA@20  00f20820     user32:USER32.dll
 0004:00000824       __imp__OpenClipboard@4     00f20824     user32:USER32.dll
 0004:00000828       __imp__GetSystemMetrics@4  00f20828     user32:USER32.dll
 0004:0000082c       __imp__ReleaseCapture@0    00f2082c     user32:USER32.dll
 0004:00000830       __imp__GetCursorPos@4      00f20830     user32:USER32.dll
 0004:00000834       __imp__DispatchMessageA@4  00f20834     user32:USER32.dll
 0004:00000838       __imp__TranslateMessage@4  00f20838     user32:USER32.dll
 0004:0000083c       __imp__GetMessageA@16      00f2083c     user32:USER32.dll
 0004:00000840       __imp__CloseClipboard@0    00f20840     user32:USER32.dll
 0004:00000844       __imp__GetClipboardData@4  00f20844     user32:USER32.dll
 0004:00000848       __imp__UnregisterHotKey@8  00f20848     user32:USER32.dll
 0004:0000084c       __imp__RegisterHotKey@16   00f2084c     user32:USER32.dll
 0004:00000850       __imp__SystemParametersInfoA@16 00f20850     user32:USER32.dll
 0004:00000854       __imp__RegisterWindowMessageA@4 00f20854     user32:USER32.dll
 0004:00000858       __imp__GetWindowLongA@8    00f20858     user32:USER32.dll
 0004:0000085c       __imp__CloseWindow@4       00f2085c     user32:USER32.dll
 0004:00000860       __imp__DestroyWindow@4     00f20860     user32:USER32.dll
 0004:00000864       __imp__PostQuitMessage@4   00f20864     user32:USER32.dll
 0004:00000868       __imp__SetTimer@16         00f20868     user32:USER32.dll
 0004:0000086c       __imp__DefWindowProcA@16   00f2086c     user32:USER32.dll
 0004:00000870       __imp__InvalidateRect@12   00f20870     user32:USER32.dll
 0004:00000874       __imp__LoadIconA@8         00f20874     user32:USER32.dll
 0004:00000878       __imp__LoadCursorA@8       00f20878     user32:USER32.dll
 0004:0000087c       __imp__RegisterClassA@4    00f2087c     user32:USER32.dll
 0004:00000880       __imp__AdjustWindowRect@12 00f20880     user32:USER32.dll
 0004:00000884       __imp__GetDesktopWindow@0  00f20884     user32:USER32.dll
 0004:00000888       __imp__GetDC@4             00f20888     user32:USER32.dll
 0004:0000088c       __imp__ReleaseDC@8         00f2088c     user32:USER32.dll
 0004:00000890       __imp__CreateWindowExA@48  00f20890     user32:USER32.dll
 0004:00000894       __imp__SendMessageA@16     00f20894     user32:USER32.dll
 0004:00000898       __imp__SetWindowLongA@12   00f20898     user32:USER32.dll
 0004:0000089c       __imp__ShowWindow@8        00f2089c     user32:USER32.dll
 0004:000008a0       __imp__UpdateWindow@4      00f208a0     user32:USER32.dll
 0004:000008a4       __imp__SetForegroundWindow@4 00f208a4     user32:USER32.dll
 0004:000008a8       __imp__SetFocus@4          00f208a8     user32:USER32.dll
 0004:000008ac       __imp__GetWindowTextA@12   00f208ac     user32:USER32.dll
 0004:000008b0       __imp__SetWindowTextA@8    00f208b0     user32:USER32.dll
 0004:000008b4       __imp__PeekMessageA@20     00f208b4     user32:USER32.dll
 0004:000008b8       __imp__ShowCursor@4        00f208b8     user32:USER32.dll
 0004:000008bc       __imp__ClipCursor@4        00f208bc     user32:USER32.dll
 0004:000008c0       __imp__SetCapture@4        00f208c0     user32:USER32.dll
 0004:000008c4       __imp__SetCursorPos@8      00f208c4     user32:USER32.dll
 0004:000008c8       __imp__GetWindowRect@8     00f208c8     user32:USER32.dll
 0004:000008cc       __imp__MessageBoxA@16      00f208cc     user32:USER32.dll
 0004:000008d0       __imp__ChangeDisplaySettingsA@8 00f208d0     user32:USER32.dll
 0004:000008d4       __imp__EnumDisplaySettingsA@12 00f208d4     user32:USER32.dll
 0004:000008d8       \177USER32_NULL_THUNK_DATA 00f208d8     user32:USER32.dll
 0004:00000928       __imp__timeGetTime@0       00f20928     winmm:WINMM.dll
 0004:0000092c       __imp__midiInOpen@20       00f2092c     winmm:WINMM.dll
 0004:00000930       __imp__timeBeginPeriod@4   00f20930     winmm:WINMM.dll
 0004:00000934       __imp__joyGetDevCapsA@12   00f20934     winmm:WINMM.dll
 0004:00000938       __imp__joyGetPosEx@8       00f20938     winmm:WINMM.dll
 0004:0000093c       __imp__joyGetNumDevs@0     00f2093c     winmm:WINMM.dll
 0004:00000940       __imp__midiInStart@4       00f20940     winmm:WINMM.dll
 0004:00000944       __imp__midiInClose@4       00f20944     winmm:WINMM.dll
 0004:00000948       __imp__timeEndPeriod@4     00f20948     winmm:WINMM.dll
 0004:0000094c       __imp__midiInGetDevCapsA@12 00f2094c     winmm:WINMM.dll
 0004:00000950       __imp__midiInGetNumDevs@0  00f20950     winmm:WINMM.dll
 0004:00000954       \177WINMM_NULL_THUNK_DATA  00f20954     winmm:WINMM.dll
 0004:00000988       __imp__sendto@24           00f20988     wsock32:WSOCK32.dll
 0004:0000098c       __imp__inet_addr@4         00f2098c     wsock32:WSOCK32.dll
 0004:00000990       __imp__WSAGetLastError@0   00f20990     wsock32:WSOCK32.dll
 0004:00000994       __imp__gethostbyname@4     00f20994     wsock32:WSOCK32.dll
 0004:00000998       __imp__recvfrom@24         00f20998     wsock32:WSOCK32.dll
 0004:0000099c       __imp__closesocket@4       00f2099c     wsock32:WSOCK32.dll
 0004:000009a0       __imp__setsockopt@20       00f209a0     wsock32:WSOCK32.dll
 0004:000009a4       __imp__bind@12             00f209a4     wsock32:WSOCK32.dll
 0004:000009a8       __imp__htons@4             00f209a8     wsock32:WSOCK32.dll
 0004:000009ac       __imp__ioctlsocket@12      00f209ac     wsock32:WSOCK32.dll
 0004:000009b0       __imp__send@16             00f209b0     wsock32:WSOCK32.dll
 0004:000009b4       __imp__recv@16             00f209b4     wsock32:WSOCK32.dll
 0004:000009b8       __imp__ntohl@4             00f209b8     wsock32:WSOCK32.dll
 0004:000009bc       __imp__socket@12           00f209bc     wsock32:WSOCK32.dll
 0004:000009c0       __imp__WSAStartup@8        00f209c0     wsock32:WSOCK32.dll
 0004:000009c4       __imp__WSACleanup@0        00f209c4     wsock32:WSOCK32.dll
 0004:000009c8       __imp__connect@12          00f209c8     wsock32:WSOCK32.dll
 0004:000009cc       __imp__gethostname@8       00f209cc     wsock32:WSOCK32.dll
 0004:000009d0       \177WSOCK32_NULL_THUNK_DATA 00f209d0     wsock32:WSOCK32.dll
 0004:00000a08       __imp__CoUninitialize@0    00f20a08     ole32:ole32.dll
 0004:00000a0c       __imp__CoInitialize@4      00f20a0c     ole32:ole32.dll
 0004:00000a10       __imp__CoCreateInstance@20 00f20a10     ole32:ole32.dll
 0004:00000a14       \177ole32_NULL_THUNK_DATA  00f20a14     ole32:ole32.dll

 entry point at        0001:001195f0

