 cgamex86

 Timestamp is 447039d8 (Sun May 21 02:58:48 2006)

 Preferred load address is 30000000

 Start         Length     Name                   Class
 0001:00000000 00028d5aH .text                   CODE
 0002:00000000 000000acH .idata$5                DATA
 0002:000000b0 000009efH .rdata                  DATA
 0002:00000aa0 00000014H .idata$2                DATA
 0002:00000ab4 00000014H .idata$3                DATA
 0002:00000ac8 000000acH .idata$4                DATA
 0002:00000b74 000002e4H .idata$6                DATA
 0002:00000e60 00000059H .edata                  DATA
 0003:00000000 00000004H .CRT$XCA                DATA
 0003:00000004 00000004H .CRT$XCZ                DATA
 0003:00000008 00000004H .CRT$XIA                DATA
 0003:0000000c 00000008H .CRT$XIC                DATA
 0003:00000014 00000004H .CRT$XIZ                DATA
 0003:00000018 00000004H .CRT$XPA                DATA
 0003:0000001c 00000004H .CRT$XPX                DATA
 0003:00000020 00000004H .CRT$XPZ                DATA
 0003:00000024 00000004H .CRT$XTA                DATA
 0003:00000028 00000004H .CRT$XTZ                DATA
 0003:00000030 0000939cH .data                   DATA
 0003:000093d0 002eac90H .bss                    DATA

  Address         Publics by Value              Rva+Base     Lib:Object

 0001:00000000       _BG_FindItemForPowerup     30001000 f   bg_misc.obj
 0001:00000050       _BG_FindItemForHoldable    30001050 f   bg_misc.obj
 0001:000000a0       _BG_PlayerTouchesItem      300010a0 f   bg_misc.obj
 0001:00000140       _BG_CanItemBeGrabbed       30001140 f   bg_misc.obj
 0001:000002e0       _BG_EvaluateTrajectory     300012e0 f   bg_misc.obj
 0001:00000420       _BG_EvaluateTrajectoryDelta 30001420 f   bg_misc.obj
 0001:00000510       _BG_AddPredictableEventToPlayerstate 30001510 f   bg_misc.obj
 0001:00000540       _BG_TouchJumpPad           30001540 f   bg_misc.obj
 0001:000005e0       _BG_PlayerStateToEntityState 300015e0 f   bg_misc.obj
 0001:000007d0       _PM_AddEvent               300017d0 f   bg_pmove.obj
 0001:000007f0       _PM_AddTouchEnt            300017f0 f   bg_pmove.obj
 0001:00000830       _PM_ClipVelocity           30001830 f   bg_pmove.obj
 0001:00000890       _PM_UpdateViewAngles       30001890 f   bg_pmove.obj
 0001:00000920       _CheckLadder               30001920 f   bg_pmove.obj
 0001:000009e0       _PmoveSingle               300019e0 f   bg_pmove.obj
 0001:00003280       _Pmove                     30004280 f   bg_pmove.obj
 0001:00003310       _PM_SlideMove              30004310 f   bg_slidemove.obj
 0001:000039f0       _PM_StepSlideMove          300049f0 f   bg_slidemove.obj
 0001:00003d30       _CG_TargetCommand_f        30004d30 f   cg_consolecmds.obj
 0001:000040b0       _CG_ConsoleCommand         300050b0 f   cg_consolecmds.obj
 0001:00004100       _CG_InitConsoleCommands    30005100 f   cg_consolecmds.obj
 0001:00004240       _CG_Draw3DModel            30005240 f   cg_draw.obj
 0001:000043a0       _CG_DrawHead               300053a0 f   cg_draw.obj
 0001:000044c0       _CG_DrawFlagModel          300054c0 f   cg_draw.obj
 0001:00004630       _CG_DrawTeamBackground     30005630 f   cg_draw.obj
 0001:000046d0       _CG_AddLagometerFrameInfo  300056d0 f   cg_draw.obj
 0001:00004700       _CG_AddLagometerSnapshotInfo 30005700 f   cg_draw.obj
 0001:00004750       _CG_CenterPrint            30005750 f   cg_draw.obj
 0001:000047c0       _CG_DrawActive             300057c0 f   cg_draw.obj
 0001:00007420       _CG_AdjustFrom640          30008420 f   cg_drawtools.obj
 0001:00007460       _CG_FillRect               30008460 f   cg_drawtools.obj
 0001:000074c0       _CG_DrawPic                300084c0 f   cg_drawtools.obj
 0001:00007510       _CG_DrawChar               30008510 f   cg_drawtools.obj
 0001:000075e0       _CG_DrawStringExt          300085e0 f   cg_drawtools.obj
 0001:00007760       _CG_DrawBigString          30008760 f   cg_drawtools.obj
 0001:000077b0       _CG_DrawBigStringColor     300087b0 f   cg_drawtools.obj
 0001:000077e0       _CG_DrawSmallString        300087e0 f   cg_drawtools.obj
 0001:00007830       _CG_DrawSmallStringColor   30008830 f   cg_drawtools.obj
 0001:00007860       _CG_DrawStrlen             30008860 f   cg_drawtools.obj
 0001:00007890       _CG_TileClear              30008890 f   cg_drawtools.obj
 0001:000079d0       _CG_FadeColor              300089d0 f   cg_drawtools.obj
 0001:00007a40       _CG_GetColorForHealth      30008a40 f   cg_drawtools.obj
 0001:00007af0       _CG_ColorForHealth         30008af0 f   cg_drawtools.obj
 0001:00007b20       _UI_ProportionalStringWidth 30008b20 f   cg_drawtools.obj
 0001:00007b50       _UI_ProportionalSizeScale  30008b50 f   cg_drawtools.obj
 0001:00007b70       _UI_DrawProportionalString 30008b70 f   cg_drawtools.obj
 0001:00007ec0       _CG_BubbleTrail            30008ec0 f   cg_effects.obj
 0001:00008170       _CG_SmokePuff              30009170 f   cg_effects.obj
 0001:00008300       _CG_SpawnEffect            30009300 f   cg_effects.obj
 0001:000083c0       _CG_ScorePlum              300093c0 f   cg_effects.obj
 0001:000084f0       _CG_MakeExplosion          300094f0 f   cg_effects.obj
 0001:00008690       _CG_Bleed                  30009690 f   cg_effects.obj
 0001:00008740       _CG_LaunchGib              30009740 f   cg_effects.obj
 0001:00008830       _CG_GibPlayer              30009830 f   cg_effects.obj
 0001:00008f30       _CG_GibPlayerHeadshot      30009f30 f   cg_effects.obj
 0001:00009220       _CG_PositionEntityOnTag    3000a220 f   cg_ents.obj
 0001:000092d0       _CG_PositionRotatedEntityOnTag 3000a2d0 f   cg_ents.obj
 0001:00009380       _CG_SetEntitySoundPosition 3000a380 f   cg_ents.obj
 0001:00009400       _CG_Beam                   3000a400 f   cg_ents.obj
 0001:00009480       _CG_AdjustPositionForMover 3000a480 f   cg_ents.obj
 0001:00009570       _CG_AddPacketEntities      3000a570 f   cg_ents.obj
 0001:0000a870       _CG_PlaceString            3000b870 f   cg_event.obj
 0001:0000a940       _CG_PainEvent              3000b940 f   cg_event.obj
 0001:0000a9c0       _CG_EntityEvent            3000b9c0 f   cg_event.obj
 0001:0000c4f0       _CG_CheckEvents            3000d4f0 f   cg_event.obj
 0001:0000c580       _CG_LoadingString          3000d580 f   cg_info.obj
 0001:0000c5a0       _CG_LoadingItem            3000d5a0 f   cg_info.obj
 0001:0000c600       _CG_LoadingClient          3000d600 f   cg_info.obj
 0001:0000c790       _CG_DrawInformation        3000d790 f   cg_info.obj
 0001:0000cbd0       _CG_InitLocalEntities      3000dbd0 f   cg_localents.obj
 0001:0000cc20       _CG_FreeLocalEntity        3000dc20 f   cg_localents.obj
 0001:0000cc60       _CG_AllocLocalEntity       3000dc60 f   cg_localents.obj
 0001:0000ccc0       _CG_BloodTrail             3000dcc0 f   cg_localents.obj
 0001:0000cd90       _CG_FragmentBounceMark     3000dd90 f   cg_localents.obj
 0001:0000ce90       _CG_FragmentBounceSound    3000de90 f   cg_localents.obj
 0001:0000cef0       _CG_ReflectVelocity        3000def0 f   cg_localents.obj
 0001:0000d010       _CG_AddFragment            3000e010 f   cg_localents.obj
 0001:0000d1e0       _CG_AddFadeRGB             3000e1e0 f   cg_localents.obj
 0001:0000d250       _CG_AddScorePlum           3000e250 f   cg_localents.obj
 0001:0000d4f0       _CG_AddLocalEntities       3000e4f0 f   cg_localents.obj
 0001:0000da00       _vmMain                    3000ea00 f   cg_main.obj
 0001:0000dad0       _CG_RegisterCvars          3000ead0 f   cg_main.obj
 0001:0000dba0       _CG_UpdateCvars            3000eba0 f   cg_main.obj
 0001:0000dcc0       _CG_CrosshairPlayer        3000ecc0 f   cg_main.obj
 0001:0000dce0       _CG_LastAttacker           3000ece0 f   cg_main.obj
 0001:0000dd00       _CG_Printf                 3000ed00 f   cg_main.obj
 0001:0000dd30       _CG_Error                  3000ed30 f   cg_main.obj
 0001:0000dd60       _Com_Error                 3000ed60 f   cg_main.obj
 0001:0000dda0       _Com_Printf                3000eda0 f   cg_main.obj
 0001:0000dde0       _CG_Argv                   3000ede0 f   cg_main.obj
 0001:0000de00       _CG_BuildSpectatorString   3000ee00 f   cg_main.obj
 0001:0000de80       _CG_ConfigString           3000ee80 f   cg_main.obj
 0001:0000deb0       _CG_StartMusic             3000eeb0 f   cg_main.obj
 0001:0000df20       _CG_Init                   3000ef20 f   cg_main.obj
 0001:0000f070       _CG_KeyEvent               30010070 f   cg_main.obj
 0001:0000f070       _CG_PlayBufferedVoiceChats 30010070 f   cg_main.obj
 0001:0000f070       _CG_MouseEvent             30010070 f   cg_main.obj
 0001:0000f070       _CG_Shutdown               30010070 f   cg_main.obj
 0001:0000f070       _CG_EventHandling          30010070 f   cg_main.obj
 0001:0000f070       _CG_VoiceChat              30010070 f   cg_main.obj
 0001:0000f080       _CG_InitMarkPolys          30010080 f   cg_marks.obj
 0001:0000f0d0       _CG_FreeMarkPoly           300100d0 f   cg_marks.obj
 0001:0000f110       _CG_AllocMark              30010110 f   cg_marks.obj
 0001:0000f180       _CG_ImpactMark             30010180 f   cg_marks.obj
 0001:0000f520       _CG_AddMarks               30010520 f   cg_marks.obj
 0001:0000f6c0       _CG_ClearParticles         300106c0 f   cg_marks.obj
 0001:0000f7b0       _CG_AddParticleToScene     300107b0 f   cg_marks.obj
 0001:00011380       _CG_AddParticles           30012380 f   cg_marks.obj
 0001:00011660       _CG_ParticleExplosion      30012660 f   cg_marks.obj
 0001:000117b0       _CG_CustomSound            300127b0 f   cg_players.obj
 0001:00011870       _CG_NewClientInfo          30012870 f   cg_players.obj
 0001:00013060       _CG_LoadDeferredPlayers    30014060 f   cg_players.obj
 0001:000130d0       _CG_AddRefEntityWithPowerups 300140d0 f   cg_players.obj
 0001:00013190       _CG_Player                 30014190 f   cg_players.obj
 0001:00014860       _CG_ResetPlayerEntity      30015860 f   cg_players.obj
 0001:00014a20       _CG_CheckAmmo              30015a20 f   cg_playerstate.obj
 0001:00014ab0       _CG_DamageFeedback         30015ab0 f   cg_playerstate.obj
 0001:00014d90       _CG_Respawn                30015d90 f   cg_playerstate.obj
 0001:00014dc0       _CG_CheckPlayerstateEvents 30015dc0 f   cg_playerstate.obj
 0001:00014ea0       _CG_CheckLocalSounds       30015ea0 f   cg_playerstate.obj
 0001:000152b0       _CG_TransitionPlayerState  300162b0 f   cg_playerstate.obj
 0001:000153a0       _CG_BuildSolidList         300163a0 f   cg_predict.obj
 0001:00015460       _CG_Trace                  30016460 f   cg_predict.obj
 0001:000156e0       _CG_PointContents          300166e0 f   cg_predict.obj
 0001:00015760       _CG_PredictPlayerState     30016760 f   cg_predict.obj
 0001:00016730       _CG_DrawOldScoreboard      30017730 f   cg_scoreboard.obj
 0001:00017090       _CG_DrawOldTourneyScoreboard 30018090 f   cg_scoreboard.obj
 0001:00017360       _CG_ParseServerinfo        30018360 f   cg_servercmds.obj
 0001:000174d0       _CG_SetConfigValues        300184d0 f   cg_servercmds.obj
 0001:00017550       _CG_ShaderStateChanged     30018550 f   cg_servercmds.obj
 0001:00017630       _CG_ExecuteNewServerCommands 30018630 f   cg_servercmds.obj
 0001:000182d0       _CG_TransitionEntity       300192d0 f   cg_snapshot.obj
 0001:000183a0       _CG_SetInitialSnapshot     300193a0 f   cg_snapshot.obj
 0001:00018470       _CG_ProcessSnapshots       30019470 f   cg_snapshot.obj
 0001:00018980       _dllEntry                  30019980 f   cg_syscalls.obj
 0001:00018990       _PASSFLOAT                 30019990 f   cg_syscalls.obj
 0001:000189a0       _trap_Print                300199a0 f   cg_syscalls.obj
 0001:000189c0       _trap_Error                300199c0 f   cg_syscalls.obj
 0001:000189e0       _trap_Milliseconds         300199e0 f   cg_syscalls.obj
 0001:000189f0       _trap_Cvar_Register        300199f0 f   cg_syscalls.obj
 0001:00018a10       _trap_Cvar_Update          30019a10 f   cg_syscalls.obj
 0001:00018a30       _trap_Cvar_Set             30019a30 f   cg_syscalls.obj
 0001:00018a50       _trap_Cvar_VariableStringBuffer 30019a50 f   cg_syscalls.obj
 0001:00018a70       _trap_Argc                 30019a70 f   cg_syscalls.obj
 0001:00018a80       _trap_Argv                 30019a80 f   cg_syscalls.obj
 0001:00018aa0       _trap_Args                 30019aa0 f   cg_syscalls.obj
 0001:00018ac0       _trap_FS_FOpenFile         30019ac0 f   cg_syscalls.obj
 0001:00018ae0       _trap_FS_Read              30019ae0 f   cg_syscalls.obj
 0001:00018b00       _trap_FS_FCloseFile        30019b00 f   cg_syscalls.obj
 0001:00018b20       _trap_SendConsoleCommand   30019b20 f   cg_syscalls.obj
 0001:00018b40       _trap_AddCommand           30019b40 f   cg_syscalls.obj
 0001:00018b60       _trap_SendClientCommand    30019b60 f   cg_syscalls.obj
 0001:00018b80       _trap_UpdateScreen         30019b80 f   cg_syscalls.obj
 0001:00018b90       _trap_CM_LoadMap           30019b90 f   cg_syscalls.obj
 0001:00018bb0       _trap_CM_NumInlineModels   30019bb0 f   cg_syscalls.obj
 0001:00018bc0       _trap_CM_InlineModel       30019bc0 f   cg_syscalls.obj
 0001:00018be0       _trap_CM_TempBoxModel      30019be0 f   cg_syscalls.obj
 0001:00018c00       _trap_CM_PointContents     30019c00 f   cg_syscalls.obj
 0001:00018c20       _trap_CM_TransformedPointContents 30019c20 f   cg_syscalls.obj
 0001:00018c40       _trap_CM_BoxTrace          30019c40 f   cg_syscalls.obj
 0001:00018c70       _trap_CM_TransformedBoxTrace 30019c70 f   cg_syscalls.obj
 0001:00018cb0       _trap_CM_MarkFragments     30019cb0 f   cg_syscalls.obj
 0001:00018ce0       _trap_S_StartSound         30019ce0 f   cg_syscalls.obj
 0001:00018d00       _trap_S_StartLocalSound    30019d00 f   cg_syscalls.obj
 0001:00018d20       _trap_S_ClearLoopingSounds 30019d20 f   cg_syscalls.obj
 0001:00018d40       _trap_S_AddLoopingSound    30019d40 f   cg_syscalls.obj
 0001:00018d60       _trap_S_AddRealLoopingSound 30019d60 f   cg_syscalls.obj
 0001:00018d80       _trap_S_StopLoopingSound   30019d80 f   cg_syscalls.obj
 0001:00018da0       _trap_S_UpdateEntityPosition 30019da0 f   cg_syscalls.obj
 0001:00018dc0       _trap_S_Respatialize       30019dc0 f   cg_syscalls.obj
 0001:00018de0       _trap_S_RegisterSound      30019de0 f   cg_syscalls.obj
 0001:00018e00       _trap_S_StartBackgroundTrack 30019e00 f   cg_syscalls.obj
 0001:00018e20       _trap_R_LoadWorldMap       30019e20 f   cg_syscalls.obj
 0001:00018e40       _trap_R_RegisterModel      30019e40 f   cg_syscalls.obj
 0001:00018e60       _trap_R_RegisterSkin       30019e60 f   cg_syscalls.obj
 0001:00018e80       _trap_R_RegisterShader     30019e80 f   cg_syscalls.obj
 0001:00018ea0       _trap_R_RegisterShaderNoMip 30019ea0 f   cg_syscalls.obj
 0001:00018ec0       _trap_R_ClearScene         30019ec0 f   cg_syscalls.obj
 0001:00018ed0       _trap_R_AddRefEntityToScene 30019ed0 f   cg_syscalls.obj
 0001:00018ef0       _trap_R_AddPolyToScene     30019ef0 f   cg_syscalls.obj
 0001:00018f10       _trap_R_AddLightToScene    30019f10 f   cg_syscalls.obj
 0001:00018f60       _trap_R_RenderScene        30019f60 f   cg_syscalls.obj
 0001:00018f80       _trap_R_SetColor           30019f80 f   cg_syscalls.obj
 0001:00018fa0       _trap_R_DrawStretchPic     30019fa0 f   cg_syscalls.obj
 0001:00019030       _trap_R_ModelBounds        3001a030 f   cg_syscalls.obj
 0001:00019050       _trap_R_LerpTag            3001a050 f   cg_syscalls.obj
 0001:00019090       _trap_R_RemapShader        3001a090 f   cg_syscalls.obj
 0001:000190b0       _trap_GetGlconfig          3001a0b0 f   cg_syscalls.obj
 0001:000190d0       _trap_GetGameState         3001a0d0 f   cg_syscalls.obj
 0001:000190f0       _trap_GetCurrentSnapshotNumber 3001a0f0 f   cg_syscalls.obj
 0001:00019110       _trap_GetSnapshot          3001a110 f   cg_syscalls.obj
 0001:00019130       _trap_GetServerCommand     3001a130 f   cg_syscalls.obj
 0001:00019150       _trap_GetCurrentCmdNumber  3001a150 f   cg_syscalls.obj
 0001:00019160       _trap_GetUserCmd           3001a160 f   cg_syscalls.obj
 0001:00019180       _trap_SetUserCmdValue      3001a180 f   cg_syscalls.obj
 0001:000191a0       _trap_MemoryRemaining      3001a1a0 f   cg_syscalls.obj
 0001:000191b0       _trap_PC_ReadToken         3001a1b0 f   cg_syscalls.obj
 0001:000191d0       _trap_PC_SourceFileAndLine 3001a1d0 f   cg_syscalls.obj
 0001:000191f0       _trap_SnapVector           3001a1f0 f   cg_syscalls.obj
 0001:00019210       _CG_PredictWeaponEffects   3001a210 f   cg_unlagged.obj
 0001:00019990       _CG_AddBoundingBox         3001a990 f   cg_unlagged.obj
 0001:0001a020       _CG_Cvar_ClampInt          3001b020 f   cg_unlagged.obj
 0001:0001a0d0       _CG_TestModel_f            3001b0d0 f   cg_view.obj
 0001:0001a1f0       _CG_TestGun_f              3001b1f0 f   cg_view.obj
 0001:0001a210       _CG_TestModelNextFrame_f   3001b210 f   cg_view.obj
 0001:0001a230       _CG_TestModelPrevFrame_f   3001b230 f   cg_view.obj
 0001:0001a260       _CG_TestModelNextSkin_f    3001b260 f   cg_view.obj
 0001:0001a280       _CG_TestModelPrevSkin_f    3001b280 f   cg_view.obj
 0001:0001a2b0       _CG_ZoomDown_f             3001b2b0 f   cg_view.obj
 0001:0001a300       _CG_ZoomUp_f               3001b300 f   cg_view.obj
 0001:0001a320       _CG_AddBufferedSound       3001b320 f   cg_view.obj
 0001:0001a360       _CG_DrawActiveFrame        3001b360 f   cg_view.obj
 0001:0001b4a0       _CG_RailTrail              3001c4a0 f   cg_weapons.obj
 0001:0001b900       _CG_GrappleTrail           3001c900 f   cg_weapons.obj
 0001:0001ba80       _CG_RegisterWeapon         3001ca80 f   cg_weapons.obj
 0001:0001cbe0       _CG_RegisterItemVisuals    3001dbe0 f   cg_weapons.obj
 0001:0001cc90       _CG_AddPlayerWeapon        3001dc90 f   cg_weapons.obj
 0001:0001d6a0       _CG_AddViewWeapon          3001e6a0 f   cg_weapons.obj
 0001:0001dad0       _CG_DrawWeaponSelect       3001ead0 f   cg_weapons.obj
 0001:0001dc90       _CG_NextWeapon_f           3001ec90 f   cg_weapons.obj
 0001:0001dd30       _CG_PrevWeapon_f           3001ed30 f   cg_weapons.obj
 0001:0001dda0       _CG_Weapon_f               3001eda0 f   cg_weapons.obj
 0001:0001de00       _CG_OutOfAmmoChange        3001ee00 f   cg_weapons.obj
 0001:0001de30       _CG_FireWeapon2            3001ee30 f   cg_weapons.obj
 0001:0001de30       _CG_FireWeapon             3001ee30 f   cg_weapons.obj
 0001:0001def0       _CG_MissileHitWall         3001eef0 f   cg_weapons.obj
 0001:0001e2a0       _CG_MissileHitPlayer       3001f2a0 f   cg_weapons.obj
 0001:0001e2e0       _CG_ShotgunPattern         3001f2e0 f   cg_weapons.obj
 0001:0001e560       _CG_ShotgunFire            3001f560 f   cg_weapons.obj
 0001:0001e680       _CG_Tracer                 3001f680 f   cg_weapons.obj
 0001:0001ea00       _CG_Bullet                 3001fa00 f   cg_weapons.obj
 0001:0001eca0       _Q_rand                    3001fca0 f   q_math.obj
 0001:0001ecc0       _Q_random                  3001fcc0 f   q_math.obj
 0001:0001ecf0       _Q_crandom                 3001fcf0 f   q_math.obj
 0001:0001ed10       _ByteToDir                 3001fd10 f   q_math.obj
 0001:0001ed70       _tonextint                 3001fd70 f   q_math.obj
 0001:0001ede0       _RotatePointAroundVector   3001fde0 f   q_math.obj
 0001:0001efa0       _RotateAroundDirection     3001ffa0 f   q_math.obj
 0001:0001f030       _vectoangles               30020030 f   q_math.obj
 0001:0001f140       _AnglesToAxis              30020140 f   q_math.obj
 0001:0001f190       _AxisClear                 30020190 f   q_math.obj
 0001:0001f1c0       _AxisCopy                  300201c0 f   q_math.obj
 0001:0001f200       _ProjectPointOnPlane       30020200 f   q_math.obj
 0001:0001f290       _LerpAngle                 30020290 f   q_math.obj
 0001:0001f2e0       _AngleSubtract             300202e0 f   q_math.obj
 0001:0001f330       _AnglesSubtract            30020330 f   q_math.obj
 0001:0001f380       _AngleNormalize360         30020380 f   q_math.obj
 0001:0001f380       _AngleMod                  30020380 f   q_math.obj
 0001:0001f3b0       _AngleNormalize180         300203b0 f   q_math.obj
 0001:0001f3e0       _VectorNormalize           300203e0 f   q_math.obj
 0001:0001f430       _VectorNormalize2          30020430 f   q_math.obj
 0001:0001f4a0       _MatrixMultiply            300204a0 f   q_math.obj
 0001:0001f590       _AngleVectors              30020590 f   q_math.obj
 0001:0001f6e0       _PerpendicularVector       300206e0 f   q_math.obj
 0001:0001f760       _COM_StripExtension        30020760 f   q_shared.obj
 0001:0001f790       _COM_Parse                 30020790 f   q_shared.obj
 0001:0001f7a0       _COM_ParseExt              300207a0 f   q_shared.obj
 0001:0001f910       _Q_strrchr                 30020910 f   q_shared.obj
 0001:0001f940       _Q_strncpyz                30020940 f   q_shared.obj
 0001:0001f9a0       _Q_stricmpn                300209a0 f   q_shared.obj
 0001:0001fa30       _Q_stricmp                 30020a30 f   q_shared.obj
 0001:0001fa60       _Q_strcat                  30020a60 f   q_shared.obj
 0001:0001fab0       _Q_PrintStrlen             30020ab0 f   q_shared.obj
 0001:0001faf0       _Q_CleanStr                30020af0 f   q_shared.obj
 0001:0001fb40       _Com_sprintf               30020b40 f   q_shared.obj
 0001:0001fbc0       _va                        30020bc0 f   q_shared.obj
 0001:0001fc00       _Info_ValueForKey          30020c00 f   q_shared.obj
 0001:0001fcf0       _SnapVectorTowards         30020cf0 f   q_shared.obj
 0001:0001fd40       _UI_Alloc                  30020d40 f   ui_shared.obj
 0001:0001fd90       _String_Alloc              30020d90 f   ui_shared.obj
 0001:0001ff00       _PC_SourceError            30020f00 f   ui_shared.obj
 0001:0001ff70       _Float_Parse               30020f70 f   ui_shared.obj
 0001:0001ffa0       _PC_Float_Parse            30020fa0 f   ui_shared.obj
 0001:00020050       _Color_Parse               30021050 f   ui_shared.obj
 0001:00020090       _PC_Color_Parse            30021090 f   ui_shared.obj
 0001:000200d0       _Int_Parse                 300210d0 f   ui_shared.obj
 0001:00020100       _PC_Int_Parse              30021100 f   ui_shared.obj
 0001:000201a0       _Rect_Parse                300211a0 f   ui_shared.obj
 0001:00020200       _PC_Rect_Parse             30021200 f   ui_shared.obj
 0001:00020260       _String_Parse              30021260 f   ui_shared.obj
 0001:00020290       _PC_String_Parse           30021290 f   ui_shared.obj
 0001:000202e0       _PC_Script_Parse           300212e0 f   ui_shared.obj
 0001:00020400       _Window_Init               30021400 f   ui_shared.obj
 0001:00020430       _Item_SetScreenCoords      30021430 f   ui_shared.obj
 0001:00020480       _Item_UpdatePosition       30021480 f   ui_shared.obj
 0001:000204e0       _Menu_ClearFocus           300214e0 f   ui_shared.obj
 0001:00020550       _Menu_ItemsMatchingGroup   30021550 f   ui_shared.obj
 0001:000205c0       _Menu_GetMatchingItemByNumber 300215c0 f   ui_shared.obj
 0001:00020640       _Script_SetColor           30021640 f   ui_shared.obj
 0001:00020710       _Script_SetAsset           30021710 f   ui_shared.obj
 0001:00020730       _Script_SetBackground      30021730 f   ui_shared.obj
 0001:00020760       _Menu_FindItemByName       30021760 f   ui_shared.obj
 0001:000207c0       _Script_SetTeamColor       300217c0 f   ui_shared.obj
 0001:00020810       _Script_SetItemColor       30021810 f   ui_shared.obj
 0001:00020930       _Menu_ShowItemByName       30021930 f   ui_shared.obj
 0001:000209b0       _Menu_FadeItemByName       300219b0 f   ui_shared.obj
 0001:00020a10       _Menus_FindByName          30021a10 f   ui_shared.obj
 0001:00020a60       _Menus_OpenByName          30021a60 f   ui_shared.obj
 0001:00020a70       _Menus_CloseByName         30021a70 f   ui_shared.obj
 0001:00020ae0       _Script_Show               30021ae0 f   ui_shared.obj
 0001:00020b20       _Script_Hide               30021b20 f   ui_shared.obj
 0001:00020b60       _Script_FadeIn             30021b60 f   ui_shared.obj
 0001:00020ba0       _Script_FadeOut            30021ba0 f   ui_shared.obj
 0001:00020be0       _Script_Open               30021be0 f   ui_shared.obj
 0001:00020c10       _Script_ConditionalOpen    30021c10 f   ui_shared.obj
 0001:00020c90       _Script_Close              30021c90 f   ui_shared.obj
 0001:00020cc0       _Menu_TransitionItemByName 30021cc0 f   ui_shared.obj
 0001:00020e10       _Script_Transition         30021e10 f   ui_shared.obj
 0001:00020ef0       _Menu_OrbitItemByName      30021ef0 f   ui_shared.obj
 0001:00020f60       _Script_Orbit              30021f60 f   ui_shared.obj
 0001:00021010       _Script_SetFocus           30022010 f   ui_shared.obj
 0001:000210a0       _Script_SetPlayerModel     300220a0 f   ui_shared.obj
 0001:000210d0       _Script_SetPlayerHead      300220d0 f   ui_shared.obj
 0001:00021100       _Script_SetCvar            30022100 f   ui_shared.obj
 0001:00021150       _Script_Exec               30022150 f   ui_shared.obj
 0001:00021190       _Script_Play               30022190 f   ui_shared.obj
 0001:000211d0       _Script_playLooped         300221d0 f   ui_shared.obj
 0001:00021210       _Item_RunScript            30022210 f   ui_shared.obj
 0001:00021300       _Menus_Activate            30022300 f   ui_shared.obj
 0001:00021440       _Menu_GetFocused           30022440 f   ui_shared.obj
 0001:00021480       _Menus_ActivateByName      30022480 f   ui_shared.obj
 0001:00021500       _Item_Init                 30022500 f   ui_shared.obj
 0001:00021530       _Item_ValidateTypeData     30022530 f   ui_shared.obj
 0001:00021600       _KeywordHash_Key           30022600 f   ui_shared.obj
 0001:00021670       _KeywordHash_Find          30022670 f   ui_shared.obj
 0001:000216b0       _ItemParse_name            300226b0 f   ui_shared.obj
 0001:000216d0       _ItemParse_focusSound      300226d0 f   ui_shared.obj
 0001:00021710       _ItemParse_group           30022710 f   ui_shared.obj
 0001:00021730       _ItemParse_asset_model     30022730 f   ui_shared.obj
 0001:00021790       _ItemParse_asset_shader    30022790 f   ui_shared.obj
 0001:000217d0       _ItemParse_model_origin    300227d0 f   ui_shared.obj
 0001:00021830       _ItemParse_model_fovy      30022830 f   ui_shared.obj
 0001:00021830       _ItemParse_elementheight   30022830 f   ui_shared.obj
 0001:00021860       _ItemParse_model_rotation  30022860 f   ui_shared.obj
 0001:00021890       _ItemParse_model_angle     30022890 f   ui_shared.obj
 0001:000218c0       _ItemParse_rect            300228c0 f   ui_shared.obj
 0001:000218e0       _ItemParse_decoration      300228e0 f   ui_shared.obj
 0001:000218f0       _ItemParse_notselectable   300228f0 f   ui_shared.obj
 0001:00021930       _ItemParse_wrapped         30022930 f   ui_shared.obj
 0001:00021950       _ItemParse_autowrapped     30022950 f   ui_shared.obj
 0001:00021970       _ItemParse_horizontalscroll 30022970 f   ui_shared.obj
 0001:00021990       _ItemParse_type            30022990 f   ui_shared.obj
 0001:000219c0       _ItemParse_model_fovx      300229c0 f   ui_shared.obj
 0001:000219c0       _ItemParse_elementwidth    300229c0 f   ui_shared.obj
 0001:000219f0       _ItemParse_elementtype     300229f0 f   ui_shared.obj
 0001:00021a30       _ItemParse_columns         30022a30 f   ui_shared.obj
 0001:00021b00       _ItemParse_visible         30022b00 f   ui_shared.obj
 0001:00021b00       _MenuParse_visible         30022b00 f   ui_shared.obj
 0001:00021b30       _ItemParse_ownerdraw       30022b30 f   ui_shared.obj
 0001:00021b60       _ItemParse_textalign       30022b60 f   ui_shared.obj
 0001:00021b80       _ItemParse_textaligny      30022b80 f   ui_shared.obj
 0001:00021ba0       _ItemParse_textscale       30022ba0 f   ui_shared.obj
 0001:00021bc0       _ItemParse_textstyle       30022bc0 f   ui_shared.obj
 0001:00021be0       _MenuParse_backcolor       30022be0 f   ui_shared.obj
 0001:00021be0       _ItemParse_backcolor       30022be0 f   ui_shared.obj
 0001:00021c30       _ItemParse_bordercolor     30022c30 f   ui_shared.obj
 0001:00021c30       _MenuParse_bordercolor     30022c30 f   ui_shared.obj
 0001:00021c80       _MenuParse_background      30022c80 f   ui_shared.obj
 0001:00021c80       _ItemParse_background      30022c80 f   ui_shared.obj
 0001:00021cc0       _ItemParse_doubleClick     30022cc0 f   ui_shared.obj
 0001:00021d00       _ItemParse_onFocus         30022d00 f   ui_shared.obj
 0001:00021d20       _ItemParse_leaveFocus      30022d20 f   ui_shared.obj
 0001:00021d40       _ItemParse_mouseEnter      30022d40 f   ui_shared.obj
 0001:00021d60       _ItemParse_mouseExit       30022d60 f   ui_shared.obj
 0001:00021d80       _ItemParse_mouseEnterText  30022d80 f   ui_shared.obj
 0001:00021da0       _ItemParse_mouseExitText   30022da0 f   ui_shared.obj
 0001:00021dc0       _ItemParse_action          30022dc0 f   ui_shared.obj
 0001:00021de0       _ItemParse_special         30022de0 f   ui_shared.obj
 0001:00021de0       _ItemParse_feeder          30022de0 f   ui_shared.obj
 0001:00021e00       _ItemParse_cvarTest        30022e00 f   ui_shared.obj
 0001:00021e20       _ItemParse_cvar            30022e20 f   ui_shared.obj
 0001:00021e70       _ItemParse_maxChars        30022e70 f   ui_shared.obj
 0001:00021ec0       _ItemParse_maxPaintChars   30022ec0 f   ui_shared.obj
 0001:00021f10       _ItemParse_cvarFloat       30022f10 f   ui_shared.obj
 0001:00021f80       _ItemParse_cvarStrList     30022f80 f   ui_shared.obj
 0001:00022080       _ItemParse_cvarFloatList   30023080 f   ui_shared.obj
 0001:00022170       _ItemParse_addColorRange   30023170 f   ui_shared.obj
 0001:000221f0       _ItemParse_enableCvar      300231f0 f   ui_shared.obj
 0001:00022220       _ItemParse_disableCvar     30023220 f   ui_shared.obj
 0001:00022260       _ItemParse_showCvar        30023260 f   ui_shared.obj
 0001:000222a0       _ItemParse_hideCvar        300232a0 f   ui_shared.obj
 0001:000222e0       _Item_Parse                300232e0 f   ui_shared.obj
 0001:000223b0       _Item_InitControls         300233b0 f   ui_shared.obj
 0001:000223e0       _MenuParse_font            300233e0 f   ui_shared.obj
 0001:00022440       _MenuParse_name            30023440 f   ui_shared.obj
 0001:00022480       _MenuParse_fullscreen      30023480 f   ui_shared.obj
 0001:000224a0       _MenuParse_rect            300234a0 f   ui_shared.obj
 0001:000224c0       _ItemParse_style           300234c0 f   ui_shared.obj
 0001:000224c0       _MenuParse_style           300234c0 f   ui_shared.obj
 0001:000224e0       _MenuParse_onOpen          300234e0 f   ui_shared.obj
 0001:00022500       _MenuParse_onClose         30023500 f   ui_shared.obj
 0001:00022520       _MenuParse_onESC           30023520 f   ui_shared.obj
 0001:00022540       _MenuParse_border          30023540 f   ui_shared.obj
 0001:00022540       _ItemParse_border          30023540 f   ui_shared.obj
 0001:00022560       _ItemParse_bordersize      30023560 f   ui_shared.obj
 0001:00022560       _MenuParse_borderSize      30023560 f   ui_shared.obj
 0001:00022580       _MenuParse_forecolor       30023580 f   ui_shared.obj
 0001:00022580       _ItemParse_forecolor       30023580 f   ui_shared.obj
 0001:000225d0       _MenuParse_focuscolor      300235d0 f   ui_shared.obj
 0001:00022620       _MenuParse_disablecolor    30023620 f   ui_shared.obj
 0001:00022670       _ItemParse_outlinecolor    30023670 f   ui_shared.obj
 0001:00022670       _MenuParse_outlinecolor    30023670 f   ui_shared.obj
 0001:00022690       _MenuParse_cinematic       30023690 f   ui_shared.obj
 0001:00022690       _ItemParse_cinematic       30023690 f   ui_shared.obj
 0001:000226b0       _MenuParse_ownerdrawFlag   300236b0 f   ui_shared.obj
 0001:000226b0       _ItemParse_ownerdrawFlag   300236b0 f   ui_shared.obj
 0001:000226e0       _MenuParse_ownerdraw       300236e0 f   ui_shared.obj
 0001:00022700       _MenuParse_popup           30023700 f   ui_shared.obj
 0001:00022720       _MenuParse_outOfBounds     30023720 f   ui_shared.obj
 0001:00022740       _ItemParse_text            30023740 f   ui_shared.obj
 0001:00022740       _MenuParse_soundLoop       30023740 f   ui_shared.obj
 0001:00022760       _MenuParse_fadeClamp       30023760 f   ui_shared.obj
 0001:00022780       _MenuParse_fadeAmount      30023780 f   ui_shared.obj
 0001:00022780       _ItemParse_textalignx      30023780 f   ui_shared.obj
 0001:000227a0       _ItemParse_align           300237a0 f   ui_shared.obj
 0001:000227a0       _MenuParse_fadeCycle       300237a0 f   ui_shared.obj
 0001:000227c0       _MenuParse_itemDef         300237c0 f   ui_shared.obj
 0001:00022860       __fpmath                   30023860 f   LIBC:fpinit.obj
 0001:00022877       __fpclear                  30023877 f   LIBC:fpinit.obj
 0001:00022878       __cfltcvt_init             30023878 f   LIBC:fpinit.obj
 0001:000228b0       __ftol                     300238b0 f   LIBC:ftol.obj
 0001:000228d7       _atol                      300238d7 f   LIBC:atox.obj
 0001:00022962       _atoi                      30023962 f   LIBC:atox.obj
 0001:0002296d       _rand                      3002396d f   LIBC:rand.obj
 0001:0002298b       _vsprintf                  3002398b f   LIBC:vsprintf.obj
 0001:000229e0       __chkstk                   300239e0 f   LIBC:chkstk.obj
 0001:000229e0       __alloca_probe             300239e0 f   LIBC:chkstk.obj
 0001:00022a0f       _floor                     30023a0f f   LIBC:floor.obj
 0001:00022ade       _atof                      30023ade f   LIBC:atof.obj
 0001:00022b40       _strchr                    30023b40 f   LIBC:strchr.obj
 0001:00022b46       ___from_strstr_to_strchr   30023b46 f   LIBC:strchr.obj
 0001:00022c00       __CIacos                   30023c00 f   LIBC:acos.obj
 0001:00022c14       _acos                      30023c14 f   LIBC:acos.obj
 0001:00022cd0       _strncpy                   30023cd0 f   LIBC:strncpy.obj
 0001:00022dd0       _strstr                    30023dd0 f   LIBC:strstr.obj
 0001:00022e50       _tolower                   30023e50 f   LIBC:tolower.obj
 0001:00022f20       _memmove                   30023f20 f   LIBC:memmove.obj
 0001:00023255       __CRT_INIT@12              30024255 f   LIBC:dllcrt0.obj
 0001:0002330d       __DllMainCRTStartup@12     3002430d f   LIBC:dllcrt0.obj
 0001:000233aa       __amsg_exit                300243aa f   LIBC:dllcrt0.obj
 0001:000233dd       __setdefaultprecision      300243dd f   LIBC:fp8.obj
 0001:000233ef       __ms_p5_test_fdiv          300243ef f   LIBC:testfdiv.obj
 0001:0002342d       __ms_p5_mp_test_fdiv       3002442d f   LIBC:testfdiv.obj
 0001:00023456       __forcdecpt                30024456 f   LIBC:cvt.obj
 0001:000234b0       __cropzeros                300244b0 f   LIBC:cvt.obj
 0001:000234fe       __positive                 300244fe f   LIBC:cvt.obj
 0001:00023516       __fassign                  30024516 f   LIBC:cvt.obj
 0001:00023554       __cftoe                    30024554 f   LIBC:cvt.obj
 0001:00023658       __cftof                    30024658 f   LIBC:cvt.obj
 0001:00023736       __cftog                    30024736 f   LIBC:cvt.obj
 0001:0002381b       __cfltcvt                  3002481b f   LIBC:cvt.obj
 0001:00023891       __isctype                  30024891 f   LIBC:isctype.obj
 0001:00023910       __allmul                   30024910 f   LIBC:llmul.obj
 0001:00023944       __flsbuf                   30024944 f   LIBC:_flsbuf.obj
 0001:00023a59       __output                   30024a59 f   LIBC:output.obj
 0001:00024263       __handle_qnan1             30025263 f   LIBC:fpexcept.obj
 0001:000242b6       __except1                  300252b6 f   LIBC:fpexcept.obj
 0001:0002434e       __raise_exc                3002534e f   LIBC:fpexcept.obj
 0001:00024601       __handle_exc               30025601 f   LIBC:fpexcept.obj
 0001:00024818       __umatherr                 30025818 f   LIBC:fpexcept.obj
 0001:000248a0       __set_errno                300258a0 f   LIBC:fpexcept.obj
 0001:000248eb       __errcode                  300258eb f   LIBC:fpexcept.obj
 0001:00024918       __frnd                     30025918 f   LIBC:frnd.obj
 0001:0002492a       __set_exp                  3002592a f   LIBC:util.obj
 0001:00024953       __sptype                   30025953 f   LIBC:util.obj
 0001:000249ad       __decomp                   300259ad f   LIBC:util.obj
 0001:00024a6e       __statfp                   30025a6e f   LIBC:fpctrl.obj
 0001:00024a7c       __clrfp                    30025a7c f   LIBC:fpctrl.obj
 0001:00024a8b       __ctrlfp                   30025a8b f   LIBC:fpctrl.obj
 0001:00024aae       __set_statfp               30025aae f   LIBC:fpctrl.obj
 0001:00024b04       __fltin                    30025b04 f   LIBC:cfin.obj
 0001:00024ba0       _strlen                    30025ba0 f   LIBC:strlen.obj
 0001:00024c20       __trandisp1                30025c20 f   LIBC:87disp.obj
 0001:00024c87       __trandisp2                30025c87 f   LIBC:87disp.obj
 0001:00024d13       __rttospopde               30025d13 f   LIBC:87disp.obj
 0001:00024d18       __rttospop                 30025d18 f   LIBC:87disp.obj
 0001:00024d1a       __rtnospop                 30025d1a f   LIBC:87disp.obj
 0001:00024d1c       __rttosnpop                30025d1c f   LIBC:87disp.obj
 0001:00024d1d       __rtnospopde               30025d1d f   LIBC:87disp.obj
 0001:00024d24       __rtzeropop                30025d24 f   LIBC:87disp.obj
 0001:00024d26       __rtzeronpop               30025d26 f   LIBC:87disp.obj
 0001:00024d2b       __rtonepop                 30025d2b f   LIBC:87disp.obj
 0001:00024d2d       __rtonenpop                30025d2d f   LIBC:87disp.obj
 0001:00024d32       __tosnan1                  30025d32 f   LIBC:87disp.obj
 0001:00024d5d       __nosnan2                  30025d5d f   LIBC:87disp.obj
 0001:00024d5f       __tosnan2                  30025d5f f   LIBC:87disp.obj
 0001:00024d87       __nan2                     30025d87 f   LIBC:87disp.obj
 0001:00024dc6       __rtindfpop                30025dc6 f   LIBC:87disp.obj
 0001:00024dc8       __rtindfnpop               30025dc8 f   LIBC:87disp.obj
 0001:00024dd9       __rttosnpopde              30025dd9 f   LIBC:87disp.obj
 0001:00024de3       __rtchsifneg               30025de3 f   LIBC:87disp.obj
 0001:00024df0       __startTwoArgErrorHandling 30025df0 f   LIBC:genexcep.obj
 0001:00024e07       __startOneArgErrorHandling 30025e07 f   LIBC:genexcep.obj
 0001:00024e50       __twoToTOS                 30025e50 f   LIBC:common.obj
 0001:00024e65       __load_CW                  30025e65 f   LIBC:common.obj
 0001:00024e7c       __convertTOStoQNaN         30025e7c f   LIBC:common.obj
 0001:00024e95       __fload_withFB             30025e95 f   LIBC:common.obj
 0001:00024ed8       __checkTOS_withFB          30025ed8 f   LIBC:common.obj
 0001:00024eee       __fast_exit                30025eee f   LIBC:common.obj
 0001:00024efb       __math_exit                30025efb f   LIBC:common.obj
 0001:00024f25       __check_overflow_exit      30025f25 f   LIBC:common.obj
 0001:00024f39       __check_range_exit         30025f39 f   LIBC:common.obj
 0001:00024fdc       ___crtLCMapStringA         30025fdc f   LIBC:a_map.obj
 0001:0002522b       __cinit                    3002622b f   LIBC:crt0dat.obj
 0001:00025258       __exit                     30026258 f   LIBC:crt0dat.obj
 0001:00025269       __cexit                    30026269 f   LIBC:crt0dat.obj
 0001:0002532b       __heap_init                3002632b f   LIBC:heapinit.obj
 0001:00025367       __heap_term                30026367 f   LIBC:heapinit.obj
 0001:000253dc       __ioinit                   300263dc f   LIBC:ioinit.obj
 0001:00025587       __ioterm                   30026587 f   LIBC:ioinit.obj
 0001:000255aa       __setenvp                  300265aa f   LIBC:stdenvp.obj
 0001:00025663       __setargv                  30026663 f   LIBC:stdargv.obj
 0001:000258b0       ___crtGetEnvironmentStringsA 300268b0 f   LIBC:a_env.obj
 0001:000259e2       _DllMain@12                300269e2 f   LIBC:dllmain.obj
 0001:00025a02       __FF_MSGBANNER             30026a02 f   LIBC:crt0msg.obj
 0001:00025a3b       __NMSG_WRITE               30026a3b f   LIBC:crt0msg.obj
 0001:00025b8e       __control87                30026b8e f   LIBC:ieee87.obj
 0001:00025bc3       __controlfp                30026bc3 f   LIBC:ieee87.obj
 0001:00025cf4       __ZeroTail                 30026cf4 f   LIBC:intrncvt.obj
 0001:00025d3d       __IncMan                   30026d3d f   LIBC:intrncvt.obj
 0001:00025d93       __RoundMan                 30026d93 f   LIBC:intrncvt.obj
 0001:00025e1f       __CopyMan                  30026e1f f   LIBC:intrncvt.obj
 0001:00025e3a       __FillZeroMan              30026e3a f   LIBC:intrncvt.obj
 0001:00025e46       __IsZeroMan                30026e46 f   LIBC:intrncvt.obj
 0001:00025e61       __ShrMan                   30026e61 f   LIBC:intrncvt.obj
 0001:00025eee       __ld12cvt                  30026eee f   LIBC:intrncvt.obj
 0001:0002605a       __ld12tod                  3002705a f   LIBC:intrncvt.obj
 0001:00026070       __ld12tof                  30027070 f   LIBC:intrncvt.obj
 0001:00026086       __atodbl                   30027086 f   LIBC:intrncvt.obj
 0001:000260b3       __atoflt                   300270b3 f   LIBC:intrncvt.obj
 0001:000260e0       _strcpy                    300270e0 f   LIBC:strcat.obj
 0001:000260f0       _strcat                    300270f0 f   LIBC:strcat.obj
 0001:000261d0       __fptostr                  300271d0 f   LIBC:_fptostr.obj
 0001:00026247       __fltout                   30027247 f   LIBC:cfout.obj
 0001:000262ab       ___dtold                   300272ab f   LIBC:cfout.obj
 0001:00026370       _memset                    30027370 f   LIBC:memset.obj
 0001:000263c8       __fptrap                   300273c8 f   LIBC:crt0fp.obj
 0001:000263d1       ___crtGetStringTypeA       300273d1 f   LIBC:a_str.obj
 0001:0002651a       __lseek                    3002751a f   LIBC:lseek.obj
 0001:000265b4       __write                    300275b4 f   LIBC:write.obj
 0001:00026761       __getbuf                   30027761 f   LIBC:_getbuf.obj
 0001:000267a5       __isatty                   300277a5 f   LIBC:isatty.obj
 0001:000267cb       ___initstdio               300277cb f   LIBC:_file.obj
 0001:00026870       ___endstdio                30027870 f   LIBC:_file.obj
 0001:00026884       _wctomb                    30027884 f   LIBC:wctomb.obj
 0001:000268f0       __aulldiv                  300278f0 f   LIBC:ulldiv.obj
 0001:00026960       __aullrem                  30027960 f   LIBC:ullrem.obj
 0001:000269d5       __matherr                  300279d5 f   LIBC:matherr.obj
 0001:000269d8       ___strgtold12              300279d8 f   LIBC:strgtold.obj
 0001:00026ea9       __87except                 30027ea9 f   LIBC:87except.obj
 0001:00026f7c       __global_unwind2           30027f7c f   LIBC:exsup.obj
 0001:00026fbe       __local_unwind2            30027fbe f   LIBC:exsup.obj
 0001:00027016       __NLG_Return2              30028016 f   LIBC:exsup.obj
 0001:00027026       __abnormal_termination     30028026 f   LIBC:exsup.obj
 0001:00027049       __NLG_Notify1              30028049 f   LIBC:exsup.obj
 0001:00027052       __NLG_Notify               30028052 f   LIBC:exsup.obj
 0001:00027065       __NLG_Dispatch             30028065 f   LIBC:exsup.obj
 0001:00027074       __except_handler3          30028074 f   LIBC:exsup3.obj
 0001:00027131       __seh_longjmp_unwind@4     30028131 f   LIBC:exsup3.obj
 0001:0002714c       ___sbh_heap_init           3002814c f   LIBC:sbheap.obj
 0001:0002718a       ___sbh_find_block          3002818a f   LIBC:sbheap.obj
 0001:000271b5       ___sbh_free_block          300281b5 f   LIBC:sbheap.obj
 0001:000274e0       ___sbh_alloc_block         300284e0 f   LIBC:sbheap.obj
 0001:000277e9       ___sbh_alloc_new_region    300287e9 f   LIBC:sbheap.obj
 0001:0002789a       ___sbh_alloc_new_group     3002889a f   LIBC:sbheap.obj
 0001:00027995       _malloc                    30028995 f   LIBC:malloc.obj
 0001:000279a7       __nh_malloc                300289a7 f   LIBC:malloc.obj
 0001:000279d3       __heap_alloc               300289d3 f   LIBC:malloc.obj
 0001:00027a09       _free                      30028a09 f   LIBC:free.obj
 0001:00027a38       __setmbcp                  30028a38 f   LIBC:mbctype.obj
 0001:00027dfc       ___initmbctable            30028dfc f   LIBC:mbctype.obj
 0001:00027e20       _memcpy                    30028e20 f   LIBC:memcpy.obj
 0001:00028155       ___crtMessageBoxA          30029155 f   LIBC:crtmbox.obj
 0001:000281de       ___addl                    300291de f   LIBC:mantold.obj
 0001:000281ff       ___add_12                  300291ff f   LIBC:mantold.obj
 0001:0002825d       ___shl_12                  3002925d f   LIBC:mantold.obj
 0001:0002828b       ___shr_12                  3002928b f   LIBC:mantold.obj
 0001:000282b8       ___mtold12                 300292b8 f   LIBC:mantold.obj
 0001:0002837f       _$I10_OUTPUT               3002937f f   LIBC:x10fout.obj
 0001:00028612       __dosmaperr                30029612 f   LIBC:dosmap.obj
 0001:00028679       __free_osfhnd              30029679 f   LIBC:osfinfo.obj
 0001:000286f3       __get_osfhandle            300296f3 f   LIBC:osfinfo.obj
 0001:00028730       _calloc                    30029730 f   LIBC:calloc.obj
 0001:000287ad       __fcloseall                300297ad f   LIBC:closeall.obj
 0001:00028805       _fflush                    30029805 f   LIBC:fflush.obj
 0001:00028840       __flush                    30029840 f   LIBC:fflush.obj
 0001:0002889c       __flushall                 3002989c f   LIBC:fflush.obj
 0001:00028912       ___ld12mul                 30029912 f   LIBC:tenpow.obj
 0001:00028b32       ___multtenpow12            30029b32 f   LIBC:tenpow.obj
 0001:00028bae       __callnewh                 30029bae f   LIBC:handler.obj
 0001:00028bc9       _fclose                    30029bc9 f   LIBC:fclose.obj
 0001:00028c1f       __commit                   30029c1f f   LIBC:commit.obj
 0001:00028c76       __close                    30029c76 f   LIBC:close.obj
 0001:00028d29       __freebuf                  30029d29 f   LIBC:_freebuf.obj
 0001:00028d54       _RtlUnwind@16              30029d54 f   kernel32:KERNEL32.dll
 0002:00000000       __imp__FreeEnvironmentStringsW@4 3002a000     kernel32:KERNEL32.dll
 0002:00000004       __imp__GetVersion@0        3002a004     kernel32:KERNEL32.dll
 0002:00000008       __imp__GetProcAddress@8    3002a008     kernel32:KERNEL32.dll
 0002:0000000c       __imp__GetModuleHandleA@4  3002a00c     kernel32:KERNEL32.dll
 0002:00000010       __imp__RaiseException@16   3002a010     kernel32:KERNEL32.dll
 0002:00000014       __imp__WideCharToMultiByte@32 3002a014     kernel32:KERNEL32.dll
 0002:00000018       __imp__MultiByteToWideChar@24 3002a018     kernel32:KERNEL32.dll
 0002:0000001c       __imp__LCMapStringA@24     3002a01c     kernel32:KERNEL32.dll
 0002:00000020       __imp__LCMapStringW@24     3002a020     kernel32:KERNEL32.dll
 0002:00000024       __imp__ExitProcess@4       3002a024     kernel32:KERNEL32.dll
 0002:00000028       __imp__TerminateProcess@8  3002a028     kernel32:KERNEL32.dll
 0002:0000002c       __imp__GetCurrentProcess@0 3002a02c     kernel32:KERNEL32.dll
 0002:00000030       __imp__HeapDestroy@4       3002a030     kernel32:KERNEL32.dll
 0002:00000034       __imp__HeapCreate@12       3002a034     kernel32:KERNEL32.dll
 0002:00000038       __imp__VirtualFree@12      3002a038     kernel32:KERNEL32.dll
 0002:0000003c       __imp__HeapFree@12         3002a03c     kernel32:KERNEL32.dll
 0002:00000040       __imp__SetHandleCount@4    3002a040     kernel32:KERNEL32.dll
 0002:00000044       __imp__GetStdHandle@4      3002a044     kernel32:KERNEL32.dll
 0002:00000048       __imp__GetFileType@4       3002a048     kernel32:KERNEL32.dll
 0002:0000004c       __imp__GetStartupInfoA@4   3002a04c     kernel32:KERNEL32.dll
 0002:00000050       __imp__GetModuleFileNameA@12 3002a050     kernel32:KERNEL32.dll
 0002:00000054       __imp__FreeEnvironmentStringsA@4 3002a054     kernel32:KERNEL32.dll
 0002:00000058       __imp__GetCommandLineA@0   3002a058     kernel32:KERNEL32.dll
 0002:0000005c       __imp__GetEnvironmentStrings@0 3002a05c     kernel32:KERNEL32.dll
 0002:00000060       __imp__GetEnvironmentStringsW@0 3002a060     kernel32:KERNEL32.dll
 0002:00000064       __imp__DisableThreadLibraryCalls@4 3002a064     kernel32:KERNEL32.dll
 0002:00000068       __imp__WriteFile@20        3002a068     kernel32:KERNEL32.dll
 0002:0000006c       __imp__GetStringTypeA@20   3002a06c     kernel32:KERNEL32.dll
 0002:00000070       __imp__GetStringTypeW@16   3002a070     kernel32:KERNEL32.dll
 0002:00000074       __imp__GetLastError@0      3002a074     kernel32:KERNEL32.dll
 0002:00000078       __imp__SetFilePointer@16   3002a078     kernel32:KERNEL32.dll
 0002:0000007c       __imp__RtlUnwind@16        3002a07c     kernel32:KERNEL32.dll
 0002:00000080       __imp__HeapAlloc@12        3002a080     kernel32:KERNEL32.dll
 0002:00000084       __imp__VirtualAlloc@16     3002a084     kernel32:KERNEL32.dll
 0002:00000088       __imp__HeapReAlloc@16      3002a088     kernel32:KERNEL32.dll
 0002:0000008c       __imp__GetCPInfo@8         3002a08c     kernel32:KERNEL32.dll
 0002:00000090       __imp__GetACP@0            3002a090     kernel32:KERNEL32.dll
 0002:00000094       __imp__GetOEMCP@0          3002a094     kernel32:KERNEL32.dll
 0002:00000098       __imp__LoadLibraryA@4      3002a098     kernel32:KERNEL32.dll
 0002:0000009c       __imp__SetStdHandle@8      3002a09c     kernel32:KERNEL32.dll
 0002:000000a0       __imp__FlushFileBuffers@4  3002a0a0     kernel32:KERNEL32.dll
 0002:000000a4       __imp__CloseHandle@4       3002a0a4     kernel32:KERNEL32.dll
 0002:000000a8       \177KERNEL32_NULL_THUNK_DATA 3002a0a8     kernel32:KERNEL32.dll
 0002:000000b0       __real@4@c0049000000000000000 3002a0b0     bg_misc.obj
 0002:000000b4       __real@4@40049000000000000000 3002a0b4     bg_misc.obj
 0002:000000b8       __real@4@c004c800000000000000 3002a0b8     bg_misc.obj
 0002:000000bc       __real@4@4004b000000000000000 3002a0bc     bg_misc.obj
 0002:000000c0       __real@8@4007c800000000000000 3002a0c0     bg_misc.obj
 0002:000000c8       __real@4@00000000000000000000 3002a0c8     bg_misc.obj
 0002:000000cc       __real@4@4001c90fdb0000000000 3002a0cc     bg_misc.obj
 0002:000000d0       __real@8@3ff583126e978d4fe000 3002a0d0     bg_misc.obj
 0002:000000d8       __real@4@4008c800000000000000 3002a0d8     bg_misc.obj
 0002:000000e0       __real@8@3ffe8000000000000000 3002a0e0     bg_misc.obj
 0002:000000e8       __real@4@4004b400000000000000 3002a0e8     bg_misc.obj
 0002:000000f0       __real@8@3ff7b400000000000000 3002a0f0     bg_pmove.obj
 0002:000000f8       __real@4@3fff8000000000000000 3002a0f8     bg_pmove.obj
 0002:000000fc       __real@4@c004f000000000000000 3002a0fc     bg_pmove.obj
 0002:00000100       __real@8@4005fe00000000000000 3002a100     bg_pmove.obj
 0002:00000108       __real@4@4006c800000000000000 3002a108     bg_pmove.obj
 0002:0000010c       __real@4@40038000000000000000 3002a10c     bg_pmove.obj
 0002:00000110       __real@4@40018000000000000000 3002a110     bg_pmove.obj
 0002:00000114       __real@4@4003f000000000000000 3002a114     bg_pmove.obj
 0002:00000118       __real@4@4002a000000000000000 3002a118     bg_pmove.obj
 0002:0000011c       __real@4@4005c800000000000000 3002a11c     bg_pmove.obj
 0002:00000120       __real@4@c0038000000000000000 3002a120     bg_pmove.obj
 0002:00000128       __real@8@3fff8000000000000000 3002a128     bg_pmove.obj
 0002:00000130       __real@8@3ffdaaaaaaaaaaaaa800 3002a130     bg_pmove.obj
 0002:00000138       __real@4@4003a000000000000000 3002a138     bg_pmove.obj
 0002:00000140       __real@8@3fffc000000000000000 3002a140     bg_pmove.obj
 0002:00000148       __real@4@c006c800000000000000 3002a148     bg_pmove.obj
 0002:0000014c       __real@4@3ffeb333330000000000 3002a14c     bg_pmove.obj
 0002:00000150       __real@8@3ffd8000000000000000 3002a150     bg_pmove.obj
 0002:00000158       __real@4@4001e000000000000000 3002a158     bg_pmove.obj
 0002:0000015c       __real@4@4004a000000000000000 3002a15c     bg_pmove.obj
 0002:00000160       __real@4@4004f000000000000000 3002a160     bg_pmove.obj
 0002:00000168       __real@8@3ff1d1b71758e2196800 3002a168     bg_pmove.obj
 0002:00000170       __real@4@3ffe8000000000000000 3002a170     bg_pmove.obj
 0002:00000174       __real@4@40058000000000000000 3002a174     bg_pmove.obj
 0002:00000178       __real@4@4003c000000000000000 3002a178     bg_pmove.obj
 0002:0000017c       __real@4@4003b800000000000000 3002a17c     bg_pmove.obj
 0002:00000180       __real@4@4001a000000000000000 3002a180     bg_pmove.obj
 0002:00000188       __real@8@3ffec4ec4ec4ec4ec000 3002a188     bg_pmove.obj
 0002:00000190       __real@8@3ffbccccccccccccd000 3002a190     bg_slidemove.obj
 0002:00000198       __real@8@3ffefd70a3d70a3d7000 3002a198     bg_slidemove.obj
 0002:000001a0       __real@4@4002f000000000000000 3002a1a0     bg_slidemove.obj
 0002:000001a4       __real@4@4002b000000000000000 3002a1a4     bg_slidemove.obj
 0002:000001a8       __real@4@40008000000000000000 3002a1a8     bg_slidemove.obj
 0002:000001b0       __real@8@3ffeb333333333333000 3002a1b0     bg_slidemove.obj
 0002:000001b8       __real@4@40039000000000000000 3002a1b8     bg_slidemove.obj
 0002:000001c0       __real@8@4000eece540f4898d000 3002a1c0     cg_draw.obj
 0002:000001c8       __real@8@bffe8000000000000000 3002a1c8     cg_draw.obj
 0002:000001d0       __real@8@4004f000000000000000 3002a1d0     cg_draw.obj
 0002:000001d8       __real@8@3ff483126e978d4fe000 3002a1d8     cg_draw.obj
 0002:000001e0       __real@4@bffe8000000000000000 3002a1e0     cg_draw.obj
 0002:000001e8       __real@8@3ff48000000000000000 3002a1e8     cg_draw.obj
 0002:000001f0       __real@8@4005b400000000000000 3002a1f0     cg_draw.obj
 0002:000001f8       __real@8@4003a000000000000000 3002a1f8     cg_draw.obj
 0002:00000200       __real@4@4007f000000000000000 3002a200     cg_draw.obj
 0002:00000204       __real@4@4000c000000000000000 3002a204     cg_draw.obj
 0002:00000208       __real@4@4009fa00000000000000 3002a208     cg_draw.obj
 0002:00000210       __real@8@4001a000000000000000 3002a210     cg_draw.obj
 0002:00000218       __real@8@4006b400000000000000 3002a218     cg_draw.obj
 0002:00000220       __real@8@4000c90fdb0000000000 3002a220     cg_draw.obj
 0002:00000228       __real@4@3ff08001000200040000 3002a228     cg_draw.obj
 0002:0000022c       __real@4@4006b400000000000000 3002a22c     cg_draw.obj
 0002:00000230       __real@4@3ff683126e978d4fe000 3002a230     cg_draw.obj
 0002:00000234       __real@4@4007fa00000000000000 3002a234     cg_draw.obj
 0002:00000238       __real@4@40028000000000000000 3002a238     cg_draw.obj
 0002:0000023c       __real@4@4008a000000000000000 3002a23c     cg_draw.obj
 0002:00000240       __real@8@4004c000000000000000 3002a240     cg_draw.obj
 0002:00000248       __real@4@3ff7a3d70a3d70a3d800 3002a248     cg_draw.obj
 0002:0000024c       __real@4@3ff583126e978d4fe000 3002a24c     cg_draw.obj
 0002:00000250       __real@4@4004c000000000000000 3002a250     cg_draw.obj
 0002:00000254       __real@4@4007d800000000000000 3002a254     cg_draw.obj
 0002:00000258       __real@4@3ff591a2b3c4d5e6f800 3002a258     cg_draw.obj
 0002:0000025c       __real@4@3ff6da740da740da7800 3002a25c     cg_draw.obj
 0002:00000260       __real@4@3ffdaaaaaaaaaaaaa800 3002a260     cg_draw.obj
 0002:00000264       __real@4@4008fa00000000000000 3002a264     cg_draw.obj
 0002:00000268       __real@4@4007a000000000000000 3002a268     cg_draw.obj
 0002:0000026c       __real@4@40108000000000000000 3002a26c     cg_draw.obj
 0002:00000270       __real@4@3fff8ccccd0000000000 3002a270     cg_draw.obj
 0002:00000274       __real@4@3fffc000000000000000 3002a274     cg_draw.obj
 0002:00000278       __real@4@3ffb8000000000000000 3002a278     cg_drawtools.obj
 0002:00000280       __real@8@3ffb8000000000000000 3002a280     cg_drawtools.obj
 0002:00000288       __real@8@3ff98000000000000000 3002a288     cg_drawtools.obj
 0002:00000290       __real@8@3ff7a3d70a3d70a3d800 3002a290     cg_drawtools.obj
 0002:00000298       __real@8@3ffa8888888888888800 3002a298     cg_drawtools.obj
 0002:000002a0       __real@8@3ff9f83e0f83e0f84000 3002a2a0     cg_drawtools.obj
 0002:000002a8       __real@8@3ffff878787878788000 3002a2a8     cg_drawtools.obj
 0002:000002b0       __real@4@3ff78000000000000000 3002a2b0     cg_drawtools.obj
 0002:000002b4       __real@4@3ffec000000000000000 3002a2b4     cg_drawtools.obj
 0002:000002b8       __real@8@3ffeccccccccccccd000 3002a2b8     cg_drawtools.obj
 0002:000002c0       __real@4@4003d800000000000000 3002a2c0     cg_drawtools.obj
 0002:000002c4       __real@4@3ffbd800000000000000 3002a2c4     cg_drawtools.obj
 0002:000002c8       __real@8@4001c000000000000000 3002a2c8     cg_effects.obj
 0002:000002d0       __real@4@4006fa00000000000000 3002a2d0     cg_effects.obj
 0002:000002d4       __real@4@4006ff00000000000000 3002a2d4     cg_effects.obj
 0002:000002d8       __real@4@4007b400000000000000 3002a2d8     cg_effects.obj
 0002:000002dc       __real@4@400abb80000000000000 3002a2dc     cg_effects.obj
 0002:000002e0       __real@8@4006fa00000000000000 3002a2e0     cg_effects.obj
 0002:000002e8       __real@8@4006c800000000000000 3002a2e8     cg_effects.obj
 0002:000002f0       __real@8@4005c800000000000000 3002a2f0     cg_effects.obj
 0002:000002f8       __real@4@4003c800000000000000 3002a2f8     cg_effects.obj
 0002:000002fc       __real@4@3ff58000000000000000 3002a2fc     cg_ents.obj
 0002:00000300       __real@4@bff58000000000000000 3002a300     cg_ents.obj
 0002:00000304       __real@4@4002c000000000000000 3002a304     cg_ents.obj
 0002:00000308       __real@8@40018000000000000000 3002a308     cg_ents.obj
 0002:00000310       __real@8@3feea7c5ac471b478800 3002a310     cg_ents.obj
 0002:00000318       __real@8@3fffb400000000000000 3002a318     cg_ents.obj
 0002:00000320       __real@4@40048000000000000000 3002a320     cg_event.obj
 0002:00000324       __real@4@c0008000000000000000 3002a324     cg_localents.obj
 0002:00000328       __real@8@40038000000000000000 3002a328     cg_localents.obj
 0002:00000330       __real@8@4002a000000000000000 3002a330     cg_localents.obj
 0002:00000338       __real@4@4005dc00000000000000 3002a338     cg_localents.obj
 0002:0000033c       __real@4@4008ff00000000000000 3002a33c     cg_localents.obj
 0002:00000340       __real@8@40028000000000000000 3002a340     cg_localents.obj
 0002:00000348       __real@8@4003f000000000000000 3002a348     cg_localents.obj
 0002:00000350       __real@8@4004a800000000000000 3002a350     cg_localents.obj
 0002:00000358       __real@8@3ffda8f5c28f5c28f800 3002a358     cg_localents.obj
 0002:00000360       __real@8@3ff68888888888888800 3002a360     cg_main.obj
 0002:00000368       __real@8@3ff5ccccccccccccd000 3002a368     cg_main.obj
 0002:00000370       __real@4@c003a000000000000000 3002a370     cg_marks.obj
 0002:00000378       __real@8@4007e100000000000000 3002a378     cg_marks.obj
 0002:00000380       __real@8@3ff3aec33e1f67152800 3002a380     cg_marks.obj
 0002:00000388       __real@4@400b8000000000000000 3002a388     cg_marks.obj
 0002:0000038c       __real@4@40098000000000000000 3002a38c     cg_marks.obj
 0002:00000390       __real@8@3ffeaaaaaaaaaaaaa800 3002a390     cg_marks.obj
 0002:00000398       __real@4@3ffefff9720000000000 3002a398     cg_marks.obj
 0002:000003a0       __real@8@40008000000000000000 3002a3a0     cg_marks.obj
 0002:000003a8       __real@4@3ff7b60b60b60b60b800 3002a3a8     cg_marks.obj
 0002:000003ac       __real@4@4000c90fdb0000000000 3002a3ac     cg_marks.obj
 0002:000003b0       __real@8@3ffee666666666666800 3002a3b0     cg_marks.obj
 0002:000003b8       __real@8@4004c800000000000000 3002a3b8     cg_marks.obj
 0002:000003c0       __real@8@4006b300000000000000 3002a3c0     cg_marks.obj
 0002:000003c8       __real@8@3ffdccccccccccccd000 3002a3c8     cg_marks.obj
 0002:000003d0       __real@4@3ffacccccd0000000000 3002a3d0     cg_players.obj
 0002:000003d4       __real@4@4005b400000000000000 3002a3d4     cg_players.obj
 0002:000003d8       __real@4@4004e52ee0681e792800 3002a3d8     cg_players.obj
 0002:000003dc       __real@4@bfff8000000000000000 3002a3dc     cg_players.obj
 0002:000003e0       __real@4@40068000000000000000 3002a3e0     cg_players.obj
 0002:000003e8       __real@8@bfff8000000000000000 3002a3e8     cg_playerstate.obj
 0002:000003f0       __real@4@3ffbcccccd0000000000 3002a3f0     cg_playerstate.obj
 0002:000003f8       __real@8@3fffb4b4b4b4b4b4b000 3002a3f8     cg_playerstate.obj
 0002:00000400       __real@8@4004a000000000000000 3002a400     cg_playerstate.obj
 0002:00000408       __real@4@3ff8a3d70b0000000000 3002a408     cg_predict.obj
 0002:00000460       __real@8@400ac800000000000000 3002a460     cg_unlagged.obj
 0002:00000468       __real@4@400c8000000000000000 3002a468     cg_unlagged.obj
 0002:0000046c       __real@4@4002e000000000000000 3002a46c     cg_unlagged.obj
 0002:00000470       __real@4@c0028000000000000000 3002a470     cg_view.obj
 0002:00000478       __real@8@3ff9caa5254a952a5000 3002a478     cg_view.obj
 0002:00000480       __real@8@c004e52ee0681e793000 3002a480     cg_view.obj
 0002:00000488       __real@8@40048000000000000000 3002a488     cg_view.obj
 0002:00000490       __real@4@3ff98efa355555555800 3002a490     cg_view.obj
 0002:00000494       __real@4@40088000000000000000 3002a494     cg_view.obj
 0002:00000498       __real@4@4007e100000000000000 3002a498     cg_view.obj
 0002:0000049c       __real@4@3ff7da740da740da7800 3002a49c     cg_view.obj
 0002:000004a0       __real@4@40069600000000000000 3002a4a0     cg_view.obj
 0002:000004a4       __real@4@4001c000000000000000 3002a4a4     cg_view.obj
 0002:000004a8       __real@4@3ff6a3d70a3d70a3d800 3002a4a8     cg_view.obj
 0002:000004ac       __real@4@3ff8a3d70a3d70a3d800 3002a4ac     cg_view.obj
 0002:000004b0       __real@8@3ff8da740da740da7800 3002a4b0     cg_view.obj
 0002:000004b8       __real@8@3ff6a4b5be76c8b43800 3002a4b8     cg_view.obj
 0002:000004c0       __real@4@4005e52ee0681e792800 3002a4c0     cg_view.obj
 0002:000004c4       __real@4@3ff88efa355555555800 3002a4c4     cg_view.obj
 0002:000004c8       __real@4@4006a000000000000000 3002a4c8     cg_view.obj
 0002:000004d0       __real@8@3ffec000000000000000 3002a4d0     cg_weapons.obj
 0002:000004d8       __real@4@4003d000000000000000 3002a4d8     cg_weapons.obj
 0002:000004e0       __real@8@3ffcccccccccccccd000 3002a4e0     cg_weapons.obj
 0002:000004e8       __real@4@4004fc00000000000000 3002a4e8     cg_weapons.obj
 0002:000004f0       __real@8@4005a000000000000000 3002a4f0     cg_weapons.obj
 0002:000004f8       __real@8@4005f000000000000000 3002a4f8     cg_weapons.obj
 0002:00000500       __real@8@4006ff00000000000000 3002a500     cg_weapons.obj
 0002:00000508       __real@4@3ff4aec33e1f67152800 3002a508     cg_weapons.obj
 0002:0000050c       __real@4@4008c000000000000000 3002a50c     cg_weapons.obj
 0002:00000510       __real@4@c006b400000000000000 3002a510     cg_weapons.obj
 0002:00000518       __real@8@bffcccccccccccccd000 3002a518     cg_weapons.obj
 0002:00000520       __real@8@3ff4da740da740da7800 3002a520     cg_weapons.obj
 0002:00000528       __real@8@3ff5da740da740da7800 3002a528     cg_weapons.obj
 0002:00000530       __real@8@3ff8a3d70a3d70a3d800 3002a530     cg_weapons.obj
 0002:00000538       __real@4@400caf00000000000000 3002a538     cg_weapons.obj
 0002:0000053c       __real@4@4004c800000000000000 3002a53c     cg_weapons.obj
 0002:00000540       __real@4@3fef8000000000000000 3002a540     q_math.obj
 0002:00000548       __real@8@4004e52ee0681e792800 3002a548     q_math.obj
 0002:00000550       __real@4@40078700000000000000 3002a550     q_math.obj
 0002:00000558       __real@8@4006b60b60b60b60b800 3002a558     q_math.obj
 0002:00000560       __real@8@4007b400000000000000 3002a560     q_math.obj
 0002:00000568       __real@4@3ff98efa350000000000 3002a568     q_math.obj
 0002:00000570       __real@8@00000000000000000000 3002a570     ui_shared.obj
 0002:00000578       __real@8@4015800bf60000000000 3002a578     LIBC:testfdiv.obj
 0002:00000580       __real@8@4014bffffc0000000000 3002a580     LIBC:testfdiv.obj
 0002:00000588       ??_C@_0BK@JEGK@IsProcessorFeaturePresent?$AA@ 3002a588     LIBC:testfdiv.obj
 0002:000005a4       ??_C@_08OBID@KERNEL32?$AA@ 3002a5a4     LIBC:testfdiv.obj
 0002:000005b0       ??_C@_05OFLO@e?$CL000?$AA@ 3002a5b0     LIBC:cvt.obj
 0002:000005b8       ___lookuptable             3002a5b8     LIBC:output.obj
 0002:00000614       ??_C@_1O@POHA@?$AA?$CI?$AAn?$AAu?$AAl?$AAl?$AA?$CJ?$AA?$AA@ 3002a614     LIBC:output.obj
 0002:00000624       ??_C@_06ONKE@?$CInull?$CJ?$AA@ 3002a624     LIBC:output.obj
 0002:0000062c       ??_C@_03GAFO@_yn?$AA@      3002a62c     LIBC:fpexcept.obj
 0002:00000630       ??_C@_03GNLD@_y1?$AA@      3002a630     LIBC:fpexcept.obj
 0002:00000634       ??_C@_03MHCE@_y0?$AA@      3002a634     LIBC:fpexcept.obj
 0002:00000638       ??_C@_05PAK@frexp?$AA@     3002a638     LIBC:fpexcept.obj
 0002:00000640       ??_C@_04JKCH@fmod?$AA@     3002a640     LIBC:fpexcept.obj
 0002:00000648       ??_C@_06GGHF@_hypot?$AA@   3002a648     LIBC:fpexcept.obj
 0002:00000650       ??_C@_05JNMC@_cabs?$AA@    3002a650     LIBC:fpexcept.obj
 0002:00000658       ??_C@_05MEKH@ldexp?$AA@    3002a658     LIBC:fpexcept.obj
 0002:00000660       ??_C@_04KAOJ@modf?$AA@     3002a660     LIBC:fpexcept.obj
 0002:00000668       ??_C@_04EHAJ@fabs?$AA@     3002a668     LIBC:fpexcept.obj
 0002:00000670       ??_C@_05MFBN@floor?$AA@    3002a670     LIBC:fpexcept.obj
 0002:00000678       ??_C@_04JJMP@ceil?$AA@     3002a678     LIBC:fpexcept.obj
 0002:00000680       ??_C@_03JLPI@tan?$AA@      3002a680     LIBC:fpexcept.obj
 0002:00000684       ??_C@_03DLFL@cos?$AA@      3002a684     LIBC:fpexcept.obj
 0002:00000688       ??_C@_03JAMN@sin?$AA@      3002a688     LIBC:fpexcept.obj
 0002:0000068c       ??_C@_04LMBE@sqrt?$AA@     3002a68c     LIBC:fpexcept.obj
 0002:00000694       ??_C@_05BFPO@atan2?$AA@    3002a694     LIBC:fpexcept.obj
 0002:0000069c       ??_C@_04EAGN@atan?$AA@     3002a69c     LIBC:fpexcept.obj
 0002:000006a4       ??_C@_04OAMO@acos?$AA@     3002a6a4     LIBC:fpexcept.obj
 0002:000006ac       ??_C@_04ELFI@asin?$AA@     3002a6ac     LIBC:fpexcept.obj
 0002:000006b4       ??_C@_04LFAD@tanh?$AA@     3002a6b4     LIBC:fpexcept.obj
 0002:000006bc       ??_C@_04PFKD@cosh?$AA@     3002a6bc     LIBC:fpexcept.obj
 0002:000006c4       ??_C@_04NPAI@sinh?$AA@     3002a6c4     LIBC:fpexcept.obj
 0002:000006cc       ??_C@_05IJHH@log10?$AA@    3002a6cc     LIBC:fpexcept.obj
 0002:000006d4       ??_C@_03BGKD@log?$AA@      3002a6d4     LIBC:fpexcept.obj
 0002:000006d8       ??_C@_03EGFG@pow?$AA@      3002a6d8     LIBC:fpexcept.obj
 0002:000006dc       ??_C@_03CDGJ@exp?$AA@      3002a6dc     LIBC:fpexcept.obj
 0002:000006e8       __DEFAULT_CW_in_mem        3002a6e8     LIBC:common.obj
 0002:000006ea       __pi_by_2_to_61            3002a6ea     LIBC:common.obj
 0002:00000724       ??_C@_01A@?$AA?$AA@        3002a724     LIBC:a_map.obj
 0002:00000728       ??_C@_13A@?$AA?$AA?$AA?$AA@ 3002a728     LIBC:a_map.obj
 0002:00000748       ??_C@_0P@GGKG@runtime?5error?5?$AA@ 3002a748     LIBC:crt0msg.obj
 0002:00000758       ??_C@_02PIMC@?$AN?6?$AA@   3002a758     LIBC:crt0msg.obj
 0002:0000075c       ??_C@_0O@DELO@TLOSS?5error?$AN?6?$AA@ 3002a75c     LIBC:crt0msg.obj
 0002:0000076c       ??_C@_0N@OMLL@SING?5error?$AN?6?$AA@ 3002a76c     LIBC:crt0msg.obj
 0002:0000077c       ??_C@_0P@OJAK@DOMAIN?5error?$AN?6?$AA@ 3002a77c     LIBC:crt0msg.obj
 0002:0000078c       ??_C@_0CF@EANP@R6028?$AN?6?9?5unable?5to?5initialize?5he@ 3002a78c     LIBC:crt0msg.obj
 0002:000007b4       ??_C@_0DF@ECGN@R6027?$AN?6?9?5not?5enough?5space?5for?5lo@ 3002a7b4     LIBC:crt0msg.obj
 0002:000007ec       ??_C@_0DF@FKAC@R6026?$AN?6?9?5not?5enough?5space?5for?5st@ 3002a7ec     LIBC:crt0msg.obj
 0002:00000824       ??_C@_0CG@DPMN@R6025?$AN?6?9?5pure?5virtual?5function?5c@ 3002a824     LIBC:crt0msg.obj
 0002:0000084c       ??_C@_0DF@CKIP@R6024?$AN?6?9?5not?5enough?5space?5for?5_o@ 3002a84c     LIBC:crt0msg.obj
 0002:00000884       ??_C@_0CJ@GGOE@R6019?$AN?6?9?5unable?5to?5open?5console?5@ 3002a884     LIBC:crt0msg.obj
 0002:000008b0       ??_C@_0CB@LBOB@R6018?$AN?6?9?5unexpected?5heap?5error?$AN?6@ 3002a8b0     LIBC:crt0msg.obj
 0002:000008d4       ??_C@_0CN@FPEG@R6017?$AN?6?9?5unexpected?5multithread?5@ 3002a8d4     LIBC:crt0msg.obj
 0002:00000904       ??_C@_0CM@OBIC@R6016?$AN?6?9?5not?5enough?5space?5for?5th@ 3002a904     LIBC:crt0msg.obj
 0002:00000930       ??_C@_0CB@HPAL@?$AN?6abnormal?5program?5termination?$AN?6@ 3002a930     LIBC:crt0msg.obj
 0002:00000954       ??_C@_0CM@JOOB@R6009?$AN?6?9?5not?5enough?5space?5for?5en@ 3002a954     LIBC:crt0msg.obj
 0002:00000980       ??_C@_0CK@OIBL@R6008?$AN?6?9?5not?5enough?5space?5for?5ar@ 3002a980     LIBC:crt0msg.obj
 0002:000009ac       ??_C@_0CF@LKPB@R6002?$AN?6?9?5floating?5point?5not?5load@ 3002a9ac     LIBC:crt0msg.obj
 0002:000009d4       ??_C@_0CF@JPDF@Microsoft?5Visual?5C?$CL?$CL?5Runtime?5Lib@ 3002a9d4     LIBC:crt0msg.obj
 0002:000009fc       ??_C@_02JJJH@?6?6?$AA@     3002a9fc     LIBC:crt0msg.obj
 0002:00000a00       ??_C@_0BK@DEOK@Runtime?5Error?$CB?6?6Program?3?5?$AA@ 3002aa00     LIBC:crt0msg.obj
 0002:00000a1c       ??_C@_03NAME@?4?4?4?$AA@   3002aa1c     LIBC:crt0msg.obj
 0002:00000a20       ??_C@_0BH@NNCD@?$DMprogram?5name?5unknown?$DO?$AA@ 3002aa20     LIBC:crt0msg.obj
 0002:00000a44       ??_C@_0BD@NJFP@GetLastActivePopup?$AA@ 3002aa44     LIBC:crtmbox.obj
 0002:00000a58       ??_C@_0BA@GILI@GetActiveWindow?$AA@ 3002aa58     LIBC:crtmbox.obj
 0002:00000a68       ??_C@_0M@PKCK@MessageBoxA?$AA@ 3002aa68     LIBC:crtmbox.obj
 0002:00000a74       ??_C@_0L@HKL@user32?4dll?$AA@ 3002aa74     LIBC:crtmbox.obj
 0002:00000a80       ??_C@_06PAPI@1?$CDQNAN?$AA@ 3002aa80     LIBC:x10fout.obj
 0002:00000a88       ??_C@_05BGNL@1?$CDINF?$AA@ 3002aa88     LIBC:x10fout.obj
 0002:00000a90       ??_C@_05EDPF@1?$CDIND?$AA@ 3002aa90     LIBC:x10fout.obj
 0002:00000a98       ??_C@_06LKFM@1?$CDSNAN?$AA@ 3002aa98     LIBC:x10fout.obj
 0002:00000aa0       __IMPORT_DESCRIPTOR_KERNEL32 3002aaa0     kernel32:KERNEL32.dll
 0002:00000ab4       __NULL_IMPORT_DESCRIPTOR   3002aab4     kernel32:KERNEL32.dll
 0003:00000000       ___xc_a                    3002b000     LIBC:crt0init.obj
 0003:00000004       ___xc_z                    3002b004     LIBC:crt0init.obj
 0003:00000008       ___xi_a                    3002b008     LIBC:crt0init.obj
 0003:00000014       ___xi_z                    3002b014     LIBC:crt0init.obj
 0003:00000018       ___xp_a                    3002b018     LIBC:crt0init.obj
 0003:00000020       ___xp_z                    3002b020     LIBC:crt0init.obj
 0003:00000024       ___xt_a                    3002b024     LIBC:crt0init.obj
 0003:00000028       ___xt_z                    3002b028     LIBC:crt0init.obj
 0003:00000030       _bg_itemlist               3002b030     bg_misc.obj
 0003:000007b4       _bg_numItems               3002b7b4     bg_misc.obj
 0003:000007b8       _eventnames                3002b7b8     bg_misc.obj
 0003:000008cc       ??_C@_08DFDJ@EV_TAUNT?$AA@ 3002b8cc     bg_misc.obj
 0003:000008d8       ??_C@_0BE@BDJC@EV_STOPLOOPINGSOUND?$AA@ 3002b8d8     bg_misc.obj
 0003:000008ec       ??_C@_0O@BDBB@EV_DEBUG_LINE?$AA@ 3002b8ec     bg_misc.obj
 0003:000008fc       ??_C@_0N@CDHP@EV_SCOREPLUM?$AA@ 3002b8fc     bg_misc.obj
 0003:0000090c       ??_C@_0O@CIDG@EV_GIB_PLAYER?$AA@ 3002b90c     bg_misc.obj
 0003:0000091c       ??_C@_0BB@LKNF@EV_POWERUP_REGEN?$AA@ 3002b91c     bg_misc.obj
 0003:00000930       ??_C@_0BG@KJJ@EV_POWERUP_BATTLESUIT?$AA@ 3002b930     bg_misc.obj
 0003:00000948       ??_C@_0BA@EMDG@EV_POWERUP_QUAD?$AA@ 3002b948     bg_misc.obj
 0003:00000958       ??_C@_0M@MMOI@EV_OBITUARY?$AA@ 3002b958     bg_misc.obj
 0003:00000964       ??_C@_09EH@EV_DEATH3?$AA@  3002b964     bg_misc.obj
 0003:00000970       ??_C@_09KKNA@EV_DEATH2?$AA@ 3002b970     bg_misc.obj
 0003:0000097c       ??_C@_09FFGJ@EV_DEATH1?$AA@ 3002b97c     bg_misc.obj
 0003:00000988       ??_C@_07MFPI@EV_PAIN?$AA@  3002b988     bg_misc.obj
 0003:00000990       ??_C@_09PBG@EV_BULLET?$AA@ 3002b990     bg_misc.obj
 0003:0000099c       ??_C@_0L@PELA@EV_SHOTGUN?$AA@ 3002b99c     bg_misc.obj
 0003:000009a8       ??_C@_0N@FBDJ@EV_RAILTRAIL?$AA@ 3002b9a8     bg_misc.obj
 0003:000009b8       ??_C@_0BG@KLM@EV_MISSILE_MISS_METAL?$AA@ 3002b9b8     bg_misc.obj
 0003:000009d0       ??_C@_0BA@FHCK@EV_MISSILE_MISS?$AA@ 3002b9d0     bg_misc.obj
 0003:000009e0       ??_C@_0P@GMEB@EV_MISSILE_HIT?$AA@ 3002b9e0     bg_misc.obj
 0003:000009f0       ??_C@_0BD@FCGB@EV_BULLET_HIT_WALL?$AA@ 3002b9f0     bg_misc.obj
 0003:00000a04       ??_C@_0BE@OJNL@EV_BULLET_HIT_FLESH?$AA@ 3002ba04     bg_misc.obj
 0003:00000a18       ??_C@_0BF@GBCB@EV_GLOBAL_TEAM_SOUND?$AA@ 3002ba18     bg_misc.obj
 0003:00000a30       ??_C@_0BA@DICP@EV_GLOBAL_SOUND?$AA@ 3002ba30     bg_misc.obj
 0003:00000a40       ??_C@_0BB@PHBP@EV_GENERAL_SOUND?$AA@ 3002ba40     bg_misc.obj
 0003:00000a54       ??_C@_0BC@MNAB@EV_GRENADE_BOUNCE?$AA@ 3002ba54     bg_misc.obj
 0003:00000a68       ??_C@_0BH@CBAJ@EV_PLAYER_TELEPORT_OUT?$AA@ 3002ba68     bg_misc.obj
 0003:00000a80       ??_C@_0BG@JACO@EV_PLAYER_TELEPORT_IN?$AA@ 3002ba80     bg_misc.obj
 0003:00000a98       ??_C@_0M@FEGJ@EV_ITEM_POP?$AA@ 3002ba98     bg_misc.obj
 0003:00000aa4       ??_C@_0BA@KOE@EV_ITEM_RESPAWN?$AA@ 3002baa4     bg_misc.obj
 0003:00000ab4       ??_C@_0O@PBJJ@EV_USE_ITEM15?$AA@ 3002bab4     bg_misc.obj
 0003:00000ac4       ??_C@_0O@FLAO@EV_USE_ITEM14?$AA@ 3002bac4     bg_misc.obj
 0003:00000ad4       ??_C@_0O@OOL@EV_USE_ITEM13?$AA@ 3002bad4     bg_misc.obj
 0003:00000ae4       ??_C@_0O@KEHM@EV_USE_ITEM12?$AA@ 3002bae4     bg_misc.obj
 0003:00000af4       ??_C@_0O@FLMF@EV_USE_ITEM11?$AA@ 3002baf4     bg_misc.obj
 0003:00000b04       ??_C@_0O@PBFC@EV_USE_ITEM10?$AA@ 3002bb04     bg_misc.obj
 0003:00000b14       ??_C@_0N@JGCE@EV_USE_ITEM9?$AA@ 3002bb14     bg_misc.obj
 0003:00000b24       ??_C@_0N@DMLD@EV_USE_ITEM8?$AA@ 3002bb24     bg_misc.obj
 0003:00000b34       ??_C@_0N@DNOO@EV_USE_ITEM7?$AA@ 3002bb34     bg_misc.obj
 0003:00000b44       ??_C@_0N@JHHJ@EV_USE_ITEM6?$AA@ 3002bb44     bg_misc.obj
 0003:00000b54       ??_C@_0N@GIMA@EV_USE_ITEM5?$AA@ 3002bb54     bg_misc.obj
 0003:00000b64       ??_C@_0N@MCFH@EV_USE_ITEM4?$AA@ 3002bb64     bg_misc.obj
 0003:00000b74       ??_C@_0N@JHLC@EV_USE_ITEM3?$AA@ 3002bb74     bg_misc.obj
 0003:00000b84       ??_C@_0N@DNCF@EV_USE_ITEM2?$AA@ 3002bb84     bg_misc.obj
 0003:00000b94       ??_C@_0N@MCJM@EV_USE_ITEM1?$AA@ 3002bb94     bg_misc.obj
 0003:00000ba4       ??_C@_0N@GIAL@EV_USE_ITEM0?$AA@ 3002bba4     bg_misc.obj
 0003:00000bb4       ??_C@_0P@HOLG@EV_FIRE_WEAPON?$AA@ 3002bbb4     bg_misc.obj
 0003:00000bc4       ??_C@_0BB@OKAK@EV_CHANGE_WEAPON?$AA@ 3002bbc4     bg_misc.obj
 0003:00000bd8       ??_C@_09MIBL@EV_NOAMMO?$AA@ 3002bbd8     bg_misc.obj
 0003:00000be4       ??_C@_0BG@LBJI@EV_GLOBAL_ITEM_PICKUP?$AA@ 3002bbe4     bg_misc.obj
 0003:00000bfc       ??_C@_0P@DDBJ@EV_ITEM_PICKUP?$AA@ 3002bbfc     bg_misc.obj
 0003:00000c0c       ??_C@_0P@HGEE@EV_WATER_CLEAR?$AA@ 3002bc0c     bg_misc.obj
 0003:00000c1c       ??_C@_0P@PGNG@EV_WATER_UNDER?$AA@ 3002bc1c     bg_misc.obj
 0003:00000c2c       ??_C@_0P@KHGF@EV_WATER_LEAVE?$AA@ 3002bc2c     bg_misc.obj
 0003:00000c3c       ??_C@_0P@NPME@EV_WATER_TOUCH?$AA@ 3002bc3c     bg_misc.obj
 0003:00000c4c       ??_C@_07MBMN@EV_JUMP?$AA@  3002bc4c     bg_misc.obj
 0003:00000c54       ??_C@_0M@ONMG@EV_JUMP_PAD?$AA@ 3002bc54     bg_misc.obj
 0003:00000c60       ??_C@_0M@FCFB@EV_FALL_FAR?$AA@ 3002bc60     bg_misc.obj
 0003:00000c6c       ??_C@_0P@DAAM@EV_FALL_MEDIUM?$AA@ 3002bc6c     bg_misc.obj
 0003:00000c7c       ??_C@_0O@MOHH@EV_FALL_SHORT?$AA@ 3002bc7c     bg_misc.obj
 0003:00000c8c       ??_C@_0L@BPHB@EV_STEP_16?$AA@ 3002bc8c     bg_misc.obj
 0003:00000c98       ??_C@_0L@LFCN@EV_STEP_12?$AA@ 3002bc98     bg_misc.obj
 0003:00000ca4       ??_C@_09GNLK@EV_STEP_8?$AA@ 3002bca4     bg_misc.obj
 0003:00000cb0       ??_C@_09JDFO@EV_STEP_4?$AA@ 3002bcb0     bg_misc.obj
 0003:00000cbc       ??_C@_07JIKK@EV_SWIM?$AA@  3002bcbc     bg_misc.obj
 0003:00000cc4       ??_C@_0M@FIHK@EV_FOOTWADE?$AA@ 3002bcc4     bg_misc.obj
 0003:00000cd0       ??_C@_0O@KHFI@EV_FOOTSPLASH?$AA@ 3002bcd0     bg_misc.obj
 0003:00000ce0       ??_C@_0BC@OEIA@EV_FOOTSTEP_METAL?$AA@ 3002bce0     bg_misc.obj
 0003:00000cf4       ??_C@_0M@EJAF@EV_FOOTSTEP?$AA@ 3002bcf4     bg_misc.obj
 0003:00000d00       ??_C@_07NDDD@EV_NONE?$AA@  3002bd00     bg_misc.obj
 0003:00000d08       ??_C@_09DHIB@Blue?5Flag?$AA@ 3002bd08     bg_misc.obj
 0003:00000d14       ??_C@_0BB@NLLL@icons?1iconf_blu1?$AA@ 3002bd14     bg_misc.obj
 0003:00000d28       ??_C@_0BI@ILPD@models?1flags?1b_flag?4md3?$AA@ 3002bd28     bg_misc.obj
 0003:00000d40       ??_C@_0BC@GPLF@team_CTF_blueflag?$AA@ 3002bd40     bg_misc.obj
 0003:00000d54       ??_C@_08CLEI@Red?5Flag?$AA@ 3002bd54     bg_misc.obj
 0003:00000d60       ??_C@_0BB@DADK@icons?1iconf_red1?$AA@ 3002bd60     bg_misc.obj
 0003:00000d74       ??_C@_0BI@HHNH@models?1flags?1r_flag?4md3?$AA@ 3002bd74     bg_misc.obj
 0003:00000d8c       ??_C@_0BB@FOCB@team_CTF_redflag?$AA@ 3002bd8c     bg_misc.obj
 0003:00000da0       ??_C@_06CPDM@Flight?$AA@   3002bda0     bg_misc.obj
 0003:00000da8       ??_C@_0N@DFIJ@icons?1flight?$AA@ 3002bda8     bg_misc.obj
 0003:00000db8       ??_C@_0CI@PHJ@models?1powerups?1instant?1flight_r@ 3002bdb8     bg_misc.obj
 0003:00000de0       ??_C@_0CD@MKAO@models?1powerups?1instant?1flight?4m@ 3002bde0     bg_misc.obj
 0003:00000e04       ??_C@_0BH@FEAN@sound?1items?1flight?4wav?$AA@ 3002be04     bg_misc.obj
 0003:00000e1c       ??_C@_0M@NKLB@item_flight?$AA@ 3002be1c     bg_misc.obj
 0003:00000e28       ??_C@_0BG@JFPE@sound?1items?1regen?4wav?$AA@ 3002be28     bg_misc.obj
 0003:00000e40       ??_C@_0N@KKJF@Regeneration?$AA@ 3002be40     bg_misc.obj
 0003:00000e50       ??_C@_0M@KGFF@icons?1regen?$AA@ 3002be50     bg_misc.obj
 0003:00000e5c       ??_C@_0CH@LMHA@models?1powerups?1instant?1regen_ri@ 3002be5c     bg_misc.obj
 0003:00000e84       ??_C@_0CC@JDKK@models?1powerups?1instant?1regen?4md@ 3002be84     bg_misc.obj
 0003:00000ea8       ??_C@_0BN@ELHM@sound?1items?1regeneration?4wav?$AA@ 3002bea8     bg_misc.obj
 0003:00000ec8       ??_C@_0L@JOKD@item_regen?$AA@ 3002bec8     bg_misc.obj
 0003:00000ed4       ??_C@_0N@PHMD@Invisibility?$AA@ 3002bed4     bg_misc.obj
 0003:00000ee4       ??_C@_0M@GBKC@icons?1invis?$AA@ 3002bee4     bg_misc.obj
 0003:00000ef0       ??_C@_0CH@FMDJ@models?1powerups?1instant?1invis_ri@ 3002bef0     bg_misc.obj
 0003:00000f18       ??_C@_0CC@GFDH@models?1powerups?1instant?1invis?4md@ 3002bf18     bg_misc.obj
 0003:00000f3c       ??_C@_0BN@JBDA@sound?1items?1invisibility?4wav?$AA@ 3002bf3c     bg_misc.obj
 0003:00000f5c       ??_C@_0L@FJFE@item_invis?$AA@ 3002bf5c     bg_misc.obj
 0003:00000f68       ??_C@_05PDDA@Speed?$AA@    3002bf68     bg_misc.obj
 0003:00000f70       ??_C@_0M@MOBK@icons?1haste?$AA@ 3002bf70     bg_misc.obj
 0003:00000f7c       ??_C@_0CH@HLNN@models?1powerups?1instant?1haste_ri@ 3002bf7c     bg_misc.obj
 0003:00000fa4       ??_C@_0CC@HMKI@models?1powerups?1instant?1haste?4md@ 3002bfa4     bg_misc.obj
 0003:00000fc8       ??_C@_0BG@HKPG@sound?1items?1haste?4wav?$AA@ 3002bfc8     bg_misc.obj
 0003:00000fe0       ??_C@_0L@PGOM@item_haste?$AA@ 3002bfe0     bg_misc.obj
 0003:00000fec       ??_C@_0DA@KGOL@sound?1items?1airout?4wav?5sound?1ite@ 3002bfec     bg_misc.obj
 0003:0000101c       ??_C@_0M@LDNA@Battle?5Suit?$AA@ 3002c01c     bg_misc.obj
 0003:00001028       ??_C@_0BB@LIEJ@icons?1envirosuit?$AA@ 3002c028     bg_misc.obj
 0003:0000103c       ??_C@_0CI@BLEN@models?1powerups?1instant?1enviro_r@ 3002c03c     bg_misc.obj
 0003:00001064       ??_C@_0CD@EJAP@models?1powerups?1instant?1enviro?4m@ 3002c064     bg_misc.obj
 0003:00001088       ??_C@_0BI@LHNB@sound?1items?1protect?4wav?$AA@ 3002c088     bg_misc.obj
 0003:000010a0       ??_C@_0M@CNAP@item_enviro?$AA@ 3002c0a0     bg_misc.obj
 0003:000010ac       ??_C@_0DA@MMGJ@sound?1items?1damage2?4wav?5sound?1it@ 3002c0ac     bg_misc.obj
 0003:000010dc       ??_C@_0M@MLLH@Quad?5Damage?$AA@ 3002c0dc     bg_misc.obj
 0003:000010e8       ??_C@_0L@CMEC@icons?1quad?$AA@ 3002c0e8     bg_misc.obj
 0003:000010f4       ??_C@_0CG@HCKJ@models?1powerups?1instant?1quad_rin@ 3002c0f4     bg_misc.obj
 0003:0000111c       ??_C@_0CB@LCDA@models?1powerups?1instant?1quad?4md3@ 3002c11c     bg_misc.obj
 0003:00001140       ??_C@_0BL@FBJD@sound?1items?1quaddamage?4wav?$AA@ 3002c140     bg_misc.obj
 0003:0000115c       ??_C@_09NKAN@item_quad?$AA@ 3002c15c     bg_misc.obj
 0003:00001168       ??_C@_0BL@LIGH@sound?1items?1use_medkit?4wav?$AA@ 3002c168     bg_misc.obj
 0003:00001184       ??_C@_06MJBN@Medkit?$AA@   3002c184     bg_misc.obj
 0003:0000118c       ??_C@_0N@NDKI@icons?1medkit?$AA@ 3002c18c     bg_misc.obj
 0003:0000119c       ??_C@_0CL@EEMI@models?1powerups?1holdable?1medkit_@ 3002c19c     bg_misc.obj
 0003:000011c8       ??_C@_0CE@BLCG@models?1powerups?1holdable?1medkit?4@ 3002c1c8     bg_misc.obj
 0003:000011ec       ??_C@_0BA@HJCK@holdable_medkit?$AA@ 3002c1ec     bg_misc.obj
 0003:000011fc       ??_C@_0BE@NHOP@Personal?5Teleporter?$AA@ 3002c1fc     bg_misc.obj
 0003:00001210       ??_C@_0BB@EOIF@icons?1teleporter?$AA@ 3002c210     bg_misc.obj
 0003:00001224       ??_C@_0CI@EJIK@models?1powerups?1holdable?1telepor@ 3002c224     bg_misc.obj
 0003:0000124c       ??_C@_0BJ@PMCF@sound?1items?1holdable?4wav?$AA@ 3002c24c     bg_misc.obj
 0003:00001268       ??_C@_0BE@EFDD@holdable_teleporter?$AA@ 3002c268     bg_misc.obj
 0003:0000127c       ??_C@_08HHBB@Bfg?5Ammo?$AA@ 3002c27c     bg_misc.obj
 0003:00001288       ??_C@_0BA@LIKB@icons?1icona_bfg?$AA@ 3002c288     bg_misc.obj
 0003:00001298       ??_C@_0BP@KGME@models?1powerups?1ammo?1bfgam?4md3?$AA@ 3002c298     bg_misc.obj
 0003:000012b8       ??_C@_08BHPM@ammo_bfg?$AA@ 3002c2b8     bg_misc.obj
 0003:000012c4       ??_C@_05OJGD@Slugs?$AA@    3002c2c4     bg_misc.obj
 0003:000012cc       ??_C@_0BE@KFKB@icons?1icona_railgun?$AA@ 3002c2cc     bg_misc.obj
 0003:000012e0       ??_C@_0CD@BHHI@models?1powerups?1ammo?1railgunam?4m@ 3002c2e0     bg_misc.obj
 0003:00001304       ??_C@_0L@PCJD@ammo_slugs?$AA@ 3002c304     bg_misc.obj
 0003:00001310       ??_C@_07ONGL@Rockets?$AA@  3002c310     bg_misc.obj
 0003:00001318       ??_C@_0BD@NDBD@icons?1icona_rocket?$AA@ 3002c318     bg_misc.obj
 0003:0000132c       ??_C@_0CC@JMHP@models?1powerups?1ammo?1rocketam?4md@ 3002c32c     bg_misc.obj
 0003:00001350       ??_C@_0N@DEF@ammo_rockets?$AA@ 3002c350     bg_misc.obj
 0003:00001360       ??_C@_0L@JGJD@Flame?5Ammo?$AA@ 3002c360     bg_misc.obj
 0003:0000136c       ??_C@_0BG@BLCM@icons?1icona_lightning?$AA@ 3002c36c     bg_misc.obj
 0003:00001384       ??_C@_0CF@DECD@models?1powerups?1ammo?1lightningam@ 3002c384     bg_misc.obj
 0003:000013ac       ??_C@_0P@FNDL@ammo_lightning?$AA@ 3002c3ac     bg_misc.obj
 0003:000013bc       ??_C@_05IJJG@Cells?$AA@    3002c3bc     bg_misc.obj
 0003:000013c4       ??_C@_0BD@PPKI@icons?1icona_plasma?$AA@ 3002c3c4     bg_misc.obj
 0003:000013d8       ??_C@_0CC@GNJA@models?1powerups?1ammo?1plasmaam?4md@ 3002c3d8     bg_misc.obj
 0003:000013fc       ??_C@_0L@JCGG@ammo_cells?$AA@ 3002c3fc     bg_misc.obj
 0003:00001408       ??_C@_08CFEJ@Grenades?$AA@ 3002c408     bg_misc.obj
 0003:00001414       ??_C@_0BE@MMLE@icons?1icona_grenade?$AA@ 3002c414     bg_misc.obj
 0003:00001428       ??_C@_0CD@NMEK@models?1powerups?1ammo?1grenadeam?4m@ 3002c428     bg_misc.obj
 0003:0000144c       ??_C@_0O@KBKH@ammo_grenades?$AA@ 3002c44c     bg_misc.obj
 0003:0000145c       ??_C@_07EDBM@Bullets?$AA@  3002c45c     bg_misc.obj
 0003:00001464       ??_C@_0BH@DHGM@icons?1icona_machinegun?$AA@ 3002c464     bg_misc.obj
 0003:0000147c       ??_C@_0CG@KHPE@models?1powerups?1ammo?1machineguna@ 3002c47c     bg_misc.obj
 0003:000014a4       ??_C@_0N@KNDC@ammo_bullets?$AA@ 3002c4a4     bg_misc.obj
 0003:000014b4       ??_C@_06OAJC@Shells?$AA@   3002c4b4     bg_misc.obj
 0003:000014bc       ??_C@_0BE@MPL@icons?1icona_shotgun?$AA@ 3002c4bc     bg_misc.obj
 0003:000014d0       ??_C@_0CD@LJLN@models?1powerups?1ammo?1shotgunam?4m@ 3002c4d0     bg_misc.obj
 0003:000014f4       ??_C@_0BH@EMHN@sound?1misc?1am_pkup?4wav?$AA@ 3002c4f4     bg_misc.obj
 0003:0000150c       ??_C@_0M@MOIJ@ammo_shells?$AA@ 3002c50c     bg_misc.obj
 0003:00001518       ??_C@_0P@MANM@Grappling?5Hook?$AA@ 3002c518     bg_misc.obj
 0003:00001528       ??_C@_0BE@IDGG@icons?1iconw_grapple?$AA@ 3002c528     bg_misc.obj
 0003:0000153c       ??_C@_0CE@LPMO@models?1weapons2?1grapple?1grapple?4@ 3002c53c     bg_misc.obj
 0003:00001560       ??_C@_0BF@GCPL@weapon_grapplinghook?$AA@ 3002c560     bg_misc.obj
 0003:00001578       ??_C@_06KEGK@BFG10K?$AA@   3002c578     bg_misc.obj
 0003:00001580       ??_C@_0BA@HKCL@icons?1iconw_bfg?$AA@ 3002c580     bg_misc.obj
 0003:00001590       ??_C@_0BM@MFN@models?1weapons2?1bfg?1bfg?4md3?$AA@ 3002c590     bg_misc.obj
 0003:000015ac       ??_C@_0L@NOHL@weapon_bfg?$AA@ 3002c5ac     bg_misc.obj
 0003:000015b8       ??_C@_0L@OMHC@Plasma?5Gun?$AA@ 3002c5b8     bg_misc.obj
 0003:000015c4       ??_C@_0BD@MNKG@icons?1iconw_plasma?$AA@ 3002c5c4     bg_misc.obj
 0003:000015d8       ??_C@_0CC@DOHF@models?1weapons2?1plasma?1plasma?4md@ 3002c5d8     bg_misc.obj
 0003:000015fc       ??_C@_0BB@IMNM@weapon_plasmagun?$AA@ 3002c5fc     bg_misc.obj
 0003:00001610       ??_C@_07MJPA@Railgun?$AA@  3002c610     bg_misc.obj
 0003:00001618       ??_C@_0BE@MJD@icons?1iconw_railgun?$AA@ 3002c618     bg_misc.obj
 0003:0000162c       ??_C@_0CE@GDNL@models?1weapons2?1railgun?1railgun?4@ 3002c62c     bg_misc.obj
 0003:00001650       ??_C@_0P@FOOL@weapon_railgun?$AA@ 3002c650     bg_misc.obj
 0003:00001660       ??_C@_0O@OOLG@Flame?5Thrower?$AA@ 3002c660     bg_misc.obj
 0003:00001670       ??_C@_0BC@CPKI@icons?1iconw_flame?$AA@ 3002c670     bg_misc.obj
 0003:00001684       ??_C@_0CO@MPEP@models?1weapons2?1flamethrower?1fla@ 3002c684     bg_misc.obj
 0003:000016b4       ??_C@_0BB@GAKO@weapon_lightning?$AA@ 3002c6b4     bg_misc.obj
 0003:000016c8       ??_C@_0BA@JFMN@Rocket?5Launcher?$AA@ 3002c6c8     bg_misc.obj
 0003:000016d8       ??_C@_0BD@OBBN@icons?1iconw_rocket?$AA@ 3002c6d8     bg_misc.obj
 0003:000016ec       ??_C@_0CE@CDMO@models?1weapons2?1rocketl?1rocketl?4@ 3002c6ec     bg_misc.obj
 0003:00001710       ??_C@_0BG@EKMA@weapon_rocketlauncher?$AA@ 3002c710     bg_misc.obj
 0003:00001728       ??_C@_0EG@FCJ@sound?1weapons?1grenade?1hgrenb1a?4w@ 3002c728     bg_misc.obj
 0003:00001770       ??_C@_0BB@KEFG@Grenade?5Launcher?$AA@ 3002c770     bg_misc.obj
 0003:00001784       ??_C@_0BE@GFIG@icons?1iconw_grenade?$AA@ 3002c784     bg_misc.obj
 0003:00001798       ??_C@_0CG@MONC@models?1weapons2?1grenadel?1grenade@ 3002c798     bg_misc.obj
 0003:000017c0       ??_C@_0BH@FDFB@weapon_grenadelauncher?$AA@ 3002c7c0     bg_misc.obj
 0003:000017d8       ??_C@_0L@OIKI@Machinegun?$AA@ 3002c7d8     bg_misc.obj
 0003:000017e4       ??_C@_0BH@IFLL@icons?1iconw_machinegun?$AA@ 3002c7e4     bg_misc.obj
 0003:000017fc       ??_C@_0CK@BP@models?1weapons2?1machinegun?1machi@ 3002c7fc     bg_misc.obj
 0003:00001828       ??_C@_0BC@JMBH@weapon_machinegun?$AA@ 3002c828     bg_misc.obj
 0003:0000183c       ??_C@_07GAKK@Shotgun?$AA@  3002c83c     bg_misc.obj
 0003:00001844       ??_C@_0BE@KFMJ@icons?1iconw_shotgun?$AA@ 3002c844     bg_misc.obj
 0003:00001858       ??_C@_0CE@FIBC@models?1weapons2?1shotgun?1shotgun?4@ 3002c858     bg_misc.obj
 0003:0000187c       ??_C@_0P@PHLB@weapon_shotgun?$AA@ 3002c87c     bg_misc.obj
 0003:0000188c       ??_C@_08MFME@Gauntlet?$AA@ 3002c88c     bg_misc.obj
 0003:00001898       ??_C@_0BF@IKAB@icons?1iconw_gauntlet?$AA@ 3002c898     bg_misc.obj
 0003:000018b0       ??_C@_0CG@ENLL@models?1weapons2?1gauntlet?1gauntle@ 3002c8b0     bg_misc.obj
 0003:000018d8       ??_C@_0BG@OBIE@sound?1misc?1w_pkup?4wav?$AA@ 3002c8d8     bg_misc.obj
 0003:000018f0       ??_C@_0BA@NEFD@weapon_gauntlet?$AA@ 3002c8f0     bg_misc.obj
 0003:00001900       ??_C@_0M@MPBK@Mega?5Health?$AA@ 3002c900     bg_misc.obj
 0003:0000190c       ??_C@_0BB@FCLL@icons?1iconh_mega?$AA@ 3002c90c     bg_misc.obj
 0003:00001920       ??_C@_0CH@HNCC@models?1powerups?1health?1mega_sphe@ 3002c920     bg_misc.obj
 0003:00001948       ??_C@_0CG@GJOF@models?1powerups?1health?1mega_cros@ 3002c948     bg_misc.obj
 0003:00001970       ??_C@_0BJ@GHGJ@sound?1items?1m_health?4wav?$AA@ 3002c970     bg_misc.obj
 0003:0000198c       ??_C@_0BB@KJE@item_health_mega?$AA@ 3002c98c     bg_misc.obj
 0003:000019a0       ??_C@_09DDEP@50?5Health?$AA@ 3002c9a0     bg_misc.obj
 0003:000019ac       ??_C@_0BA@PMIC@icons?1iconh_red?$AA@ 3002c9ac     bg_misc.obj
 0003:000019bc       ??_C@_0CI@LKJF@models?1powerups?1health?1large_sph@ 3002c9bc     bg_misc.obj
 0003:000019e4       ??_C@_0CH@NOLN@models?1powerups?1health?1large_cro@ 3002c9e4     bg_misc.obj
 0003:00001a0c       ??_C@_0BJ@KID@sound?1items?1l_health?4wav?$AA@ 3002ca0c     bg_misc.obj
 0003:00001a28       ??_C@_0BC@KFF@item_health_large?$AA@ 3002ca28     bg_misc.obj
 0003:00001a3c       ??_C@_09BECD@25?5Health?$AA@ 3002ca3c     bg_misc.obj
 0003:00001a48       ??_C@_0BD@IBDP@icons?1iconh_yellow?$AA@ 3002ca48     bg_misc.obj
 0003:00001a5c       ??_C@_0CJ@KCHG@models?1powerups?1health?1medium_sp@ 3002ca5c     bg_misc.obj
 0003:00001a88       ??_C@_0CI@DNPD@models?1powerups?1health?1medium_cr@ 3002ca88     bg_misc.obj
 0003:00001ab0       ??_C@_0BJ@NBFG@sound?1items?1n_health?4wav?$AA@ 3002cab0     bg_misc.obj
 0003:00001acc       ??_C@_0M@DFKC@item_health?$AA@ 3002cacc     bg_misc.obj
 0003:00001ad8       ??_C@_08PNDE@5?5Health?$AA@ 3002cad8     bg_misc.obj
 0003:00001ae4       ??_C@_0BC@CNMA@icons?1iconh_green?$AA@ 3002cae4     bg_misc.obj
 0003:00001af8       ??_C@_0CI@MNOG@models?1powerups?1health?1small_sph@ 3002caf8     bg_misc.obj
 0003:00001b20       ??_C@_0CH@KNOH@models?1powerups?1health?1small_cro@ 3002cb20     bg_misc.obj
 0003:00001b48       ??_C@_0BJ@LKOK@sound?1items?1s_health?4wav?$AA@ 3002cb48     bg_misc.obj
 0003:00001b64       ??_C@_0BC@HBNN@item_health_small?$AA@ 3002cb64     bg_misc.obj
 0003:00001b78       ??_C@_0M@LPCG@Heavy?5Armor?$AA@ 3002cb78     bg_misc.obj
 0003:00001b84       ??_C@_0BA@LPLH@icons?1iconr_red?$AA@ 3002cb84     bg_misc.obj
 0003:00001b94       ??_C@_0CE@HDBK@models?1powerups?1armor?1armor_red?4@ 3002cb94     bg_misc.obj
 0003:00001bb8       ??_C@_0BA@GFMA@item_armor_body?$AA@ 3002cbb8     bg_misc.obj
 0003:00001bc8       ??_C@_05KFDN@Armor?$AA@    3002cbc8     bg_misc.obj
 0003:00001bd0       ??_C@_0BD@NCPP@icons?1iconr_yellow?$AA@ 3002cbd0     bg_misc.obj
 0003:00001be4       ??_C@_0CE@HFCD@models?1powerups?1armor?1armor_yel?4@ 3002cbe4     bg_misc.obj
 0003:00001c08       ??_C@_0BI@BDMK@sound?1misc?1ar2_pkup?4wav?$AA@ 3002cc08     bg_misc.obj
 0003:00001c20       ??_C@_0BC@GPNI@item_armor_combat?$AA@ 3002cc20     bg_misc.obj
 0003:00001c34       ??_C@_0M@KPGH@Armor?5Shard?$AA@ 3002cc34     bg_misc.obj
 0003:00001c40       ??_C@_0BC@BIPJ@icons?1iconr_shard?$AA@ 3002cc40     bg_misc.obj
 0003:00001c54       ??_C@_0CH@FIOC@models?1powerups?1armor?1shard_sphe@ 3002cc54     bg_misc.obj
 0003:00001c7c       ??_C@_0CA@DPKE@models?1powerups?1armor?1shard?4md3?$AA@ 3002cc7c     bg_misc.obj
 0003:00001c9c       ??_C@_0BI@IDIM@sound?1misc?1ar1_pkup?4wav?$AA@ 3002cc9c     bg_misc.obj
 0003:00001cb4       ??_C@_0BB@JODA@item_armor_shard?$AA@ 3002ccb4     bg_misc.obj
 0003:00001cc8       ??_C@_0BH@HPPA@HoldableItem?5not?5found?$AA@ 3002ccc8     bg_misc.obj
 0003:00001ce0       ??_C@_0BM@HEIN@BG_CanItemBeGrabbed?3?5IT_BAD?$AA@ 3002cce0     bg_misc.obj
 0003:00001cfc       ??_C@_0CI@DJME@BG_CanItemBeGrabbed?3?5index?5out?5o@ 3002ccfc     bg_misc.obj
 0003:00001d24       ??_C@_0CK@CFCO@BG_EvaluateTrajectory?3?5unknown?5t@ 3002cd24     bg_misc.obj
 0003:00001d50       ??_C@_0CP@HAJH@BG_EvaluateTrajectoryDelta?3?5unkn@ 3002cd50     bg_misc.obj
 0003:00001d80       _pm_stopspeed              3002cd80     bg_pmove.obj
 0003:00001d84       _pm_duckScale              3002cd84     bg_pmove.obj
 0003:00001d88       _pm_swimScale              3002cd88     bg_pmove.obj
 0003:00001d8c       _pm_wadeScale              3002cd8c     bg_pmove.obj
 0003:00001d90       _pm_ladderScale            3002cd90     bg_pmove.obj
 0003:00001d94       _pm_accelerate             3002cd94     bg_pmove.obj
 0003:00001d98       _pm_airaccelerate          3002cd98     bg_pmove.obj
 0003:00001d9c       _pm_ladderAccelerate       3002cd9c     bg_pmove.obj
 0003:00001da0       _pm_wateraccelerate        3002cda0     bg_pmove.obj
 0003:00001da4       _pm_flyaccelerate          3002cda4     bg_pmove.obj
 0003:00001da8       _pm_ladderfriction         3002cda8     bg_pmove.obj
 0003:00001dac       _pm_friction               3002cdac     bg_pmove.obj
 0003:00001db0       _pm_waterfriction          3002cdb0     bg_pmove.obj
 0003:00001db4       _pm_flightfriction         3002cdb4     bg_pmove.obj
 0003:00001db8       _pm_spectatorfriction      3002cdb8     bg_pmove.obj
 0003:00001dbc       ??_C@_08OEON@?$CFi?3Land?6?$AA@ 3002cdbc     bg_pmove.obj
 0003:00001dc8       ??_C@_09KHNP@?$CFi?3steep?6?$AA@ 3002cdc8     bg_pmove.obj
 0003:00001dd4       ??_C@_0M@CLKI@?$CFi?3kickoff?6?$AA@ 3002cdd4     bg_pmove.obj
 0003:00001de0       ??_C@_0N@LFAC@?$CFi?3allsolid?6?$AA@ 3002cde0     bg_pmove.obj
 0003:00001df0       ??_C@_08DAML@?$CFi?3lift?6?$AA@ 3002cdf0     bg_pmove.obj
 0003:00001dfc       ??_C@_0M@CBLA@?$CFi?3stepped?6?$AA@ 3002cdfc     bg_slidemove.obj
 0003:00001e08       ??_C@_0BE@CFBB@?$CFi?3bend?5can?8t?5step?6?$AA@ 3002ce08     bg_slidemove.obj
 0003:00001ed8       ??_C@_0N@PFEC@loaddeferred?$AA@ 3002ced8     cg_consolecmds.obj
 0003:00001ee8       ??_C@_0L@FPP@startOrbit?$AA@ 3002cee8     cg_consolecmds.obj
 0003:00001ef4       ??_C@_04NEDF@tcmd?$AA@     3002cef4     cg_consolecmds.obj
 0003:00001efc       ??_C@_0P@FLLG@vtell_attacker?$AA@ 3002cefc     cg_consolecmds.obj
 0003:00001f0c       ??_C@_0N@EBKM@vtell_target?$AA@ 3002cf0c     cg_consolecmds.obj
 0003:00001f1c       ??_C@_0O@IBDB@tell_attacker?$AA@ 3002cf1c     cg_consolecmds.obj
 0003:00001f2c       ??_C@_0M@DEIJ@tell_target?$AA@ 3002cf2c     cg_consolecmds.obj
 0003:00001f38       ??_C@_06IJLN@weapon?$AA@   3002cf38     cg_consolecmds.obj
 0003:00001f40       ??_C@_08KKEF@weapprev?$AA@ 3002cf40     cg_consolecmds.obj
 0003:00001f4c       ??_C@_08FDMA@weapnext?$AA@ 3002cf4c     cg_consolecmds.obj
 0003:00001f58       ??_C@_08POMM@sizedown?$AA@ 3002cf58     cg_consolecmds.obj
 0003:00001f64       ??_C@_06IFPB@sizeup?$AA@   3002cf64     cg_consolecmds.obj
 0003:00001f6c       ??_C@_05POM@?9zoom?$AA@    3002cf6c     cg_consolecmds.obj
 0003:00001f74       ??_C@_05MPDD@?$CLzoom?$AA@ 3002cf74     cg_consolecmds.obj
 0003:00001f7c       ??_C@_07BJGL@?9scores?$AA@ 3002cf7c     cg_consolecmds.obj
 0003:00001f84       ??_C@_07POBG@?$CLscores?$AA@ 3002cf84     cg_consolecmds.obj
 0003:00001f8c       ??_C@_07NEL@viewpos?$AA@   3002cf8c     cg_consolecmds.obj
 0003:00001f94       ??_C@_08HKGI@prevskin?$AA@ 3002cf94     cg_consolecmds.obj
 0003:00001fa0       ??_C@_08FNMJ@nextskin?$AA@ 3002cfa0     cg_consolecmds.obj
 0003:00001fac       ??_C@_09DDNN@prevframe?$AA@ 3002cfac     cg_consolecmds.obj
 0003:00001fb8       ??_C@_09NAPK@nextframe?$AA@ 3002cfb8     cg_consolecmds.obj
 0003:00001fc4       ??_C@_09BKGD@testmodel?$AA@ 3002cfc4     cg_consolecmds.obj
 0003:00001fd0       ??_C@_07JGDN@testgun?$AA@  3002cfd0     cg_consolecmds.obj
 0003:00001fd8       ??_C@_08EBEP@gc?5?$CFi?5?$CFi?$AA@ 3002cfd8     cg_consolecmds.obj
 0003:00001fe4       ??_C@_0M@FLKF@cg_viewsize?$AA@ 3002cfe4     cg_consolecmds.obj
 0003:00001ff0       ??_C@_02JAFN@?$CFi?$AA@    3002cff0     cg_consolecmds.obj
 0003:00001ff4       ??_C@_0BB@DJMJ@?$CI?$CFi?5?$CFi?5?$CFi?$CJ?5?3?5?$CFi?6?$AA@ 3002cff4     cg_consolecmds.obj
 0003:00002008       ??_C@_05FILO@score?$AA@    3002d008     cg_consolecmds.obj
 0003:00002010       ??_C@_0L@BGHL@tell?5?$CFi?5?$CFs?$AA@ 3002d010     cg_consolecmds.obj
 0003:0000201c       ??_C@_0M@DDKP@vtell?5?$CFi?5?$CFs?$AA@ 3002d01c     cg_consolecmds.obj
 0003:00002028       ??_C@_0BE@GEFO@cg_thirdPersonRange?$AA@ 3002d028     cg_consolecmds.obj
 0003:0000203c       ??_C@_03HFMC@100?$AA@      3002d03c     cg_consolecmds.obj
 0003:00002040       ??_C@_0BE@BKEC@cg_thirdPersonAngle?$AA@ 3002d040     cg_consolecmds.obj
 0003:00002054       ??_C@_01FBAH@1?$AA@        3002d054     cg_consolecmds.obj
 0003:00002058       ??_C@_01PLFL@5?$AA@        3002d058     cg_consolecmds.obj
 0003:0000205c       ??_C@_0P@LBPA@cg_thirdPerson?$AA@ 3002d05c     cg_consolecmds.obj
 0003:0000206c       ??_C@_0P@JCFN@cg_cameraOrbit?$AA@ 3002d06c     cg_consolecmds.obj
 0003:0000207c       ??_C@_01PLJA@0?$AA@        3002d07c     cg_consolecmds.obj
 0003:00002080       ??_C@_09KOCP@developer?$AA@ 3002d080     cg_consolecmds.obj
 0003:0000208c       ??_C@_0M@JPKM@loaddefered?$AA@ 3002d08c     cg_consolecmds.obj
 0003:00002098       ??_C@_08PDLF@teamtask?$AA@ 3002d098     cg_consolecmds.obj
 0003:000020a4       ??_C@_05KKBO@stats?$AA@    3002d0a4     cg_consolecmds.obj
 0003:000020ac       ??_C@_08PEM@teamvote?$AA@  3002d0ac     cg_consolecmds.obj
 0003:000020b8       ??_C@_0N@OPKJ@callteamvote?$AA@ 3002d0b8     cg_consolecmds.obj
 0003:000020c8       ??_C@_04CFLO@vote?$AA@     3002d0c8     cg_consolecmds.obj
 0003:000020d0       ??_C@_08BDO@callvote?$AA@  3002d0d0     cg_consolecmds.obj
 0003:000020dc       ??_C@_0L@NFLA@setviewpos?$AA@ 3002d0dc     cg_consolecmds.obj
 0003:000020e8       ??_C@_06JDOB@addbot?$AA@   3002d0e8     cg_consolecmds.obj
 0003:000020f0       ??_C@_09IADL@levelshot?$AA@ 3002d0f0     cg_consolecmds.obj
 0003:000020fc       ??_C@_06DDCP@follow?$AA@   3002d0fc     cg_consolecmds.obj
 0003:00002104       ??_C@_04CJJD@team?$AA@     3002d104     cg_consolecmds.obj
 0003:0000210c       ??_C@_06GMBK@noclip?$AA@   3002d10c     cg_consolecmds.obj
 0003:00002114       ??_C@_08BHIO@notarget?$AA@ 3002d114     cg_consolecmds.obj
 0003:00002120       ??_C@_03IPJE@god?$AA@      3002d120     cg_consolecmds.obj
 0003:00002124       ??_C@_04JEOP@give?$AA@     3002d124     cg_consolecmds.obj
 0003:0000212c       ??_C@_06ONLB@votell?$AA@   3002d12c     cg_consolecmds.obj
 0003:00002134       ??_C@_0L@KCIN@vosay_team?$AA@ 3002d134     cg_consolecmds.obj
 0003:00002140       ??_C@_05DIJB@vosay?$AA@    3002d140     cg_consolecmds.obj
 0003:00002148       ??_C@_06BKGN@vtaunt?$AA@   3002d148     cg_consolecmds.obj
 0003:00002150       ??_C@_05LFCE@vtell?$AA@    3002d150     cg_consolecmds.obj
 0003:00002158       ??_C@_09ICHE@vsay_team?$AA@ 3002d158     cg_consolecmds.obj
 0003:00002164       ??_C@_04KNAG@vsay?$AA@     3002d164     cg_consolecmds.obj
 0003:0000216c       ??_C@_04HKFA@tell?$AA@     3002d16c     cg_consolecmds.obj
 0003:00002174       ??_C@_08PAEI@say_team?$AA@ 3002d174     cg_consolecmds.obj
 0003:00002180       ??_C@_03NJAM@say?$AA@      3002d180     cg_consolecmds.obj
 0003:00002184       ??_C@_04CHLA@kill?$AA@     3002d184     cg_consolecmds.obj
 0003:0000218c       _drawTeamOverlayModificationCount 3002d18c     cg_draw.obj
 0003:000021f0       ??_C@_0CE@ILIC@CG_DrawActive?3?5Undefined?5stereoV@ 3002d1f0     cg_draw.obj
 0003:00002214       ??_C@_01FMOK@n?$AA@        3002d214     cg_draw.obj
 0003:00002218       ??_C@_0BH@JKEJ@time?3?$CFi?5snap?3?$CFi?5cmd?3?$CFi?$AA@ 3002d218     cg_draw.obj
 0003:00002230       ??_C@_05EKKA@?$CFifps?$AA@ 3002d230     cg_draw.obj
 0003:00002238       ??_C@_07GKJN@?$CFi?3?$CFi?$CFi?$AA@ 3002d238     cg_draw.obj
 0003:00002240       ??_C@_07MFLA@?$CF3i?5?$CF3i?$AA@ 3002d240     cg_draw.obj
 0003:00002248       ??_C@_07CAMD@unknown?$AA@  3002d248     cg_draw.obj
 0003:00002250       ??_C@_03MDDI@?$CF2i?$AA@   3002d250     cg_draw.obj
 0003:00002254       ??_C@_02MECO@?$CFd?$AA@    3002d254     cg_draw.obj
 0003:00002258       ??_C@_03KFOL@snc?$AA@      3002d258     cg_draw.obj
 0003:0000225c       ??_C@_0P@LLJP@gfx?12d?1net?4tga?$AA@ 3002d25c     cg_draw.obj
 0003:0000226c       ??_C@_0BH@MGLK@Connection?5Interrupted?$AA@ 3002d26c     cg_draw.obj
 0003:00002284       ??_C@_0CI@JDBI@press?5ESC?5and?5use?5the?5JOIN?5menu?5@ 3002d284     cg_draw.obj
 0003:000022ac       ??_C@_0BA@GILD@waiting?5to?5play?$AA@ 3002d2ac     cg_draw.obj
 0003:000022bc       ??_C@_09KPLM@SPECTATOR?$AA@ 3002d2bc     cg_draw.obj
 0003:000022c8       ??_C@_0BJ@NFHG@VOTE?$CI?$CFi?$CJ?3?$CFs?5yes?3?$CFi?5no?3?$CFi?$AA@ 3002d2c8     cg_draw.obj
 0003:000022e4       ??_C@_0BN@HMOL@TEAMVOTE?$CI?$CFi?$CJ?3?$CFs?5yes?3?$CFi?5no?3?$CFi?$AA@ 3002d2e4     cg_draw.obj
 0003:00002304       ??_C@_09FIOM@following?$AA@ 3002d304     cg_draw.obj
 0003:00002310       ??_C@_0BB@ENDJ@LOW?5AMMO?5WARNING?$AA@ 3002d310     cg_draw.obj
 0003:00002324       ??_C@_0M@OEIB@OUT?5OF?5AMMO?$AA@ 3002d324     cg_draw.obj
 0003:00002330       ??_C@_0O@PGJD@Starts?5in?3?5?$CFi?$AA@ 3002d330     cg_draw.obj
 0003:00002340       ??_C@_0BB@EEMI@Capture?5the?5Flag?$AA@ 3002d340     cg_draw.obj
 0003:00002354       ??_C@_0BA@MBBA@Team?5Deathmatch?$AA@ 3002d354     cg_draw.obj
 0003:00002364       ??_C@_0N@EEDI@Free?5For?5All?$AA@ 3002d364     cg_draw.obj
 0003:00002374       ??_C@_08EFHA@?$CFs?5vs?5?$CFs?$AA@ 3002d374     cg_draw.obj
 0003:00002380       ??_C@_0BE@BHPN@Waiting?5for?5players?$AA@ 3002d380     cg_draw.obj
 0003:00002b10       ??_C@_0BM@JAPN@CG_MakeExplosion?3?5msec?5?$DN?5?$CFi?$AA@ 3002db10     cg_effects.obj
 0003:00002b2c       ??_C@_0DB@DJJL@CG_InterpoateEntityPosition?3?5cg?4@ 3002db2c     cg_ents.obj
 0003:00002b60       ??_C@_0BF@EHGG@Bad?5entity?5type?3?5?$CFi?6?$AA@ 3002db60     cg_ents.obj
 0003:00002b78       ??_C@_0BM@PKOK@Bad?5item?5index?5?$CFi?5on?5entity?$AA@ 3002db78     cg_ents.obj
 0003:00002b94       ??_C@_04DCMN@?$CFs?$CFs?$AA@ 3002db94     cg_event.obj
 0003:00002b9c       ??_C@_04PDOI@?$CFith?$AA@  3002db9c     cg_event.obj
 0003:00002ba4       ??_C@_04HKPD@?$CFird?$AA@  3002dba4     cg_event.obj
 0003:00002bac       ??_C@_04PPKE@?$CFind?$AA@  3002dbac     cg_event.obj
 0003:00002bb4       ??_C@_04MFCJ@?$CFist?$AA@  3002dbb4     cg_event.obj
 0003:00002bbc       ??_C@_04KDNJ@13th?$AA@     3002dbbc     cg_event.obj
 0003:00002bc4       ??_C@_04PBMP@12th?$AA@     3002dbc4     cg_event.obj
 0003:00002bcc       ??_C@_04HPE@11th?$AA@      3002dbcc     cg_event.obj
 0003:00002bd4       ??_C@_07KLCB@?$FO33rd?$FO7?$AA@ 3002dbd4     cg_event.obj
 0003:00002bdc       ??_C@_07MKLN@?$FO12nd?$FO7?$AA@ 3002dbdc     cg_event.obj
 0003:00002be4       ??_C@_07HDD@?$FO41st?$FO7?$AA@ 3002dbe4     cg_event.obj
 0003:00002bec       ??_C@_09HHNH@Tied?5for?5?$AA@ 3002dbec     cg_event.obj
 0003:00002bf8       ??_C@_0P@JFCH@?$CKpain100_1?4wav?$AA@ 3002dbf8     cg_event.obj
 0003:00002c08       ??_C@_0O@HGHK@?$CKpain75_1?4wav?$AA@ 3002dc08     cg_event.obj
 0003:00002c18       ??_C@_0O@HCOE@?$CKpain50_1?4wav?$AA@ 3002dc18     cg_event.obj
 0003:00002c28       ??_C@_0O@BOOO@?$CKpain25_1?4wav?$AA@ 3002dc28     cg_event.obj
 0003:00002c38       ??_C@_0BC@OMBO@Unknown?5event?3?5?$CFi?$AA@ 3002dc38     cg_event.obj
 0003:00002c4c       ??_C@_08JDLL@UNKNOWN?6?$AA@ 3002dc4c     cg_event.obj
 0003:00002c58       ??_C@_0P@DNIF@EV_DEBUG_LINE?6?$AA@ 3002dc58     cg_event.obj
 0003:00002c68       ??_C@_0BF@NIF@EV_STOPLOOPINGSOUND?6?$AA@ 3002dc68     cg_event.obj
 0003:00002c80       ??_C@_0BA@ELPM@EV_BODY_NOHEAD?6?$AA@ 3002dc80     cg_event.obj
 0003:00002c90       ??_C@_0BI@EJDC@EV_GIB_PLAYER_HEADSHOT?6?$AA@ 3002dc90     cg_event.obj
 0003:00002ca8       ??_C@_0P@EPLO@EV_GIB_PLAYER?6?$AA@ 3002dca8     cg_event.obj
 0003:00002cb8       ??_C@_0BC@BBCM@EV_POWERUP_REGEN?6?$AA@ 3002dcb8     cg_event.obj
 0003:00002ccc       ??_C@_0BH@BDJM@EV_POWERUP_BATTLESUIT?6?$AA@ 3002dccc     cg_event.obj
 0003:00002ce4       ??_C@_0BB@PKNK@EV_POWERUP_QUAD?6?$AA@ 3002dce4     cg_event.obj
 0003:00002cf8       ??_C@_0N@POFK@EV_OBITUARY?6?$AA@ 3002dcf8     cg_event.obj
 0003:00002d08       ??_C@_0N@ELAE@?$CKdeath?$CFi?4wav?$AA@ 3002dd08     cg_event.obj
 0003:00002d18       ??_C@_0L@HGJI@EV_DEATHx?6?$AA@ 3002dd18     cg_event.obj
 0003:00002d24       ??_C@_08OLFD@EV_PAIN?6?$AA@ 3002dd24     cg_event.obj
 0003:00002d30       ??_C@_0BG@OIPH@EV_GLOBAL_TEAM_SOUND?6?$AA@ 3002dd30     cg_event.obj
 0003:00002d48       ??_C@_0BB@PNKO@EV_GLOBAL_SOUND?6?$AA@ 3002dd48     cg_event.obj
 0003:00002d5c       ??_C@_0BC@HLGB@EV_GENERAL_SOUND?6?$AA@ 3002dd5c     cg_event.obj
 0003:00002d70       ??_C@_0M@HLGC@EV_SHOTGUN?6?$AA@ 3002dd70     cg_event.obj
 0003:00002d7c       ??_C@_0BF@KHP@EV_BULLET_HIT_FLESH?6?$AA@ 3002dd7c     cg_event.obj
 0003:00002d94       ??_C@_0BE@FNME@EV_BULLET_HIT_WALL?6?$AA@ 3002dd94     cg_event.obj
 0003:00002da8       ??_C@_0O@DKMH@EV_RAILTRAIL?6?$AA@ 3002dda8     cg_event.obj
 0003:00002db8       ??_C@_0BH@DKJM@EV_MISSILE_MISS_METAL?6?$AA@ 3002ddb8     cg_event.obj
 0003:00002dd0       ??_C@_0BB@IMB@EV_MISSILE_MISS?6?$AA@ 3002ddd0     cg_event.obj
 0003:00002de4       ??_C@_0BA@HEPK@EV_MISSILE_HIT?6?$AA@ 3002dde4     cg_event.obj
 0003:00002df4       ??_C@_0O@BLF@EV_SCOREPLUM?6?$AA@ 3002ddf4     cg_event.obj
 0003:00002e04       ??_C@_0BD@GMFL@EV_GRENADE_BOUNCE?6?$AA@ 3002de04     cg_event.obj
 0003:00002e18       ??_C@_0BB@KAJM@EV_ITEM_RESPAWN?6?$AA@ 3002de18     cg_event.obj
 0003:00002e2c       ??_C@_0N@NEMC@EV_ITEM_POP?6?$AA@ 3002de2c     cg_event.obj
 0003:00002e3c       ??_C@_0BI@LJLH@EV_PLAYER_TELEPORT_OUT?6?$AA@ 3002de3c     cg_event.obj
 0003:00002e54       ??_C@_0BH@IOAG@EV_PLAYER_TELEPORT_IN?6?$AA@ 3002de54     cg_event.obj
 0003:00002e6c       ??_C@_0P@ECMN@EV_USE_ITEM14?6?$AA@ 3002de6c     cg_event.obj
 0003:00002e7c       ??_C@_0P@CDJI@EV_USE_ITEM13?6?$AA@ 3002de7c     cg_event.obj
 0003:00002e8c       ??_C@_0P@DFDC@EV_USE_ITEM12?6?$AA@ 3002de8c     cg_event.obj
 0003:00002e9c       ??_C@_0P@OMN@EV_USE_ITEM11?6?$AA@ 3002de9c     cg_event.obj
 0003:00002eac       ??_C@_0P@BIGH@EV_USE_ITEM10?6?$AA@ 3002deac     cg_event.obj
 0003:00002ebc       ??_C@_0O@LOAA@EV_USE_ITEM9?6?$AA@ 3002debc     cg_event.obj
 0003:00002ecc       ??_C@_0O@KIKK@EV_USE_ITEM8?6?$AA@ 3002decc     cg_event.obj
 0003:00002edc       ??_C@_0O@HMKL@EV_USE_ITEM7?6?$AA@ 3002dedc     cg_event.obj
 0003:00002eec       ??_C@_0O@GKAB@EV_USE_ITEM6?6?$AA@ 3002deec     cg_event.obj
 0003:00002efc       ??_C@_0O@FBPO@EV_USE_ITEM5?6?$AA@ 3002defc     cg_event.obj
 0003:00002f0c       ??_C@_0O@EHFE@EV_USE_ITEM4?6?$AA@ 3002df0c     cg_event.obj
 0003:00002f1c       ??_C@_0O@CGAB@EV_USE_ITEM3?6?$AA@ 3002df1c     cg_event.obj
 0003:00002f2c       ??_C@_0O@DAKL@EV_USE_ITEM2?6?$AA@ 3002df2c     cg_event.obj
 0003:00002f3c       ??_C@_0O@LFE@EV_USE_ITEM1?6?$AA@ 3002df3c     cg_event.obj
 0003:00002f4c       ??_C@_0O@BNPO@EV_USE_ITEM0?6?$AA@ 3002df4c     cg_event.obj
 0003:00002f5c       ??_C@_0BB@EAMM@EV_FIRE_WEAPON2?6?$AA@ 3002df5c     cg_event.obj
 0003:00002f70       ??_C@_0BA@PFOI@EV_FIRE_WEAPON?6?$AA@ 3002df70     cg_event.obj
 0003:00002f80       ??_C@_0BC@JHHM@EV_CHANGE_WEAPON?6?$AA@ 3002df80     cg_event.obj
 0003:00002f94       ??_C@_0L@EHFO@EV_NOAMMO?6?$AA@ 3002df94     cg_event.obj
 0003:00002fa0       ??_C@_0BH@CNCH@EV_GLOBAL_ITEM_PICKUP?6?$AA@ 3002dfa0     cg_event.obj
 0003:00002fb8       ??_C@_0BA@LJKF@EV_ITEM_PICKUP?6?$AA@ 3002dfb8     cg_event.obj
 0003:00002fc8       ??_C@_09IIFC@?$CKgasp?4wav?$AA@ 3002dfc8     cg_event.obj
 0003:00002fd4       ??_C@_0BA@CPOA@EV_WATER_CLEAR?6?$AA@ 3002dfd4     cg_event.obj
 0003:00002fe4       ??_C@_0BA@CFGA@EV_WATER_UNDER?6?$AA@ 3002dfe4     cg_event.obj
 0003:00002ff4       ??_C@_0BA@MKDB@EV_WATER_LEAVE?6?$AA@ 3002dff4     cg_event.obj
 0003:00003004       ??_C@_0BA@HOEJ@EV_WATER_TOUCH?6?$AA@ 3002e004     cg_event.obj
 0003:00003014       ??_C@_0L@GPKI@?$CKtaunt?4wav?$AA@ 3002e014     cg_event.obj
 0003:00003020       ??_C@_09IPKD@EV_TAUNT?6?$AA@ 3002e020     cg_event.obj
 0003:0000302c       ??_C@_08IIFH@EV_JUMP?6?$AA@ 3002e02c     cg_event.obj
 0003:00003038       ??_C@_0L@EIFI@?$CKjump1?4wav?$AA@ 3002e038     cg_event.obj
 0003:00003044       ??_C@_0N@NGHL@EV_JUMP_PAD?6?$AA@ 3002e044     cg_event.obj
 0003:00003054       ??_C@_08JOOK@EV_STEP?6?$AA@ 3002e054     cg_event.obj
 0003:00003060       ??_C@_0L@HOHM@?$CKfall1?4wav?$AA@ 3002e060     cg_event.obj
 0003:0000306c       ??_C@_0N@HHME@EV_FALL_FAR?6?$AA@ 3002e06c     cg_event.obj
 0003:0000307c       ??_C@_0BA@EHKG@EV_FALL_MEDIUM?6?$AA@ 3002e07c     cg_event.obj
 0003:0000308c       ??_C@_0P@HPFI@EV_FALL_SHORT?6?$AA@ 3002e08c     cg_event.obj
 0003:0000309c       ??_C@_08LKAO@EV_SWIM?6?$AA@ 3002e09c     cg_event.obj
 0003:000030a8       ??_C@_0N@OIMO@EV_FOOTWADE?6?$AA@ 3002e0a8     cg_event.obj
 0003:000030b8       ??_C@_0P@HGDB@EV_FOOTSPLASH?6?$AA@ 3002e0b8     cg_event.obj
 0003:000030c8       ??_C@_0BD@OBHC@EV_FOOTSTEP_METAL?6?$AA@ 3002e0c8     cg_event.obj
 0003:000030dc       ??_C@_0N@PJNP@EV_FOOTSTEP?6?$AA@ 3002e0dc     cg_event.obj
 0003:000030ec       ??_C@_0L@NDEP@ZEROEVENT?6?$AA@ 3002e0ec     cg_event.obj
 0003:000030f8       ??_C@_0BE@MLMA@ent?3?$CF3i?5?5event?3?$CF3i?5?$AA@ 3002e0f8     cg_event.obj
 0003:0000310c       ??_C@_0M@JPCK@?$CFs?5?$CFs?5?$CFs?$CFs?6?$AA@ 3002e10c     cg_event.obj
 0003:00003118       ??_C@_0O@BPF@was?5killed?5by?$AA@ 3002e118     cg_event.obj
 0003:00003128       ??_C@_0BB@FHHA@?8s?5flame?5thrower?$AA@ 3002e128     cg_event.obj
 0003:0000313c       ??_C@_0P@GDIH@was?5toasted?5by?$AA@ 3002e13c     cg_event.obj
 0003:0000314c       ??_C@_0BC@EAHL@?8s?5personal?5space?$AA@ 3002e14c     cg_event.obj
 0003:00003160       ??_C@_0BA@BOPB@tried?5to?5invade?$AA@ 3002e160     cg_event.obj
 0003:00003170       ??_C@_06BFBK@?8s?5BFG?$AA@ 3002e170     cg_event.obj
 0003:00003178       ??_C@_0P@PJPG@was?5blasted?5by?$AA@ 3002e178     cg_event.obj
 0003:00003188       ??_C@_0N@FGHJ@was?5burnt?5by?$AA@ 3002e188     cg_event.obj
 0003:00003198       ??_C@_0O@CAMJ@was?5railed?5by?$AA@ 3002e198     cg_event.obj
 0003:000031a8       ??_C@_0N@FLCB@?8s?5plasmagun?$AA@ 3002e1a8     cg_event.obj
 0003:000031b8       ??_C@_0O@BKII@was?5melted?5by?$AA@ 3002e1b8     cg_event.obj
 0003:000031c8       ??_C@_0O@FKJL@almost?5dodged?$AA@ 3002e1c8     cg_event.obj
 0003:000031d8       ??_C@_09LGPO@?8s?5rocket?$AA@ 3002e1d8     cg_event.obj
 0003:000031e4       ??_C@_0M@JEIL@?8s?5shrapnel?$AA@ 3002e1e4     cg_event.obj
 0003:000031f0       ??_C@_0BA@LEDP@was?5shredded?5by?$AA@ 3002e1f0     cg_event.obj
 0003:00003200       ??_C@_0L@JJNB@?8s?5grenade?$AA@ 3002e200     cg_event.obj
 0003:0000320c       ??_C@_03CNHG@ate?$AA@      3002e20c     cg_event.obj
 0003:00003210       ??_C@_0BD@BGJE@was?5gunned?5down?5by?$AA@ 3002e210     cg_event.obj
 0003:00003224       ??_C@_0BF@PMCN@was?5machinegunned?5by?$AA@ 3002e224     cg_event.obj
 0003:0000323c       ??_C@_0BA@CIJ@was?5pummeled?5by?$AA@ 3002e23c     cg_event.obj
 0003:0000324c       ??_C@_0O@IGPI@was?5caught?5by?$AA@ 3002e24c     cg_event.obj
 0003:0000325c       ??_C@_09PFNP@?$CFs?5died?4?6?$AA@ 3002e25c     cg_event.obj
 0003:00003268       ??_C@_06IPHI@noname?$AA@   3002e268     cg_event.obj
 0003:00003270       ??_C@_0BK@EOJO@Headshot?$CB?6?6You?5fragged?5?$CFs?$AA@ 3002e270     cg_event.obj
 0003:0000328c       ??_C@_0CL@HBPN@Headshot?$CB?6?6You?5fragged?5?$CFs?6?$CFs?5pla@ 3002e28c     cg_event.obj
 0003:000032b8       ??_C@_0P@MJDJ@You?5fragged?5?$CFs?$AA@ 3002e2b8     cg_event.obj
 0003:000032c8       ??_C@_0CA@LJDA@You?5fragged?5?$CFs?6?$CFs?5place?5with?5?$CFi?$AA@ 3002e2c8     cg_event.obj
 0003:000032e8       ??_C@_07GGCL@?$CFs?5?$CFs?4?6?$AA@ 3002e2e8     cg_event.obj
 0003:000032f0       ??_C@_0P@GGKD@killed?5himself?$AA@ 3002e2f0     cg_event.obj
 0003:00003300       ??_C@_0O@IICO@killed?5itself?$AA@ 3002e300     cg_event.obj
 0003:00003310       ??_C@_0P@POKH@killed?5herself?$AA@ 3002e310     cg_event.obj
 0003:00003320       ??_C@_0BK@IPAN@got?5his?5head?5blown?5off?5by?$AA@ 3002e320     cg_event.obj
 0003:0000333c       ??_C@_0BK@HDFJ@got?5its?5head?5blown?5off?5by?$AA@ 3002e33c     cg_event.obj
 0003:00003358       ??_C@_0BK@GBBA@got?5her?5head?5blown?5off?5by?$AA@ 3002e358     cg_event.obj
 0003:00003374       ??_C@_0BP@NJLA@should?5have?5used?5a?5smaller?5gun?$AA@ 3002e374     cg_event.obj
 0003:00003394       ??_C@_0P@JFBO@melted?5himself?$AA@ 3002e394     cg_event.obj
 0003:000033a4       ??_C@_0O@DFIK@melted?5itself?$AA@ 3002e3a4     cg_event.obj
 0003:000033b4       ??_C@_0P@NBK@melted?5herself?$AA@ 3002e3b4     cg_event.obj
 0003:000033c4       ??_C@_0BA@IPDB@blew?5himself?5up?$AA@ 3002e3c4     cg_event.obj
 0003:000033d4       ??_C@_0P@HBOM@blew?5itself?5up?$AA@ 3002e3d4     cg_event.obj
 0003:000033e4       ??_C@_0BA@KPAE@blew?5herself?5up?$AA@ 3002e3e4     cg_event.obj
 0003:000033f4       ??_C@_0BL@HMJI@tripped?5on?5his?5own?5grenade?$AA@ 3002e3f4     cg_event.obj
 0003:00003410       ??_C@_0BL@JILB@tripped?5on?5its?5own?5grenade?$AA@ 3002e410     cg_event.obj
 0003:0000342c       ??_C@_0BL@KODL@tripped?5on?5her?5own?5grenade?$AA@ 3002e42c     cg_event.obj
 0003:00003448       ??_C@_0BH@BPGN@was?5in?5the?5wrong?5place?$AA@ 3002e448     cg_event.obj
 0003:00003460       ??_C@_0O@NKOE@saw?5the?5light?$AA@ 3002e460     cg_event.obj
 0003:00003470       ??_C@_0BP@CFPL@does?5a?5back?5flip?5into?5the?5lava?$AA@ 3002e470     cg_event.obj
 0003:00003490       ??_C@_06BOLJ@melted?$AA@   3002e490     cg_event.obj
 0003:00003498       ??_C@_0BB@PFDP@sank?5like?5a?5rock?$AA@ 3002e498     cg_event.obj
 0003:000034ac       ??_C@_0N@NNIF@was?5squished?$AA@ 3002e4ac     cg_event.obj
 0003:000034bc       ??_C@_08LBFE@cratered?$AA@ 3002e4bc     cg_event.obj
 0003:000034c8       ??_C@_08LLKL@suicides?$AA@ 3002e4c8     cg_event.obj
 0003:000034d4       ??_C@_02KMNC@?$FO7?$AA@    3002e4d4     cg_event.obj
 0003:000034d8       ??_C@_0CB@KOEE@CG_Obituary?3?5target?5out?5of?5range@ 3002e4d8     cg_event.obj
 0003:000034fc       ??_C@_06CKFM@Use?5?$CFs?$AA@ 3002e4fc     cg_event.obj
 0003:00003504       ??_C@_0P@HAHF@No?5item?5to?5use?$AA@ 3002e504     cg_event.obj
 0003:00003514       ??_C@_0BN@DNDF@sound?1player?1announce?1?$CFs?4wav?$AA@ 3002e514     cg_info.obj
 0003:00003534       ??_C@_05JPCA@sarge?$AA@    3002e534     cg_info.obj
 0003:0000353c       ??_C@_0CJ@EIAD@models?1players?1characters?1?$CFs?1ico@ 3002e53c     cg_info.obj
 0003:00003568       ??_C@_0BO@BKAG@models?1players?1?$CFs?1icon_?$CFs?4tga?$AA@ 3002e568     cg_info.obj
 0003:00003588       ??_C@_07FMEP@default?$AA@  3002e588     cg_info.obj
 0003:00003590       ??_C@_05LHJL@model?$AA@    3002e590     cg_info.obj
 0003:00003598       ??_C@_0BA@JKMP@capturelimit?5?$CFi?$AA@ 3002e598     cg_info.obj
 0003:000035a8       ??_C@_0N@ELFE@capturelimit?$AA@ 3002e5a8     cg_info.obj
 0003:000035b8       ??_C@_0N@IHCP@fraglimit?5?$CFi?$AA@ 3002e5b8     cg_info.obj
 0003:000035c8       ??_C@_09DPJO@fraglimit?$AA@ 3002e5c8     cg_info.obj
 0003:000035d4       ??_C@_0N@IEML@timelimit?5?$CFi?$AA@ 3002e5d4     cg_info.obj
 0003:000035e4       ??_C@_09GBNJ@timelimit?$AA@ 3002e5e4     cg_info.obj
 0003:000035f0       ??_C@_0BB@POJO@Unknown?5Gametype?$AA@ 3002e5f0     cg_info.obj
 0003:00003604       ??_C@_0BB@EBBK@Capture?5The?5Flag?$AA@ 3002e604     cg_info.obj
 0003:00003618       ??_C@_0L@MDJG@Tournament?$AA@ 3002e618     cg_info.obj
 0003:00003624       ??_C@_0O@IEE@Single?5Player?$AA@ 3002e624     cg_info.obj
 0003:00003634       ??_C@_0BD@EJEG@CHEATS?5ARE?5ENABLED?$AA@ 3002e634     cg_info.obj
 0003:00003648       ??_C@_09CPMK@sv_cheats?$AA@ 3002e648     cg_info.obj
 0003:00003654       ??_C@_0M@PCHP@Pure?5Server?$AA@ 3002e654     cg_info.obj
 0003:00003660       ??_C@_07OEHJ@sv_pure?$AA@  3002e660     cg_info.obj
 0003:00003668       ??_C@_0M@IHPH@sv_hostname?$AA@ 3002e668     cg_info.obj
 0003:00003674       ??_C@_0L@HNAD@sv_running?$AA@ 3002e674     cg_info.obj
 0003:00003680       ??_C@_0BF@PPE@Awaiting?5snapshot?4?4?4?$AA@ 3002e680     cg_info.obj
 0003:00003698       ??_C@_0O@NNNJ@Loading?4?4?4?5?$CFs?$AA@ 3002e698     cg_info.obj
 0003:000036a8       ??_C@_0BA@OBBJ@levelShotDetail?$AA@ 3002e6a8     cg_info.obj
 0003:000036b8       ??_C@_0BE@GNPF@menu?1art?1unknownmap?$AA@ 3002e6b8     cg_info.obj
 0003:000036cc       ??_C@_0BC@PKPD@levelshots?1?$CFs?4tga?$AA@ 3002e6cc     cg_info.obj
 0003:000036e0       ??_C@_07DOCO@mapname?$AA@  3002e6e0     cg_info.obj
 0003:000036e8       ??_C@_0BP@IMDD@CG_FreeLocalEntity?3?5not?5active?$AA@ 3002e6e8     cg_localents.obj
 0003:00003708       ??_C@_0P@IAID@Bad?5leType?3?5?$CFi?$AA@ 3002e708     cg_localents.obj
 0003:00003718       _forceModelModificationCount 3002e718     cg_main.obj
 0003:00003d90       ??_C@_0BJ@GGEM@gfx?12d?1numbers?1minus_32b?$AA@ 3002ed90     cg_main.obj
 0003:00003dac       ??_C@_0BI@IIHO@gfx?12d?1numbers?1nine_32b?$AA@ 3002edac     cg_main.obj
 0003:00003dc4       ??_C@_0BJ@HKOM@gfx?12d?1numbers?1eight_32b?$AA@ 3002edc4     cg_main.obj
 0003:00003de0       ??_C@_0BJ@FIML@gfx?12d?1numbers?1seven_32b?$AA@ 3002ede0     cg_main.obj
 0003:00003dfc       ??_C@_0BH@CBJN@gfx?12d?1numbers?1six_32b?$AA@ 3002edfc     cg_main.obj
 0003:00003e14       ??_C@_0BI@DOAJ@gfx?12d?1numbers?1five_32b?$AA@ 3002ee14     cg_main.obj
 0003:00003e2c       ??_C@_0BI@FDL@gfx?12d?1numbers?1four_32b?$AA@ 3002ee2c     cg_main.obj
 0003:00003e44       ??_C@_0BJ@GFMA@gfx?12d?1numbers?1three_32b?$AA@ 3002ee44     cg_main.obj
 0003:00003e60       ??_C@_0BH@BJ@gfx?12d?1numbers?1two_32b?$AA@ 3002ee60     cg_main.obj
 0003:00003e78       ??_C@_0BH@MNJD@gfx?12d?1numbers?1one_32b?$AA@ 3002ee78     cg_main.obj
 0003:00003e90       ??_C@_0BI@EDF@gfx?12d?1numbers?1zero_32b?$AA@ 3002ee90     cg_main.obj
 0003:00003ea8       ??_C@_03IPNG@0?40?$AA@     3002eea8     cg_main.obj
 0003:00003eac       ??_C@_0BB@HDHO@cg_trueLightning?$AA@ 3002eeac     cg_main.obj
 0003:00003ec0       ??_C@_08FHMC@cg_plOut?$AA@ 3002eec0     cg_main.obj
 0003:00003ecc       ??_C@_0O@OHMF@cg_latentCmds?$AA@ 3002eecc     cg_main.obj
 0003:00003edc       ??_C@_0P@BKBO@cg_latentSnaps?$AA@ 3002eedc     cg_main.obj
 0003:00003eec       ??_C@_0N@GMEA@cl_timeNudge?$AA@ 3002eeec     cg_main.obj
 0003:00003efc       ??_C@_0BG@CJBH@cg_optimizePrediction?$AA@ 3002eefc     cg_main.obj
 0003:00003f14       ??_C@_0BD@EHHL@cg_projectileNudge?$AA@ 3002ef14     cg_main.obj
 0003:00003f28       ??_C@_02GJDO@20?$AA@       3002ef28     cg_main.obj
 0003:00003f2c       ??_C@_06LJKO@sv_fps?$AA@   3002ef2c     cg_main.obj
 0003:00003f34       ??_C@_0BA@JBAH@cg_cmdTimeNudge?$AA@ 3002ef34     cg_main.obj
 0003:00003f44       ??_C@_0M@NEBI@cg_drawBBox?$AA@ 3002ef44     cg_main.obj
 0003:00003f50       ??_C@_0O@BNGJ@cg_debugDelag?$AA@ 3002ef50     cg_main.obj
 0003:00003f60       ??_C@_08IOE@cg_delag?$AA@  3002ef60     cg_main.obj
 0003:00003f6c       ??_C@_0N@EBOA@cg_oldPlasma?$AA@ 3002ef6c     cg_main.obj
 0003:00003f7c       ??_C@_0N@GNFL@cg_oldRocket?$AA@ 3002ef7c     cg_main.obj
 0003:00003f8c       ??_C@_0L@FHEA@cg_oldRail?$AA@ 3002ef8c     cg_main.obj
 0003:00003f98       ??_C@_0L@PHAP@ui_bigFont?$AA@ 3002ef98     cg_main.obj
 0003:00003fa4       ??_C@_04KIIB@0?425?$AA@    3002efa4     cg_main.obj
 0003:00003fac       ??_C@_0N@BFNN@ui_smallFont?$AA@ 3002efac     cg_main.obj
 0003:00003fbc       ??_C@_0BF@BNDL@cg_noProjectileTrail?$AA@ 3002efbc     cg_main.obj
 0003:00003fd4       ??_C@_0L@KEPC@cg_noTaunt?$AA@ 3002efd4     cg_main.obj
 0003:00003fe0       ??_C@_01KPCI@8?$AA@        3002efe0     cg_main.obj
 0003:00003fe4       ??_C@_0L@CBI@pmove_msec?$AA@ 3002efe4     cg_main.obj
 0003:00003ff0       ??_C@_0M@JGEC@pmove_fixed?$AA@ 3002eff0     cg_main.obj
 0003:00003ffc       ??_C@_0P@LNMC@com_cameraMode?$AA@ 3002effc     cg_main.obj
 0003:0000400c       ??_C@_0O@IKOD@cg_scorePlums?$AA@ 3002f00c     cg_main.obj
 0003:0000401c       ??_C@_09PFGA@timescale?$AA@ 3002f01c     cg_main.obj
 0003:00004028       ??_C@_0BG@FDKM@cg_timescaleFadeSpeed?$AA@ 3002f028     cg_main.obj
 0003:00004040       ??_C@_0BE@JLAO@cg_timescaleFadeEnd?$AA@ 3002f040     cg_main.obj
 0003:00004054       ??_C@_02IGL@50?$AA@        3002f054     cg_main.obj
 0003:00004058       ??_C@_0BE@HBPP@cg_cameraOrbitDelay?$AA@ 3002f058     cg_main.obj
 0003:0000406c       ??_C@_0L@JNBO@ui?1hud?4txt?$AA@ 3002f06c     cg_main.obj
 0003:00004078       ??_C@_0M@PLPH@cg_hudFiles?$AA@ 3002f078     cg_main.obj
 0003:00004084       ??_C@_0BF@HEGL@g_synchronousClients?$AA@ 3002f084     cg_main.obj
 0003:0000409c       ??_C@_09NJEO@com_blood?$AA@ 3002f09c     cg_main.obj
 0003:000040a8       ??_C@_09ENJF@cl_paused?$AA@ 3002f0a8     cg_main.obj
 0003:000040b4       ??_C@_0BA@ELKM@com_buildScript?$AA@ 3002f0b4     cg_main.obj
 0003:000040c4       ??_C@_0P@HDE@cg_noVoiceText?$AA@ 3002f0c4     cg_main.obj
 0003:000040d4       ??_C@_0BA@LDAC@cg_noVoiceChats?$AA@ 3002f0d4     cg_main.obj
 0003:000040e4       ??_C@_0BB@PNJP@cg_teamChatsOnly?$AA@ 3002f0e4     cg_main.obj
 0003:000040f8       ??_C@_0O@ECAM@cg_drawFriend?$AA@ 3002f0f8     cg_main.obj
 0003:00004108       ??_C@_08LFEE@cg_stats?$AA@ 3002f108     cg_main.obj
 0003:00004114       ??_C@_0M@FNOC@teamoverlay?$AA@ 3002f114     cg_main.obj
 0003:00004120       ??_C@_0BD@HGHB@cg_drawTeamOverlay?$AA@ 3002f120     cg_main.obj
 0003:00004134       ??_C@_0BA@HEHH@cg_deferPlayers?$AA@ 3002f134     cg_main.obj
 0003:00004144       ??_C@_0BA@PHDH@cg_predictItems?$AA@ 3002f144     cg_main.obj
 0003:00004154       ??_C@_0O@JDJH@cg_forceModel?$AA@ 3002f154     cg_main.obj
 0003:00004164       ??_C@_0BC@MGOP@cg_teamChatHeight?$AA@ 3002f164     cg_main.obj
 0003:00004178       ??_C@_04LHEB@3000?$AA@     3002f178     cg_main.obj
 0003:00004180       ??_C@_0BA@NLMO@cg_teamChatTime?$AA@ 3002f180     cg_main.obj
 0003:00004190       ??_C@_02BOMB@40?$AA@       3002f190     cg_main.obj
 0003:00004194       ??_C@_0BA@LOGF@cg_tracerlength?$AA@ 3002f194     cg_main.obj
 0003:000041a4       ??_C@_0P@JDDG@cg_tracerwidth?$AA@ 3002f1a4     cg_main.obj
 0003:000041b4       ??_C@_0BA@JHJM@cg_tracerchance?$AA@ 3002f1b4     cg_main.obj
 0003:000041c4       ??_C@_0N@IIAN@cg_footsteps?$AA@ 3002f1c4     cg_main.obj
 0003:000041d4       ??_C@_0M@MOEE@cg_showmiss?$AA@ 3002f1d4     cg_main.obj
 0003:000041e0       ??_C@_0BB@BPFD@cg_noplayeranims?$AA@ 3002f1e0     cg_main.obj
 0003:000041f4       ??_C@_0N@PIGE@cg_nopredict?$AA@ 3002f1f4     cg_main.obj
 0003:00004204       ??_C@_0O@KAC@cg_errordecay?$AA@ 3002f204     cg_main.obj
 0003:00004214       ??_C@_0P@NKCK@cg_debugevents?$AA@ 3002f214     cg_main.obj
 0003:00004224       ??_C@_0BB@CONE@cg_debugposition?$AA@ 3002f224     cg_main.obj
 0003:00004238       ??_C@_0N@GCOC@cg_debuganim?$AA@ 3002f238     cg_main.obj
 0003:00004248       ??_C@_0N@EFHB@cg_animspeed?$AA@ 3002f248     cg_main.obj
 0003:00004258       ??_C@_03HAGP@0?43?$AA@     3002f258     cg_main.obj
 0003:0000425c       ??_C@_0O@HJHK@cg_swingSpeed?$AA@ 3002f25c     cg_main.obj
 0003:0000426c       ??_C@_0L@FDJB@cg_bobroll?$AA@ 3002f26c     cg_main.obj
 0003:00004278       ??_C@_0M@JFLD@cg_bobpitch?$AA@ 3002f278     cg_main.obj
 0003:00004284       ??_C@_08BIFL@cg_bobup?$AA@ 3002f284     cg_main.obj
 0003:00004290       ??_C@_05HONO@0?4005?$AA@   3002f290     cg_main.obj
 0003:00004298       ??_C@_0L@OHDH@cg_runroll?$AA@ 3002f298     cg_main.obj
 0003:000042a4       ??_C@_05CLDL@0?4002?$AA@   3002f2a4     cg_main.obj
 0003:000042ac       ??_C@_0M@CMAH@cg_runpitch?$AA@ 3002f2ac     cg_main.obj
 0003:000042b8       ??_C@_01ECJ@3?$AA@         3002f2b8     cg_main.obj
 0003:000042bc       ??_C@_0O@MAPC@cg_centertime?$AA@ 3002f2bc     cg_main.obj
 0003:000042cc       ??_C@_07BCIE@cg_gunZ?$AA@  3002f2cc     cg_main.obj
 0003:000042d4       ??_C@_07ONDN@cg_gunY?$AA@  3002f2d4     cg_main.obj
 0003:000042dc       ??_C@_07EHKK@cg_gunX?$AA@  3002f2dc     cg_main.obj
 0003:000042e4       ??_C@_03GPIO@400?$AA@      3002f2e4     cg_main.obj
 0003:000042e8       ??_C@_0BB@PGOB@cg_railTrailTime?$AA@ 3002f2e8     cg_main.obj
 0003:000042fc       ??_C@_0N@JOJA@cg_lagometer?$AA@ 3002f2fc     cg_main.obj
 0003:0000430c       ??_C@_08PKCG@cg_marks?$AA@ 3002f30c     cg_main.obj
 0003:00004318       ??_C@_0P@CMNJ@cg_simpleItems?$AA@ 3002f318     cg_main.obj
 0003:00004328       ??_C@_04IIFP@2500?$AA@     3002f328     cg_main.obj
 0003:00004330       ??_C@_0N@OGMG@cg_brassTime?$AA@ 3002f330     cg_main.obj
 0003:00004340       ??_C@_0O@BAFO@cg_crosshairY?$AA@ 3002f340     cg_main.obj
 0003:00004350       ??_C@_0O@LKMJ@cg_crosshairX?$AA@ 3002f350     cg_main.obj
 0003:00004360       ??_C@_0BD@DAFD@cg_crosshairHealth?$AA@ 3002f360     cg_main.obj
 0003:00004374       ??_C@_02MDGC@24?$AA@       3002f374     cg_main.obj
 0003:00004378       ??_C@_0BB@OMED@cg_crosshairSize?$AA@ 3002f378     cg_main.obj
 0003:0000438c       ??_C@_0P@FGKI@cg_drawRewards?$AA@ 3002f38c     cg_main.obj
 0003:0000439c       ??_C@_0BG@JAIH@cg_drawCrosshairNames?$AA@ 3002f39c     cg_main.obj
 0003:000043b4       ??_C@_01FBMM@4?$AA@        3002f3b4     cg_main.obj
 0003:000043b8       ??_C@_0BB@BIJH@cg_drawCrosshair?$AA@ 3002f3b8     cg_main.obj
 0003:000043cc       ??_C@_0BA@GOGM@cg_drawAttacker?$AA@ 3002f3cc     cg_main.obj
 0003:000043dc       ??_C@_0BD@CH@cg_drawAmmoWarning?$AA@ 3002f3dc     cg_main.obj
 0003:000043f0       ??_C@_0N@PODO@cg_drawIcons?$AA@ 3002f3f0     cg_main.obj
 0003:00004400       ??_C@_0P@CEHN@cg_draw3dIcons?$AA@ 3002f400     cg_main.obj
 0003:00004410       ??_C@_0BA@EDDP@cg_drawSnapshot?$AA@ 3002f410     cg_main.obj
 0003:00004420       ??_C@_0L@PKAE@cg_drawFPS?$AA@ 3002f420     cg_main.obj
 0003:0000442c       ??_C@_0N@DNNE@cg_drawTimer?$AA@ 3002f42c     cg_main.obj
 0003:0000443c       ??_C@_0O@FKIK@cg_drawStatus?$AA@ 3002f43c     cg_main.obj
 0003:0000444c       ??_C@_09EBKA@cg_draw2D?$AA@ 3002f44c     cg_main.obj
 0003:00004458       ??_C@_07KIDA@cg_gibs?$AA@  3002f458     cg_main.obj
 0003:00004460       ??_C@_0L@FKLD@cg_shadows?$AA@ 3002f460     cg_main.obj
 0003:0000446c       ??_C@_03CFIK@0?44?$AA@     3002f46c     cg_main.obj
 0003:00004470       ??_C@_0BE@GEEB@cg_stereoSeparation?$AA@ 3002f470     cg_main.obj
 0003:00004484       ??_C@_02OHJF@90?$AA@       3002f484     cg_main.obj
 0003:00004488       ??_C@_06PPLP@cg_fov?$AA@   3002f488     cg_main.obj
 0003:00004490       ??_C@_04JOPH@22?45?$AA@    3002f490     cg_main.obj
 0003:00004498       ??_C@_0L@DLEJ@cg_zoomfov?$AA@ 3002f498     cg_main.obj
 0003:000044a4       ??_C@_0L@JOKD@cg_drawGun?$AA@ 3002f4a4     cg_main.obj
 0003:000044b0       ??_C@_0O@LDOP@cg_autoswitch?$AA@ 3002f4b0     cg_main.obj
 0003:000044c0       ??_C@_09DOEH@cg_ignore?$AA@ 3002f4c0     cg_main.obj
 0003:000044cc       ??_C@_0BL@KEBB@vmMain?3?5unknown?5command?5?$CFi?$AA@ 3002f4cc     cg_main.obj
 0003:000044e8       ??_C@_0P@KCPO@team_headmodel?$AA@ 3002f4e8     cg_main.obj
 0003:000044f8       ??_C@_0L@MKIK@team_model?$AA@ 3002f4f8     cg_main.obj
 0003:00004504       ??_C@_09MLPD@headmodel?$AA@ 3002f504     cg_main.obj
 0003:00004510       ??_C@_02DILL@?$CFs?$AA@    3002f510     cg_main.obj
 0003:00004514       ??_C@_07BFBH@?$CFs?5?5?5?5?5?$AA@ 3002f514     cg_main.obj
 0003:0000451c       ??_C@_0BP@LEPA@CG_ConfigString?3?5bad?5index?3?5?$CFi?$AA@ 3002f51c     cg_main.obj
 0003:0000453c       ??_C@_07JEGC@clients?$AA@  3002f53c     cg_main.obj
 0003:00004544       ??_C@_08EHHP@graphics?$AA@ 3002f544     cg_main.obj
 0003:00004550       ??_C@_06HADE@sounds?$AA@   3002f550     cg_main.obj
 0003:00004558       ??_C@_0O@JOGL@collision?5map?$AA@ 3002f558     cg_main.obj
 0003:00004568       ??_C@_0CD@MNBB@Client?1Server?5game?5mismatch?3?5?$CFs?1@ 3002f568     cg_main.obj
 0003:0000458c       ??_C@_08LEPD@baseq3?91?$AA@ 3002f58c     cg_main.obj
 0003:00004598       ??_C@_0BI@GNCN@menu?1art?1font2_prop?4tga?$AA@ 3002f598     cg_main.obj
 0003:000045b0       ??_C@_0BM@LJCL@menu?1art?1font1_prop_glo?4tga?$AA@ 3002f5b0     cg_main.obj
 0003:000045cc       ??_C@_0BI@PNGL@menu?1art?1font1_prop?4tga?$AA@ 3002f5cc     cg_main.obj
 0003:000045e4       ??_C@_05GMF@white?$AA@     3002f5e4     cg_main.obj
 0003:000045ec       ??_C@_0BA@OLJD@gfx?12d?1bigchars?$AA@ 3002f5ec     cg_main.obj
 0003:000045fc       ??_C@_0CD@KOIH@sound?1weapons?1grenade?1hgrenb2a?4w@ 3002f5fc     cg_main.obj
 0003:00004620       ??_C@_0CD@BAGH@sound?1weapons?1grenade?1hgrenb1a?4w@ 3002f620     cg_main.obj
 0003:00004644       ??_C@_0BJ@HHNN@sound?1items?1protect3?4wav?$AA@ 3002f644     cg_main.obj
 0003:00004660       ??_C@_0BC@FKJA@sprites?1flameball?$AA@ 3002f660     cg_main.obj
 0003:00004674       ??_C@_0CC@LDHC@sound?1weapons?1plasma?1plasmx1a?4wa@ 3002f674     cg_main.obj
 0003:00004698       ??_C@_0CC@DPBF@sound?1weapons?1rocket?1rocklx1a?4wa@ 3002f698     cg_main.obj
 0003:000046bc       ??_C@_0CD@DKPN@sound?1weapons?1railgun?1railgf1a?4w@ 3002f6bc     cg_main.obj
 0003:000046e0       ??_C@_0CC@NBBC@sound?1weapons?1machinegun?1ric3?4wa@ 3002f6e0     cg_main.obj
 0003:00004704       ??_C@_0CC@HBDH@sound?1weapons?1machinegun?1ric2?4wa@ 3002f704     cg_main.obj
 0003:00004728       ??_C@_0CC@JBFI@sound?1weapons?1machinegun?1ric1?4wa@ 3002f728     cg_main.obj
 0003:0000474c       ??_C@_0BI@PONI@sound?1items?1damage3?4wav?$AA@ 3002f74c     cg_main.obj
 0003:00004764       ??_C@_0CD@LJPM@sound?1player?1footsteps?1clank?$CFi?4w@ 3002f764     cg_main.obj
 0003:00004788       ??_C@_0CE@MLNE@sound?1player?1footsteps?1splash?$CFi?4@ 3002f788     cg_main.obj
 0003:000047ac       ??_C@_0CE@MLH@sound?1player?1footsteps?1energy?$CFi?4@ 3002f7ac     cg_main.obj
 0003:000047d0       ??_C@_0CC@DOOK@sound?1player?1footsteps?1mech?$CFi?4wa@ 3002f7d0     cg_main.obj
 0003:000047f4       ??_C@_0CD@CINL@sound?1player?1footsteps?1flesh?$CFi?4w@ 3002f7f4     cg_main.obj
 0003:00004818       ??_C@_0CC@DPAJ@sound?1player?1footsteps?1boot?$CFi?4wa@ 3002f818     cg_main.obj
 0003:0000483c       ??_C@_0CC@FHIL@sound?1player?1footsteps?1step?$CFi?4wa@ 3002f83c     cg_main.obj
 0003:00004860       ??_C@_0BI@NOB@sound?1world?1jumppad?4wav?$AA@ 3002f860     cg_main.obj
 0003:00004878       ??_C@_0BJ@CEFN@sound?1player?1watr_un?4wav?$AA@ 3002f878     cg_main.obj
 0003:00004894       ??_C@_0BK@IONP@sound?1player?1watr_out?4wav?$AA@ 3002f894     cg_main.obj
 0003:000048b0       ??_C@_0BJ@IFNO@sound?1player?1watr_in?4wav?$AA@ 3002f8b0     cg_main.obj
 0003:000048cc       ??_C@_0BM@NEMN@sound?1feedback?1lostlead?4wav?$AA@ 3002f8cc     cg_main.obj
 0003:000048e8       ??_C@_0BM@OCDK@sound?1feedback?1tiedlead?4wav?$AA@ 3002f8e8     cg_main.obj
 0003:00004904       ??_C@_0BN@PKAH@sound?1feedback?1takenlead?4wav?$AA@ 3002f904     cg_main.obj
 0003:00004924       ??_C@_0BL@LGKL@sound?1feedback?1defense?4wav?$AA@ 3002f924     cg_main.obj
 0003:00004940       ??_C@_0BK@HGAB@sound?1feedback?1assist?4wav?$AA@ 3002f940     cg_main.obj
 0003:0000495c       ??_C@_0BP@FFCB@sound?1feedback?1humiliation?4wav?$AA@ 3002f95c     cg_main.obj
 0003:0000497c       ??_C@_0BK@OBGG@sound?1feedback?1denied?4wav?$AA@ 3002f97c     cg_main.obj
 0003:00004998       ??_C@_0BN@PGHI@sound?1feedback?1excellent?4wav?$AA@ 3002f998     cg_main.obj
 0003:000049b8       ??_C@_0BO@EDAB@sound?1feedback?1impressive?4wav?$AA@ 3002f9b8     cg_main.obj
 0003:000049d8       ??_C@_0BH@NKIK@sound?1feedback?1hit?4wav?$AA@ 3002f9d8     cg_main.obj
 0003:000049f0       ??_C@_0BH@OPKF@sound?1player?1land1?4wav?$AA@ 3002f9f0     cg_main.obj
 0003:00004a08       ??_C@_0BG@MMD@sound?1player?1talk?4wav?$AA@ 3002fa08     cg_main.obj
 0003:00004a20       ??_C@_0BJ@LMIL@sound?1weapons?1noammo?4wav?$AA@ 3002fa20     cg_main.obj
 0003:00004a3c       ??_C@_0BJ@MKPL@sound?1items?1respawn1?4wav?$AA@ 3002fa3c     cg_main.obj
 0003:00004a58       ??_C@_0BI@JK@sound?1world?1teleout?4wav?$AA@ 3002fa58     cg_main.obj
 0003:00004a70       ??_C@_0BH@MACJ@sound?1world?1telein?4wav?$AA@ 3002fa70     cg_main.obj
 0003:00004a88       ??_C@_0BJ@MPBB@sound?1player?1gibimp3?4wav?$AA@ 3002fa88     cg_main.obj
 0003:00004aa4       ??_C@_0BJ@GPDE@sound?1player?1gibimp2?4wav?$AA@ 3002faa4     cg_main.obj
 0003:00004ac0       ??_C@_0BJ@IPFL@sound?1player?1gibimp1?4wav?$AA@ 3002fac0     cg_main.obj
 0003:00004adc       ??_C@_0BK@GJHN@sound?1player?1gibsplt1?4wav?$AA@ 3002fadc     cg_main.obj
 0003:00004af8       ??_C@_0BM@HEPC@sound?1items?1use_nothing?4wav?$AA@ 3002faf8     cg_main.obj
 0003:00004b14       ??_C@_0BI@PGLK@sound?1items?1wearoff?4wav?$AA@ 3002fb14     cg_main.obj
 0003:00004b2c       ??_C@_0BJ@IJDF@sound?1weapons?1change?4wav?$AA@ 3002fb2c     cg_main.obj
 0003:00004b48       ??_C@_0CG@LCFH@sound?1weapons?1machinegun?1buletby@ 3002fb48     cg_main.obj
 0003:00004b70       ??_C@_0CD@ILML@sound?1teamplay?1voc_enemy_1flag?4w@ 3002fb70     cg_main.obj
 0003:00004b94       ??_C@_0CC@DFIN@sound?1teamplay?1voc_team_1flag?4wa@ 3002fb94     cg_main.obj
 0003:00004bb8       ??_C@_0CA@PPDH@sound?1feedback?1voc_holyshit?4wav?$AA@ 3002fbb8     cg_main.obj
 0003:00004bd8       ??_C@_0CA@LAJI@sound?1teamplay?1voc_you_flag?4wav?$AA@ 3002fbd8     cg_main.obj
 0003:00004bf8       ??_C@_0CB@IFFJ@sound?1teamplay?1voc_team_flag?4wav@ 3002fbf8     cg_main.obj
 0003:00004c1c       ??_C@_0CC@MDIC@sound?1teamplay?1voc_enemy_flag?4wa@ 3002fc1c     cg_main.obj
 0003:00004c40       ??_C@_0CF@PNHC@sound?1teamplay?1voc_blue_returned@ 3002fc40     cg_main.obj
 0003:00004c68       ??_C@_0CE@HHAE@sound?1teamplay?1voc_red_returned?4@ 3002fc68     cg_main.obj
 0003:00004c8c       ??_C@_0CG@PHNE@sound?1teamplay?1flagtaken_opponen@ 3002fc8c     cg_main.obj
 0003:00004cb4       ??_C@_0CG@NELF@sound?1teamplay?1flagtaken_yourtea@ 3002fcb4     cg_main.obj
 0003:00004cdc       ??_C@_0CH@MJMC@sound?1teamplay?1flagreturn_oppone@ 3002fcdc     cg_main.obj
 0003:00004d04       ??_C@_0CH@OKKD@sound?1teamplay?1flagreturn_yourte@ 3002fd04     cg_main.obj
 0003:00004d2c       ??_C@_0CI@EBAB@sound?1teamplay?1flagcapture_oppon@ 3002fd2c     cg_main.obj
 0003:00004d54       ??_C@_0CD@PNIB@sound?1teamplay?1voc_blue_scores?4w@ 3002fd54     cg_main.obj
 0003:00004d78       ??_C@_0CC@COOK@sound?1teamplay?1voc_red_scores?4wa@ 3002fd78     cg_main.obj
 0003:00004d9c       ??_C@_0CA@BJLL@sound?1feedback?1hit_teammate?4wav?$AA@ 3002fd9c     cg_main.obj
 0003:00004dbc       ??_C@_0BN@BEJD@sound?1feedback?1teamstied?4wav?$AA@ 3002fdbc     cg_main.obj
 0003:00004ddc       ??_C@_0BN@KLBA@sound?1feedback?1blueleads?4wav?$AA@ 3002fddc     cg_main.obj
 0003:00004dfc       ??_C@_0BM@PPAE@sound?1feedback?1redleads?4wav?$AA@ 3002fdfc     cg_main.obj
 0003:00004e18       ??_C@_0CI@GCGA@sound?1teamplay?1flagcapture_yourt@ 3002fe18     cg_main.obj
 0003:00004e40       ??_C@_0BL@GDED@sound?1feedback?1prepare?4wav?$AA@ 3002fe40     cg_main.obj
 0003:00004e5c       ??_C@_0BJ@HPLO@sound?1feedback?1fight?4wav?$AA@ 3002fe5c     cg_main.obj
 0003:00004e78       ??_C@_0BH@FJHC@sound?1feedback?1one?4wav?$AA@ 3002fe78     cg_main.obj
 0003:00004e90       ??_C@_0BH@JEPI@sound?1feedback?1two?4wav?$AA@ 3002fe90     cg_main.obj
 0003:00004ea8       ??_C@_0BJ@CGEK@sound?1feedback?1three?4wav?$AA@ 3002fea8     cg_main.obj
 0003:00004ec4       ??_C@_0BL@EEJO@sound?1feedback?13_frags?4wav?$AA@ 3002fec4     cg_main.obj
 0003:00004ee0       ??_C@_0BL@KOBB@sound?1feedback?12_frags?4wav?$AA@ 3002fee0     cg_main.obj
 0003:00004efc       ??_C@_0BK@LPJP@sound?1feedback?11_frag?4wav?$AA@ 3002fefc     cg_main.obj
 0003:00004f18       ??_C@_0CA@CIFA@sound?1feedback?1sudden_death?4wav?$AA@ 3002ff18     cg_main.obj
 0003:00004f38       ??_C@_0BM@JEGM@sound?1feedback?15_minute?4wav?$AA@ 3002ff38     cg_main.obj
 0003:00004f54       ??_C@_0BM@CDMG@sound?1feedback?11_minute?4wav?$AA@ 3002ff54     cg_main.obj
 0003:00004f70       ??_C@_0CJ@CCML@PrecacheItem?3?5?$CFs?5has?5bad?5precach@ 3002ff70     cg_main.obj
 0003:00004f9c       ??_C@_03JAAL@wav?$AA@      3002ff9c     cg_main.obj
 0003:00004fa0       ??_C@_03OGBA@?$CK?$CFi?$AA@ 3002ffa0     cg_main.obj
 0003:00004fa4       ??_C@_09NBPF@bloodMark?$AA@ 3002ffa4     cg_main.obj
 0003:00004fb0       ??_C@_04MCIG@wake?$AA@     3002ffb0     cg_main.obj
 0003:00004fb8       ??_C@_0L@MHIE@markShadow?$AA@ 3002ffb8     cg_main.obj
 0003:00004fc4       ??_C@_0BG@FAEE@gfx?1damage?1plasma_mrk?$AA@ 3002ffc4     cg_main.obj
 0003:00004fdc       ??_C@_0BH@IEIN@gfx?1damage?1hole_lg_mrk?$AA@ 3002ffdc     cg_main.obj
 0003:00004ff4       ??_C@_0BI@MJNK@gfx?1damage?1burn_med_mrk?$AA@ 3002fff4     cg_main.obj
 0003:0000500c       ??_C@_0BG@LFHE@gfx?1damage?1bullet_mrk?$AA@ 3003000c     cg_main.obj
 0003:00005024       ??_C@_0O@JEAD@medal_capture?$AA@ 30030024     cg_main.obj
 0003:00005034       ??_C@_0N@MNAM@medal_assist?$AA@ 30030034     cg_main.obj
 0003:00005044       ??_C@_0N@MLPP@medal_defend?$AA@ 30030044     cg_main.obj
 0003:00005054       ??_C@_0P@FFMN@medal_gauntlet?$AA@ 30030054     cg_main.obj
 0003:00005064       ??_C@_0BA@MJGL@medal_excellent?$AA@ 30030064     cg_main.obj
 0003:00005074       ??_C@_0BB@KJCG@medal_impressive?$AA@ 30030074     cg_main.obj
 0003:00005088       ??_C@_0CC@LCHI@models?1powerups?1shield?1shield?4md@ 30030088     cg_main.obj
 0003:000050ac       ??_C@_0P@DFMD@teleportEffect?$AA@ 300300ac     cg_main.obj
 0003:000050bc       ??_C@_0BG@DGHM@models?1misc?1telep?4md3?$AA@ 300300bc     cg_main.obj
 0003:000050d4       ??_C@_0BL@DADF@models?1weaphits?1boom01?4md3?$AA@ 300300d4     cg_main.obj
 0003:000050f0       ??_C@_0BL@MAGG@models?1weaphits?1ring02?4md3?$AA@ 300300f0     cg_main.obj
 0003:0000510c       ??_C@_0BL@KMEP@models?1weaphits?1bullet?4md3?$AA@ 3003010c     cg_main.obj
 0003:00005128       ??_C@_0P@DMIO@bloodExplosion?$AA@ 30030128     cg_main.obj
 0003:00005138       ??_C@_0BB@GJFJ@sprites?1balloon3?$AA@ 30030138     cg_main.obj
 0003:0000514c       ??_C@_0BG@GELG@models?1gibs?1brain?4md3?$AA@ 3003014c     cg_main.obj
 0003:00005164       ??_C@_0BG@NJKJ@models?1gibs?1skull?4md3?$AA@ 30030164     cg_main.obj
 0003:0000517c       ??_C@_0BE@GONB@models?1gibs?1leg?4md3?$AA@ 3003017c     cg_main.obj
 0003:00005190       ??_C@_0BK@IPCD@models?1gibs?1intestine?4md3?$AA@ 30030190     cg_main.obj
 0003:000051ac       ??_C@_0BI@HDBE@models?1gibs?1forearm?4md3?$AA@ 300301ac     cg_main.obj
 0003:000051c4       ??_C@_0BF@JIAB@models?1gibs?1foot?4md3?$AA@ 300301c4     cg_main.obj
 0003:000051dc       ??_C@_0BF@NOPP@models?1gibs?1fist?4md3?$AA@ 300301dc     cg_main.obj
 0003:000051f4       ??_C@_0BG@NABO@models?1gibs?1chest?4md3?$AA@ 300301f4     cg_main.obj
 0003:0000520c       ??_C@_0BE@HNLN@models?1gibs?1arm?4md3?$AA@ 3003020c     cg_main.obj
 0003:00005220       ??_C@_0BI@MMIP@models?1gibs?1abdomen?4md3?$AA@ 30030220     cg_main.obj
 0003:00005238       ??_C@_0CD@DFOI@models?1weapons2?1shells?1s_shell?4m@ 30030238     cg_main.obj
 0003:0000525c       ??_C@_0CD@LGEK@models?1weapons2?1shells?1m_shell?4m@ 3003025c     cg_main.obj
 0003:00005280       ??_C@_0BE@MFJI@gfx?12d?1colorbar?4tga?$AA@ 30030280     cg_main.obj
 0003:00005294       ??_C@_0BC@FIIO@powerups?1blueflag?$AA@ 30030294     cg_main.obj
 0003:000052a8       ??_C@_0M@DEOK@sprites?1foe?$AA@ 300302a8     cg_main.obj
 0003:000052b4       ??_C@_0BB@IOJF@icons?1iconf_blu3?$AA@ 300302b4     cg_main.obj
 0003:000052c8       ??_C@_0BB@CEAC@icons?1iconf_blu2?$AA@ 300302c8     cg_main.obj
 0003:000052dc       ??_C@_0BB@GFBE@icons?1iconf_red3?$AA@ 300302dc     cg_main.obj
 0003:000052f0       ??_C@_0BB@MPID@icons?1iconf_red2?$AA@ 300302f0     cg_main.obj
 0003:00005304       ??_C@_0BB@HKAO@icons?1skull_blue?$AA@ 30030304     cg_main.obj
 0003:00005318       ??_C@_0BA@GEKM@icons?1skull_red?$AA@ 30030318     cg_main.obj
 0003:00005328       ??_C@_0BO@HEAI@models?1powerups?1orb?1b_orb?4md3?$AA@ 30030328     cg_main.obj
 0003:00005348       ??_C@_0BO@FAIK@models?1powerups?1orb?1r_orb?4md3?$AA@ 30030348     cg_main.obj
 0003:00005368       ??_C@_0P@NOLD@hasteSmokePuff?$AA@ 30030368     cg_main.obj
 0003:00005378       ??_C@_0P@KCNN@powerups?1regen?$AA@ 30030378     cg_main.obj
 0003:00005388       ??_C@_0BG@DGGP@powerups?1invisibility?$AA@ 30030388     cg_main.obj
 0003:000053a0       ??_C@_0BG@PEBI@powerups?1battleWeapon?$AA@ 300303a0     cg_main.obj
 0003:000053b8       ??_C@_0BE@EPKD@powerups?1battleSuit?$AA@ 300303b8     cg_main.obj
 0003:000053cc       ??_C@_0BE@IADB@powerups?1quadWeapon?$AA@ 300303cc     cg_main.obj
 0003:000053e0       ??_C@_0O@KEKI@powerups?1quad?$AA@ 300303e0     cg_main.obj
 0003:000053f0       ??_C@_0N@CIJO@icons?1noammo?$AA@ 300303f0     cg_main.obj
 0003:00005400       ??_C@_0BA@EMNI@gfx?12d?1backtile?$AA@ 30030400     cg_main.obj
 0003:00005410       ??_C@_0BD@LP@gfx?12d?1crosshair?$CFc?$AA@ 30030410     cg_main.obj
 0003:00005424       ??_C@_0O@NNHH@gfx?12d?1select?$AA@ 30030424     cg_main.obj
 0003:00005434       ??_C@_0BA@EFC@gfx?1misc?1tracer?$AA@ 30030434     cg_main.obj
 0003:00005444       ??_C@_0M@MHCB@waterBubble?$AA@ 30030444     cg_main.obj
 0003:00005450       ??_C@_0N@OGHP@disconnected?$AA@ 30030450     cg_main.obj
 0003:00005460       ??_C@_09FFBB@lagometer?$AA@ 30030460     cg_main.obj
 0003:0000546c       ??_C@_0L@KJM@bloodTrail?$AA@ 3003046c     cg_main.obj
 0003:00005478       ??_C@_0BA@GFOI@sprites?1plasma1?$AA@ 30030478     cg_main.obj
 0003:00005488       ??_C@_0BB@PFF@shotgunSmokePuff?$AA@ 30030488     cg_main.obj
 0003:0000549c       ??_C@_0BB@MPIG@smokePuffRagePro?$AA@ 3003049c     cg_main.obj
 0003:000054b0       ??_C@_09ELFP@smokePuff?$AA@ 300304b0     cg_main.obj
 0003:000054bc       ??_C@_0BC@LCPM@menu?1tab?1time?4tga?$AA@ 300304bc     cg_main.obj
 0003:000054d0       ??_C@_0BD@GFLC@menu?1tab?1score?4tga?$AA@ 300304d0     cg_main.obj
 0003:000054e4       ??_C@_0BC@GMOM@menu?1tab?1ping?4tga?$AA@ 300304e4     cg_main.obj
 0003:000054f8       ??_C@_0BC@JFJB@menu?1tab?1name?4tga?$AA@ 300304f8     cg_main.obj
 0003:0000550c       ??_C@_0BB@NIJN@gfx?12d?1defer?4tga?$AA@ 3003050c     cg_main.obj
 0003:00005520       ??_C@_0P@EJBO@viewBloodBlend?$AA@ 30030520     cg_main.obj
 0003:00005530       ??_C@_0BE@HPMM@menu?1art?1skill5?4tga?$AA@ 30030530     cg_main.obj
 0003:00005544       ??_C@_0BE@NPOJ@menu?1art?1skill4?4tga?$AA@ 30030544     cg_main.obj
 0003:00005558       ??_C@_0BE@LPBD@menu?1art?1skill3?4tga?$AA@ 30030558     cg_main.obj
 0003:0000556c       ??_C@_0BE@BPDG@menu?1art?1skill2?4tga?$AA@ 3003056c     cg_main.obj
 0003:00005580       ??_C@_0BE@PPFJ@menu?1art?1skill1?4tga?$AA@ 30030580     cg_main.obj
 0003:00005594       ??_C@_0L@KCHM@game?5media?$AA@ 30030594     cg_main.obj
 0003:00005720       _cl_numparticles           30030720     cg_marks.obj
 0003:00005724       ??_C@_08EFLK@explode1?$AA@ 30030724     cg_marks.obj
 0003:00005730       ??_C@_0CG@DAAF@CG_ImpactMark?5called?5with?5?$DM?$DN?50?5r@ 30030730     cg_marks.obj
 0003:00005758       ??_C@_04JKCL@?$CFs?$CFi?$AA@ 30030758     cg_marks.obj
 0003:00005760       ??_C@_0DE@FDEA@CG_ParticleExplosion?3?5unknown?5an@ 30030760     cg_marks.obj
 0003:00005794       ??_C@_0EI@FAHN@CG_ParticleExplosion?3?5animStr?5is@ 30030794     cg_marks.obj
 0003:000057dc       _cg_customSoundNames       300307dc     cg_players.obj
 0003:0000587c       ??_C@_0L@PAPK@?$CKdrown?4wav?$AA@ 3003087c     cg_players.obj
 0003:00005888       ??_C@_0O@IAAP@?$CKfalling1?4wav?$AA@ 30030888     cg_players.obj
 0003:00005898       ??_C@_0M@MNAN@?$CKdeath3?4wav?$AA@ 30030898     cg_players.obj
 0003:000058a4       ??_C@_0M@GNCI@?$CKdeath2?4wav?$AA@ 300308a4     cg_players.obj
 0003:000058b0       ??_C@_0M@INEH@?$CKdeath1?4wav?$AA@ 300308b0     cg_players.obj
 0003:000058bc       ??_C@_0BJ@IDLH@Unknown?5custom?5sound?3?5?$CFs?$AA@ 300308bc     cg_players.obj
 0003:000058d8       ??_C@_0CH@JCI@Memory?5is?5low?4?5?5Using?5deferred?5m@ 300308d8     cg_players.obj
 0003:00005900       ??_C@_06MGJH@hmodel?$AA@   30030900     cg_players.obj
 0003:00005908       ??_C@_0L@CKFL@g_blueteam?$AA@ 30030908     cg_players.obj
 0003:00005914       ??_C@_09NMHP@g_redteam?$AA@ 30030914     cg_players.obj
 0003:00005920       ??_C@_02EGDA@tl?$AA@       30030920     cg_players.obj
 0003:00005924       ??_C@_02LLPI@tt?$AA@       30030924     cg_players.obj
 0003:00005928       ??_C@_01PEAM@t?$AA@        30030928     cg_players.obj
 0003:0000592c       ??_C@_01JME@l?$AA@         3003092c     cg_players.obj
 0003:00005930       ??_C@_01LLF@w?$AA@         30030930     cg_players.obj
 0003:00005934       ??_C@_02MCDK@hc?$AA@       30030934     cg_players.obj
 0003:00005938       ??_C@_05MIHE@skill?$AA@    30030938     cg_players.obj
 0003:00005940       ??_C@_02OKLG@c2?$AA@       30030940     cg_players.obj
 0003:00005944       ??_C@_02BFAP@c1?$AA@       30030944     cg_players.obj
 0003:00005948       ??_C@_0BD@FEG@sound?1player?1?$CFs?1?$CFs?$AA@ 30030948     cg_players.obj
 0003:0000595c       ??_C@_08FOPC@tag_flag?$AA@ 3003095c     cg_players.obj
 0003:00005968       ??_C@_0CG@CIED@DEFAULT_MODEL?5?$CI?$CFs?$CJ?5failed?5to?5reg@ 30030968     cg_players.obj
 0003:00005990       ??_C@_0DF@EDLK@DEFAULT_TEAM_MODEL?5?1?5skin?5?$CI?$CFs?1?$CFs@ 30030990     cg_players.obj
 0003:000059c8       ??_C@_07EIFO@Stroggs?$AA@  300309c8     cg_players.obj
 0003:000059d0       ??_C@_06BCHF@Pagans?$AA@   300309d0     cg_players.obj
 0003:000059d8       ??_C@_0DH@BFOD@CG_RegisterClientModelname?$CI?5?$CFs?0?5@ 300309d8     cg_players.obj
 0003:00005a10       ??_C@_03ONFK@tga?$AA@      30030a10     cg_players.obj
 0003:00005a14       ??_C@_04DHFN@icon?$AA@     30030a14     cg_players.obj
 0003:00005a1c       ??_C@_04OFAC@skin?$AA@     30030a1c     cg_players.obj
 0003:00005a24       ??_C@_0CC@OHOC@Failed?5to?5load?5animation?5file?5?$CFs@ 30030a24     cg_players.obj
 0003:00005a48       ??_C@_0CL@BGHG@models?1players?1characters?1?$CFs?1ani@ 30030a48     cg_players.obj
 0003:00005a74       ??_C@_0CA@ELJL@models?1players?1?$CFs?1animation?4cfg?$AA@ 30030a74     cg_players.obj
 0003:00005a94       ??_C@_0CM@JHOB@Failed?5to?5load?5skin?5file?3?5?$CFs?5?3?5?$CF@ 30030a94     cg_players.obj
 0003:00005ac0       ??_C@_03CFIF@?$CFs?1?$AA@  30030ac0     cg_players.obj
 0003:00005ac4       ??_C@_0DB@DIED@Failed?5to?5load?5skin?5file?3?5?$CFs?5?3?5?$CF@ 30030ac4     cg_players.obj
 0003:00005af8       ??_C@_0BL@MPJF@models?1players?1?$CFs?1head?4md3?$AA@ 30030af8     cg_players.obj
 0003:00005b14       ??_C@_0BP@ONKG@models?1players?1heads?1?$CFs?1?$CFs?4md3?$AA@ 30030b14     cg_players.obj
 0003:00005b34       ??_C@_0CH@EPOD@models?1players?1characters?1?$CFs?1upp@ 30030b34     cg_players.obj
 0003:00005b5c       ??_C@_0BM@CCGI@models?1players?1?$CFs?1upper?4md3?$AA@ 30030b5c     cg_players.obj
 0003:00005b78       ??_C@_0BO@ELEH@Failed?5to?5load?5model?5file?5?$CFs?6?$AA@ 30030b78     cg_players.obj
 0003:00005b98       ??_C@_0CH@EJNE@models?1players?1characters?1?$CFs?1low@ 30030b98     cg_players.obj
 0003:00005bc0       ??_C@_0BM@CEFP@models?1players?1?$CFs?1lower?4md3?$AA@ 30030bc0     cg_players.obj
 0003:00005bdc       ??_C@_0CB@GMGP@Error?5parsing?5animation?5file?3?5?$CFs@ 30030bdc     cg_players.obj
 0003:00005c00       ??_C@_0BK@LJDE@unknown?5token?5?8?$CFs?8?5is?5?$CFs?6?$AA@ 30030c00     cg_players.obj
 0003:00005c1c       ??_C@_0L@LMBK@fixedtorso?$AA@ 30030c1c     cg_players.obj
 0003:00005c28       ??_C@_09KJJ@fixedlegs?$AA@ 30030c28     cg_players.obj
 0003:00005c34       ??_C@_03CJDB@sex?$AA@      30030c34     cg_players.obj
 0003:00005c38       ??_C@_0L@EPMP@headoffset?$AA@ 30030c38     cg_players.obj
 0003:00005c44       ??_C@_0BO@PCCE@Bad?5footsteps?5parm?5in?5?$CFs?3?5?$CFs?6?$AA@ 30030c44     cg_players.obj
 0003:00005c64       ??_C@_06GBBO@energy?$AA@   30030c64     cg_players.obj
 0003:00005c6c       ??_C@_04FOOO@mech?$AA@     30030c6c     cg_players.obj
 0003:00005c74       ??_C@_05NMDE@flesh?$AA@    30030c74     cg_players.obj
 0003:00005c7c       ??_C@_04CDC@boot?$AA@      30030c7c     cg_players.obj
 0003:00005c84       ??_C@_06KMLP@normal?$AA@   30030c84     cg_players.obj
 0003:00005c8c       ??_C@_09EDIM@footsteps?$AA@ 30030c8c     cg_players.obj
 0003:00005c98       ??_C@_0BC@GFDL@File?5?$CFs?5too?5long?6?$AA@ 30030c98     cg_players.obj
 0003:00005cac       ??_C@_0BN@CCLB@models?1players?1?$CFs?$CFs?1?$CFs_?$CFs?4?$CFs?$AA@ 30030cac     cg_players.obj
 0003:00005ccc       ??_C@_0BP@LDPA@models?1players?1?$CFs?$CFs?1?$CFs?$CFs_?$CFs?4?$CFs?$AA@ 30030ccc     cg_players.obj
 0003:00005cec       ??_C@_0CA@FJKM@models?1players?1?$CFs?$CFs?1?$CFs?1?$CFs_?$CFs?4?$CFs?$AA@ 30030cec     cg_players.obj
 0003:00005d0c       ??_C@_0CC@JGIM@models?1players?1?$CFs?$CFs?1?$CFs?1?$CFs?$CFs_?$CFs?4?$CF@ 30030d0c     cg_players.obj
 0003:00005d30       ??_C@_06HFOO@heads?1?$AA@  30030d30     cg_players.obj
 0003:00005d38       ??_C@_04FEG@blue?$AA@      30030d38     cg_players.obj
 0003:00005d40       ??_C@_03CMLD@red?$AA@      30030d40     cg_players.obj
 0003:00005d44       ??_C@_0BM@MDCB@Head?5skin?5load?5failure?3?5?$CFs?6?$AA@ 30030d44     cg_players.obj
 0003:00005d60       ??_C@_04DNEF@head?$AA@     30030d60     cg_players.obj
 0003:00005d68       ??_C@_0BN@JKHH@Torso?5skin?5load?5failure?3?5?$CFs?6?$AA@ 30030d68     cg_players.obj
 0003:00005d88       ??_C@_05FKGB@upper?$AA@    30030d88     cg_players.obj
 0003:00005d90       ??_C@_0BL@EIIL@Leg?5skin?5load?5failure?3?5?$CFs?6?$AA@ 30030d90     cg_players.obj
 0003:00005dac       ??_C@_05MCFF@lower?$AA@    30030dac     cg_players.obj
 0003:00005db4       ??_C@_0M@HLLH@characters?1?$AA@ 30030db4     cg_players.obj
 0003:00005dc0       ??_C@_0CA@KGCA@models?1players?1?$CFs?$CFs?1?$CFs_?$CFs_?$CFs?4?$CFs?$AA@ 30030dc0     cg_players.obj
 0003:00005de0       ??_C@_0CC@GJLC@models?1players?1?$CFs?$CFs?1?$CFs?$CFs_?$CFs_?$CFs?4?$CF@ 30030de0     cg_players.obj
 0003:00005e04       ??_C@_0CN@HEAK@CG_SetDeferredClientInfo?3?5no?5val@ 30030e04     cg_players.obj
 0003:00005e34       ??_C@_08JGJE@tag_head?$AA@ 30030e34     cg_players.obj
 0003:00005e40       ??_C@_09ECJI@tag_torso?$AA@ 30030e40     cg_players.obj
 0003:00005e4c       ??_C@_0BP@MOFG@Bad?5clientNum?5on?5player?5entity?$AA@ 30030e4c     cg_players.obj
 0003:00005e6c       ??_C@_0BF@OFAO@Clamp?5lf?9?$DOframeTime?6?$AA@ 30030e6c     cg_players.obj
 0003:00005e84       ??_C@_09FILE@Anim?3?5?$CFi?6?$AA@ 30030e84     cg_players.obj
 0003:00005e90       ??_C@_0BJ@MCPI@Bad?5animation?5number?3?5?$CFi?$AA@ 30030e90     cg_players.obj
 0003:00005eac       ??_C@_0BK@HHHI@Bad?5player?5movement?5angle?$AA@ 30030eac     cg_players.obj
 0003:00005ec8       ??_C@_0BN@PDIA@?$CFi?5ResetPlayerEntity?5yaw?$DN?$CFi?6?$AA@ 30030ec8     cg_players.obj
 0003:00005ee8       ??_C@_0BH@BBDG@WARNING?3?5double?5event?6?$AA@ 30030ee8     cg_predict.obj
 0003:00005f00       ??_C@_0BI@EDBE@WARNING?3?5dropped?5event?6?$AA@ 30030f00     cg_predict.obj
 0003:00005f18       ??_C@_0L@PNJD@not?5moved?6?$AA@ 30030f18     cg_predict.obj
 0003:00005f24       ??_C@_0L@KNMH@?$FL?$CFi?5?3?5?$CFi?$FN?5?$AA@ 30030f24     cg_predict.obj
 0003:00005f30       ??_C@_0BC@PNAC@saved?5state?5miss?6?$AA@ 30030f30     cg_predict.obj
 0003:00005f44       ??_C@_0BN@HHO@Double?5prediction?5decay?3?5?$CFf?6?$AA@ 30030f44     cg_predict.obj
 0003:00005f64       ??_C@_0BF@EJKK@Prediction?5miss?3?5?$CFf?6?$AA@ 30030f64     cg_predict.obj
 0003:00005f7c       ??_C@_0BC@GMJM@prediction?5error?6?$AA@ 30030f7c     cg_predict.obj
 0003:00005f90       ??_C@_0BE@LGAC@PredictionTeleport?6?$AA@ 30030f90     cg_predict.obj
 0003:00005fa4       ??_C@_0BE@MBFN@errorcode?5?$CFd?5at?5?$CFd?6?$AA@ 30030fa4     cg_predict.obj
 0003:00005fb8       ??_C@_02IACN@33?$AA@       30030fb8     cg_predict.obj
 0003:00005fbc       ??_C@_0CE@GAJH@exceeded?5PACKET_BACKUP?5on?5comman@ 30030fbc     cg_predict.obj
 0003:00005fe0       ??_C@_0O@NPJL@delta?3?5?$CF?42f?5?5?$AA@ 30030fe0     cg_predict.obj
 0003:00005ff0       ??_C@_0BE@LFKI@Blue?5leads?5?$CFi?5to?5?$CFi?$AA@ 30030ff0     cg_scoreboard.obj
 0003:00006004       ??_C@_0BD@JNHP@Red?5leads?5?$CFi?5to?5?$CFi?$AA@ 30031004     cg_scoreboard.obj
 0003:00006018       ??_C@_0BF@JNNA@Teams?5are?5tied?5at?5?$CFi?$AA@ 30031018     cg_scoreboard.obj
 0003:00006030       ??_C@_0BB@NFNC@?$CFs?5place?5with?5?$CFi?$AA@ 30031030     cg_scoreboard.obj
 0003:00006044       ??_C@_0O@NJOP@Fragged?5by?5?$CFs?$AA@ 30031044     cg_scoreboard.obj
 0003:00006054       ??_C@_0BH@EOKJ@Bad?5score?9?$DOclient?3?5?$CFi?6?$AA@ 30031054     cg_scoreboard.obj
 0003:0000606c       ??_C@_05HKPI@READY?$AA@    3003106c     cg_scoreboard.obj
 0003:00006074       ??_C@_0P@BDKN@?$CF5i?5?$CF4i?5?$CF4i?5?$CFs?$AA@ 30031074     cg_scoreboard.obj
 0003:00006084       ??_C@_0BC@BLFH@?5SPECT?5?$CF3i?5?$CF4i?5?$CFs?$AA@ 30031084     cg_scoreboard.obj
 0003:00006098       ??_C@_0BC@PMKJ@?5connecting?5?5?5?5?$CFs?$AA@ 30031098     cg_scoreboard.obj
 0003:000060ac       ??_C@_05CJED@?$CFi?1?$CFi?$AA@ 300310ac     cg_scoreboard.obj
 0003:000060b4       ??_C@_09OLDB@Blue?5Team?$AA@ 300310b4     cg_scoreboard.obj
 0003:000060c0       ??_C@_08PHPI@Red?5Team?$AA@ 300310c0     cg_scoreboard.obj
 0003:000060cc       ??_C@_0L@PJCP@Scoreboard?$AA@ 300310cc     cg_scoreboard.obj
 0003:000060d8       ??_C@_0BC@MPEC@followflagcarrier?$AA@ 300310d8     cg_servercmds.obj
 0003:000060ec       ??_C@_0L@MJBL@returnflag?$AA@ 300310ec     cg_servercmds.obj
 0003:000060f8       ??_C@_08NIBB@followme?$AA@ 300310f8     cg_servercmds.obj
 0003:00006104       ??_C@_04NMKL@camp?$AA@     30031104     cg_servercmds.obj
 0003:0000610c       ??_C@_06PFHA@patrol?$AA@   3003110c     cg_servercmds.obj
 0003:00006114       ??_C@_0L@OLP@defendflag?$AA@ 30031114     cg_servercmds.obj
 0003:00006120       ??_C@_06LLPL@defend?$AA@   30031120     cg_servercmds.obj
 0003:00006128       ??_C@_07IKFP@offense?$AA@  30031128     cg_servercmds.obj
 0003:00006130       ??_C@_07NLAE@getflag?$AA@  30031130     cg_servercmds.obj
 0003:00006138       ??_C@_0P@BBGG@g_delagHitscan?$AA@ 30031138     cg_servercmds.obj
 0003:00006148       ??_C@_0L@IABJ@g_blueTeam?$AA@ 30031148     cg_servercmds.obj
 0003:00006154       ??_C@_09HGDN@g_redTeam?$AA@ 30031154     cg_servercmds.obj
 0003:00006160       ??_C@_0M@HBDC@maps?1?$CFs?4bsp?$AA@ 30031160     cg_servercmds.obj
 0003:0000616c       ??_C@_0O@KKJL@sv_maxclients?$AA@ 3003116c     cg_servercmds.obj
 0003:0000617c       ??_C@_09NNDG@teamflags?$AA@ 3003117c     cg_servercmds.obj
 0003:00006188       ??_C@_07NJLK@dmflags?$AA@  30031188     cg_servercmds.obj
 0003:00006190       ??_C@_0L@IEJM@g_gametype?$AA@ 30031190     cg_servercmds.obj
 0003:0000619c       ??_C@_01KFMA@?$EA?$AA@     3003119c     cg_servercmds.obj
 0003:000061a0       ??_C@_01PKAG@?3?$AA@       300311a0     cg_servercmds.obj
 0003:000061a4       ??_C@_01KPOD@?$DN?$AA@     300311a4     cg_servercmds.obj
 0003:000061a8       ??_C@_01KCD@?$HN?$AA@      300311a8     cg_servercmds.obj
 0003:000061ac       ??_C@_01PFFB@?$HL?$AA@     300311ac     cg_servercmds.obj
 0003:000061b0       ??_C@_0CB@PEKB@Unknown?5client?5game?5command?3?5?$CFs?6@ 300311b0     cg_servercmds.obj
 0003:000061d4       ??_C@_0BA@OGON@clientLevelShot?$AA@ 300311d4     cg_servercmds.obj
 0003:000061e4       ??_C@_0M@BAF@remapShader?$AA@ 300311e4     cg_servercmds.obj
 0003:000061f0       ??_C@_0M@PKCG@map_restart?$AA@ 300311f0     cg_servercmds.obj
 0003:000061fc       ??_C@_05DLPD@tinfo?$AA@    300311fc     cg_servercmds.obj
 0003:00006204       ??_C@_06CLLB@scores?$AA@   30031204     cg_servercmds.obj
 0003:0000620c       ??_C@_06CPFL@vtchat?$AA@   3003120c     cg_servercmds.obj
 0003:00006214       ??_C@_05JENO@vchat?$AA@    30031214     cg_servercmds.obj
 0003:0000621c       ??_C@_05NEJE@tchat?$AA@    3003121c     cg_servercmds.obj
 0003:00006224       ??_C@_03HHKO@?$CFs?6?$AA@  30031224     cg_servercmds.obj
 0003:00006228       ??_C@_04FLKK@chat?$AA@     30031228     cg_servercmds.obj
 0003:00006230       ??_C@_05KCGF@print?$AA@    30031230     cg_servercmds.obj
 0003:00006238       ??_C@_02OFOB@cs?$AA@       30031238     cg_servercmds.obj
 0003:0000623c       ??_C@_02BKFI@cp?$AA@       3003123c     cg_servercmds.obj
 0003:00006240       ??_C@_06GEGH@FIGHT?$CB?$AA@ 30031240     cg_servercmds.obj
 0003:00006248       ??_C@_0P@IGKC@CG_MapRestart?6?$AA@ 30031248     cg_servercmds.obj
 0003:00006258       ??_C@_0DI@CBJH@CG_ProcessSnapshots?3?5cg?4nextSnap@ 30031258     cg_snapshot.obj
 0003:00006290       ??_C@_0CF@EMJA@CG_ProcessSnapshots?3?5cg?4snap?5?$DN?$DN?5@ 30031290     cg_snapshot.obj
 0003:000062b8       ??_C@_0DA@DBCO@CG_ProcessSnapshots?3?5Server?5time@ 300312b8     cg_snapshot.obj
 0003:000062e8       ??_C@_0DK@JDCM@WARNING?3?5CG_ProcessSnapshots?3?5Se@ 300312e8     cg_snapshot.obj
 0003:00006324       ??_C@_0CO@GEJI@CG_ProcessSnapshots?3?5n?5?$DM?5cg?4late@ 30031324     cg_snapshot.obj
 0003:00006354       ??_C@_0DI@DGIJ@WARNING?3?5CG_ProcessSnapshots?3?5n?5@ 30031354     cg_snapshot.obj
 0003:0000638c       ??_C@_0CI@MEOD@CG_TransitionSnapshot?3?5NULL?5cg?4n@ 3003138c     cg_snapshot.obj
 0003:000063b4       ??_C@_0CE@LMCK@CG_TransitionSnapshot?3?5NULL?5cg?4s@ 300313b4     cg_snapshot.obj
 0003:000063d8       ??_C@_0DI@GFHN@WARNING?3?5CG_ReadNextSnapshot?3?5wa@ 300313d8     cg_snapshot.obj
 0003:00006414       ??_C@_0EH@BGML@?$FO5frac?3?5?$CF0?44f?0?5origin1?3?5?$CF0?42f?5?$CF0@ 30031414     cg_unlagged.obj
 0003:0000645c       ??_C@_0DK@KCPI@?$FO3Ext?3?5time?3?5?$CFd?0?5j?3?5?$CFd?0?5k?3?5?$CFd?0?5o@ 3003145c     cg_unlagged.obj
 0003:00006498       ??_C@_0DK@KACA@?$FO3Int?3?5time?3?5?$CFd?0?5j?3?5?$CFd?0?5k?3?5?$CFd?0?5o@ 30031498     cg_unlagged.obj
 0003:000064d4       ??_C@_0M@BOCF@bbox_nocull?$AA@ 300314d4     cg_unlagged.obj
 0003:000064e0       ??_C@_04HGCP@bbox?$AA@     300314e0     cg_unlagged.obj
 0003:000064e8       ??_C@_0BO@CCFH@Allowed?5values?5are?5?$CFd?5to?5?$CFd?4?6?$AA@ 300314e8     cg_unlagged.obj
 0003:00006520       ??_C@_0BG@MBEM@Can?8t?5register?5model?6?$AA@ 30031520     cg_view.obj
 0003:00006538       ??_C@_09KDBC@frame?5?$CFi?6?$AA@ 30031538     cg_view.obj
 0003:00006544       ??_C@_08CDMB@skin?5?$CFi?6?$AA@ 30031544     cg_view.obj
 0003:00006550       ??_C@_0BD@BFGA@cg?4clientFrame?3?$CFi?6?$AA@ 30031550     cg_view.obj
 0003:00006564       ??_C@_02JBAA@?$CFf?$AA@    30031564     cg_view.obj
 0003:00006568       ??_C@_02HPJE@30?$AA@       30031568     cg_view.obj
 0003:0000656c       ??_C@_0BI@ONPH@models?1weaphits?1bfg?4md3?$AA@ 3003156c     cg_weapons.obj
 0003:00006584       ??_C@_0N@EBOG@bfgExplosion?$AA@ 30031584     cg_weapons.obj
 0003:00006594       ??_C@_0BP@NFJJ@sound?1weapons?1bfg?1bfg_fire?4wav?$AA@ 30031594     cg_weapons.obj
 0003:000065b4       ??_C@_0BO@HMHF@sound?1weapons?1bfg?1bfg_hum?4wav?$AA@ 300315b4     cg_weapons.obj
 0003:000065d4       ??_C@_08DAFP@railCore?$AA@ 300315d4     cg_weapons.obj
 0003:000065e0       ??_C@_0O@BKJO@railExplosion?$AA@ 300315e0     cg_weapons.obj
 0003:000065f0       ??_C@_0CB@HGGM@sound?1weapons?1railgun?1rg_hum?4wav@ 300315f0     cg_weapons.obj
 0003:00006614       ??_C@_08MPEO@railDisc?$AA@ 30031614     cg_weapons.obj
 0003:00006620       ??_C@_0BA@NFMO@plasmaExplosion?$AA@ 30031620     cg_weapons.obj
 0003:00006630       ??_C@_0CC@JIFL@sound?1weapons?1plasma?1hyprbf1a?4wa@ 30031630     cg_weapons.obj
 0003:00006654       ??_C@_0BB@OGAO@grenadeExplosion?$AA@ 30031654     cg_weapons.obj
 0003:00006668       ??_C@_0CD@LLBD@sound?1weapons?1grenade?1grenlf1a?4w@ 30031668     cg_weapons.obj
 0003:0000668c       ??_C@_0BJ@OLCP@models?1ammo?1grenade1?4md3?$AA@ 3003168c     cg_weapons.obj
 0003:000066a8       ??_C@_0CC@EFJP@sound?1weapons?1rocket?1rocklf1a?4wa@ 300316a8     cg_weapons.obj
 0003:000066cc       ??_C@_0CB@BJPM@sound?1weapons?1rocket?1rockfly?4wav@ 300316cc     cg_weapons.obj
 0003:000066f0       ??_C@_0CD@ILHF@sound?1weapons?1shotgun?1sshotf1b?4w@ 300316f0     cg_weapons.obj
 0003:00006714       ??_C@_0BA@OKAK@bulletExplosion?$AA@ 30031714     cg_weapons.obj
 0003:00006724       ??_C@_0CG@NLKL@sound?1weapons?1machinegun?1machgf4@ 30031724     cg_weapons.obj
 0003:0000674c       ??_C@_0CG@DDML@sound?1weapons?1machinegun?1machgf3@ 3003174c     cg_weapons.obj
 0003:00006774       ??_C@_0CG@KGGL@sound?1weapons?1machinegun?1machgf2@ 30031774     cg_weapons.obj
 0003:0000679c       ??_C@_0CG@BIIL@sound?1weapons?1machinegun?1machgf1@ 3003179c     cg_weapons.obj
 0003:000067c4       ??_C@_0BP@PNMO@sound?1weapons?1melee?1fsthum?4wav?$AA@ 300317c4     cg_weapons.obj
 0003:000067e4       ??_C@_0BO@CMJ@models?1ammo?1rocket?1rocket?4md3?$AA@ 300317e4     cg_weapons.obj
 0003:00006804       ??_C@_0BA@LLML@rocketExplosion?$AA@ 30031804     cg_weapons.obj
 0003:00006814       ??_C@_0CI@ENAO@sound?1weapons?1flamethrower?1firei@ 30031814     cg_weapons.obj
 0003:0000683c       ??_C@_0CA@NOMN@sound?1weapons?1plasma?1lasfly?4wav?$AA@ 3003183c     cg_weapons.obj
 0003:0000685c       ??_C@_0CA@KDLC@sound?1weapons?1melee?1fstatck?4wav?$AA@ 3003185c     cg_weapons.obj
 0003:0000687c       ??_C@_0BP@NNHN@sound?1weapons?1melee?1fstrun?4wav?$AA@ 3003187c     cg_weapons.obj
 0003:0000689c       ??_C@_0CJ@HMHN@models?1weapons2?1shotgun?1shotgun_@ 3003189c     cg_weapons.obj
 0003:000068c8       ??_C@_09EPBB@_hand?4md3?$AA@ 300318c8     cg_weapons.obj
 0003:000068d4       ??_C@_0M@LLAK@_barrel?4md3?$AA@ 300318d4     cg_weapons.obj
 0003:000068e0       ??_C@_0L@LKFC@_flash?4md3?$AA@ 300318e0     cg_weapons.obj
 0003:000068ec       ??_C@_0BI@GDKJ@Couldn?8t?5find?5weapon?5?$CFi?$AA@ 300318ec     cg_weapons.obj
 0003:00006904       ??_C@_0DH@HBNE@CG_RegisterItemVisuals?3?5itemNum?5@ 30031904     cg_weapons.obj
 0003:0000693c       ??_C@_09ONMF@tag_flash?$AA@ 3003193c     cg_weapons.obj
 0003:00006948       ??_C@_0L@BGKG@tag_barrel?$AA@ 30031948     cg_weapons.obj
 0003:00006954       ??_C@_0L@FMME@tag_weapon?$AA@ 30031954     cg_weapons.obj
 0003:00006960       ??_C@_0CN@IAOL@CG_FireWeapon?3?5ent?9?$DOweapon?5?$DO?$DN?5WP@ 30031960     cg_weapons.obj
 0003:00006990       _axisDefault               30031990     q_math.obj
 0003:000069b4       _colorBlack                300319b4     q_math.obj
 0003:000069c4       _colorRed                  300319c4     q_math.obj
 0003:000069d4       _colorGreen                300319d4     q_math.obj
 0003:000069e4       _colorBlue                 300319e4     q_math.obj
 0003:000069f4       _colorYellow               300319f4     q_math.obj
 0003:00006a04       _colorMagenta              30031a04     q_math.obj
 0003:00006a14       _colorCyan                 30031a14     q_math.obj
 0003:00006a24       _colorWhite                30031a24     q_math.obj
 0003:00006a34       _colorLtGrey               30031a34     q_math.obj
 0003:00006a44       _colorMdGrey               30031a44     q_math.obj
 0003:00006a54       _colorDkGrey               30031a54     q_math.obj
 0003:00006a64       _g_color_table             30031a64     q_math.obj
 0003:00006ae4       _bytedirs                  30031ae4     q_math.obj
 0003:0000727c       ??_C@_0BJ@GDCK@Q_strncpyz?3?5destsize?5?$DM?51?$AA@ 3003227c     q_shared.obj
 0003:00007298       ??_C@_0BF@OBLI@Q_strncpyz?3?5NULL?5src?$AA@ 30032298     q_shared.obj
 0003:000072b0       ??_C@_0BG@BANA@Q_strncpyz?3?5NULL?5dest?$AA@ 300322b0     q_shared.obj
 0003:000072c8       ??_C@_0BN@PKJG@Q_strcat?3?5already?5overflowed?$AA@ 300322c8     q_shared.obj
 0003:000072e8       ??_C@_0CD@KCEE@Com_sprintf?3?5overflow?5of?5?$CFi?5in?5?$CF@ 300322e8     q_shared.obj
 0003:0000730c       ??_C@_0CC@NDC@Com_sprintf?3?5overflowed?5bigbuffe@ 3003230c     q_shared.obj
 0003:00007330       ??_C@_0CG@FAFH@Info_ValueForKey?3?5oversize?5infos@ 30032330     q_shared.obj
 0003:00007360       _commandList               30032360     ui_shared.obj
 0003:00007408       _scriptCommandCount        30032408     ui_shared.obj
 0003:00007a20       _itemParseKeywords         30032a20     ui_shared.obj
 0003:00007d18       _menuParseKeywords         30032d18     ui_shared.obj
 0003:00007e74       ??_C@_0L@LGOP@fadeAmount?$AA@ 30032e74     ui_shared.obj
 0003:00007e80       ??_C@_09NJPJ@fadeCycle?$AA@ 30032e80     ui_shared.obj
 0003:00007e8c       ??_C@_09CHPO@fadeClamp?$AA@ 30032e8c     ui_shared.obj
 0003:00007e98       ??_C@_05MAFJ@popup?$AA@    30032e98     ui_shared.obj
 0003:00007ea0       ??_C@_07ECDN@itemDef?$AA@  30032ea0     ui_shared.obj
 0003:00007ea8       ??_C@_09HCCM@soundLoop?$AA@ 30032ea8     ui_shared.obj
 0003:00007eb4       ??_C@_0BB@MOPP@outOfBoundsClick?$AA@ 30032eb4     ui_shared.obj
 0003:00007ec8       ??_C@_0N@FBO@disablecolor?$AA@ 30032ec8     ui_shared.obj
 0003:00007ed8       ??_C@_0L@DGCP@focuscolor?$AA@ 30032ed8     ui_shared.obj
 0003:00007ee4       ??_C@_0L@BFH@borderSize?$AA@ 30032ee4     ui_shared.obj
 0003:00007ef0       ??_C@_05FJPJ@onESC?$AA@    30032ef0     ui_shared.obj
 0003:00007ef8       ??_C@_07FOJA@onClose?$AA@  30032ef8     ui_shared.obj
 0003:00007f00       ??_C@_06FIME@onOpen?$AA@   30032f00     ui_shared.obj
 0003:00007f08       ??_C@_0L@EMDO@fullscreen?$AA@ 30032f08     ui_shared.obj
 0003:00007f14       ??_C@_04IBNA@font?$AA@     30032f14     ui_shared.obj
 0003:00007f1c       ??_C@_0M@DMAO@doubleclick?$AA@ 30032f1c     ui_shared.obj
 0003:00007f28       ??_C@_09OMPE@cinematic?$AA@ 30032f28     ui_shared.obj
 0003:00007f34       ??_C@_08JGBG@hideCvar?$AA@ 30032f34     ui_shared.obj
 0003:00007f40       ??_C@_08PCJD@showCvar?$AA@ 30032f40     ui_shared.obj
 0003:00007f4c       ??_C@_0M@CNDG@disableCvar?$AA@ 30032f4c     ui_shared.obj
 0003:00007f58       ??_C@_08DKMB@cvarTest?$AA@ 30032f58     ui_shared.obj
 0003:00007f64       ??_C@_0L@MJLB@enableCvar?$AA@ 30032f64     ui_shared.obj
 0003:00007f70       ??_C@_0O@NNMB@ownerdrawFlag?$AA@ 30032f70     ui_shared.obj
 0003:00007f80       ??_C@_0O@CDOD@addColorRange?$AA@ 30032f80     ui_shared.obj
 0003:00007f90       ??_C@_0O@ELIM@cvarFloatList?$AA@ 30032f90     ui_shared.obj
 0003:00007fa0       ??_C@_0M@IIKB@cvarStrList?$AA@ 30032fa0     ui_shared.obj
 0003:00007fac       ??_C@_09KJMH@cvarFloat?$AA@ 30032fac     ui_shared.obj
 0003:00007fb8       ??_C@_0L@JDLB@focusSound?$AA@ 30032fb8     ui_shared.obj
 0003:00007fc4       ??_C@_0O@FKFJ@maxPaintChars?$AA@ 30032fc4     ui_shared.obj
 0003:00007fd4       ??_C@_08GEDH@maxChars?$AA@ 30032fd4     ui_shared.obj
 0003:00007fe0       ??_C@_04PJHA@cvar?$AA@     30032fe0     ui_shared.obj
 0003:00007fe8       ??_C@_07LCAN@special?$AA@  30032fe8     ui_shared.obj
 0003:00007ff0       ??_C@_06GIFC@action?$AA@   30032ff0     ui_shared.obj
 0003:00007ff8       ??_C@_0O@NBIL@mouseExitText?$AA@ 30032ff8     ui_shared.obj
 0003:00008008       ??_C@_0P@KHGM@mouseEnterText?$AA@ 30033008     ui_shared.obj
 0003:00008018       ??_C@_09BADD@mouseExit?$AA@ 30033018     ui_shared.obj
 0003:00008024       ??_C@_0L@OCDD@mouseEnter?$AA@ 30033024     ui_shared.obj
 0003:00008030       ??_C@_0L@FHLI@leaveFocus?$AA@ 30033030     ui_shared.obj
 0003:0000803c       ??_C@_07OIME@onFocus?$AA@  3003303c     ui_shared.obj
 0003:00008044       ??_C@_0L@OBMO@background?$AA@ 30033044     ui_shared.obj
 0003:00008050       ??_C@_0N@DIIC@outlinecolor?$AA@ 30033050     ui_shared.obj
 0003:00008060       ??_C@_0M@JJHA@bordercolor?$AA@ 30033060     ui_shared.obj
 0003:0000806c       ??_C@_09EBJE@forecolor?$AA@ 3003306c     ui_shared.obj
 0003:00008078       ??_C@_09KOCJ@backcolor?$AA@ 30033078     ui_shared.obj
 0003:00008084       ??_C@_09DINF@textstyle?$AA@ 30033084     ui_shared.obj
 0003:00008090       ??_C@_09CGJF@textscale?$AA@ 30033090     ui_shared.obj
 0003:0000809c       ??_C@_0L@GCHO@textaligny?$AA@ 3003309c     ui_shared.obj
 0003:000080a8       ??_C@_0L@MIOJ@textalignx?$AA@ 300330a8     ui_shared.obj
 0003:000080b4       ??_C@_09BLL@textalign?$AA@ 300330b4     ui_shared.obj
 0003:000080c0       ??_C@_05KLFA@align?$AA@    300330c0     ui_shared.obj
 0003:000080c8       ??_C@_09NHP@ownerdraw?$AA@ 300330c8     ui_shared.obj
 0003:000080d4       ??_C@_07IHCG@visible?$AA@  300330d4     ui_shared.obj
 0003:000080dc       ??_C@_0L@KLBF@bordersize?$AA@ 300330dc     ui_shared.obj
 0003:000080e8       ??_C@_06MNIN@border?$AA@   300330e8     ui_shared.obj
 0003:000080f0       ??_C@_07FLIA@columns?$AA@  300330f0     ui_shared.obj
 0003:000080f8       ??_C@_0M@FEMJ@elementtype?$AA@ 300330f8     ui_shared.obj
 0003:00008104       ??_C@_06HFPC@feeder?$AA@   30033104     ui_shared.obj
 0003:0000810c       ??_C@_0O@CIAP@elementheight?$AA@ 3003310c     ui_shared.obj
 0003:0000811c       ??_C@_0N@ELB@elementwidth?$AA@ 3003311c     ui_shared.obj
 0003:0000812c       ??_C@_04PIKN@type?$AA@     3003312c     ui_shared.obj
 0003:00008134       ??_C@_0BB@JAFN@horizontalscroll?$AA@ 30033134     ui_shared.obj
 0003:00008148       ??_C@_0M@GJFH@autowrapped?$AA@ 30033148     ui_shared.obj
 0003:00008154       ??_C@_07HEIC@wrapped?$AA@  30033154     ui_shared.obj
 0003:0000815c       ??_C@_0O@IJLD@notselectable?$AA@ 3003315c     ui_shared.obj
 0003:0000816c       ??_C@_0L@PHND@decoration?$AA@ 3003316c     ui_shared.obj
 0003:00008178       ??_C@_05JCDO@style?$AA@    30033178     ui_shared.obj
 0003:00008180       ??_C@_04IMHF@rect?$AA@     30033180     ui_shared.obj
 0003:00008188       ??_C@_0M@PNFM@model_angle?$AA@ 30033188     ui_shared.obj
 0003:00008194       ??_C@_0P@HBDA@model_rotation?$AA@ 30033194     ui_shared.obj
 0003:000081a4       ??_C@_0L@MKGE@model_fovy?$AA@ 300331a4     ui_shared.obj
 0003:000081b0       ??_C@_0L@GAPD@model_fovx?$AA@ 300331b0     ui_shared.obj
 0003:000081bc       ??_C@_0N@CGDA@model_origin?$AA@ 300331bc     ui_shared.obj
 0003:000081cc       ??_C@_0N@LOPC@asset_shader?$AA@ 300331cc     ui_shared.obj
 0003:000081dc       ??_C@_0M@EHKI@asset_model?$AA@ 300331dc     ui_shared.obj
 0003:000081e8       ??_C@_05GCOD@group?$AA@    300331e8     ui_shared.obj
 0003:000081f0       ??_C@_04LHJL@text?$AA@     300331f0     ui_shared.obj
 0003:000081f8       ??_C@_04OPJK@name?$AA@     300331f8     ui_shared.obj
 0003:00008200       ??_C@_0M@HPFF@cl_freelook?$AA@ 30033200     ui_shared.obj
 0003:0000820c       ??_C@_08MAF@m_filter?$AA@  3003320c     ui_shared.obj
 0003:00008218       ??_C@_0O@LFMM@joy_threshold?$AA@ 30033218     ui_shared.obj
 0003:00008228       ??_C@_0M@JGHL@in_joystick?$AA@ 30033228     ui_shared.obj
 0003:00008234       ??_C@_0M@CKB@sensitivity?$AA@ 30033234     ui_shared.obj
 0003:00008240       ??_C@_07FHKJ@m_pitch?$AA@  30033240     ui_shared.obj
 0003:00008248       ??_C@_06HIKK@cl_run?$AA@   30033248     ui_shared.obj
 0003:00008250       ??_C@_0N@BFGA@messagemode4?$AA@ 30033250     ui_shared.obj
 0003:00008260       ??_C@_0N@EAIF@messagemode3?$AA@ 30033260     ui_shared.obj
 0003:00008270       ??_C@_0N@OKBC@messagemode2?$AA@ 30033270     ui_shared.obj
 0003:00008280       ??_C@_0M@KMFF@messagemode?$AA@ 30033280     ui_shared.obj
 0003:0000828c       ??_C@_0L@HNGG@scoresDown?$AA@ 3003328c     ui_shared.obj
 0003:00008298       ??_C@_08KKN@scoresUp?$AA@  30033298     ui_shared.obj
 0003:000082a4       ??_C@_0O@PANO@tauntGauntlet?$AA@ 300332a4     ui_shared.obj
 0003:000082b4       ??_C@_0BB@KEAB@tauntDeathInsult?$AA@ 300332b4     ui_shared.obj
 0003:000082c8       ??_C@_0L@OHDB@tauntTaunt?$AA@ 300332c8     ui_shared.obj
 0003:000082d4       ??_C@_0M@OCOL@tauntPraise?$AA@ 300332d4     ui_shared.obj
 0003:000082e0       ??_C@_0BA@CBNM@tauntKillInsult?$AA@ 300332e0     ui_shared.obj
 0003:000082f0       ??_C@_0M@MJPP@taskSuicide?$AA@ 300332f0     ui_shared.obj
 0003:000082fc       ??_C@_0M@LMNO@taskOwnFlag?$AA@ 300332fc     ui_shared.obj
 0003:00008308       ??_C@_0L@GOC@taskEscort?$AA@ 30033308     ui_shared.obj
 0003:00008314       ??_C@_0N@IBEF@taskRetrieve?$AA@ 30033314     ui_shared.obj
 0003:00008324       ??_C@_0L@HBLJ@taskFollow?$AA@ 30033324     ui_shared.obj
 0003:00008330       ??_C@_08FHNA@taskCamp?$AA@ 30033330     ui_shared.obj
 0003:0000833c       ??_C@_0L@LHOG@taskPatrol?$AA@ 3003333c     ui_shared.obj
 0003:00008348       ??_C@_0M@LIOO@taskDefense?$AA@ 30033348     ui_shared.obj
 0003:00008354       ??_C@_0M@BBN@taskOffense?$AA@ 30033354     ui_shared.obj
 0003:00008360       ??_C@_09NAAF@denyOrder?$AA@ 30033360     ui_shared.obj
 0003:0000836c       ??_C@_0N@KCI@confirmOrder?$AA@ 3003336c     ui_shared.obj
 0003:0000837c       ??_C@_09CGNC@nextOrder?$AA@ 3003337c     ui_shared.obj
 0003:00008388       ??_C@_0P@NPAA@nextTeamMember?$AA@ 30033388     ui_shared.obj
 0003:00008398       ??_C@_0P@HAG@prevTeamMember?$AA@ 30033398     ui_shared.obj
 0003:000083a8       ??_C@_08EHKG@?$CLbutton4?$AA@ 300333a8     ui_shared.obj
 0003:000083b4       ??_C@_08BCED@?$CLbutton3?$AA@ 300333b4     ui_shared.obj
 0003:000083c0       ??_C@_07KANK@?$CLattack?$AA@ 300333c0     ui_shared.obj
 0003:000083c8       ??_C@_09IBOJ@weapon?513?$AA@ 300333c8     ui_shared.obj
 0003:000083d4       ??_C@_09CLHO@weapon?512?$AA@ 300333d4     ui_shared.obj
 0003:000083e0       ??_C@_09NEMH@weapon?511?$AA@ 300333e0     ui_shared.obj
 0003:000083ec       ??_C@_09HOFA@weapon?510?$AA@ 300333ec     ui_shared.obj
 0003:000083f8       ??_C@_08JEPH@weapon?59?$AA@ 300333f8     ui_shared.obj
 0003:00008404       ??_C@_08DOGA@weapon?58?$AA@ 30033404     ui_shared.obj
 0003:00008410       ??_C@_08DPDN@weapon?57?$AA@ 30033410     ui_shared.obj
 0003:0000841c       ??_C@_08JFKK@weapon?56?$AA@ 3003341c     ui_shared.obj
 0003:00008428       ??_C@_08GKBD@weapon?55?$AA@ 30033428     ui_shared.obj
 0003:00008434       ??_C@_08MAIE@weapon?54?$AA@ 30033434     ui_shared.obj
 0003:00008440       ??_C@_08JFGB@weapon?53?$AA@ 30033440     ui_shared.obj
 0003:0000844c       ??_C@_08DPPG@weapon?52?$AA@ 3003344c     ui_shared.obj
 0003:00008458       ??_C@_08MAEP@weapon?51?$AA@ 30033458     ui_shared.obj
 0003:00008464       ??_C@_0L@EKJH@centerview?$AA@ 30033464     ui_shared.obj
 0003:00008470       ??_C@_06NEOC@?$CLmlook?$AA@ 30033470     ui_shared.obj
 0003:00008478       ??_C@_09GHKO@?$CLlookdown?$AA@ 30033478     ui_shared.obj
 0003:00008484       ??_C@_07BGBD@?$CLlookup?$AA@ 30033484     ui_shared.obj
 0003:0000848c       ??_C@_07OJLO@?$CLstrafe?$AA@ 3003348c     ui_shared.obj
 0003:00008494       ??_C@_06FOLA@?$CLright?$AA@ 30033494     ui_shared.obj
 0003:0000849c       ??_C@_05IFMH@?$CLleft?$AA@ 3003349c     ui_shared.obj
 0003:000084a4       ??_C@_09IMNG@?$CLmovedown?$AA@ 300334a4     ui_shared.obj
 0003:000084b0       ??_C@_07KFJC@?$CLmoveup?$AA@ 300334b0     ui_shared.obj
 0003:000084b8       ??_C@_0L@DMHD@?$CLmoveright?$AA@ 300334b8     ui_shared.obj
 0003:000084c4       ??_C@_09EGDL@?$CLmoveleft?$AA@ 300334c4     ui_shared.obj
 0003:000084d0       ??_C@_05NMMM@?$CLback?$AA@ 300334d0     ui_shared.obj
 0003:000084d8       ??_C@_08HLLP@?$CLforward?$AA@ 300334d8     ui_shared.obj
 0003:000084e4       ??_C@_06FAHP@?$CLspeed?$AA@ 300334e4     ui_shared.obj
 0003:000084ec       ??_C@_08LINE@?$CLbutton2?$AA@ 300334ec     ui_shared.obj
 0003:000084f8       ??_C@_05MGDL@orbit?$AA@    300334f8     ui_shared.obj
 0003:00008500       ??_C@_0L@FLKC@playlooped?$AA@ 30033500     ui_shared.obj
 0003:0000850c       ??_C@_04HNFE@play?$AA@     3003350c     ui_shared.obj
 0003:00008514       ??_C@_04DBD@exec?$AA@      30033514     ui_shared.obj
 0003:0000851c       ??_C@_07IEFL@setcvar?$AA@  3003351c     ui_shared.obj
 0003:00008524       ??_C@_0L@EKMP@transition?$AA@ 30033524     ui_shared.obj
 0003:00008530       ??_C@_0O@KFCI@setplayerhead?$AA@ 30033530     ui_shared.obj
 0003:00008540       ??_C@_0P@EBAD@setplayermodel?$AA@ 30033540     ui_shared.obj
 0003:00008550       ??_C@_08ENEG@setfocus?$AA@ 30033550     ui_shared.obj
 0003:0000855c       ??_C@_0N@NBGB@setteamcolor?$AA@ 3003355c     ui_shared.obj
 0003:0000856c       ??_C@_0N@FMFL@setitemcolor?$AA@ 3003356c     ui_shared.obj
 0003:0000857c       ??_C@_0O@JPBI@setbackground?$AA@ 3003357c     ui_shared.obj
 0003:0000858c       ??_C@_08NJGD@setasset?$AA@ 3003358c     ui_shared.obj
 0003:00008598       ??_C@_05JMGP@close?$AA@    30033598     ui_shared.obj
 0003:000085a0       ??_C@_0BA@BBOK@conditionalopen?$AA@ 300335a0     ui_shared.obj
 0003:000085b0       ??_C@_04KHOB@open?$AA@     300335b0     ui_shared.obj
 0003:000085b8       ??_C@_08BLBN@setcolor?$AA@ 300335b8     ui_shared.obj
 0003:000085c4       ??_C@_04DDN@hide?$AA@      300335c4     ui_shared.obj
 0003:000085cc       ??_C@_04DDJJ@show?$AA@     300335cc     ui_shared.obj
 0003:000085d4       ??_C@_07FOED@fadeout?$AA@  300335d4     ui_shared.obj
 0003:000085dc       ??_C@_06DKEJ@fadein?$AA@   300335dc     ui_shared.obj
 0003:000085e4       ??_C@_0CD@OLMO@UI_Alloc?3?5Failure?4?5Out?5of?5memory@ 300335e4     ui_shared.obj
 0003:00008608       ??_C@_0BK@DHCJ@?$FO1ERROR?3?5?$CFs?0?5line?5?$CFd?3?5?$CFs?6?$AA@ 30033608     ui_shared.obj
 0003:00008624       ??_C@_0BN@JLBP@expected?5float?5but?5found?5?$CFs?6?$AA@ 30033624     ui_shared.obj
 0003:00008644       ??_C@_0BP@CPFA@expected?5integer?5but?5found?5?$CFs?6?$AA@ 30033644     ui_shared.obj
 0003:00008664       ??_C@_01FCOA@?5?$AA@       30033664     ui_shared.obj
 0003:00008668       ??_C@_04JBBA@?$CC?$CFs?$CC?$AA@ 30033668     ui_shared.obj
 0003:00008670       ??_C@_05MBGP@?$CFs?5?$DL?5?$AA@ 30033670     ui_shared.obj
 0003:00008678       ??_C@_0BO@JKJO@end?5of?5file?5inside?5menu?5item?6?$AA@ 30033678     ui_shared.obj
 0003:00008698       ??_C@_0CE@BCLC@couldn?8t?5parse?5menu?5item?5keyword@ 30033698     ui_shared.obj
 0003:000086bc       ??_C@_0BN@LAOO@unknown?5menu?5item?5keyword?5?$CFs?$AA@ 300336bc     ui_shared.obj
 0003:000086dc       ??_C@_04HBMH@main?$AA@     300336dc     ui_shared.obj
 0003:000086e4       __fltused                  300336e4     LIBC:fpinit.obj
 0003:000086e8       __ldused                   300336e8     LIBC:fpinit.obj
 0003:000086ec       __FPinit                   300336ec     LIBC:fpinit.obj
 0003:000086f0       __FPmtinit                 300336f0     LIBC:fpinit.obj
 0003:000086f4       __FPmtterm                 300336f4     LIBC:fpinit.obj
 0003:00008720       __aexit_rtn                30033720     LIBC:dllcrt0.obj
 0003:00008724       __cfltcvt_tab              30033724     LIBC:cmiscdat.obj
 0003:0000873c       __pctype                   3003373c     LIBC:ctype.obj
 0003:00008740       __pwctype                  30033740     LIBC:ctype.obj
 0003:00008744       __ctype                    30033744     LIBC:ctype.obj
 0003:00008948       ___mb_cur_max              30033948     LIBC:nlsdata1.obj
 0003:0000894c       ___decimal_point           3003394c     LIBC:nlsdata1.obj
 0003:00008950       ___decimal_point_length    30033950     LIBC:nlsdata1.obj
 0003:00008960       ___nullstring              30033960     LIBC:output.obj
 0003:00008964       ___wnullstring             30033964     LIBC:output.obj
 0003:00008a40       __d_inf                    30033a40     LIBC:util.obj
 0003:00008a48       __d_ind                    30033a48     LIBC:util.obj
 0003:00008a50       __d_max                    30033a50     LIBC:util.obj
 0003:00008a58       __d_min                    30033a58     LIBC:util.obj
 0003:00008a60       __d_mzero                  30033a60     LIBC:util.obj
 0003:00008a90       __indefinite               30033a90     LIBC:87disp.obj
 0003:00008a9a       __piby2                    30033a9a     LIBC:87disp.obj
 0003:00008aac       __cpower                   30033aac     LIBC:87disp.obj
 0003:00008ac0       __amblksiz                 30033ac0     LIBC:heapinit.obj
 0003:00008ac8       ___badioinfo               30033ac8     LIBC:ioinit.obj
 0003:00008b90       __iob                      30033b90     LIBC:_file.obj
 0003:00008e10       __matherr_flag             30033e10     LIBC:matherr.obj
 0003:00008e14       __NLG_Destination          30033e14     LIBC:exsup.obj
 0003:00008e24       ___sbh_threshold           30033e24     LIBC:sbheap.obj
 0003:00008f20       __XcptActTab               30033f20     LIBC:winxfltr.obj
 0003:00008f98       __First_FPE_Indx           30033f98     LIBC:winxfltr.obj
 0003:00008f9c       __Num_FPE                  30033f9c     LIBC:winxfltr.obj
 0003:00008fa0       __XcptActTabCount          30033fa0     LIBC:winxfltr.obj
 0003:00008fa4       __fpecode                  30033fa4     LIBC:winxfltr.obj
 0003:00009110       __pow10pos                 30034110     LIBC:constpow.obj
 0003:00009270       __pow10neg                 30034270     LIBC:constpow.obj
 0003:000093d0       ??_C@_00A@?$AA@            300343d0     bg_misc.obj
 0003:000093d4       _c_pmove                   300343d4     bg_pmove.obj
 0003:0000b904       _initparticles             30036904     cg_marks.obj
 0003:0000c240       _nonansicast               30037240     q_math.obj
 0003:0000c244       _vec3_origin               30037244     q_math.obj
 0003:001864ac       _DC                        301b14ac     ui_shared.obj
 0003:001864c0       _menuCount                 301b14c0     ui_shared.obj
 0003:001864c4       _openMenuCount             301b14c4     ui_shared.obj
 0003:001864dc       ___fastflag                301b14dc     LIBC:fpinit.obj
 0003:001864e0       __adjust_fdiv              301b14e0     LIBC:fpinit.obj
 0003:001864e8       __aenvptr                  301b14e8     LIBC:dllcrt0.obj
 0003:001864ec       __wenvptr                  301b14ec     LIBC:dllcrt0.obj
 0003:001864f0       ___error_mode              301b14f0     LIBC:dllcrt0.obj
 0003:001864f4       ___app_type                301b14f4     LIBC:dllcrt0.obj
 0003:00186524       ___lc_handle               301b1524     LIBC:nlsdata2.obj
 0003:0018653c       ___lc_codepage             301b153c     LIBC:nlsdata2.obj
 0003:00186540       ___lc_collate_cp           301b1540     LIBC:nlsdata2.obj
 0003:00186544       _errno                     301b1544     LIBC:crt0dat.obj
 0003:00186548       __doserrno                 301b1548     LIBC:crt0dat.obj
 0003:0018654c       __umaskval                 301b154c     LIBC:crt0dat.obj
 0003:00186550       __osver                    301b1550     LIBC:crt0dat.obj
 0003:00186554       __winver                   301b1554     LIBC:crt0dat.obj
 0003:00186558       __winmajor                 301b1558     LIBC:crt0dat.obj
 0003:0018655c       __winminor                 301b155c     LIBC:crt0dat.obj
 0003:00186560       ___argc                    301b1560     LIBC:crt0dat.obj
 0003:00186564       ___argv                    301b1564     LIBC:crt0dat.obj
 0003:00186568       ___wargv                   301b1568     LIBC:crt0dat.obj
 0003:0018656c       __environ                  301b156c     LIBC:crt0dat.obj
 0003:00186570       ___initenv                 301b1570     LIBC:crt0dat.obj
 0003:00186574       __wenviron                 301b1574     LIBC:crt0dat.obj
 0003:00186578       ___winitenv                301b1578     LIBC:crt0dat.obj
 0003:0018657c       __pgmptr                   301b157c     LIBC:crt0dat.obj
 0003:00186580       __wpgmptr                  301b1580     LIBC:crt0dat.obj
 0003:00186584       __exitflag                 301b1584     LIBC:crt0dat.obj
 0003:00186588       __C_Termination_Done       301b1588     LIBC:crt0dat.obj
 0003:0018658c       __C_Exit_Done              301b158c     LIBC:crt0dat.obj
 0003:00186698       __adbgmsg                  301b1698     LIBC:crt0msg.obj
 0003:001866d4       __cflush                   301b16d4     LIBC:_file.obj
 0003:001866e8       __pxcptinfoptrs            301b16e8     LIBC:winxfltr.obj
 0003:001866ec       __newmode                  301b16ec     LIBC:_newmode.obj
 0003:001866f0       ?_pnhHeap@@3P6AHI@ZA       301b16f0     LIBC:handler.obj
 0003:00186700       _menuStack                 301b1700     <common>
 0003:00186740       _Menus                     301b1740     <common>
 0003:00190840       _itemParseKeywordHash      301bb840     <common>
 0003:00191040       _rforward                  301bc040     <common>
 0003:0019104c       _oldtime                   301bc04c     <common>
 0003:00191050       _pvright                   301bc050     <common>
 0003:00191060       _pvforward                 301bc060     <common>
 0003:00191070       _rup                       301bc070     <common>
 0003:00191080       _particles                 301bc080     <common>
 0003:001b0080       _rright                    301db080     <common>
 0003:001b008c       _cg_freeMarkPolys          301db08c     <common>
 0003:001b00a0       _cg_activeMarkPolys        301db0a0     <common>
 0003:001b01c0       _cg_markPolys              301db1c0     <common>
 0003:001c21c0       _free_particles            301ed1c0     <common>
 0003:001c21d0       _pvup                      301ed1d0     <common>
 0003:001c21dc       _active_particles          301ed1dc     <common>
 0003:001c21e0       _cg_bigFont                301ed1e0     <common>
 0003:001c2300       _cg_teamChatsOnly          301ed300     <common>
 0003:001c2420       _cg_cmdTimeNudge           301ed420     <common>
 0003:001c2540       _cg_deferPlayers           301ed540     <common>
 0003:001c2660       _cg_timescaleFadeSpeed     301ed660     <common>
 0003:001c2780       _cg_crosshairSize          301ed780     <common>
 0003:001c28a0       _cg_teamChatTime           301ed8a0     <common>
 0003:001c29c0       _cg_simpleItems            301ed9c0     <common>
 0003:001c2ae0       _cgs                       301edae0     <common>
 0003:001e8200       _cg_drawTeamOverlay        30213200     <common>
 0003:001e8320       _cg_predictItems           30213320     <common>
 0003:001e8440       _cg_showmiss               30213440     <common>
 0003:001e8560       _cg_tracerChance           30213560     <common>
 0003:001e8680       _cg_noTaunt                30213680     <common>
 0003:001e87a0       _cg_drawFPS                302137a0     <common>
 0003:001e88c0       _cg_viewsize               302138c0     <common>
 0003:001e89e0       _cg_oldRail                302139e0     <common>
 0003:001e8b00       _cg_drawCrosshair          30213b00     <common>
 0003:001e8c20       _cg_crosshairHealth        30213c20     <common>
 0003:001e8d40       _cg_gun_x                  30213d40     <common>
 0003:001e8e60       _cg_gun_y                  30213e60     <common>
 0003:001e8f80       _pmove_msec                30213f80     <common>
 0003:001e90a0       _cg_errorDecay             302140a0     <common>
 0003:001e91c0       _cg_smallFont              302141c0     <common>
 0003:001e92e0       _cg_crosshairX             302142e0     <common>
 0003:001e9400       _cg_timescale              30214400     <common>
 0003:001e9520       _cg_drawAttacker           30214520     <common>
 0003:001e9640       _cg_autoswitch             30214640     <common>
 0003:001e9760       _cg_tracerLength           30214760     <common>
 0003:001e9880       _cg_latentCmds             30214880     <common>
 0003:001e99a0       _cg_noProjectileTrail      302149a0     <common>
 0003:001e9ac0       _cg_gun_z                  30214ac0     <common>
 0003:001e9be0       _cg_stats                  30214be0     <common>
 0003:001e9d00       _cg_zoomFov                30214d00     <common>
 0003:001e9e20       _cg_forceModel             30214e20     <common>
 0003:001e9f40       _cg_scorePlum              30214f40     <common>
 0003:001ea060       _cg_animSpeed              30215060     <common>
 0003:001ea180       _cg_synchronousClients     30215180     <common>
 0003:001ea2a0       _cg_debugEvents            302152a0     <common>
 0003:001ea3c0       _cg_thirdPerson            302153c0     <common>
 0003:001ea4e0       _cg_delag                  302154e0     <common>
 0003:001ea600       _cg_swingSpeed             30215600     <common>
 0003:001ea720       _cg_addMarks               30215720     <common>
 0003:001ea840       _cg_blood                  30215840     <common>
 0003:001ea960       _cg_cameraMode             30215960     <common>
 0003:001eaa80       _cg_teamChatHeight         30215a80     <common>
 0003:001eaba0       _cg_timescaleFadeEnd       30215ba0     <common>
 0003:001eacc0       _cg_bobup                  30215cc0     <common>
 0003:001eade0       _cg_drawAmmoWarning        30215de0     <common>
 0003:001eaf00       _cg_drawBBox               30215f00     <common>
 0003:001eb020       _cg_noVoiceChats           30216020     <common>
 0003:001eb140       _cg_paused                 30216140     <common>
 0003:001eb260       _cg_oldRocket              30216260     <common>
 0003:001eb380       _pmove_fixed               30216380     <common>
 0003:001eb4a0       _cg_noVoiceText            302164a0     <common>
 0003:001eb5c0       _cg_draw3dIcons            302165c0     <common>
 0003:001eb6e0       _cg_thirdPersonAngle       302166e0     <common>
 0003:001eb800       _cg_drawFriend             30216800     <common>
 0003:001eb920       _cg_drawGun                30216920     <common>
 0003:001eba40       _cg_stereoSeparation       30216a40     <common>
 0003:001ebb60       _cg_debugAnim              30216b60     <common>
 0003:001ebc80       _cg_runpitch               30216c80     <common>
 0003:001ebda0       _cg_oldPlasma              30216da0     <common>
 0003:001ebec0       _cg                        30216ec0     <common>
 0003:00211fe0       _cg_teamOverlayUserinfo    3023cfe0     <common>
 0003:00212100       _cg_trueLightning          3023d100     <common>
 0003:00212220       _cg_projectileNudge        3023d220     <common>
 0003:00212340       _cg_drawCrosshairNames     3023d340     <common>
 0003:00212460       _cg_railTrailTime          3023d460     <common>
 0003:00212580       _cg_tracerWidth            3023d580     <common>
 0003:002126a0       _cg_items                  3023d6a0     <common>
 0003:00213ea0       _cg_cameraOrbitDelay       3023eea0     <common>
 0003:00213fc0       _cg_drawTimer              3023efc0     <common>
 0003:002140e0       _cg_plOut                  3023f0e0     <common>
 0003:00214200       _cg_noPlayerAnims          3023f200     <common>
 0003:00214320       _cg_weapons                3023f320     <common>
 0003:00214ba0       _cg_debugPosition          3023fba0     <common>
 0003:00214cc0       _cg_draw2D                 3023fcc0     <common>
 0003:00214de0       _cg_bobpitch               3023fde0     <common>
 0003:00214f00       _cg_fov                    3023ff00     <common>
 0003:00215020       _cg_buildScript            30240020     <common>
 0003:00215140       _cg_drawSnapshot           30240140     <common>
 0003:00215260       _cg_centertime             30240260     <common>
 0003:00215380       _cg_thirdPersonRange       30240380     <common>
 0003:002154a0       _cg_gibs                   302404a0     <common>
 0003:002155c0       _cg_crosshairY             302405c0     <common>
 0003:002156e0       _cg_drawIcons              302406e0     <common>
 0003:00215800       _cg_cameraOrbit            30240800     <common>
 0003:00215920       _cg_drawStatus             30240920     <common>
 0003:00215a40       _cg_hudFiles               30240a40     <common>
 0003:00215b60       _cg_gun_frame              30240b60     <common>
 0003:00215c80       _cg_ignore                 30240c80     <common>
 0003:00215da0       _cg_runroll                30240da0     <common>
 0003:00215ec0       _cg_drawRewards            30240ec0     <common>
 0003:00215fe0       _cg_debugDelag             30240fe0     <common>
 0003:00216100       _cg_bobroll                30241100     <common>
 0003:00216220       _cl_timeNudge              30241220     <common>
 0003:00216340       _cg_nopredict              30241340     <common>
 0003:00216460       _cg_shadows                30241460     <common>
 0003:00216580       _cg_footsteps              30241580     <common>
 0003:002166a0       _cg_optimizePrediction     302416a0     <common>
 0003:002167c0       _cg_entities               302417c0     <common>
 0003:002cd7c0       _sv_fps                    302f87c0     <common>
 0003:002cd8e0       _cg_latentSnaps            302f88e0     <common>
 0003:002cda00       _cg_brassTime              302f8a00     <common>
 0003:002cdb20       _cg_lagometer              302f8b20     <common>
 0003:002cdc40       _cg_activeLocalEntities    302f8c40     <common>
 0003:002cdd64       _cg_freeLocalEntities      302f8d64     <common>
 0003:002cdd80       _cg_localEntities          302f8d80     <common>
 0003:002f2580       _sortedTeamPlayers         3031d580     <common>
 0003:002f2600       _lagometer                 3031d600     <common>
 0003:002f2c08       _numSortedTeamPlayers      3031dc08     <common>
 0003:002f2c20       _pml                       3031dc20     <common>
 0003:002f2cb0       _pm                        3031dcb0     <common>
 0003:002f2cb4       ___mbcodepage              3031dcb4     <common>
 0003:002f2cc0       ___mbulinfo                3031dcc0     <common>
 0003:002f2ccc       ___ismbcodepage            3031dccc     <common>
 0003:002f2ce0       __mbcasemap                3031dce0     <common>
 0003:002f2de0       __mbctype                  3031dde0     <common>
 0003:002f2ee4       ___mblcid                  3031dee4     <common>
 0003:002f2ee8       ___sbh_sizeHeaderList      3031dee8     <common>
 0003:002f2eec       ___sbh_indGroupDefer       3031deec     <common>
 0003:002f2ef0       ___sbh_pHeaderScan         3031def0     <common>
 0003:002f2ef4       ___sbh_pHeaderDefer        3031def4     <common>
 0003:002f2ef8       ___sbh_cntHeaderList       3031def8     <common>
 0003:002f2efc       ___sbh_pHeaderList         3031defc     <common>
 0003:002f2f00       ___piob                    3031df00     <common>
 0003:002f2f20       __bufin                    3031df20     <common>
 0003:002f3f20       __nstream                  3031ef20     <common>
 0003:002f3f40       ___pioinfo                 3031ef40     <common>
 0003:002f4040       __nhandle                  3031f040     <common>
 0003:002f4044       __crtheap                  3031f044     <common>
 0003:002f4048       ___env_initialized         3031f048     <common>
 0003:002f404c       ___mbctype_initialized     3031f04c     <common>
 0003:002f4050       ___onexitend               3031f050     <common>
 0003:002f4054       ___onexitbegin             3031f054     <common>
 0003:002f4058       __acmdln                   3031f058     <common>
 0003:002f405c       __pRawDllMain              3031f05c     <common>

 entry point at        0001:0002330d

 Static symbols

 0001:0001fec0       _hashForString             30020ec0 f   ui_shared.obj
 0001:00020aa0       _Menu_RunCloseScript       30021aa0 f   ui_shared.obj
 0001:00021370       _Display_CloseCinematics   30022370 f   ui_shared.obj
 0001:000213a0       _Menu_CloseCinematics      300223a0 f   ui_shared.obj
 0001:00021410       _Window_CloseCinematic     30022410 f   ui_shared.obj
 0001:0001f8d0       _SkipWhitespace            300208d0 f   q_shared.obj
 0001:0001c110       _CG_MachineGunEjectBrass   3001d110 f   cg_weapons.obj
 0001:0001c3e0       _CG_ShotgunEjectBrass      3001d3e0 f   cg_weapons.obj
 0001:0001c700       _CG_RocketTrail            3001d700 f   cg_weapons.obj
 0001:0001c860       _CG_PlasmaTrail            3001d860 f   cg_weapons.obj
 0001:0001cbc0       _CG_GrenadeTrail           3001dbc0 f   cg_weapons.obj
 0001:0001d130       _CG_LightningBolt          3001e130 f   cg_weapons.obj
 0001:0001d510       _CG_SpawnRailTrail         3001e510 f   cg_weapons.obj
 0001:0001d570       _CG_MachinegunSpinAngle    3001e570 f   cg_weapons.obj
 0001:0001d630       _CG_AddWeaponWithPowerups  3001e630 f   cg_weapons.obj
 0001:0001d950       _CG_MapTorsoToWeaponFrame  3001e950 f   cg_weapons.obj
 0001:0001d9b0       _CG_CalculateWeaponPosition 3001e9b0 f   cg_weapons.obj
 0001:0001dd00       _CG_WeaponSelectable       3001ed00 f   cg_weapons.obj
 0001:0001e420       _CG_ShotgunPellet          3001f420 f   cg_weapons.obj
 0001:0001eb40       _CG_CalcMuzzlePoint        3001fb40 f   cg_weapons.obj
 0001:0001a5e0       _CG_AddTestModel           3001b5e0 f   cg_view.obj
 0001:0001a6f0       _CG_DamageBlendBlob        3001b6f0 f   cg_view.obj
 0001:0001a890       _CG_CalcViewValues         3001b890 f   cg_view.obj
 0001:0001aac0       _CG_CalcVrect              3001bac0 f   cg_view.obj
 0001:0001ab80       _CG_OffsetThirdPersonView  3001bb80 f   cg_view.obj
 0001:0001ae40       _CG_OffsetFirstPersonView  3001be40 f   cg_view.obj
 0001:0001b140       _CG_StepOffset             3001c140 f   cg_view.obj
 0001:0001b180       _CG_CalcFov                3001c180 f   cg_view.obj
 0001:0001b3a0       _CG_PowerupTimerSounds     3001c3a0 f   cg_view.obj
 0001:0001b430       _CG_PlayBufferedSounds     3001c430 f   cg_view.obj
 0001:00018320       _CG_ResetEntity            30019320 f   cg_snapshot.obj
 0001:000185c0       _CG_TransitionSnapshot     300195c0 f   cg_snapshot.obj
 0001:00018750       _CG_SetNextSnap            30019750 f   cg_snapshot.obj
 0001:00018880       _CG_ReadNextSnapshot       30019880 f   cg_snapshot.obj
 0001:00017670       _CG_ServerCommand          30018670 f   cg_servercmds.obj
 0001:00017b60       _CG_ParseScores            30018b60 f   cg_servercmds.obj
 0001:00017d30       _CG_ParseTeamInfo          30018d30 f   cg_servercmds.obj
 0001:00017e10       _CG_ConfigStringModified   30018e10 f   cg_servercmds.obj
 0001:00018060       _CG_ParseWarmup            30019060 f   cg_servercmds.obj
 0001:000180c0       _CG_AddToTeamChat          300190c0 f   cg_servercmds.obj
 0001:00018200       _CG_MapRestart             30019200 f   cg_servercmds.obj
 0001:000182a0       _CG_RemoveChatEscapeChar   300192a0 f   cg_servercmds.obj
 0001:00016bb0       _CG_DrawClientScore        30017bb0 f   cg_scoreboard.obj
 0001:00016fe0       _CG_TeamScoreboard         30017fe0 f   cg_scoreboard.obj
 0001:000172e0       _CG_CenterGiantLine        300182e0 f   cg_scoreboard.obj
 0001:000154f0       _CG_ClipMoveToEntities     300164f0 f   cg_predict.obj
 0001:00015f50       _CG_InterpolatePlayerState 30016f50 f   cg_predict.obj
 0001:000160a0       _CG_TouchTriggerPrediction 300170a0 f   cg_predict.obj
 0001:000161b0       _CG_TouchItem              300171b0 f   cg_predict.obj
 0001:000162a0       _IsUnacceptableError       300172a0 f   cg_predict.obj
 0001:00015270       _pushReward                30016270 f   cg_playerstate.obj
 0001:00011cc0       _CG_ColorFromString        30012cc0 f   cg_players.obj
 0001:00011d10       _CG_LoadClientInfo         30012d10 f   cg_players.obj
 0001:00011f40       _CG_RegisterClientModelname 30012f40 f   cg_players.obj
 0001:000122e0       _CG_ParseAnimationFile     300132e0 f   cg_players.obj
 0001:00012820       _CG_FindClientHeadFile     30013820 f   cg_players.obj
 0001:000129f0       _CG_FileExists             300139f0 f   cg_players.obj
 0001:00012a10       _CG_RegisterClientSkin     30013a10 f   cg_players.obj
 0001:00012b60       _CG_FindClientModelFile    30013b60 f   cg_players.obj
 0001:00012d10       _CG_ScanForExistingClientInfo 30013d10 f   cg_players.obj
 0001:00012e30       _CG_CopyClientInfoModel    30013e30 f   cg_players.obj
 0001:00012f00       _CG_SetDeferredClientInfo  30013f00 f   cg_players.obj
 0001:000134b0       _CG_PlayerAnimation        300144b0 f   cg_players.obj
 0001:000135d0       _CG_RunLerpFrame           300145d0 f   cg_players.obj
 0001:00013750       _CG_SetLerpFrameAnimation  30014750 f   cg_players.obj
 0001:000137c0       _CG_PlayerAngles           300147c0 f   cg_players.obj
 0001:00013af0       _CG_SwingAngles            30014af0 f   cg_players.obj
 0001:00013c50       _CG_AddPainTwitch          30014c50 f   cg_players.obj
 0001:00013ca0       _CG_PlayerPowerups         30014ca0 f   cg_players.obj
 0001:00013e90       _CG_HasteTrail             30014e90 f   cg_players.obj
 0001:00013f50       _CG_TrailItem              30014f50 f   cg_players.obj
 0001:00014020       _CG_PlayerFlag             30015020 f   cg_players.obj
 0001:00014350       _CG_PlayerSprites          30015350 f   cg_players.obj
 0001:00014460       _CG_PlayerFloatSprite      30015460 f   cg_players.obj
 0001:00014510       _CG_PlayerShadow           30015510 f   cg_players.obj
 0001:00014660       _CG_PlayerSplash           30015660 f   cg_players.obj
 0001:000149e0       _CG_ClearLerpFrame         300159e0 f   cg_players.obj
 0001:0000dc90       _CG_ForceModelChange       3000ec90 f   cg_main.obj
 0001:0000e130       _CG_RegisterSounds         3000f130 f   cg_main.obj
 0001:0000e830       _CG_RegisterItemSounds     3000f830 f   cg_main.obj
 0001:0000e930       _CG_RegisterGraphics       3000f930 f   cg_main.obj
 0001:0000f010       _CG_RegisterClients        30010010 f   cg_main.obj
 0001:0000d5d0       _CG_AddMoveScaleFade       3000e5d0 f   cg_localents.obj
 0001:0000d6c0       _CG_AddScaleFade           3000e6c0 f   cg_localents.obj
 0001:0000d760       _CG_AddFallScaleFade       3000e760 f   cg_localents.obj
 0001:0000d810       _CG_AddExplosion           3000e810 f   cg_localents.obj
 0001:0000d8b0       _CG_AddSpriteExplosion     3000e8b0 f   cg_localents.obj
 0001:0000cb00       _CG_DrawLoadingIcons       3000db00 f   cg_info.obj
 0001:0000be90       _CG_Obituary               3000ce90 f   cg_event.obj
 0001:0000c3d0       _CG_UseItem                3000d3d0 f   cg_event.obj
 0001:0000c4a0       _CG_ItemPickup             3000d4a0 f   cg_event.obj
 0001:00009770       _CG_CalcEntityLerpPositions 3000a770 f   cg_ents.obj
 0001:00009930       _CG_InterpolateEntityPosition 3000a930 f   cg_ents.obj
 0001:00009a60       _CG_AddCEntity             3000aa60 f   cg_ents.obj
 0001:00009b40       _CG_EntityEffects          3000ab40 f   cg_ents.obj
 0001:00009c00       _CG_General                3000ac00 f   cg_ents.obj
 0001:00009cc0       _CG_Speaker                3000acc0 f   cg_ents.obj
 0001:00009d70       _CG_Item                   3000ad70 f   cg_ents.obj
 0001:0000a270       _CG_Missile                3000b270 f   cg_ents.obj
 0001:0000a4b0       _CG_Grapple                3000b4b0 f   cg_ents.obj
 0001:0000a5a0       _CG_Mover                  3000b5a0 f   cg_ents.obj
 0001:0000a690       _CG_Portal                 3000b690 f   cg_ents.obj
 0001:0000a7c0       _CG_TeamBase               3000b7c0 f   cg_ents.obj
 0001:00007940       _CG_TileClearBox           30008940 f   cg_drawtools.obj
 0001:00007d70       _UI_DrawProportionalString2 30008d70 f   cg_drawtools.obj
 0001:00004900       _CG_Draw2D                 30005900 f   cg_draw.obj
 0001:000049d0       _CG_DrawStatusBar          300059d0 f   cg_draw.obj
 0001:00004d20       _CG_DrawField              30005d20 f   cg_draw.obj
 0001:00004e80       _CG_DrawStatusBarHead      30005e80 f   cg_draw.obj
 0001:00005170       _CG_DrawStatusBarFlag      30006170 f   cg_draw.obj
 0001:000051a0       _CG_DrawUpperRight         300061a0 f   cg_draw.obj
 0001:00005240       _CG_DrawAttacker           30006240 f   cg_draw.obj
 0001:00005340       _CG_DrawSnapshot           30006340 f   cg_draw.obj
 0001:000053b0       _CG_DrawFPS                300063b0 f   cg_draw.obj
 0001:00005470       _CG_DrawTimer              30006470 f   cg_draw.obj
 0001:00005520       _CG_DrawTeamOverlay        30006520 f   cg_draw.obj
 0001:00005990       _CG_DrawLowerRight         30006990 f   cg_draw.obj
 0001:000059e0       _CG_DrawScores             300069e0 f   cg_draw.obj
 0001:00005f80       _CG_DrawPowerups           30006f80 f   cg_draw.obj
 0001:000061a0       _CG_DrawLowerLeft          300071a0 f   cg_draw.obj
 0001:000061e0       _CG_DrawPickupItem         300071e0 f   cg_draw.obj
 0001:00006290       _CG_DrawTeamInfo           30007290 f   cg_draw.obj
 0001:00006450       _CG_DrawHoldableItem       30007450 f   cg_draw.obj
 0001:00006490       _CG_DrawReward             30007490 f   cg_draw.obj
 0001:00006630       _CG_DrawLagometer          30007630 f   cg_draw.obj
 0001:000069a0       _CG_DrawDisconnect         300079a0 f   cg_draw.obj
 0001:00006a40       _CG_DrawCenterString       30007a40 f   cg_draw.obj
 0001:00006b70       _CG_DrawCrosshair          30007b70 f   cg_draw.obj
 0001:00006ce0       _CG_DrawCrosshairNames     30007ce0 f   cg_draw.obj
 0001:00006da0       _CG_ScanForCrosshairEntity 30007da0 f   cg_draw.obj
 0001:00006e80       _CG_DrawSpectator          30007e80 f   cg_draw.obj
 0001:00006ef0       _CG_DrawVote               30007ef0 f   cg_draw.obj
 0001:00006f80       _CG_DrawTeamVote           30007f80 f   cg_draw.obj
 0001:00007040       _CG_DrawScoreboard         30008040 f   cg_draw.obj
 0001:00007050       _CG_DrawIntermission       30008050 f   cg_draw.obj
 0001:00007080       _CG_DrawFollow             30008080 f   cg_draw.obj
 0001:00007140       _CG_DrawAmmoWarning        30008140 f   cg_draw.obj
 0001:00007190       _CG_DrawWarmup             30008190 f   cg_draw.obj
 0001:00007410       _CG_DrawTourneyScoreboard  30008410 f   cg_draw.obj
 0001:00003d70       _CG_SizeUp_f               30004d70 f   cg_consolecmds.obj
 0001:00003da0       _CG_SizeDown_f             30004da0 f   cg_consolecmds.obj
 0001:00003dd0       _CG_Viewpos_f              30004dd0 f   cg_consolecmds.obj
 0001:00003e10       _CG_ScoresDown_f           30004e10 f   cg_consolecmds.obj
 0001:00003e60       _CG_ScoresUp_f             30004e60 f   cg_consolecmds.obj
 0001:00003e80       _CG_TellTarget_f           30004e80 f   cg_consolecmds.obj
 0001:00003ee0       _CG_TellAttacker_f         30004ee0 f   cg_consolecmds.obj
 0001:00003f40       _CG_VoiceTellTarget_f      30004f40 f   cg_consolecmds.obj
 0001:00003fa0       _CG_VoiceTellAttacker_f    30004fa0 f   cg_consolecmds.obj
 0001:00004000       _CG_StartOrbit_f           30005000 f   cg_consolecmds.obj
 0001:00000d50       _PM_WaterJumpMove          30001d50 f   bg_pmove.obj
 0001:00000da0       _PM_WaterMove              30001da0 f   bg_pmove.obj
 0001:00000f80       _PM_Friction               30001f80 f   bg_pmove.obj
 0001:000010d0       _PM_Accelerate             300020d0 f   bg_pmove.obj
 0001:00001150       _PM_CmdScale               30002150 f   bg_pmove.obj
 0001:000011e0       _PM_CheckWaterJump         300021e0 f   bg_pmove.obj
 0001:00001340       _PM_FlyMove                30002340 f   bg_pmove.obj
 0001:00001420       _PM_AirMove                30002420 f   bg_pmove.obj
 0001:00001540       _PM_SetMovementDir         30002540 f   bg_pmove.obj
 0001:00001610       _PM_GrappleMove            30002610 f   bg_pmove.obj
 0001:00001750       _PM_WalkMove               30002750 f   bg_pmove.obj
 0001:00001a70       _PM_CheckJump              30002a70 f   bg_pmove.obj
 0001:00001b30       _PM_ForceLegsAnim          30002b30 f   bg_pmove.obj
 0001:00001b50       _PM_StartLegsAnim          30002b50 f   bg_pmove.obj
 0001:00001b80       _PM_DeadMove               30002b80 f   bg_pmove.obj
 0001:00001c40       _PM_NoclipMove             30002c40 f   bg_pmove.obj
 0001:00001e20       _PM_GroundTrace            30002e20 f   bg_pmove.obj
 0001:00002090       _PM_CrashLand              30003090 f   bg_pmove.obj
 0001:00002240       _PM_FootstepForSurface     30003240 f   bg_pmove.obj
 0001:00002260       _PM_CorrectAllSolid        30003260 f   bg_pmove.obj
 0001:00002420       _PM_GroundTraceMissed      30003420 f   bg_pmove.obj
 0001:00002530       _PM_SetWaterLevel          30003530 f   bg_pmove.obj
 0001:00002660       _PM_CheckDuck              30003660 f   bg_pmove.obj
 0001:00002870       _PM_Footsteps              30003870 f   bg_pmove.obj
 0001:00002a40       _PM_ContinueLegsAnim       30003a40 f   bg_pmove.obj
 0001:00002a70       _PM_WaterEvents            30003a70 f   bg_pmove.obj
 0001:00002b00       _PM_TorsoAnimation         30003b00 f   bg_pmove.obj
 0001:00002b30       _PM_ContinueTorsoAnim      30003b30 f   bg_pmove.obj
 0001:00002b60       _PM_StartTorsoAnim         30003b60 f   bg_pmove.obj
 0001:00002b90       _PM_Weapon                 30003b90 f   bg_pmove.obj
 0001:00002f10       _PM_BeginWeaponChange      30003f10 f   bg_pmove.obj
 0001:00002f80       _PM_FinishWeaponChange     30003f80 f   bg_pmove.obj
 0001:00002fe0       _PM_Animate                30003fe0 f   bg_pmove.obj
 0001:00003020       _PM_DropTimers             30004020 f   bg_pmove.obj
 0001:000030b0       _PM_LadderMove             300040b0 f   bg_pmove.obj
 0001:000288a5       _flsall                    300298a5 f   LIBC:fflush.obj
 0001:00027e90       LeadUp1                    30028e90 f   LIBC:memcpy.obj
 0001:00027ebc       LeadUp2                    30028ebc f   LIBC:memcpy.obj
 0001:00027ee0       LeadUp3                    30028ee0 f   LIBC:memcpy.obj
 0001:00027f5f       UnwindUp0                  30028f5f f   LIBC:memcpy.obj
 0001:00027f4c       UnwindUp1                  30028f4c f   LIBC:memcpy.obj
 0001:00027f44       UnwindUp2                  30028f44 f   LIBC:memcpy.obj
 0001:00027f3c       UnwindUp3                  30028f3c f   LIBC:memcpy.obj
 0001:00027f34       UnwindUp4                  30028f34 f   LIBC:memcpy.obj
 0001:00027f2c       UnwindUp5                  30028f2c f   LIBC:memcpy.obj
 0001:00027f24       UnwindUp6                  30028f24 f   LIBC:memcpy.obj
 0001:00027f1c       UnwindUp7                  30028f1c f   LIBC:memcpy.obj
 0001:00027f78       TrailUp0                   30028f78 f   LIBC:memcpy.obj
 0001:00027f80       TrailUp1                   30028f80 f   LIBC:memcpy.obj
 0001:00027f8c       TrailUp2                   30028f8c f   LIBC:memcpy.obj
 0001:00027fa0       TrailUp3                   30028fa0 f   LIBC:memcpy.obj
 0001:00028018       LeadDown1                  30029018 f   LIBC:memcpy.obj
 0001:00028038       LeadDown2                  30029038 f   LIBC:memcpy.obj
 0001:00028060       LeadDown3                  30029060 f   LIBC:memcpy.obj
 0001:000280b4       UnwindDown7                300290b4 f   LIBC:memcpy.obj
 0001:000280bc       UnwindDown6                300290bc f   LIBC:memcpy.obj
 0001:000280c4       UnwindDown5                300290c4 f   LIBC:memcpy.obj
 0001:000280cc       UnwindDown4                300290cc f   LIBC:memcpy.obj
 0001:000280d4       UnwindDown3                300290d4 f   LIBC:memcpy.obj
 0001:000280dc       UnwindDown2                300290dc f   LIBC:memcpy.obj
 0001:000280e4       UnwindDown1                300290e4 f   LIBC:memcpy.obj
 0001:000280f7       UnwindDown0                300290f7 f   LIBC:memcpy.obj
 0001:00028110       TrailDown0                 30029110 f   LIBC:memcpy.obj
 0001:00028118       TrailDown1                 30029118 f   LIBC:memcpy.obj
 0001:00028128       TrailDown2                 30029128 f   LIBC:memcpy.obj
 0001:0002813c       TrailDown3                 3002913c f   LIBC:memcpy.obj
 0001:00027bd1       _getSystemCP               30028bd1 f   LIBC:mbctype.obj
 0001:00027c1b       _CPtoLCID                  30028c1b f   LIBC:mbctype.obj
 0001:00027c4e       _setSBCS                   30028c4e f   LIBC:mbctype.obj
 0001:00027c77       _setSBUpLow                30028c77 f   LIBC:mbctype.obj
 0001:00026f94       _gu_return                 30027f94 f   LIBC:exsup.obj
 0001:00026f9c       __unwind_handler           30027f9c f   LIBC:exsup.obj
 0001:00025bd9       __abstract_cw              30026bd9 f   LIBC:ieee87.obj
 0001:00025c6b       __hw_cw                    30026c6b f   LIBC:ieee87.obj
 0001:000256fc       _parse_cmdline             300266fc f   LIBC:stdargv.obj
 0001:00025278       _doexit                    30026278 f   LIBC:crt0dat.obj
 0001:00025311       __initterm                 30026311 f   LIBC:crt0dat.obj
 0001:00025200       _strncnt                   30026200 f   LIBC:a_map.obj
 0001:000248c6       __get_fname                300258c6 f   LIBC:fpexcept.obj
 0001:0002419a       _write_char                3002519a f   LIBC:output.obj
 0001:000241cf       _write_multi_char          300251cf f   LIBC:output.obj
 0001:00024200       _write_string              30025200 f   LIBC:output.obj
 0001:00024238       _get_int_arg               30025238 f   LIBC:output.obj
 0001:00024245       _get_int64_arg             30025245 f   LIBC:output.obj
 0001:00024255       _get_short_arg             30025255 f   LIBC:output.obj
 0001:000237d1       __cftoe_g                  300247d1 f   LIBC:cvt.obj
 0001:000237f8       __cftof_g                  300247f8 f   LIBC:cvt.obj
 0001:0002386c       __shift                    3002486c f   LIBC:cvt.obj
 0001:00022f90       LeadUp1                    30023f90 f   LIBC:memmove.obj
 0001:00022fbc       LeadUp2                    30023fbc f   LIBC:memmove.obj
 0001:00022fe0       LeadUp3                    30023fe0 f   LIBC:memmove.obj
 0001:0002305f       UnwindUp0                  3002405f f   LIBC:memmove.obj
 0001:0002304c       UnwindUp1                  3002404c f   LIBC:memmove.obj
 0001:00023044       UnwindUp2                  30024044 f   LIBC:memmove.obj
 0001:0002303c       UnwindUp3                  3002403c f   LIBC:memmove.obj
 0001:00023034       UnwindUp4                  30024034 f   LIBC:memmove.obj
 0001:0002302c       UnwindUp5                  3002402c f   LIBC:memmove.obj
 0001:00023024       UnwindUp6                  30024024 f   LIBC:memmove.obj
 0001:0002301c       UnwindUp7                  3002401c f   LIBC:memmove.obj
 0001:00023078       TrailUp0                   30024078 f   LIBC:memmove.obj
 0001:00023080       TrailUp1                   30024080 f   LIBC:memmove.obj
 0001:0002308c       TrailUp2                   3002408c f   LIBC:memmove.obj
 0001:000230a0       TrailUp3                   300240a0 f   LIBC:memmove.obj
 0001:00023118       LeadDown1                  30024118 f   LIBC:memmove.obj
 0001:00023138       LeadDown2                  30024138 f   LIBC:memmove.obj
 0001:00023160       LeadDown3                  30024160 f   LIBC:memmove.obj
 0001:000231b4       UnwindDown7                300241b4 f   LIBC:memmove.obj
 0001:000231bc       UnwindDown6                300241bc f   LIBC:memmove.obj
 0001:000231c4       UnwindDown5                300241c4 f   LIBC:memmove.obj
 0001:000231cc       UnwindDown4                300241cc f   LIBC:memmove.obj
 0001:000231d4       UnwindDown3                300241d4 f   LIBC:memmove.obj
 0001:000231dc       UnwindDown2                300241dc f   LIBC:memmove.obj
 0001:000231e4       UnwindDown1                300241e4 f   LIBC:memmove.obj
 0001:000231f7       UnwindDown0                300241f7 f   LIBC:memmove.obj
 0001:00023210       TrailDown0                 30024210 f   LIBC:memmove.obj
 0001:00023218       TrailDown1                 30024218 f   LIBC:memmove.obj
 0001:00023228       TrailDown2                 30024228 f   LIBC:memmove.obj
 0001:0002323c       TrailDown3                 3002423c f   LIBC:memmove.obj

 1104 bytes saved through ICF

