 cgamex86

 Timestamp is 5817eb31 (Mon Oct 31 21:09:05 2016)

 Preferred load address is 30000000

 Start         Length     Name                   Class
 0001:00000000 000527e1H .textbss                DATA
 0002:00000000 000a98d1H .text                   CODE
 0002:000a98e0 0000112fH .text$x                 CODE
 0003:00000000 00000104H .CRT$XCA                DATA
 0003:00000104 00000104H .CRT$XCZ                DATA
 0003:00000208 00000104H .CRT$XIA                DATA
 0003:0000030c 00000118H .CRT$XIC                DATA
 0003:00000424 00000104H .CRT$XIZ                DATA
 0003:00000528 00000104H .CRT$XPA                DATA
 0003:0000062c 00000109H .CRT$XPX                DATA
 0003:00000738 00000104H .CRT$XPXA               DATA
 0003:0000083c 00000104H .CRT$XPZ                DATA
 0003:00000940 00000104H .CRT$XTA                DATA
 0003:00000a44 00000104H .CRT$XTZ                DATA
 0003:00000b50 0001bbc9H .rdata                  DATA
 0003:0001c71c 0000016eH .rdata$debug            DATA
 0003:0001c88c 0000032fH .rdata$r                DATA
 0003:0001cbbc 00000104H .rtc$IAA                DATA
 0003:0001ccc0 00000104H .rtc$IZZ                DATA
 0003:0001cdc4 00000104H .rtc$TAA                DATA
 0003:0001cec8 00000104H .rtc$TZZ                DATA
 0003:0001cfd0 00000dd2H .xdata$x                DATA
 0003:0001ddb0 0000016aH .edata                  DATA
 0004:00000000 00005195H .data                   DATA
 0004:000051a0 006214b4H .bss                    DATA
 0005:00000000 00000014H .idata$2                DATA
 0005:00000014 00000014H .idata$3                DATA
 0005:00000028 000001a0H .idata$4                DATA
 0005:000001c8 000001a0H .idata$5                DATA
 0005:00000368 0000074eH .idata$6                DATA
 0006:00000000 00000169H .rsrc$01                DATA
 0006:00000170 000002e9H .rsrc$02                DATA

  Address         Publics by Value              Rva+Base       Lib:Object

 0000:00000000       ___safe_se_handler_count   00000000     <absolute>
 0000:00000000       ___safe_se_handler_table   00000000     <absolute>
 0000:00000000       __except_list              00000000     <absolute>
 0000:00000000       ___ImageBase               30000000     <linker-defined>
 0001:00000000       __enc$textbss$begin        30001000     <linker-defined>
 0001:000527e1       __enc$textbss$end          300537e1     <linker-defined>
 0002:00004270       _BG_FindItemForPowerup     30058270 f   bg_misc.obj
 0002:00004310       _BG_FindItemForHoldable    30058310 f   bg_misc.obj
 0002:000043a0       _BG_FindItemForWeapon      300583a0 f   bg_misc.obj
 0002:00004410       _BG_FindItem               30058410 f   bg_misc.obj
 0002:00004470       _BG_PlayerTouchesItem      30058470 f   bg_misc.obj
 0002:00004570       _BG_CanItemBeGrabbed       30058570 f   bg_misc.obj
 0002:00004880       _BG_EvaluateTrajectory     30058880 f   bg_misc.obj
 0002:00004c30       _BG_EvaluateTrajectoryDelta 30058c30 f   bg_misc.obj
 0002:00004ed0       _BG_AddPredictableEventToPlayerstate 30058ed0 f   bg_misc.obj
 0002:00004fc0       _BG_TouchJumpPad           30058fc0 f   bg_misc.obj
 0002:00005100       _BG_PlayerStateToEntityState 30059100 f   bg_misc.obj
 0002:00005530       _BG_PlayerStateToEntityStateExtraPolate 30059530 f   bg_misc.obj
 0002:00005980       _PM_AddEvent               30059980 f   bg_pmove.obj
 0002:000059b0       _PM_AddTouchEnt            300599b0 f   bg_pmove.obj
 0002:00005a60       _PM_ClipVelocity           30059a60 f   bg_pmove.obj
 0002:00005b30       _PM_UpdateViewAngles       30059b30 f   bg_pmove.obj
 0002:00005c70       _CheckLadder               30059c70 f   bg_pmove.obj
 0002:00005dc0       _PmoveSingle               30059dc0 f   bg_pmove.obj
 0002:0000a5a0       _Pmove                     3005e5a0 f   bg_pmove.obj
 0002:0000a6c0       _PM_SlideMove              3005e6c0 f   bg_slidemove.obj
 0002:0000b200       _PM_StepSlideMove          3005f200 f   bg_slidemove.obj
 0002:0000b770       _CG_TargetCommand_f        3005f770 f   cg_consolecmds.obj
 0002:0000bd30       _CG_ConsoleCommand         3005fd30 f   cg_consolecmds.obj
 0002:0000bdb0       _CG_InitConsoleCommands    3005fdb0 f   cg_consolecmds.obj
 0002:0000bfc0       _CG_Draw3DModel            3005ffc0 f   cg_draw.obj
 0002:0000c190       _CG_DrawHead               30060190 f   cg_draw.obj
 0002:0000c380       _CG_DrawFlagModel          30060380 f   cg_draw.obj
 0002:0000c5c0       _CG_DrawTeamBackground     300605c0 f   cg_draw.obj
 0002:0000c680       _CG_AddLagometerFrameInfo  30060680 f   cg_draw.obj
 0002:0000c6d0       _CG_AddLagometerSnapshotInfo 300606d0 f   cg_draw.obj
 0002:0000c760       _CG_CenterPrint            30060760 f   cg_draw.obj
 0002:0000c800       _CG_DrawActive             30060800 f   cg_draw.obj
 0002:00011370       _CG_AdjustFrom640          30065370 f   cg_drawtools.obj
 0002:000113e0       _CG_FillRect               300653e0 f   cg_drawtools.obj
 0002:00011480       _CG_DrawSides              30065480 f   cg_drawtools.obj
 0002:00011580       _CG_DrawTopBottom          30065580 f   cg_drawtools.obj
 0002:00011680       _CG_DrawRect               30065680 f   cg_drawtools.obj
 0002:00011720       _CG_DrawPic                30065720 f   cg_drawtools.obj
 0002:000117b0       _CG_DrawChar               300657b0 f   cg_drawtools.obj
 0002:000118d0       _CG_DrawStringExt          300658d0 f   cg_drawtools.obj
 0002:00011b50       _CG_DrawBigString          30065b50 f   cg_drawtools.obj
 0002:00011bd0       _CG_DrawBigStringColor     30065bd0 f   cg_drawtools.obj
 0002:00011c10       _CG_DrawSmallString        30065c10 f   cg_drawtools.obj
 0002:00011c90       _CG_DrawSmallStringColor   30065c90 f   cg_drawtools.obj
 0002:00011cd0       _CG_DrawStrlen             30065cd0 f   cg_drawtools.obj
 0002:00011d60       _CG_TileClear              30065d60 f   cg_drawtools.obj
 0002:00011f60       _CG_FadeColor              30065f60 f   cg_drawtools.obj
 0002:00012010       _CG_TeamColor              30066010 f   cg_drawtools.obj
 0002:00012070       _CG_GetColorForHealth      30066070 f   cg_drawtools.obj
 0002:000121a0       _CG_ColorForHealth         300661a0 f   cg_drawtools.obj
 0002:000121f0       _UI_DrawBannerString       300661f0 f   cg_drawtools.obj
 0002:00012550       _UI_ProportionalStringWidth 30066550 f   cg_drawtools.obj
 0002:000125e0       _UI_ProportionalSizeScale  300665e0 f   cg_drawtools.obj
 0002:00012610       _UI_DrawProportionalString 30066610 f   cg_drawtools.obj
 0002:00012b00       _CG_ShotgunTrail           30066b00 f   cg_effects.obj
 0002:00012dd0       _CG_BubbleTrail            30066dd0 f   cg_effects.obj
 0002:00013160       _CG_SmokePuff              30067160 f   cg_effects.obj
 0002:00013460       _CG_SpawnEffect            30067460 f   cg_effects.obj
 0002:000135b0       _CG_ScorePlum              300675b0 f   cg_effects.obj
 0002:000137b0       _CG_MakeExplosion          300677b0 f   cg_effects.obj
 0002:00013a50       _CG_Bleed                  30067a50 f   cg_effects.obj
 0002:00013b70       _CG_LaunchGib              30067b70 f   cg_effects.obj
 0002:00013d00       _CG_GibPlayer              30067d00 f   cg_effects.obj
 0002:00014670       _CG_LaunchExplode          30068670 f   cg_effects.obj
 0002:00014800       _CG_BigExplode             30068800 f   cg_effects.obj
 0002:00014ce0       _CG_GibPlayerHeadshot      30068ce0 f   cg_effects.obj
 0002:000150f0       _CG_LaunchGlass            300690f0 f   cg_effects.obj
 0002:00015290       _CG_BreakGlass             30069290 f   cg_effects.obj
 0002:00015460       _CG_PositionEntityOnTag    30069460 f   cg_ents.obj
 0002:000155d0       _CG_PositionRotatedEntityOnTag 300695d0 f   cg_ents.obj
 0002:00015760       _CG_SetEntitySoundPosition 30069760 f   cg_ents.obj
 0002:00015840       _CG_Beam                   30069840 f   cg_ents.obj
 0002:00015930       _CG_AdjustPositionForMover 30069930 f   cg_ents.obj
 0002:00015af0       _CG_AddPacketEntities      30069af0 f   cg_ents.obj
 0002:00017e60       _CG_PlaceString            3006be60 f   cg_event.obj
 0002:00018000       _CG_PainEvent              3006c000 f   cg_event.obj
 0002:000180d0       _CG_EntityEvent            3006c0d0 f   cg_event.obj
 0002:0001aa90       _CG_CheckEvents            3006ea90 f   cg_event.obj
 0002:0001abb0       _cgrandom                  3006ebb0 f   cg_info.obj
 0002:0001abf0       _CG_LoadingString          3006ebf0 f   cg_info.obj
 0002:0001ac30       _CG_LoadingItem            3006ec30 f   cg_info.obj
 0002:0001acc0       _CG_LoadingClient          3006ecc0 f   cg_info.obj
 0002:0001af90       _CG_DrawInformation        3006ef90 f   cg_info.obj
 0002:0001b7d0       _CG_InitLocalEntities      3006f7d0 f   cg_localents.obj
 0002:0001b870       _CG_FreeLocalEntity        3006f870 f   cg_localents.obj
 0002:0001b8e0       _CG_AllocLocalEntity       3006f8e0 f   cg_localents.obj
 0002:0001b980       _CG_BloodTrail             3006f980 f   cg_localents.obj
 0002:0001bab0       _CG_FragmentBounceMark     3006fab0 f   cg_localents.obj
 0002:0001bc20       _CG_FragmentBounceSound    3006fc20 f   cg_localents.obj
 0002:0001bcc0       _CG_ReflectVelocity        3006fcc0 f   cg_localents.obj
 0002:0001bec0       _CG_AddFragment            3006fec0 f   cg_localents.obj
 0002:0001c190       _CG_AddFadeRGB             30070190 f   cg_localents.obj
 0002:0001c2d0       _CG_AddScorePlum           300702d0 f   cg_localents.obj
 0002:0001c8f0       _CG_AddLocalEntities       300708f0 f   cg_localents.obj
 0002:0001d260       _vmMain                    30071260 f   cg_main.obj
 0002:0001d390       _CG_RegisterCvars          30071390 f   cg_main.obj
 0002:0001d4f0       _CG_UpdateCvars            300714f0 f   cg_main.obj
 0002:0001d750       _CG_CrosshairPlayer        30071750 f   cg_main.obj
 0002:0001d790       _CG_LastAttacker           30071790 f   cg_main.obj
 0002:0001d7d0       _CG_Printf                 300717d0 f   cg_main.obj
 0002:0001d840       _CG_Error                  30071840 f   cg_main.obj
 0002:0001d8b0       _Com_Error                 300718b0 f   cg_main.obj
 0002:0001d930       _Com_Printf                30071930 f   cg_main.obj
 0002:0001d9b0       _CG_Argv                   300719b0 f   cg_main.obj
 0002:0001d9f0       _CG_BuildSpectatorString   300719f0 f   cg_main.obj
 0002:0001dad0       _CG_ConfigString           30071ad0 f   cg_main.obj
 0002:0001db20       _CG_StartMusic             30071b20 f   cg_main.obj
 0002:0001dbc0       _CG_Init                   30071bc0 f   cg_main.obj
 0002:0001f920       _CG_Shutdown               30073920 f   cg_main.obj
 0002:0001f940       _CG_EventHandling          30073940 f   cg_main.obj
 0002:0001f960       _CG_KeyEvent               30073960 f   cg_main.obj
 0002:0001f980       _CG_MouseEvent             30073980 f   cg_main.obj
 0002:0001f9a0       _CG_InitMarkPolys          300739a0 f   cg_marks.obj
 0002:0001fa40       _CG_FreeMarkPoly           30073a40 f   cg_marks.obj
 0002:0001fab0       _CG_AllocMark              30073ab0 f   cg_marks.obj
 0002:0001fb80       _CG_ImpactMark             30073b80 f   cg_marks.obj
 0002:00020290       _CG_AddMarks               30074290 f   cg_marks.obj
 0002:00020620       _CG_ClearParticles         30074620 f   cg_marks.obj
 0002:000207a0       _CG_AddParticleToScene     300747a0 f   cg_marks.obj
 0002:00023b50       _CG_AddParticles           30077b50 f   cg_marks.obj
 0002:00024050       _CG_ParticleSnowFlurry     30078050 f   cg_marks.obj
 0002:000243c0       _CG_ParticleSnow           300783c0 f   cg_marks.obj
 0002:000246b0       _CG_ParticleBubble         300786b0 f   cg_marks.obj
 0002:00024a10       _CG_ParticleSmoke          30078a10 f   cg_marks.obj
 0002:00024c50       _CG_ParticleBulletDebris   30078c50 f   cg_marks.obj
 0002:00024e00       _CG_ParticleExplosion      30078e00 f   cg_marks.obj
 0002:00025060       _CG_AddParticleShrapnel    30079060 f   cg_marks.obj
 0002:00025080       _CG_NewParticleArea        30079080 f   cg_marks.obj
 0002:00025350       _CG_SnowLink               30079350 f   cg_marks.obj
 0002:000253f0       _CG_ParticleImpactSmokePuff 300793f0 f   cg_marks.obj
 0002:00025620       _CG_Particle_Bleed         30079620 f   cg_marks.obj
 0002:00025820       _CG_Particle_OilParticle   30079820 f   cg_marks.obj
 0002:00025a40       _CG_Particle_OilSlick      30079a40 f   cg_marks.obj
 0002:00025d10       _CG_OilSlickRemove         30079d10 f   cg_marks.obj
 0002:00025dc0       _ValidBloodPool            30079dc0 f   cg_marks.obj
 0002:00026040       _CG_BloodPool              3007a040 f   cg_marks.obj
 0002:00026290       _CG_ParticleBloodCloud     3007a290 f   cg_marks.obj
 0002:000265c0       _CG_ParticleSparks         3007a5c0 f   cg_marks.obj
 0002:00026910       _CG_ParticleDust           3007a910 f   cg_marks.obj
 0002:00026e30       _CG_ParticleMisc           3007ae30 f   cg_marks.obj
 0002:00026fa0       _CG_CustomSound            3007afa0 f   cg_players.obj
 0002:00027090       _CG_NewClientInfo          3007b090 f   cg_players.obj
 0002:0002a2a0       _CG_LoadDeferredPlayers    3007e2a0 f   cg_players.obj
 0002:0002a350       _CG_PlayerSprites          3007e350 f   cg_players.obj
 0002:0002a690       _CG_AddRefEntityWithPowerups 3007e690 f   cg_players.obj
 0002:0002a840       _CG_LightVerts             3007e840 f   cg_players.obj
 0002:0002aa90       _CG_Player                 3007ea90 f   cg_players.obj
 0002:0002d010       _CG_ResetPlayerEntity      30081010 f   cg_players.obj
 0002:0002d320       _CG_CheckAmmo              30081320 f   cg_playerstate.obj
 0002:0002d460       _CG_DamageFeedback         30081460 f   cg_playerstate.obj
 0002:0002d860       _CG_Respawn                30081860 f   cg_playerstate.obj
 0002:0002d8b0       _CG_CheckPlayerstateEvents 300818b0 f   cg_playerstate.obj
 0002:0002da60       _CG_CheckChangedPredictableEvents 30081a60 f   cg_playerstate.obj
 0002:0002db90       _CG_CheckLocalSounds       30081b90 f   cg_playerstate.obj
 0002:0002e320       _CG_TransitionPlayerState  30082320 f   cg_playerstate.obj
 0002:0002e4a0       _CG_BuildSolidList         300824a0 f   cg_predict.obj
 0002:0002e5f0       _CG_Trace                  300825f0 f   cg_predict.obj
 0002:0002e990       _CG_PointContents          30082990 f   cg_predict.obj
 0002:0002ea80       _CG_PredictPlayerState     30082a80 f   cg_predict.obj
 0002:000304b0       _CG_DrawScanner            300844b0 f   cg_scanner.obj
 0002:000308b0       _CG_DrawOldScoreboard      300848b0 f   cg_scoreboard.obj
 0002:00031a70       _CG_DrawOldTourneyScoreboard 30085a70 f   cg_scoreboard.obj
 0002:00031ef0       _CG_ParseServerinfo        30085ef0 f   cg_servercmds.obj
 0002:000321f0       _CG_SetConfigValues        300861f0 f   cg_servercmds.obj
 0002:000322c0       _CG_ShaderStateChanged     300862c0 f   cg_servercmds.obj
 0002:00032510       _CG_ParseVoiceChats        30086510 f   cg_servercmds.obj
 0002:00032ae0       _CG_LoadVoiceChats         30086ae0 f   cg_servercmds.obj
 0002:00032bf0       _CG_HeadModelVoiceChats    30086bf0 f   cg_servercmds.obj
 0002:00032d90       _CG_GetVoiceChat           30086d90 f   cg_servercmds.obj
 0002:00032ea0       _CG_VoiceChatListForClient 30086ea0 f   cg_servercmds.obj
 0002:00033340       _CG_PlayVoiceChat          30087340 f   cg_servercmds.obj
 0002:00033360       _CG_PlayBufferedVoiceChats 30087360 f   cg_servercmds.obj
 0002:00033380       _CG_AddBufferedVoiceChat   30087380 f   cg_servercmds.obj
 0002:000333a0       _CG_VoiceChatLocal         300873a0 f   cg_servercmds.obj
 0002:000333c0       _CG_VoiceChat              300873c0 f   cg_servercmds.obj
 0002:000333e0       _CG_ExecuteNewServerCommands 300873e0 f   cg_servercmds.obj
 0002:000348a0       _CG_TransitionEntity       300888a0 f   cg_snapshot.obj
 0002:00034a00       _CG_SetInitialSnapshot     30088a00 f   cg_snapshot.obj
 0002:00034b40       _CG_ProcessSnapshots       30088b40 f   cg_snapshot.obj
 0002:000352e0       _dllEntry                  300892e0 f   cg_syscalls.obj
 0002:00035300       _PASSFLOAT                 30089300 f   cg_syscalls.obj
 0002:00035320       _trap_Print                30089320 f   cg_syscalls.obj
 0002:00035350       _trap_Error                30089350 f   cg_syscalls.obj
 0002:00035380       _trap_Milliseconds         30089380 f   cg_syscalls.obj
 0002:000353b0       _trap_Cvar_Register        300893b0 f   cg_syscalls.obj
 0002:000353f0       _trap_Cvar_Update          300893f0 f   cg_syscalls.obj
 0002:00035420       _trap_Cvar_Set             30089420 f   cg_syscalls.obj
 0002:00035450       _trap_Cvar_VariableStringBuffer 30089450 f   cg_syscalls.obj
 0002:00035480       _trap_Argc                 30089480 f   cg_syscalls.obj
 0002:000354b0       _trap_Argv                 300894b0 f   cg_syscalls.obj
 0002:000354e0       _trap_Args                 300894e0 f   cg_syscalls.obj
 0002:00035510       _trap_FS_FOpenFile         30089510 f   cg_syscalls.obj
 0002:00035540       _trap_FS_Read              30089540 f   cg_syscalls.obj
 0002:00035570       _trap_FS_Write             30089570 f   cg_syscalls.obj
 0002:000355a0       _trap_FS_FCloseFile        300895a0 f   cg_syscalls.obj
 0002:000355d0       _trap_FS_Seek              300895d0 f   cg_syscalls.obj
 0002:00035600       _trap_SendConsoleCommand   30089600 f   cg_syscalls.obj
 0002:00035630       _trap_AddCommand           30089630 f   cg_syscalls.obj
 0002:00035660       _trap_RemoveCommand        30089660 f   cg_syscalls.obj
 0002:00035690       _trap_SendClientCommand    30089690 f   cg_syscalls.obj
 0002:000356c0       _trap_UpdateScreen         300896c0 f   cg_syscalls.obj
 0002:000356f0       _trap_CM_LoadMap           300896f0 f   cg_syscalls.obj
 0002:00035720       _trap_CM_NumInlineModels   30089720 f   cg_syscalls.obj
 0002:00035750       _trap_CM_InlineModel       30089750 f   cg_syscalls.obj
 0002:00035780       _trap_CM_TempBoxModel      30089780 f   cg_syscalls.obj
 0002:000357b0       _trap_CM_TempCapsuleModel  300897b0 f   cg_syscalls.obj
 0002:000357e0       _trap_CM_PointContents     300897e0 f   cg_syscalls.obj
 0002:00035810       _trap_CM_TransformedPointContents 30089810 f   cg_syscalls.obj
 0002:00035850       _trap_CM_BoxTrace          30089850 f   cg_syscalls.obj
 0002:000358a0       _trap_CM_CapsuleTrace      300898a0 f   cg_syscalls.obj
 0002:000358f0       _trap_CM_TransformedBoxTrace 300898f0 f   cg_syscalls.obj
 0002:00035940       _trap_CM_TransformedCapsuleTrace 30089940 f   cg_syscalls.obj
 0002:00035990       _trap_CM_MarkFragments     30089990 f   cg_syscalls.obj
 0002:000359e0       _trap_S_StartSound         300899e0 f   cg_syscalls.obj
 0002:00035a20       _trap_S_StartLocalSound    30089a20 f   cg_syscalls.obj
 0002:00035a50       _trap_S_ClearLoopingSounds 30089a50 f   cg_syscalls.obj
 0002:00035a80       _trap_S_AddLoopingSound    30089a80 f   cg_syscalls.obj
 0002:00035ac0       _trap_S_AddRealLoopingSound 30089ac0 f   cg_syscalls.obj
 0002:00035b00       _trap_S_StopLoopingSound   30089b00 f   cg_syscalls.obj
 0002:00035b30       _trap_S_UpdateEntityPosition 30089b30 f   cg_syscalls.obj
 0002:00035b60       _trap_S_Respatialize       30089b60 f   cg_syscalls.obj
 0002:00035ba0       _trap_S_RegisterSound      30089ba0 f   cg_syscalls.obj
 0002:00035bd0       _trap_S_StartBackgroundTrack 30089bd0 f   cg_syscalls.obj
 0002:00035c00       _trap_R_LoadWorldMap       30089c00 f   cg_syscalls.obj
 0002:00035c30       _trap_R_RegisterModel      30089c30 f   cg_syscalls.obj
 0002:00035c60       _trap_R_RegisterSkin       30089c60 f   cg_syscalls.obj
 0002:00035c90       _trap_R_RegisterShader     30089c90 f   cg_syscalls.obj
 0002:00035cc0       _trap_R_RegisterShaderNoMip 30089cc0 f   cg_syscalls.obj
 0002:00035cf0       _trap_R_RegisterFont       30089cf0 f   cg_syscalls.obj
 0002:00035d20       _trap_R_ClearScene         30089d20 f   cg_syscalls.obj
 0002:00035d50       _trap_R_AddRefEntityToScene 30089d50 f   cg_syscalls.obj
 0002:00035d80       _trap_R_AddPolyToScene     30089d80 f   cg_syscalls.obj
 0002:00035db0       _trap_R_AddPolysToScene    30089db0 f   cg_syscalls.obj
 0002:00035df0       _trap_R_LightForPoint      30089df0 f   cg_syscalls.obj
 0002:00035e30       _trap_R_AddLightToScene    30089e30 f   cg_syscalls.obj
 0002:00035eb0       _trap_R_AddAdditiveLightToScene 30089eb0 f   cg_syscalls.obj
 0002:00035f30       _trap_R_RenderScene        30089f30 f   cg_syscalls.obj
 0002:00035f60       _trap_R_SetColor           30089f60 f   cg_syscalls.obj
 0002:00035f90       _trap_R_DrawStretchPic     30089f90 f   cg_syscalls.obj
 0002:00036060       _trap_R_ModelBounds        3008a060 f   cg_syscalls.obj
 0002:00036090       _trap_R_LerpTag            3008a090 f   cg_syscalls.obj
 0002:000360e0       _trap_R_RemapShader        3008a0e0 f   cg_syscalls.obj
 0002:00036110       _trap_GetGlconfig          3008a110 f   cg_syscalls.obj
 0002:00036140       _trap_GetGameState         3008a140 f   cg_syscalls.obj
 0002:00036170       _trap_GetCurrentSnapshotNumber 3008a170 f   cg_syscalls.obj
 0002:000361a0       _trap_GetSnapshot          3008a1a0 f   cg_syscalls.obj
 0002:000361d0       _trap_GetServerCommand     3008a1d0 f   cg_syscalls.obj
 0002:00036200       _trap_GetCurrentCmdNumber  3008a200 f   cg_syscalls.obj
 0002:00036230       _trap_GetUserCmd           3008a230 f   cg_syscalls.obj
 0002:00036260       _trap_SetUserCmdValue      3008a260 f   cg_syscalls.obj
 0002:000362a0       _testPrintInt              3008a2a0 f   cg_syscalls.obj
 0002:000362d0       _testPrintFloat            3008a2d0 f   cg_syscalls.obj
 0002:00036310       _trap_MemoryRemaining      3008a310 f   cg_syscalls.obj
 0002:00036340       _trap_Key_IsDown           3008a340 f   cg_syscalls.obj
 0002:00036370       _trap_Key_GetCatcher       3008a370 f   cg_syscalls.obj
 0002:000363a0       _trap_Key_SetCatcher       3008a3a0 f   cg_syscalls.obj
 0002:000363d0       _trap_Key_GetKey           3008a3d0 f   cg_syscalls.obj
 0002:00036400       _trap_PC_AddGlobalDefine   3008a400 f   cg_syscalls.obj
 0002:00036430       _trap_PC_LoadSource        3008a430 f   cg_syscalls.obj
 0002:00036460       _trap_PC_FreeSource        3008a460 f   cg_syscalls.obj
 0002:00036490       _trap_PC_ReadToken         3008a490 f   cg_syscalls.obj
 0002:000364c0       _trap_PC_SourceFileAndLine 3008a4c0 f   cg_syscalls.obj
 0002:000364f0       _trap_S_StopBackgroundTrack 3008a4f0 f   cg_syscalls.obj
 0002:00036520       _trap_RealTime             3008a520 f   cg_syscalls.obj
 0002:00036550       _trap_SnapVector           3008a550 f   cg_syscalls.obj
 0002:00036580       _trap_CIN_PlayCinematic    3008a580 f   cg_syscalls.obj
 0002:000365c0       _trap_CIN_StopCinematic    3008a5c0 f   cg_syscalls.obj
 0002:000365f0       _trap_CIN_RunCinematic     3008a5f0 f   cg_syscalls.obj
 0002:00036620       _trap_CIN_DrawCinematic    3008a620 f   cg_syscalls.obj
 0002:00036650       _trap_CIN_SetExtents       3008a650 f   cg_syscalls.obj
 0002:00036690       _trap_GetEntityToken       3008a690 f   cg_syscalls.obj
 0002:000366c0       _trap_R_inPVS              3008a6c0 f   cg_syscalls.obj
 0002:000366f0       _CG_PredictWeaponEffects   3008a6f0 f   cg_unlagged.obj
 0002:00037270       _CG_AddBoundingBox         3008b270 f   cg_unlagged.obj
 0002:00037bb0       _CG_Cvar_ClampInt          3008bbb0 f   cg_unlagged.obj
 0002:00037cd0       _CG_TestModel_f            3008bcd0 f   cg_view.obj
 0002:00037e60       _CG_TestGun_f              3008be60 f   cg_view.obj
 0002:00037ea0       _CG_TestModelNextFrame_f   3008bea0 f   cg_view.obj
 0002:00037ee0       _CG_TestModelPrevFrame_f   3008bee0 f   cg_view.obj
 0002:00037f30       _CG_TestModelNextSkin_f    3008bf30 f   cg_view.obj
 0002:00037f70       _CG_TestModelPrevSkin_f    3008bf70 f   cg_view.obj
 0002:00037fc0       _CG_ZoomDown_f             3008bfc0 f   cg_view.obj
 0002:000380c0       _CG_ZoomUp_f               3008c0c0 f   cg_view.obj
 0002:00038100       _CG_ResetZoom              3008c100 f   cg_view.obj
 0002:00038190       _CG_DoZoom_f               3008c190 f   cg_view.obj
 0002:000381c0       _CG_AddBufferedSound       3008c1c0 f   cg_view.obj
 0002:00038230       _CG_DrawActiveFrame        3008c230 f   cg_view.obj
 0002:00039ce0       _CG_RailTrail              3008dce0 f   cg_weapons.obj
 0002:0003a740       _CG_GrappleTrail           3008e740 f   cg_weapons.obj
 0002:0003aa10       _CG_RegisterWeapon         3008ea10 f   cg_weapons.obj
 0002:0003c4f0       _CG_RegisterItemVisuals    300904f0 f   cg_weapons.obj
 0002:0003c640       _CG_AddPlayerWeapon        30090640 f   cg_weapons.obj
 0002:0003d110       _CG_AddViewWeapon          30091110 f   cg_weapons.obj
 0002:0003d740       _CG_DrawWeaponSelect       30091740 f   cg_weapons.obj
 0002:0003da20       _CG_NextWeapon_f           30091a20 f   cg_weapons.obj
 0002:0003db50       _CG_PrevWeapon_f           30091b50 f   cg_weapons.obj
 0002:0003dc20       _CG_Weapon_f               30091c20 f   cg_weapons.obj
 0002:0003dcc0       _CG_OutOfAmmoChange        30091cc0 f   cg_weapons.obj
 0002:0003dd30       _CG_FireWeapon             30091d30 f   cg_weapons.obj
 0002:0003dea0       _CG_FireWeapon2            30091ea0 f   cg_weapons.obj
 0002:0003e010       _CG_MissileHitWall         30092010 f   cg_weapons.obj
 0002:0003e840       _CG_MissileHitPlayer       30092840 f   cg_weapons.obj
 0002:0003e8b0       _CG_ShotgunPattern         300928b0 f   cg_weapons.obj
 0002:0003ec20       _CG_ShotgunFire            30092c20 f   cg_weapons.obj
 0002:0003ee00       _CG_Tracer                 30092e00 f   cg_weapons.obj
 0002:0003f2e0       _CG_Bullet                 300932e0 f   cg_weapons.obj
 0002:0003f730       _CG_ScannerOn_f            30093730 f   cg_weapons.obj
 0002:0003f770       _CG_ScannerOff_f           30093770 f   cg_weapons.obj
 0002:0003f790       _Q_rand                    30093790 f   q_math.obj
 0002:0003f7d0       _Q_random                  300937d0 f   q_math.obj
 0002:0003f810       _Q_crandom                 30093810 f   q_math.obj
 0002:0003f850       _ClampChar                 30093850 f   q_math.obj
 0002:0003f880       _ClampShort                30093880 f   q_math.obj
 0002:0003f8d0       _DirToByte                 300938d0 f   q_math.obj
 0002:0003f9a0       _ByteToDir                 300939a0 f   q_math.obj
 0002:0003fa40       _ColorBytes3               30093a40 f   q_math.obj
 0002:0003faf0       _ColorBytes4               30093af0 f   q_math.obj
 0002:0003fbd0       _NormalizeColor            30093bd0 f   q_math.obj
 0002:0003fca0       _init_tonextint            30093ca0 f   q_math.obj
 0002:0003fd10       _tonextint                 30093d10 f   q_math.obj
 0002:0003fdb0       _PlaneFromPoints           30093db0 f   q_math.obj
 0002:0003ff50       _RotatePointAroundVector   30093f50 f   q_math.obj
 0002:00040220       _RotateAroundDirection     30094220 f   q_math.obj
 0002:000402e0       _vectoangles               300942e0 f   q_math.obj
 0002:000404b0       _AnglesToAxis              300944b0 f   q_math.obj
 0002:00040540       _AxisClear                 30094540 f   q_math.obj
 0002:000405b0       _AxisCopy                  300945b0 f   q_math.obj
 0002:00040650       _ProjectPointOnPlane       30094650 f   q_math.obj
 0002:000407b0       _MakeNormalVectors         300947b0 f   q_math.obj
 0002:000408b0       _VectorRotate              300948b0 f   q_math.obj
 0002:00040970       _Q_rsqrt                   30094970 f   q_math.obj
 0002:000409f0       _Q_fabs                    300949f0 f   q_math.obj
 0002:00040a20       _LerpAngle                 30094a20 f   q_math.obj
 0002:00040aa0       _AngleSubtract             30094aa0 f   q_math.obj
 0002:00040b10       _AnglesSubtract            30094b10 f   q_math.obj
 0002:00040ba0       _AngleMod                  30094ba0 f   q_math.obj
 0002:00040bf0       _AngleNormalize360         30094bf0 f   q_math.obj
 0002:00040c40       _AngleNormalize180         30094c40 f   q_math.obj
 0002:00040ca0       _AngleDelta                30094ca0 f   q_math.obj
 0002:00040ce0       _SetPlaneSignbits          30094ce0 f   q_math.obj
 0002:00040d60       _flrandom                  30094d60 f   q_math.obj
 0002:00040da0       _irandom                   30094da0 f   q_math.obj
 0002:00040de0       _BoxOnPlaneSide            30094de0 f   q_math.obj
 0002:000410b0       _RadiusFromBounds          300950b0 f   q_math.obj
 0002:000411e0       _ClearBounds               300951e0 f   q_math.obj
 0002:00041250       _AddPointToBounds          30095250 f   q_math.obj
 0002:00041360       _VectorNormalize           30095360 f   q_math.obj
 0002:00041420       _VectorNormalize2          30095420 f   q_math.obj
 0002:00041500       __VectorMA                 30095500 f   q_math.obj
 0002:00041560       __DotProduct               30095560 f   q_math.obj
 0002:000415b0       __VectorSubtract           300955b0 f   q_math.obj
 0002:00041610       __VectorAdd                30095610 f   q_math.obj
 0002:00041670       __VectorCopy               30095670 f   q_math.obj
 0002:000416b0       __VectorScale              300956b0 f   q_math.obj
 0002:00041700       _Vector4Scale              30095700 f   q_math.obj
 0002:00041760       _Q_log2                    30095760 f   q_math.obj
 0002:000417a0       _MatrixMultiply            300957a0 f   q_math.obj
 0002:000419b0       _AngleVectors              300959b0 f   q_math.obj
 0002:00041c20       _PerpendicularVector       30095c20 f   q_math.obj
 0002:00041d20       _Com_Clamp                 30095d20 f   q_shared.obj
 0002:00041d70       _COM_SkipPath              30095d70 f   q_shared.obj
 0002:00041dd0       _COM_StripExtension        30095dd0 f   q_shared.obj
 0002:00041e30       _COM_DefaultExtension      30095e30 f   q_shared.obj
 0002:00041ef0       _ShortSwap                 30095ef0 f   q_shared.obj
 0002:00041f40       _ShortNoSwap               30095f40 f   q_shared.obj
 0002:00041f60       _LongSwap                  30095f60 f   q_shared.obj
 0002:00041fe0       _LongNoSwap                30095fe0 f   q_shared.obj
 0002:00042000       _Long64Swap                30096000 f   q_shared.obj
 0002:00042060       _Long64NoSwap              30096060 f   q_shared.obj
 0002:00042080       _FloatSwap                 30096080 f   q_shared.obj
 0002:000420c0       _FloatNoSwap               300960c0 f   q_shared.obj
 0002:000420e0       _COM_BeginParseSession     300960e0 f   q_shared.obj
 0002:00042130       _COM_GetCurrentParseLine   30096130 f   q_shared.obj
 0002:00042150       _COM_Parse                 30096150 f   q_shared.obj
 0002:00042180       _COM_ParseError            30096180 f   q_shared.obj
 0002:000421f0       _COM_ParseWarning          300961f0 f   q_shared.obj
 0002:00042260       _COM_Compress              30096260 f   q_shared.obj
 0002:000424e0       _COM_ParseExt              300964e0 f   q_shared.obj
 0002:00042810       _COM_MatchToken            30096810 f   q_shared.obj
 0002:00042870       _SkipBracedSection         30096870 f   q_shared.obj
 0002:00042900       _SkipRestOfLine            30096900 f   q_shared.obj
 0002:00042970       _Parse1DMatrix             30096970 f   q_shared.obj
 0002:00042a00       _Parse2DMatrix             30096a00 f   q_shared.obj
 0002:00042a90       _Parse3DMatrix             30096a90 f   q_shared.obj
 0002:00042b30       _Q_isprint                 30096b30 f   q_shared.obj
 0002:00042b60       _Q_islower                 30096b60 f   q_shared.obj
 0002:00042b90       _Q_isupper                 30096b90 f   q_shared.obj
 0002:00042bc0       _Q_isalpha                 30096bc0 f   q_shared.obj
 0002:00042c00       _Q_strrchr                 30096c00 f   q_shared.obj
 0002:00042c80       _Q_strncpyz                30096c80 f   q_shared.obj
 0002:00042d10       _Q_stricmpn                30096d10 f   q_shared.obj
 0002:00042e20       _Q_strncmp                 30096e20 f   q_shared.obj
 0002:00042eb0       _Q_stricmp                 30096eb0 f   q_shared.obj
 0002:00042f00       _Q_strlwr                  30096f00 f   q_shared.obj
 0002:00042f60       _Q_strupr                  30096f60 f   q_shared.obj
 0002:00042fc0       _Q_strcat                  30096fc0 f   q_shared.obj
 0002:00043030       _Q_PrintStrlen             30097030 f   q_shared.obj
 0002:000430d0       _Q_CleanStr                300970d0 f   q_shared.obj
 0002:00043190       _Com_sprintf               30097190 f   q_shared.obj
 0002:00043260       _va                        30097260 f   q_shared.obj
 0002:000432d0       _Info_ValueForKey          300972d0 f   q_shared.obj
 0002:000434d0       _Info_NextPair             300974d0 f   q_shared.obj
 0002:000435e0       _Info_RemoveKey            300975e0 f   q_shared.obj
 0002:000437c0       _Info_RemoveKey_Big        300977c0 f   q_shared.obj
 0002:000439b0       _Info_Validate             300979b0 f   q_shared.obj
 0002:00043a10       _Info_SetValueForKey       30097a10 f   q_shared.obj
 0002:00043c10       _Info_SetValueForKey_Big   30097c10 f   q_shared.obj
 0002:00043e00       _SnapVectorTowards         30097e00 f   q_shared.obj
 0002:00043eb0       _UI_Alloc                  30097eb0 f   ui_shared.obj
 0002:00043f50       _UI_InitMemory             30097f50 f   ui_shared.obj
 0002:00043f80       _UI_OutOfMemory            30097f80 f   ui_shared.obj
 0002:00043fa0       _String_Alloc              30097fa0 f   ui_shared.obj
 0002:000441e0       _String_Report             300981e0 f   ui_shared.obj
 0002:000442c0       _String_Init               300982c0 f   ui_shared.obj
 0002:00044380       _PC_SourceWarning          30098380 f   ui_shared.obj
 0002:00044440       _PC_SourceError            30098440 f   ui_shared.obj
 0002:00044500       _LerpColor                 30098500 f   ui_shared.obj
 0002:000445c0       _Float_Parse               300985c0 f   ui_shared.obj
 0002:00044620       _PC_Float_Parse            30098620 f   ui_shared.obj
 0002:00044720       _Color_Parse               30098720 f   ui_shared.obj
 0002:00044790       _PC_Color_Parse            30098790 f   ui_shared.obj
 0002:00044800       _Int_Parse                 30098800 f   ui_shared.obj
 0002:00044860       _PC_Int_Parse              30098860 f   ui_shared.obj
 0002:00044960       _Rect_Parse                30098960 f   ui_shared.obj
 0002:000449f0       _PC_Rect_Parse             300989f0 f   ui_shared.obj
 0002:00044a80       _String_Parse              30098a80 f   ui_shared.obj
 0002:00044ae0       _PC_String_Parse           30098ae0 f   ui_shared.obj
 0002:00044b60       _PC_Script_Parse           30098b60 f   ui_shared.obj
 0002:00044d00       _Init_Display              30098d00 f   ui_shared.obj
 0002:00044d20       _GradientBar_Paint         30098d20 f   ui_shared.obj
 0002:00044db0       _Window_Init               30098db0 f   ui_shared.obj
 0002:00044e20       _Fade                      30098e20 f   ui_shared.obj
 0002:00044f10       _Window_Paint              30098f10 f   ui_shared.obj
 0002:00045650       _Item_SetScreenCoords      30099650 f   ui_shared.obj
 0002:00045700       _Item_UpdatePosition       30099700 f   ui_shared.obj
 0002:000457a0       _Menu_UpdatePosition       300997a0 f   ui_shared.obj
 0002:00045860       _Menu_PostParse            30099860 f   ui_shared.obj
 0002:000458d0       _Menu_ClearFocus           300998d0 f   ui_shared.obj
 0002:000459e0       _IsVisible                 300999e0 f   ui_shared.obj
 0002:00045a20       _Rect_ContainsPoint        30099a20 f   ui_shared.obj
 0002:00045ab0       _Menu_ItemsMatchingGroup   30099ab0 f   ui_shared.obj
 0002:00045b70       _Menu_GetMatchingItemByNumber 30099b70 f   ui_shared.obj
 0002:00045c50       _Script_SetColor           30099c50 f   ui_shared.obj
 0002:00045d90       _Script_SetAsset           30099d90 f   ui_shared.obj
 0002:00045dc0       _Script_SetBackground      30099dc0 f   ui_shared.obj
 0002:00045e10       _Menu_FindItemByName       30099e10 f   ui_shared.obj
 0002:00045eb0       _Script_SetTeamColor       30099eb0 f   ui_shared.obj
 0002:00045f40       _Script_SetItemColor       30099f40 f   ui_shared.obj
 0002:00046120       _Menu_ShowItemByName       3009a120 f   ui_shared.obj
 0002:00046200       _Menu_FadeItemByName       3009a200 f   ui_shared.obj
 0002:000462d0       _Menus_FindByName          3009a2d0 f   ui_shared.obj
 0002:00046350       _Menus_ShowByName          3009a350 f   ui_shared.obj
 0002:00046390       _Menus_OpenByName          3009a390 f   ui_shared.obj
 0002:000463c0       _Menus_CloseByName         3009a3c0 f   ui_shared.obj
 0002:00046490       _Menus_CloseAll            3009a490 f   ui_shared.obj
 0002:00046510       _Script_Show               3009a510 f   ui_shared.obj
 0002:00046560       _Script_Hide               3009a560 f   ui_shared.obj
 0002:000465b0       _Script_FadeIn             3009a5b0 f   ui_shared.obj
 0002:00046600       _Script_FadeOut            3009a600 f   ui_shared.obj
 0002:00046650       _Script_Open               3009a650 f   ui_shared.obj
 0002:00046690       _Script_ConditionalOpen    3009a690 f   ui_shared.obj
 0002:00046740       _Script_Close              3009a740 f   ui_shared.obj
 0002:00046780       _Menu_TransitionItemByName 3009a780 f   ui_shared.obj
 0002:00046920       _Script_Transition         3009a920 f   ui_shared.obj
 0002:00046a50       _Menu_OrbitItemByName      3009aa50 f   ui_shared.obj
 0002:00046b20       _Script_Orbit              3009ab20 f   ui_shared.obj
 0002:00046c20       _Script_SetFocus           3009ac20 f   ui_shared.obj
 0002:00046d30       _Script_SetPlayerModel     3009ad30 f   ui_shared.obj
 0002:00046d80       _Script_SetPlayerHead      3009ad80 f   ui_shared.obj
 0002:00046dd0       _Script_SetCvar            3009add0 f   ui_shared.obj
 0002:00046e40       _Script_Exec               3009ae40 f   ui_shared.obj
 0002:00046ea0       _Script_Play               3009aea0 f   ui_shared.obj
 0002:00046f00       _Script_playLooped         3009af00 f   ui_shared.obj
 0002:00046f60       _Item_RunScript            3009af60 f   ui_shared.obj
 0002:00047130       _Item_EnableShowViaCvar    3009b130 f   ui_shared.obj
 0002:00047340       _Item_SetFocus             3009b340 f   ui_shared.obj
 0002:00047620       _Item_ListBox_MaxScroll    3009b620 f   ui_shared.obj
 0002:000476e0       _Item_ListBox_ThumbPosition 3009b6e0 f   ui_shared.obj
 0002:00047830       _Item_ListBox_ThumbDrawPosition 3009b830 f   ui_shared.obj
 0002:00047a10       _Item_Slider_ThumbPosition 3009ba10 f   ui_shared.obj
 0002:00047b40       _Item_Slider_OverSlider    3009bb40 f   ui_shared.obj
 0002:00047bf0       _Item_ListBox_OverLB       3009bbf0 f   ui_shared.obj
 0002:00047fc0       _Item_ListBox_MouseEnter   3009bfc0 f   ui_shared.obj
 0002:000481f0       _Item_MouseEnter           3009c1f0 f   ui_shared.obj
 0002:00048420       _Item_MouseLeave           3009c420 f   ui_shared.obj
 0002:000484c0       _Menu_HitTest              3009c4c0 f   ui_shared.obj
 0002:00048550       _Item_SetMouseOver         3009c550 f   ui_shared.obj
 0002:000485a0       _Item_OwnerDraw_HandleKey  3009c5a0 f   ui_shared.obj
 0002:00048610       _Item_ListBox_HandleKey    3009c610 f   ui_shared.obj
 0002:00049010       _Item_YesNo_HandleKey      3009d010 f   ui_shared.obj
 0002:00049140       _Item_Multi_CountSettings  3009d140 f   ui_shared.obj
 0002:00049180       _Item_Multi_FindCvarByValue 3009d180 f   ui_shared.obj
 0002:00049310       _Item_Multi_Setting        3009d310 f   ui_shared.obj
 0002:000494c0       _Item_Multi_HandleKey      3009d4c0 f   ui_shared.obj
 0002:000496d0       _Item_TextField_HandleKey  3009d6d0 f   ui_shared.obj
 0002:00049ec0       _Item_StartCapture         3009dec0 f   ui_shared.obj
 0002:0004a690       _Item_StopCapture          3009e690 f   ui_shared.obj
 0002:0004a6b0       _Item_Slider_HandleKey     3009e6b0 f   ui_shared.obj
 0002:0004a900       _Item_HandleKey            3009e900 f   ui_shared.obj
 0002:0004ab20       _Item_Action               3009eb20 f   ui_shared.obj
 0002:0004ab60       _Menu_SetPrevCursorItem    3009eb60 f   ui_shared.obj
 0002:0004ad20       _Menu_SetNextCursorItem    3009ed20 f   ui_shared.obj
 0002:0004aee0       _Menus_Activate            3009eee0 f   ui_shared.obj
 0002:0004b140       _Display_VisibleMenuCount  3009f140 f   ui_shared.obj
 0002:0004b1b0       _Menus_HandleOOBClick      3009f1b0 f   ui_shared.obj
 0002:0004b370       _Menu_HandleKey            3009f370 f   ui_shared.obj
 0002:0004bb50       _ToWindowCoords            3009fb50 f   ui_shared.obj
 0002:0004bbc0       _Rect_ToWindowCoords       3009fbc0 f   ui_shared.obj
 0002:0004bbf0       _Item_SetTextExtents       3009fbf0 f   ui_shared.obj
 0002:0004bf30       _Item_TextColor            3009ff30 f   ui_shared.obj
 0002:0004c240       _Item_Text_AutoWrapped_Paint 300a0240 f   ui_shared.obj
 0002:0004c6f0       _Item_Text_Wrapped_Paint   300a06f0 f   ui_shared.obj
 0002:0004c9f0       _Item_Text_Paint           300a09f0 f   ui_shared.obj
 0002:0004cbb0       _Item_TextField_Paint      300a0bb0 f   ui_shared.obj
 0002:0004cfa0       _Item_YesNo_Paint          300a0fa0 f   ui_shared.obj
 0002:0004d270       _Item_Multi_Paint          300a1270 f   ui_shared.obj
 0002:0004d4c0       _Controls_GetConfig        300a14c0 f   ui_shared.obj
 0002:0004d630       _Controls_SetConfig        300a1630 f   ui_shared.obj
 0002:0004d720       _Controls_SetDefaults      300a1720 f   ui_shared.obj
 0002:0004d7a0       _BindingIDFromName         300a17a0 f   ui_shared.obj
 0002:0004d810       _BindingFromName           300a1810 f   ui_shared.obj
 0002:0004d970       _Item_Slider_Paint         300a1970 f   ui_shared.obj
 0002:0004dc20       _Item_Bind_Paint           300a1c20 f   ui_shared.obj
 0002:0004df40       _Display_KeyBindPending    300a1f40 f   ui_shared.obj
 0002:0004df60       _Item_Bind_HandleKey       300a1f60 f   ui_shared.obj
 0002:0004e390       _AdjustFrom640             300a2390 f   ui_shared.obj
 0002:0004e420       _Item_Model_Paint          300a2420 f   ui_shared.obj
 0002:0004e880       _Item_Image_Paint          300a2880 f   ui_shared.obj
 0002:0004e930       _Item_ListBox_Paint        300a2930 f   ui_shared.obj
 0002:0004f5c0       _Item_OwnerDraw_Paint      300a35c0 f   ui_shared.obj
 0002:0004fc40       _Item_Paint                300a3c40 f   ui_shared.obj
 0002:00050470       _Menu_Init                 300a4470 f   ui_shared.obj
 0002:00050510       _Menu_GetFocusedItem       300a4510 f   ui_shared.obj
 0002:00050590       _Menu_GetFocused           300a4590 f   ui_shared.obj
 0002:00050620       _Menu_ScrollFeeder         300a4620 f   ui_shared.obj
 0002:000506d0       _Menu_SetFeederSelection   300a46d0 f   ui_shared.obj
 0002:00050830       _Menus_AnyFullScreenVisible 300a4830 f   ui_shared.obj
 0002:000508b0       _Menus_ActivateByName      300a48b0 f   ui_shared.obj
 0002:000509c0       _Item_Init                 300a49c0 f   ui_shared.obj
 0002:00050a10       _Menu_HandleMouseMove      300a4a10 f   ui_shared.obj
 0002:00050cf0       _Menu_Paint                300a4cf0 f   ui_shared.obj
 0002:00050f00       _Item_ValidateTypeData     300a4f00 f   ui_shared.obj
 0002:000510a0       _KeywordHash_Key           300a50a0 f   ui_shared.obj
 0002:00051170       _KeywordHash_Add           300a5170 f   ui_shared.obj
 0002:000511c0       _KeywordHash_Find          300a51c0 f   ui_shared.obj
 0002:00051240       _ItemParse_name            300a5240 f   ui_shared.obj
 0002:00051280       _ItemParse_focusSound      300a5280 f   ui_shared.obj
 0002:000512e0       _ItemParse_text            300a52e0 f   ui_shared.obj
 0002:00051320       _ItemParse_group           300a5320 f   ui_shared.obj
 0002:00051360       _ItemParse_asset_model     300a5360 f   ui_shared.obj
 0002:000513f0       _ItemParse_asset_shader    300a53f0 f   ui_shared.obj
 0002:00051450       _ItemParse_model_origin    300a5450 f   ui_shared.obj
 0002:000514f0       _ItemParse_model_fovx      300a54f0 f   ui_shared.obj
 0002:00051550       _ItemParse_model_fovy      300a5550 f   ui_shared.obj
 0002:000515b0       _ItemParse_model_rotation  300a55b0 f   ui_shared.obj
 0002:00051610       _ItemParse_model_angle     300a5610 f   ui_shared.obj
 0002:00051670       _ItemParse_rect            300a5670 f   ui_shared.obj
 0002:000516b0       _ItemParse_style           300a56b0 f   ui_shared.obj
 0002:000516f0       _ItemParse_decoration      300a56f0 f   ui_shared.obj
 0002:00051720       _ItemParse_notselectable   300a5720 f   ui_shared.obj
 0002:00051780       _ItemParse_wrapped         300a5780 f   ui_shared.obj
 0002:000517b0       _ItemParse_autowrapped     300a57b0 f   ui_shared.obj
 0002:000517e0       _ItemParse_horizontalscroll 300a57e0 f   ui_shared.obj
 0002:00051810       _ItemParse_type            300a5810 f   ui_shared.obj
 0002:00051860       _ItemParse_elementwidth    300a5860 f   ui_shared.obj
 0002:000518c0       _ItemParse_elementheight   300a58c0 f   ui_shared.obj
 0002:00051920       _ItemParse_feeder          300a5920 f   ui_shared.obj
 0002:00051960       _ItemParse_elementtype     300a5960 f   ui_shared.obj
 0002:000519d0       _ItemParse_columns         300a59d0 f   ui_shared.obj
 0002:00051b20       _ItemParse_border          300a5b20 f   ui_shared.obj
 0002:00051b60       _ItemParse_bordersize      300a5b60 f   ui_shared.obj
 0002:00051ba0       _ItemParse_visible         300a5ba0 f   ui_shared.obj
 0002:00051c00       _ItemParse_ownerdraw       300a5c00 f   ui_shared.obj
 0002:00051c50       _ItemParse_align           300a5c50 f   ui_shared.obj
 0002:00051c90       _ItemParse_textalign       300a5c90 f   ui_shared.obj
 0002:00051cd0       _ItemParse_textalignx      300a5cd0 f   ui_shared.obj
 0002:00051d10       _ItemParse_textaligny      300a5d10 f   ui_shared.obj
 0002:00051d50       _ItemParse_textscale       300a5d50 f   ui_shared.obj
 0002:00051d90       _ItemParse_textstyle       300a5d90 f   ui_shared.obj
 0002:00051dd0       _ItemParse_backcolor       300a5dd0 f   ui_shared.obj
 0002:00051e40       _ItemParse_forecolor       300a5e40 f   ui_shared.obj
 0002:00051ec0       _ItemParse_bordercolor     300a5ec0 f   ui_shared.obj
 0002:00051f30       _ItemParse_outlinecolor    300a5f30 f   ui_shared.obj
 0002:00051f70       _ItemParse_background      300a5f70 f   ui_shared.obj
 0002:00051fd0       _ItemParse_cinematic       300a5fd0 f   ui_shared.obj
 0002:00052010       _ItemParse_doubleClick     300a6010 f   ui_shared.obj
 0002:00052080       _ItemParse_onFocus         300a6080 f   ui_shared.obj
 0002:000520c0       _ItemParse_leaveFocus      300a60c0 f   ui_shared.obj
 0002:00052100       _ItemParse_mouseEnter      300a6100 f   ui_shared.obj
 0002:00052140       _ItemParse_mouseExit       300a6140 f   ui_shared.obj
 0002:00052180       _ItemParse_mouseEnterText  300a6180 f   ui_shared.obj
 0002:000521c0       _ItemParse_mouseExitText   300a61c0 f   ui_shared.obj
 0002:00052200       _ItemParse_action          300a6200 f   ui_shared.obj
 0002:00052240       _ItemParse_special         300a6240 f   ui_shared.obj
 0002:00052280       _ItemParse_cvarTest        300a6280 f   ui_shared.obj
 0002:000522c0       _ItemParse_cvar            300a62c0 f   ui_shared.obj
 0002:00052360       _ItemParse_maxChars        300a6360 f   ui_shared.obj
 0002:000523e0       _ItemParse_maxPaintChars   300a63e0 f   ui_shared.obj
 0002:00052460       _ItemParse_cvarFloat       300a6460 f   ui_shared.obj
 0002:00052530       _ItemParse_cvarStrList     300a6530 f   ui_shared.obj
 0002:00052760       _ItemParse_cvarFloatList   300a6760 f   ui_shared.obj
 0002:00052960       _ItemParse_addColorRange   300a6960 f   ui_shared.obj
 0002:00052a40       _ItemParse_ownerdrawFlag   300a6a40 f   ui_shared.obj
 0002:00052a90       _ItemParse_enableCvar      300a6a90 f   ui_shared.obj
 0002:00052ae0       _ItemParse_disableCvar     300a6ae0 f   ui_shared.obj
 0002:00052b30       _ItemParse_showCvar        300a6b30 f   ui_shared.obj
 0002:00052b80       _ItemParse_hideCvar        300a6b80 f   ui_shared.obj
 0002:00052bd0       _Item_SetupKeywordHash     300a6bd0 f   ui_shared.obj
 0002:00052c50       _Item_Parse                300a6c50 f   ui_shared.obj
 0002:00052dc0       _Item_InitControls         300a6dc0 f   ui_shared.obj
 0002:00052e50       _MenuParse_font            300a6e50 f   ui_shared.obj
 0002:00052ef0       _MenuParse_name            300a6ef0 f   ui_shared.obj
 0002:00052f50       _MenuParse_fullscreen      300a6f50 f   ui_shared.obj
 0002:00052fa0       _MenuParse_rect            300a6fa0 f   ui_shared.obj
 0002:00052fe0       _MenuParse_style           300a6fe0 f   ui_shared.obj
 0002:00053030       _MenuParse_visible         300a7030 f   ui_shared.obj
 0002:00053090       _MenuParse_onOpen          300a7090 f   ui_shared.obj
 0002:000530e0       _MenuParse_onClose         300a70e0 f   ui_shared.obj
 0002:00053130       _MenuParse_onESC           300a7130 f   ui_shared.obj
 0002:00053180       _MenuParse_border          300a7180 f   ui_shared.obj
 0002:000531d0       _MenuParse_borderSize      300a71d0 f   ui_shared.obj
 0002:00053220       _MenuParse_backcolor       300a7220 f   ui_shared.obj
 0002:000532a0       _MenuParse_forecolor       300a72a0 f   ui_shared.obj
 0002:00053330       _MenuParse_bordercolor     300a7330 f   ui_shared.obj
 0002:000533b0       _MenuParse_focuscolor      300a73b0 f   ui_shared.obj
 0002:00053430       _MenuParse_disablecolor    300a7430 f   ui_shared.obj
 0002:000534b0       _MenuParse_outlinecolor    300a74b0 f   ui_shared.obj
 0002:00053500       _MenuParse_background      300a7500 f   ui_shared.obj
 0002:00053560       _MenuParse_cinematic       300a7560 f   ui_shared.obj
 0002:000535b0       _MenuParse_ownerdrawFlag   300a75b0 f   ui_shared.obj
 0002:00053610       _MenuParse_ownerdraw       300a7610 f   ui_shared.obj
 0002:00053660       _MenuParse_popup           300a7660 f   ui_shared.obj
 0002:000536a0       _MenuParse_outOfBounds     300a76a0 f   ui_shared.obj
 0002:000536e0       _MenuParse_soundLoop       300a76e0 f   ui_shared.obj
 0002:00053730       _MenuParse_fadeClamp       300a7730 f   ui_shared.obj
 0002:00053780       _MenuParse_fadeAmount      300a7780 f   ui_shared.obj
 0002:000537d0       _MenuParse_fadeCycle       300a77d0 f   ui_shared.obj
 0002:00053820       _MenuParse_itemDef         300a7820 f   ui_shared.obj
 0002:00053940       _Menu_SetupKeywordHash     300a7940 f   ui_shared.obj
 0002:000539c0       _Menu_Parse                300a79c0 f   ui_shared.obj
 0002:00053b50       _Menu_New                  300a7b50 f   ui_shared.obj
 0002:00053bd0       _Menu_Count                300a7bd0 f   ui_shared.obj
 0002:00053bf0       _Menu_PaintAll             300a7bf0 f   ui_shared.obj
 0002:00053d20       _Menu_Reset                300a7d20 f   ui_shared.obj
 0002:00053d40       _Display_GetContext        300a7d40 f   ui_shared.obj
 0002:00053d60       _Display_CaptureItem       300a7d60 f   ui_shared.obj
 0002:00053df0       _Display_MouseMove         300a7df0 f   ui_shared.obj
 0002:00053f00       _Display_CursorType        300a7f00 f   ui_shared.obj
 0002:00053fe0       _Display_HandleKey         300a7fe0 f   ui_shared.obj
 0002:00054040       _Display_CacheAll          300a8040 f   ui_shared.obj
 0002:000543a0       __fpmath                   300a83a0 f   LIBCMTD:_fpinit_.obj
 0002:000543c0       __cfltcvt_init             300a83c0 f   LIBCMTD:_fpinit_.obj
 0002:00054450       ___setfflag                300a8450 f   LIBCMTD:_fpinit_.obj
 0002:00054480       @__security_check_cookie@4 300a8480 f   LIBCMTD:secchk.obj
 0002:000544a0       _sin                       300a84a0 f   LIBCMTD:_sin_.obj
 0002:000544e0       __CIsin                    300a84e0 f   LIBCMTD:_sin_.obj
 0002:0005451b       __CIsin_default            300a851b f   LIBCMTD:_sin_.obj
 0002:0005452f       __sin_default              300a852f     LIBCMTD:_sin_.obj
 0002:00054620       _cos                       300a8620 f   LIBCMTD:_cos_.obj
 0002:00054660       __CIcos                    300a8660 f   LIBCMTD:_cos_.obj
 0002:0005469b       __CIcos_default            300a869b f   LIBCMTD:_cos_.obj
 0002:000546af       __cos_default              300a86af     LIBCMTD:_cos_.obj
 0002:000547a0       __atof_l                   300a87a0 f   LIBCMTD:atof.obj
 0002:00054920       ??0_LocaleUpdate@@QAE@PAUlocaleinfo_struct@@@Z 300a8920 f i LIBCMTD:atof.obj
 0002:00054a30       ??1_LocaleUpdate@@QAE@XZ   300a8a30 f i LIBCMTD:atof.obj
 0002:00054a70       ?GetLocaleT@_LocaleUpdate@@QAEPAUlocaleinfo_struct@@XZ 300a8a70 f i LIBCMTD:atof.obj
 0002:00054a90       _atof                      300a8a90 f   LIBCMTD:atof.obj
 0002:00054ab0       ___strgtold12              300a8ab0 f   LIBCMTD:atof.obj
 0002:00054b20       ___STRINGTOLD              300a8b20 f   LIBCMTD:atof.obj
 0002:00054b80       _fabs                      300a8b80 f   LIBCMTD:_fabs_.obj
 0002:00054cc0       _memset                    300a8cc0 f   LIBCMTD:memset.obj
 0002:00054d60       _abs                       300a8d60 f   LIBCMTD:abs.obj
 0002:00054d90       __abs64                    300a8d90 f   LIBCMTD:abs.obj
 0002:00054df0       __CIsqrt                   300a8df0 f   LIBCMTD:_sqrt_.obj
 0002:00054e04       _sqrt                      300a8e04     LIBCMTD:_sqrt_.obj
 0002:00054ee0       __ftol2_sse                300a8ee0 f   LIBCMTD:ftol2.obj
 0002:00054ee9       __ftol2_pentium4           300a8ee9 f   LIBCMTD:ftol2.obj
 0002:00054efc       __ftol2_sse_excpt          300a8efc f   LIBCMTD:ftol2.obj
 0002:00054f16       __ftol2                    300a8f16 f   LIBCMTD:ftol2.obj
 0002:00054fc0       _atol                      300a8fc0 f   LIBCMTD:atox.obj
 0002:00054fe0       __atol_l                   300a8fe0 f   LIBCMTD:atox.obj
 0002:00055010       _atoi                      300a9010 f   LIBCMTD:atox.obj
 0002:00055030       __atoi_l                   300a9030 f   LIBCMTD:atox.obj
 0002:00055050       __atoi64                   300a9050 f   LIBCMTD:atox.obj
 0002:00055070       __atoi64_l                 300a9070 f   LIBCMTD:atox.obj
 0002:000550a0       _strlen                    300a90a0 f   LIBCMTD:strlen.obj
 0002:00055150       _srand                     300a9150 f   LIBCMTD:rand.obj
 0002:00055170       _rand                      300a9170 f   LIBCMTD:rand.obj
 0002:000551c0       _memcpy                    300a91c0 f   LIBCMTD:memcpy.obj
 0002:00055600       _strcpy                    300a9600 f   LIBCMTD:strcat.obj
 0002:00055610       _strcat                    300a9610 f   LIBCMTD:strcat.obj
 0002:00055740       __vsprintf_l               300a9740 f   LIBCMTD:vsprintf.obj
 0002:00055940       _vsprintf                  300a9940 f   LIBCMTD:vsprintf.obj
 0002:00055970       __vscprintf_helper         300a9970 f   LIBCMTD:vsprintf.obj
 0002:00055a80       __vscprintf                300a9a80 f   LIBCMTD:vsprintf.obj
 0002:00055ab0       __vscprintf_l              300a9ab0 f   LIBCMTD:vsprintf.obj
 0002:00055ae0       __vscprintf_p              300a9ae0 f   LIBCMTD:vsprintf.obj
 0002:00055b10       __vscprintf_p_l            300a9b10 f   LIBCMTD:vsprintf.obj
 0002:00055b40       _strcmp                    300a9b40 f   LIBCMTD:strcmp.obj
 0002:00055bf0       __chkstk                   300a9bf0 f   LIBCMTD:chkstk.obj
 0002:00055bf0       __alloca_probe             300a9bf0     LIBCMTD:chkstk.obj
 0002:00055c30       _floor                     300a9c30 f   LIBCMTD:_floor_pentium4_.obj
 0002:00055c70       __floor_pentium4           300a9c70 f   LIBCMTD:_floor_pentium4_.obj
 0002:00055db0       _strchr                    300a9db0 f   LIBCMTD:strchr.obj
 0002:00055db6       ___from_strstr_to_strchr   300a9db6     LIBCMTD:strchr.obj
 0002:00055eb0       _acos                      300a9eb0 f   LIBCMTD:_acos_.obj
 0002:00055ef0       __CIacos                   300a9ef0 f   LIBCMTD:_acos_.obj
 0002:00055f2b       __CIacos_default           300a9f2b f   LIBCMTD:_acos_.obj
 0002:00055f3f       __acos_default             300a9f3f     LIBCMTD:_acos_.obj
 0002:00056050       _strncpy                   300aa050 f   LIBCMTD:strncpy.obj
 0002:000561c0       _strstr                    300aa1c0 f   LIBCMTD:strstr.obj
 0002:00056270       _atan2                     300aa270 f   LIBCMTD:_87ctriga_.obj
 0002:0005627a       __CIatan2                  300aa27a f   LIBCMTD:_87ctriga_.obj
 0002:00056290       _tan                       300aa290 f   LIBCMTD:_tan_.obj
 0002:000562d0       __CItan                    300aa2d0 f   LIBCMTD:_tan_.obj
 0002:0005630b       __CItan_default            300aa30b f   LIBCMTD:_tan_.obj
 0002:0005631f       __tan_default              300aa31f     LIBCMTD:_tan_.obj
 0002:00056410       __wassert                  300aa410 f   LIBCMTD:wassert.obj
 0002:00057280       __invoke_watson_if_error   300ab280 f i LIBCMTD:wassert.obj
 0002:00057310       __tolower                  300ab310 f   LIBCMTD:tolower.obj
 0002:00057320       __tolower_l                300ab320 f   LIBCMTD:tolower.obj
 0002:00057570       _tolower                   300ab570 f   LIBCMTD:tolower.obj
 0002:000575d0       __toupper                  300ab5d0 f   LIBCMTD:toupper.obj
 0002:000575e0       __toupper_l                300ab5e0 f   LIBCMTD:toupper.obj
 0002:00057830       _toupper                   300ab830 f   LIBCMTD:toupper.obj
 0002:00057890       _memmove                   300ab890 f   LIBCMTD:memmove.obj
 0002:00057cd0       __CRT_INIT@12              300abcd0 f   LIBCMTD:dllcrt0.obj
 0002:00057f70       __DllMainCRTStartup@12     300abf70 f   LIBCMTD:dllcrt0.obj
 0002:000581d0       __setdefaultprecision      300ac1d0 f   LIBCMTD:fp8.obj
 0002:00058220       __forcdecpt                300ac220 f   LIBCMTD:cvt.obj
 0002:00058240       __forcdecpt_l              300ac240 f   LIBCMTD:cvt.obj
 0002:00058330       __cropzeros                300ac330 f   LIBCMTD:cvt.obj
 0002:00058350       __cropzeros_l              300ac350 f   LIBCMTD:cvt.obj
 0002:000584a0       __positive                 300ac4a0 f   LIBCMTD:cvt.obj
 0002:000584e0       __fassign_l                300ac4e0 f   LIBCMTD:cvt.obj
 0002:00058550       __fassign                  300ac550 f   LIBCMTD:cvt.obj
 0002:00058580       __cftoe_l                  300ac580 f   LIBCMTD:cvt.obj
 0002:00058c20       __cftoe                    300acc20 f   LIBCMTD:cvt.obj
 0002:00058c50       __cftoa_l                  300acc50 f   LIBCMTD:cvt.obj
 0002:00059620       ?strrchr@@YAPADPADH@Z      300ad620 f i LIBCMTD:cvt.obj
 0002:00059640       __cftoa                    300ad640 f   LIBCMTD:cvt.obj
 0002:00059670       __cftof_l                  300ad670 f   LIBCMTD:cvt.obj
 0002:00059b70       __cftof                    300adb70 f   LIBCMTD:cvt.obj
 0002:00059ba0       __cftog_l                  300adba0 f   LIBCMTD:cvt.obj
 0002:00059e60       __cftog                    300ade60 f   LIBCMTD:cvt.obj
 0002:00059e90       __cfltcvt_l                300ade90 f   LIBCMTD:cvt.obj
 0002:00059f80       __cfltcvt                  300adf80 f   LIBCMTD:cvt.obj
 0002:0005a000       __initp_misc_cfltcvt_tab   300ae000 f   LIBCMTD:cmiscdat.obj
 0002:0005a050       ___report_gsfailure        300ae050 f   LIBCMTD:gs_report.obj
 0002:0005a1b0       __set_SSE2_enable          300ae1b0 f   LIBCMTD:_mathfcns_.obj
 0002:0005a1e0       __sse2_mathfcns_init       300ae1e0 f   LIBCMTD:_mathfcns_.obj
 0002:0005a200       __CIsin_pentium4           300ae200 f   LIBCMTD:_sin_pentium4_.obj
 0002:0005a218       __sin_pentium4             300ae218     LIBCMTD:_sin_pentium4_.obj
 0002:0005a440       __trandisp1                300ae440 f   LIBCMTD:_87disp_.obj
 0002:0005a4a7       __trandisp2                300ae4a7 f   LIBCMTD:_87disp_.obj
 0002:0005a533       __rttospopde               300ae533     LIBCMTD:_87disp_.obj
 0002:0005a538       __rttospop                 300ae538     LIBCMTD:_87disp_.obj
 0002:0005a53a       __rtnospop                 300ae53a     LIBCMTD:_87disp_.obj
 0002:0005a53c       __rttosnpop                300ae53c     LIBCMTD:_87disp_.obj
 0002:0005a53d       __rtnospopde               300ae53d     LIBCMTD:_87disp_.obj
 0002:0005a544       __rtzeropop                300ae544     LIBCMTD:_87disp_.obj
 0002:0005a546       __rtzeronpop               300ae546     LIBCMTD:_87disp_.obj
 0002:0005a54b       __rtonepop                 300ae54b     LIBCMTD:_87disp_.obj
 0002:0005a54d       __rtonenpop                300ae54d     LIBCMTD:_87disp_.obj
 0002:0005a552       __tosnan1                  300ae552     LIBCMTD:_87disp_.obj
 0002:0005a57d       __nosnan2                  300ae57d     LIBCMTD:_87disp_.obj
 0002:0005a57f       __tosnan2                  300ae57f     LIBCMTD:_87disp_.obj
 0002:0005a5a7       __nan2                     300ae5a7     LIBCMTD:_87disp_.obj
 0002:0005a5e6       __rtindfpop                300ae5e6     LIBCMTD:_87disp_.obj
 0002:0005a5e8       __rtindfnpop               300ae5e8     LIBCMTD:_87disp_.obj
 0002:0005a5f9       __rttosnpopde              300ae5f9     LIBCMTD:_87disp_.obj
 0002:0005a603       __rtchsifneg               300ae603     LIBCMTD:_87disp_.obj
 0002:0005a680       __twoToTOS                 300ae680 f   LIBCMTD:_common_.obj
 0002:0005a695       __load_CW                  300ae695 f   LIBCMTD:_common_.obj
 0002:0005a6ac       __convertTOStoQNaN         300ae6ac f   LIBCMTD:_common_.obj
 0002:0005a6c5       __fload_withFB             300ae6c5 f   LIBCMTD:_common_.obj
 0002:0005a708       __checkTOS_withFB          300ae708 f   LIBCMTD:_common_.obj
 0002:0005a71e       __fast_exit                300ae71e f   LIBCMTD:_common_.obj
 0002:0005a72b       __math_exit                300ae72b f   LIBCMTD:_common_.obj
 0002:0005a755       __check_overflow_exit      300ae755 f   LIBCMTD:_common_.obj
 0002:0005a769       __check_range_exit         300ae769 f   LIBCMTD:_common_.obj
 0002:0005a870       __startTwoArgErrorHandling 300ae870 f   LIBCMTD:_genexcep_.obj
 0002:0005a887       __startOneArgErrorHandling 300ae887 f   LIBCMTD:_genexcep_.obj
 0002:0005a8e0       __CIcos_pentium4           300ae8e0 f   LIBCMTD:_cos_pentium4_.obj
 0002:0005a8f8       __cos_pentium4             300ae8f8     LIBCMTD:_cos_pentium4_.obj
 0002:0005ab00       __fltin2                   300aeb00 f   LIBCMTD:_cfin_.obj
 0002:0005ac10       __chvalidator              300aec10 f   LIBCMTD:isctype.obj
 0002:0005ac70       __chvalidator_l            300aec70 f   LIBCMTD:isctype.obj
 0002:0005ad50       __isctype_l                300aed50 f   LIBCMTD:isctype.obj
 0002:0005aeb0       __isctype                  300aeeb0 f   LIBCMTD:isctype.obj
 0002:0005af00       __initp_misc_invarg        300aef00 f   LIBCMTD:invarg.obj
 0002:0005af20       __invalid_parameter        300aef20 f   LIBCMTD:invarg.obj
 0002:0005af90       __invoke_watson            300aef90 f   LIBCMTD:invarg.obj
 0002:0005afd0       __call_reportfault         300aefd0 f   LIBCMTD:invarg.obj
 0002:0005b180       __set_invalid_parameter_handler 300af180 f   LIBCMTD:invarg.obj
 0002:0005b1d0       __get_invalid_parameter_handler 300af1d0 f   LIBCMTD:invarg.obj
 0002:0005b210       ?_invalid_parameter@@YAXPBG00II@Z 300af210 f   LIBCMTD:invarg.obj
 0002:0005b240       ?_invoke_watson@@YAXPBG00II@Z 300af240 f   LIBCMTD:invarg.obj
 0002:0005b270       __dosmaperr                300af270 f   LIBCMTD:dosmap.obj
 0002:0005b2b0       __get_errno_from_oserr     300af2b0 f   LIBCMTD:dosmap.obj
 0002:0005b350       __set_errno                300af350 f   LIBCMTD:dosmap.obj
 0002:0005b390       __get_errno                300af390 f   LIBCMTD:dosmap.obj
 0002:0005b430       __set_doserrno             300af430 f   LIBCMTD:dosmap.obj
 0002:0005b470       __get_doserrno             300af470 f   LIBCMTD:dosmap.obj
 0002:0005b510       __errno                    300af510 f   LIBCMTD:dosmap.obj
 0002:0005b540       ___doserrno                300af540 f   LIBCMTD:dosmap.obj
 0002:0005b570       __CrtSetReportHookW2       300af570 f   LIBCMTD:dbgrptw.obj
 0002:0005b960       __CrtDbgReportW            300af960 f   LIBCMTD:dbgrptw.obj
 0002:0005b9b0       __CrtDbgReportWV           300af9b0 f i LIBCMTD:dbgrptw.obj
 0002:0005b9e0       ___crtMessageWindowW       300af9e0 f   LIBCMTD:dbgrptw.obj
 0002:0005bee0       __invoke_watson_if_oneof   300afee0 f i LIBCMTD:dbgrptw.obj
 0002:0005bf30       ?_CrtDbgReportW@@YAHHPBGH00ZZ 300aff30 f   LIBCMTD:dbgrptw.obj
 0002:0005bf80       ___updatetmbcinfo          300aff80 f   LIBCMTD:mbctype.obj
 0002:0005c0d0       __setmbcp                  300b00d0 f   LIBCMTD:mbctype.obj
 0002:0005c560       __setmbcp_nolock           300b0560 f   LIBCMTD:mbctype.obj
 0002:0005cf40       __getmbcp                  300b0f40 f   LIBCMTD:mbctype.obj
 0002:0005cfd0       ___initmbctable            300b0fd0 f   LIBCMTD:mbctype.obj
 0002:0005d000       ___addlocaleref            300b1000 f   LIBCMTD:localref.obj
 0002:0005d170       ___removelocaleref         300b1170 f   LIBCMTD:localref.obj
 0002:0005d2f0       ___freetlocinfo            300b12f0 f   LIBCMTD:localref.obj
 0002:0005d690       __updatetlocinfoEx_nolock  300b1690 f   LIBCMTD:localref.obj
 0002:0005d730       ___updatetlocinfo          300b1730 f   LIBCMTD:localref.obj
 0002:0005d830       __encoded_null             300b1830 f   LIBCMTD:tidtable.obj
 0002:0005d850       ___crtTlsAlloc@4           300b1850 f   LIBCMTD:tidtable.obj
 0002:0005d870       ___fls_getvalue@4          300b1870 f   LIBCMTD:tidtable.obj
 0002:0005d8a0       ___get_flsindex            300b18a0 f   LIBCMTD:tidtable.obj
 0002:0005d8b0       ___set_flsgetvalue         300b18b0 f   LIBCMTD:tidtable.obj
 0002:0005d910       ___fls_setvalue@8          300b1910 f   LIBCMTD:tidtable.obj
 0002:0005d940       __mtinit                   300b1940 f   LIBCMTD:tidtable.obj
 0002:0005dbc0       __mtterm                   300b1bc0 f   LIBCMTD:tidtable.obj
 0002:0005dc30       __initptd                  300b1c30 f   LIBCMTD:tidtable.obj
 0002:0005dda0       __getptd_noexit            300b1da0 f   LIBCMTD:tidtable.obj
 0002:0005de90       __getptd                   300b1e90 f   LIBCMTD:tidtable.obj
 0002:0005dec0       __freefls@4                300b1ec0 f   LIBCMTD:tidtable.obj
 0002:0005e150       __freeptd                  300b2150 f   LIBCMTD:tidtable.obj
 0002:0005e1f0       ___threadid                300b21f0 f   LIBCMTD:tidtable.obj
 0002:0005e200       ___threadhandle            300b2200 f   LIBCMTD:tidtable.obj
 0002:0005e210       ___strgtold12_l            300b2210 f   LIBCMTD:_strgtold_.obj
 0002:0005ef70       ___multtenpow12            300b2f70 f i LIBCMTD:_strgtold_.obj
 0002:0005f080       ___ld12mul                 300b3080 f i LIBCMTD:_strgtold_.obj
 0002:0005f580       ___addl                    300b3580 f i LIBCMTD:_strgtold_.obj
 0002:0005f5d0       ___shl_12                  300b35d0 f i LIBCMTD:_strgtold_.obj
 0002:0005f650       ___shr_12                  300b3650 f i LIBCMTD:_strgtold_.obj
 0002:0005f6d0       ___STRINGTOLD_L            300b36d0 f   LIBCMTD:_strgtold_.obj
 0002:0005f760       __handle_qnan1             300b3760 f   LIBCMTD:_fpexcept_.obj
 0002:0005f7e0       __handle_qnan2             300b37e0 f   LIBCMTD:_fpexcept_.obj
 0002:0005f870       __except1                  300b3870 f   LIBCMTD:_fpexcept_.obj
 0002:0005f9b0       __except2                  300b39b0 f   LIBCMTD:_fpexcept_.obj
 0002:0005fb00       __raise_exc_ex             300b3b00 f   LIBCMTD:_fpexcept_.obj
 0002:00060180       __raise_exc                300b4180 f   LIBCMTD:_fpexcept_.obj
 0002:000601c0       __raise_excf               300b41c0 f   LIBCMTD:_fpexcept_.obj
 0002:00060200       __handle_exc               300b4200 f   LIBCMTD:_fpexcept_.obj
 0002:000605d0       __umatherr                 300b45d0 f   LIBCMTD:_fpexcept_.obj
 0002:000606a0       __set_errno_from_matherr   300b46a0 f   LIBCMTD:_fpexcept_.obj
 0002:00060750       __errcode                  300b4750 f   LIBCMTD:_fpexcept_.obj
 0002:000607e0       __set_exp                  300b47e0 f   LIBCMTD:_util_.obj
 0002:00060830       __get_exp                  300b4830 f   LIBCMTD:_util_.obj
 0002:00060870       __add_exp                  300b4870 f   LIBCMTD:_util_.obj
 0002:000608b0       __set_bexp                 300b48b0 f   LIBCMTD:_util_.obj
 0002:000608f0       __sptype                   300b48f0 f   LIBCMTD:_util_.obj
 0002:00060990       __decomp                   300b4990 f   LIBCMTD:_util_.obj
 0002:00060b00       __statfp                   300b4b00 f   LIBCMTD:_fpctrl_.obj
 0002:00060b20       __clrfp                    300b4b20 f   LIBCMTD:_fpctrl_.obj
 0002:00060b40       __ctrlfp                   300b4b40 f   LIBCMTD:_fpctrl_.obj
 0002:00060b80       __set_statfp               300b4b80 f   LIBCMTD:_fpctrl_.obj
 0002:00060c00       ___get_fpsr_sse2           300b4c00 f   LIBCMTD:_fpctrl_.obj
 0002:00060c30       ___set_fpsr_sse2           300b4c30 f   LIBCMTD:_fpctrl_.obj
 0002:00060d40       ___fclrf_sse2              300b4d40 f   LIBCMTD:_fpctrl_.obj
 0002:00060d70       ___statfp_sse2             300b4d70 f   LIBCMTD:_fpctrl_.obj
 0002:00060db0       ___clrfp_sse2              300b4db0 f   LIBCMTD:_fpctrl_.obj
 0002:00060e00       ___ctrlfp_sse2             300b4e00 f   LIBCMTD:_fpctrl_.obj
 0002:00060e70       ___set_statfp_sse2         300b4e70 f   LIBCMTD:_fpctrl_.obj
 0002:00060eb0       __VEC_memzero              300b4eb0 f   LIBCMTD:p4_memset.obj
 0002:00060fa0       ___sse2_available_init     300b4fa0 f   LIBCMTD:cpu_disp.obj
 0002:00060fc0       _strtol                    300b4fc0 f   LIBCMTD:strtol.obj
 0002:00061640       __strtol_l                 300b5640 f   LIBCMTD:strtol.obj
 0002:00061670       _strtoul                   300b5670 f   LIBCMTD:strtol.obj
 0002:000616d0       __strtoul_l                300b56d0 f   LIBCMTD:strtol.obj
 0002:00061700       __strtoi64                 300b5700 f   LIBCMTD:strtoq.obj
 0002:00061dd0       __strtoi64_l               300b5dd0 f   LIBCMTD:strtoq.obj
 0002:00061e00       __strtoui64                300b5e00 f   LIBCMTD:strtoq.obj
 0002:00061e60       __strtoui64_l              300b5e60 f   LIBCMTD:strtoq.obj
 0002:00061e90       __VEC_memcpy               300b5e90 f   LIBCMTD:p4_memcpy.obj
 0002:00061fe0       __flsbuf                   300b5fe0 f   LIBCMTD:_flsbuf.obj
 0002:00062350       __output_l                 300b6350 f   LIBCMTD:output.obj
 0002:00063cd0       _get_int_arg               300b7cd0 f i LIBCMTD:output.obj
 0002:00063d00       _get_int64_arg             300b7d00 f i LIBCMTD:output.obj
 0002:00063d30       _get_short_arg             300b7d30 f i LIBCMTD:output.obj
 0002:00063d60       __validate_param_reuseA    300b7d60 f   LIBCMTD:outputp.obj
 0002:00064070       __output_p_l               300b8070 f   LIBCMTD:outputp.obj
 0002:00068b70       _get_crtdouble_arg         300bcb70 f i LIBCMTD:outputp.obj
 0002:00068ba0       ___libm_setusermatherr     300bcba0 f   LIBCMTD:_libm_error_.obj
 0002:00068be0       ___libm_error_support      300bcbe0 f   LIBCMTD:_libm_error_.obj
 0002:000699e0       __floor_default            300bd9e0 f   LIBCMTD:_floor_.obj
 0002:00069b70       __CIacos_pentium4          300bdb70 f   LIBCMTD:_acos_pentium4_.obj
 0002:00069b88       __acos_pentium4            300bdb88     LIBCMTD:_acos_pentium4_.obj
 0002:0006a23c       __fFATN2                   300be23c     LIBCMTD:_87triga_.obj
 0002:0006a28c       __rtpiby2                  300be28c     LIBCMTD:_87triga_.obj
 0002:0006a300       __cintrindisp2             300be300 f   LIBCMTD:_87cdisp_.obj
 0002:0006a33e       __cintrindisp1             300be33e f   LIBCMTD:_87cdisp_.obj
 0002:0006a37b       __ctrandisp2               300be37b f   LIBCMTD:_87cdisp_.obj
 0002:0006a50a       __ctrandisp1               300be50a f   LIBCMTD:_87cdisp_.obj
 0002:0006a53d       __fload                    300be53d f   LIBCMTD:_87cdisp_.obj
 0002:0006a620       __CItan_pentium4           300be620 f   LIBCMTD:_tan_pentium4_.obj
 0002:0006a638       __tan_pentium4             300be638     LIBCMTD:_tan_pentium4_.obj
 0002:0006a920       __cinit                    300be920 f   LIBCMTD:crt0dat.obj
 0002:0006a9f0       _exit                      300be9f0 f   LIBCMTD:crt0dat.obj
 0002:0006aa10       __exit                     300bea10 f   LIBCMTD:crt0dat.obj
 0002:0006aa30       __cexit                    300bea30 f   LIBCMTD:crt0dat.obj
 0002:0006aa50       __c_exit                   300bea50 f   LIBCMTD:crt0dat.obj
 0002:0006aa70       __amsg_exit                300bea70 f   LIBCMTD:crt0dat.obj
 0002:0006aaa0       ___freeCrtMemory           300beaa0 f   LIBCMTD:crt0dat.obj
 0002:0006aeb0       ___crtCorExitProcess       300beeb0 f   LIBCMTD:crt0dat.obj
 0002:0006af00       ___crtExitProcess          300bef00 f   LIBCMTD:crt0dat.obj
 0002:0006af30       __lockexit                 300bef30 f   LIBCMTD:crt0dat.obj
 0002:0006af50       __unlockexit               300bef50 f   LIBCMTD:crt0dat.obj
 0002:0006af70       __init_pointers            300bef70 f   LIBCMTD:crt0dat.obj
 0002:0006b020       __initterm_e               300bf020 f   LIBCMTD:crt0dat.obj
 0002:0006b070       __get_wpgmptr              300bf070 f   LIBCMTD:crt0dat.obj
 0002:0006b1a0       __get_pgmptr               300bf1a0 f   LIBCMTD:crt0dat.obj
 0002:0006b2d0       __initp_misc_winsig        300bf2d0 f   LIBCMTD:winsig.obj
 0002:0006b310       _signal                    300bf310 f   LIBCMTD:winsig.obj
 0002:0006b8c0       _raise                     300bf8c0 f   LIBCMTD:winsig.obj
 0002:0006bd10       ___get_sigabrt             300bfd10 f   LIBCMTD:winsig.obj
 0002:0006bd30       ___fpecode                 300bfd30 f   LIBCMTD:winsig.obj
 0002:0006bd50       ___pxcptinfoptrs           300bfd50 f   LIBCMTD:winsig.obj
 0002:0006bd70       ___crtMessageBoxW          300bfd70 f   LIBCMTD:crtmboxw.obj
 0002:0006c020       __itow_s                   300c0020 f   LIBCMTD:xtows.obj
 0002:0006c4f0       __ltow_s                   300c04f0 f   LIBCMTD:xtows.obj
 0002:0006c540       __ultow_s                  300c0540 f   LIBCMTD:xtows.obj
 0002:0006c570       __i64tow_s                 300c0570 f   LIBCMTD:xtows.obj
 0002:0006ca90       __ui64tow_s                300c0a90 f   LIBCMTD:xtows.obj
 0002:0006cac0       _wcsncat_s                 300c0ac0 f   LIBCMTD:wcsncat_s.obj
 0002:0006d0a0       _wcsncpy_s                 300c10a0 f   LIBCMTD:wcsncpy_s.obj
 0002:0006d5b0       _wcscat_s                  300c15b0 f   LIBCMTD:wcscat_s.obj
 0002:0006da90       _wcscpy_s                  300c1a90 f   LIBCMTD:wcscpy_s.obj
 0002:0006de30       _fflush                    300c1e30 f   LIBCMTD:fflush.obj
 0002:0006def0       __fflush_nolock            300c1ef0 f   LIBCMTD:fflush.obj
 0002:0006df60       __flush                    300c1f60 f   LIBCMTD:fflush.obj
 0002:0006e050       __flushall                 300c2050 f   LIBCMTD:fflush.obj
 0002:0006e280       _fwprintf                  300c2280 f   LIBCMTD:fwprintf.obj
 0002:0006e460       __fwprintf_l               300c2460 f   LIBCMTD:fwprintf.obj
 0002:0006e4a0       __fwprintf_s_l             300c24a0 f   LIBCMTD:fwprintf.obj
 0002:0006e4e0       _fwprintf_s                300c24e0 f   LIBCMTD:fwprintf.obj
 0002:0006e510       __fwprintf_p_l             300c2510 f   LIBCMTD:fwprintf.obj
 0002:0006e550       __fwprintf_p               300c2550 f   LIBCMTD:fwprintf.obj
 0002:0006e580       _setvbuf                   300c2580 f   LIBCMTD:setvbuf.obj
 0002:0006e910       ___iob_func                300c2910 f   LIBCMTD:_file.obj
 0002:0006e920       ___initstdio               300c2920 f   LIBCMTD:_file.obj
 0002:0006eac0       ___endstdio                300c2ac0 f   LIBCMTD:_file.obj
 0002:0006eb00       __lock_file                300c2b00 f   LIBCMTD:_file.obj
 0002:0006eb70       __lock_file2               300c2b70 f   LIBCMTD:_file.obj
 0002:0006ebc0       __unlock_file              300c2bc0 f   LIBCMTD:_file.obj
 0002:0006ec30       __unlock_file2             300c2c30 f   LIBCMTD:_file.obj
 0002:0006ec80       _abort                     300c2c80 f   LIBCMTD:abort.obj
 0002:0006ed00       __set_abort_behavior       300c2d00 f   LIBCMTD:abort.obj
 0002:0006ed40       _wcslen                    300c2d40 f   LIBCMTD:wcslen.obj
 0002:0006ed80       __set_error_mode           300c2d80 f   LIBCMTD:errmode.obj
 0002:0006ee70       ___set_app_type            300c2e70 f   LIBCMTD:errmode.obj
 0002:0006ee90       __vswprintf_helper         300c2e90 f   LIBCMTD:vswprnc.obj
 0002:0006f180       __vswprintf_c              300c3180 f   LIBCMTD:vswprnc.obj
 0002:0006f1e0       __vswprintf_c_l            300c31e0 f   LIBCMTD:vswprnc.obj
 0002:0006f240       __vswprintf_s_l            300c3240 f   LIBCMTD:vswprnc.obj
 0002:0006f540       _vswprintf_s               300c3540 f   LIBCMTD:vswprnc.obj
 0002:0006f570       __vsnwprintf_s_l           300c3570 f   LIBCMTD:vswprnc.obj
 0002:0006fa10       __vsnwprintf_s             300c3a10 f   LIBCMTD:vswprnc.obj
 0002:0006fa40       __vswprintf_p              300c3a40 f   LIBCMTD:vswprnc.obj
 0002:0006faa0       __vswprintf_p_l            300c3aa0 f   LIBCMTD:vswprnc.obj
 0002:0006fb00       ___crtLCMapStringA         300c3b00 f   LIBCMTD:a_map.obj
 0002:0006feb0       __MarkAllocaS              300c3eb0 f i LIBCMTD:a_map.obj
 0002:0006fee0       __freea                    300c3ee0 f i LIBCMTD:a_map.obj
 0002:0006ffc0       __isleadbyte_l             300c3fc0 f i LIBCMTD:_wctype.obj
 0002:00070020       _isleadbyte                300c4020 f i LIBCMTD:_wctype.obj
 0002:00070040       __iswalpha_l               300c4040 f i LIBCMTD:_wctype.obj
 0002:00070060       _iswalpha                  300c4060 f i LIBCMTD:_wctype.obj
 0002:00070080       __iswupper_l               300c4080 f i LIBCMTD:_wctype.obj
 0002:000700a0       _iswupper                  300c40a0 f i LIBCMTD:_wctype.obj
 0002:000700c0       __iswlower_l               300c40c0 f i LIBCMTD:_wctype.obj
 0002:000700e0       _iswlower                  300c40e0 f i LIBCMTD:_wctype.obj
 0002:00070100       __iswdigit_l               300c4100 f i LIBCMTD:_wctype.obj
 0002:00070120       _iswdigit                  300c4120 f i LIBCMTD:_wctype.obj
 0002:00070140       __iswxdigit_l              300c4140 f i LIBCMTD:_wctype.obj
 0002:00070160       _iswxdigit                 300c4160 f i LIBCMTD:_wctype.obj
 0002:00070180       __iswspace_l               300c4180 f i LIBCMTD:_wctype.obj
 0002:000701a0       _iswspace                  300c41a0 f i LIBCMTD:_wctype.obj
 0002:000701c0       __iswpunct_l               300c41c0 f i LIBCMTD:_wctype.obj
 0002:000701e0       _iswpunct                  300c41e0 f i LIBCMTD:_wctype.obj
 0002:00070200       __iswalnum_l               300c4200 f i LIBCMTD:_wctype.obj
 0002:00070220       _iswalnum                  300c4220 f i LIBCMTD:_wctype.obj
 0002:00070240       __iswprint_l               300c4240 f i LIBCMTD:_wctype.obj
 0002:00070260       _iswprint                  300c4260 f i LIBCMTD:_wctype.obj
 0002:00070280       __iswgraph_l               300c4280 f i LIBCMTD:_wctype.obj
 0002:000702a0       _iswgraph                  300c42a0 f i LIBCMTD:_wctype.obj
 0002:000702c0       __iswcntrl_l               300c42c0 f i LIBCMTD:_wctype.obj
 0002:000702e0       _iswcntrl                  300c42e0 f i LIBCMTD:_wctype.obj
 0002:00070300       _iswascii                  300c4300 f i LIBCMTD:_wctype.obj
 0002:00070320       __iswcsym_l                300c4320 f i LIBCMTD:_wctype.obj
 0002:00070370       ___iswcsym                 300c4370 f i LIBCMTD:_wctype.obj
 0002:000703c0       __iswcsymf_l               300c43c0 f i LIBCMTD:_wctype.obj
 0002:00070410       ___iswcsymf                300c4410 f i LIBCMTD:_wctype.obj
 0002:00070460       ____setlc_active_func      300c4460 f   LIBCMTD:setlocal.obj
 0002:00070470       ____unguarded_readlc_active_add_func 300c4470 f   LIBCMTD:setlocal.obj
 0002:00070480       __configthreadlocale       300c4480 f   LIBCMTD:setlocal.obj
 0002:000705d0       __locterm                  300c45d0 f   LIBCMTD:setlocal.obj
 0002:00070690       __free_locale              300c4690 f   LIBCMTD:setlocal.obj
 0002:00070820       ___free_locale             300c4820 f   LIBCMTD:setlocal.obj
 0002:00070840       __create_locale            300c4840 f   LIBCMTD:setlocal.obj
 0002:00070b00       ___create_locale           300c4b00 f   LIBCMTD:setlocal.obj
 0002:00070b20       __get_current_locale       300c4b20 f   LIBCMTD:setlocal.obj
 0002:00070c80       ___get_current_locale      300c4c80 f   LIBCMTD:setlocal.obj
 0002:00070c90       _setlocale                 300c4c90 f   LIBCMTD:setlocal.obj
 0002:00071ef0       __expandlocale             300c5ef0 f   LIBCMTD:setlocal.obj
 0002:00072240       ___init_dummy              300c6240 f   LIBCMTD:setlocal.obj
 0002:00072250       __strcats                  300c6250 f   LIBCMTD:setlocal.obj
 0002:000722f0       ___lc_strtolc              300c62f0 f   LIBCMTD:setlocal.obj
 0002:00072570       ___lc_lctostr              300c6570 f   LIBCMTD:setlocal.obj
 0002:00072630       __malloc_dbg               300c6630 f   LIBCMTD:dbgheap.obj
 0002:00072670       __nh_malloc                300c6670 f   LIBCMTD:dbgheap.obj
 0002:000726a0       __nh_malloc_dbg            300c66a0 f   LIBCMTD:dbgheap.obj
 0002:000727a0       __heap_alloc               300c67a0 f   LIBCMTD:dbgheap.obj
 0002:00072c70       __heap_alloc_dbg           300c6c70 f   LIBCMTD:dbgheap.obj
 0002:00072ce0       __calloc_dbg_impl          300c6ce0 f   LIBCMTD:dbgheap.obj
 0002:00072d80       __calloc_dbg               300c6d80 f   LIBCMTD:dbgheap.obj
 0002:00072df0       __recalloc                 300c6df0 f   LIBCMTD:dbgheap.obj
 0002:00072e30       __realloc_dbg              300c6e30 f   LIBCMTD:dbgheap.obj
 0002:00073670       __recalloc_dbg             300c7670 f   LIBCMTD:dbgheap.obj
 0002:00073750       __expand                   300c7750 f   LIBCMTD:dbgheap.obj
 0002:00073780       __expand_dbg               300c7780 f   LIBCMTD:dbgheap.obj
 0002:000738d0       __free_nolock              300c78d0 f   LIBCMTD:dbgheap.obj
 0002:000738f0       __free_dbg                 300c78f0 f   LIBCMTD:dbgheap.obj
 0002:00073990       __free_dbg_nolock          300c7990 f   LIBCMTD:dbgheap.obj
 0002:00073fb0       __msize                    300c7fb0 f   LIBCMTD:dbgheap.obj
 0002:00073fd0       __msize_dbg                300c7fd0 f   LIBCMTD:dbgheap.obj
 0002:00074230       __CrtSetBreakAlloc         300c8230 f   LIBCMTD:dbgheap.obj
 0002:00074260       __CrtSetDbgBlockType       300c8260 f   LIBCMTD:dbgheap.obj
 0002:00074380       __CrtSetAllocHook          300c8380 f   LIBCMTD:dbgheap.obj
 0002:000743b0       __CrtGetAllocHook          300c83b0 f   LIBCMTD:dbgheap.obj
 0002:00074410       __CrtCheckMemory           300c8410 f   LIBCMTD:dbgheap.obj
 0002:00074980       __CrtSetDbgFlag            300c8980 f   LIBCMTD:dbgheap.obj
 0002:00074b20       __CrtDoForAllClientObjects 300c8b20 f   LIBCMTD:dbgheap.obj
 0002:00074c90       __CrtIsValidPointer        300c8c90 f   LIBCMTD:dbgheap.obj
 0002:00074cb0       __CrtIsValidHeapPointer    300c8cb0 f   LIBCMTD:dbgheap.obj
 0002:00074d10       __CrtIsMemoryBlock         300c8d10 f   LIBCMTD:dbgheap.obj
 0002:00074ee0       __CrtReportBlockType       300c8ee0 f   LIBCMTD:dbgheap.obj
 0002:00074f20       __CrtSetDumpClient         300c8f20 f   LIBCMTD:dbgheap.obj
 0002:00074f50       __CrtGetDumpClient         300c8f50 f   LIBCMTD:dbgheap.obj
 0002:00074f60       __CrtMemCheckpoint         300c8f60 f   LIBCMTD:dbgheap.obj
 0002:00075200       __CrtMemDifference         300c9200 f   LIBCMTD:dbgheap.obj
 0002:000754a0       __CrtMemDumpAllObjectsSince 300c94a0 f   LIBCMTD:dbgheap.obj
 0002:00075ad0       __CrtDumpMemoryLeaks       300c9ad0 f   LIBCMTD:dbgheap.obj
 0002:00075b70       __CrtMemDumpStatistics     300c9b70 f   LIBCMTD:dbgheap.obj
 0002:00075cc0       __aligned_malloc           300c9cc0 f   LIBCMTD:dbgheap.obj
 0002:00075cf0       __aligned_malloc_dbg       300c9cf0 f   LIBCMTD:dbgheap.obj
 0002:00075d20       __aligned_realloc          300c9d20 f   LIBCMTD:dbgheap.obj
 0002:00075d50       __aligned_recalloc         300c9d50 f   LIBCMTD:dbgheap.obj
 0002:00075d80       __aligned_realloc_dbg      300c9d80 f   LIBCMTD:dbgheap.obj
 0002:00075db0       __aligned_recalloc_dbg     300c9db0 f   LIBCMTD:dbgheap.obj
 0002:00075df0       __aligned_offset_malloc    300c9df0 f   LIBCMTD:dbgheap.obj
 0002:00075e20       __aligned_offset_malloc_dbg 300c9e20 f   LIBCMTD:dbgheap.obj
 0002:00076050       __aligned_offset_realloc   300ca050 f   LIBCMTD:dbgheap.obj
 0002:00076080       __aligned_offset_recalloc  300ca080 f   LIBCMTD:dbgheap.obj
 0002:000760b0       __aligned_offset_realloc_dbg 300ca0b0 f   LIBCMTD:dbgheap.obj
 0002:00076460       __aligned_offset_recalloc_dbg 300ca460 f   LIBCMTD:dbgheap.obj
 0002:00076550       __aligned_free             300ca550 f   LIBCMTD:dbgheap.obj
 0002:00076570       __aligned_free_dbg         300ca570 f   LIBCMTD:dbgheap.obj
 0002:00076650       __CrtSetDebugFillThreshold 300ca650 f   LIBCMTD:dbgheap.obj
 0002:00076680       __CrtSetCheckCount         300ca680 f   LIBCMTD:dbgheap.obj
 0002:000766a0       __CrtGetCheckCount         300ca6a0 f   LIBCMTD:dbgheap.obj
 0002:000766b0       __aligned_msize            300ca6b0 f   LIBCMTD:dbgheap.obj
 0002:000766e0       __aligned_msize_dbg        300ca6e0 f   LIBCMTD:dbgheap.obj
 0002:00076830       __ioinit                   300ca830 f   LIBCMTD:ioinit.obj
 0002:00076d50       __ioterm                   300cad50 f   LIBCMTD:ioinit.obj
 0002:00076e20       __setenvp                  300cae20 f   LIBCMTD:stdenvp.obj
 0002:00077030       __setargv                  300cb030 f   LIBCMTD:stdargv.obj
 0002:00077190       __set_pgmptr               300cb190 f i LIBCMTD:stdargv.obj
 0002:000775f0       ___crtGetEnvironmentStringsA 300cb5f0 f   LIBCMTD:a_env.obj
 0002:00077730       __RTC_Initialize           300cb730 f   LIBCMTD:_initsect_.obj
 0002:00077760       __RTC_Terminate            300cb760 f   LIBCMTD:_initsect_.obj
 0002:00077790       __heap_init                300cb790 f   LIBCMTD:heapinit.obj
 0002:000777e0       __heap_term                300cb7e0 f   LIBCMTD:heapinit.obj
 0002:00077810       __get_heap_handle          300cb810 f   LIBCMTD:heapinit.obj
 0002:00077850       __except_handler4          300cb850 f   LIBCMTD:chandler4.obj
 0002:00077b00       ___security_init_cookie    300cbb00 f   LIBCMTD:gs_support.obj
 0002:00077c20       ___CppXcptFilter           300cbc20 f   LIBCMTD:winxfltr.obj
 0002:00077c50       __XcptFilter               300cbc50 f   LIBCMTD:winxfltr.obj
 0002:00077f40       _DllMain@12                300cbf40 f   LIBCMTD:dllmain.obj
 0002:00077f60       __controlfp_s              300cbf60 f   LIBCMTD:_contrlfp_.obj
 0002:00078080       __isalpha_l                300cc080 f i LIBCMTD:_ctype.obj
 0002:00078130       _isalpha                   300cc130 f i LIBCMTD:_ctype.obj
 0002:00078170       __isupper_l                300cc170 f i LIBCMTD:_ctype.obj
 0002:00078210       _isupper                   300cc210 f i LIBCMTD:_ctype.obj
 0002:00078250       __islower_l                300cc250 f i LIBCMTD:_ctype.obj
 0002:000782f0       _islower                   300cc2f0 f i LIBCMTD:_ctype.obj
 0002:00078330       __isdigit_l                300cc330 f i LIBCMTD:_ctype.obj
 0002:000783d0       _isdigit                   300cc3d0 f i LIBCMTD:_ctype.obj
 0002:00078410       __isxdigit_l               300cc410 f i LIBCMTD:_ctype.obj
 0002:000784c0       _isxdigit                  300cc4c0 f i LIBCMTD:_ctype.obj
 0002:00078500       __isspace_l                300cc500 f i LIBCMTD:_ctype.obj
 0002:000785a0       _isspace                   300cc5a0 f i LIBCMTD:_ctype.obj
 0002:000785e0       __ispunct_l                300cc5e0 f i LIBCMTD:_ctype.obj
 0002:00078680       _ispunct                   300cc680 f i LIBCMTD:_ctype.obj
 0002:000786c0       __isalnum_l                300cc6c0 f i LIBCMTD:_ctype.obj
 0002:00078770       _isalnum                   300cc770 f i LIBCMTD:_ctype.obj
 0002:000787b0       __isprint_l                300cc7b0 f i LIBCMTD:_ctype.obj
 0002:00078860       _isprint                   300cc860 f i LIBCMTD:_ctype.obj
 0002:000788a0       __isgraph_l                300cc8a0 f i LIBCMTD:_ctype.obj
 0002:00078950       _isgraph                   300cc950 f i LIBCMTD:_ctype.obj
 0002:00078990       __iscntrl_l                300cc990 f i LIBCMTD:_ctype.obj
 0002:00078a30       _iscntrl                   300cca30 f i LIBCMTD:_ctype.obj
 0002:00078a70       ___isascii                 300cca70 f i LIBCMTD:_ctype.obj
 0002:00078a90       ___toascii                 300cca90 f i LIBCMTD:_ctype.obj
 0002:00078aa0       __iscsymf_l                300ccaa0 f i LIBCMTD:_ctype.obj
 0002:00078af0       ___iscsymf                 300ccaf0 f i LIBCMTD:_ctype.obj
 0002:00078b30       __iscsym_l                 300ccb30 f i LIBCMTD:_ctype.obj
 0002:00078b80       ___iscsym                  300ccb80 f i LIBCMTD:_ctype.obj
 0002:00078bd0       __atodbl_l                 300ccbd0 f   LIBCMTD:atodbl.obj
 0002:00078d20       __atodbl                   300ccd20 f   LIBCMTD:atodbl.obj
 0002:00078d40       __atoldbl_l                300ccd40 f   LIBCMTD:atodbl.obj
 0002:00078e90       __atoldbl                  300cce90 f   LIBCMTD:atodbl.obj
 0002:00078eb0       __atoflt_l                 300cceb0 f   LIBCMTD:atodbl.obj
 0002:00079000       __atoflt                   300cd000 f   LIBCMTD:atodbl.obj
 0002:00079020       __fptostr                  300cd020 f   LIBCMTD:_fptostr.obj
 0002:00079370       __fltout2                  300cd370 f   LIBCMTD:_cfout_.obj
 0002:00079450       ___dtold                   300cd450 f   LIBCMTD:_cfout_.obj
 0002:00079600       __set_output_format        300cd600 f   LIBCMTD:outputformat.obj
 0002:000796a0       __get_output_format        300cd6a0 f   LIBCMTD:outputformat.obj
 0002:000796b0       _strcpy_s                  300cd6b0 f   LIBCMTD:strcpy_s.obj
 0002:00079a40       __allrem                   300cda40 f   LIBCMTD:llrem.obj
 0002:00079b20       __alldiv                   300cdb20 f   LIBCMTD:lldiv.obj
 0002:00079c00       __allshl                   300cdc00 f   LIBCMTD:llshl.obj
 0002:00079c30       __aullshr                  300cdc30 f   LIBCMTD:ullshr.obj
 0002:00079c60       _strrchr                   300cdc60 f   LIBCMTD:strrchr.obj
 0002:00079ca0       __fptrap                   300cdca0 f   LIBCMTD:crt0fp.obj
 0002:00079cc0       __CrtDefaultAllocHook      300cdcc0 f   LIBCMTD:dbghook.obj
 0002:00079cd0       __crt_debugger_hook        300cdcd0 f   LIBCMTD:dbghook.obj
 0002:00079cf0       __87except                 300cdcf0 f   LIBCMTD:_87except_.obj
 0002:00079f10       __ld12tod                  300cdf10 f   LIBCMTD:_intrncvt_.obj
 0002:00079f40       __ld12cvt                  300cdf40 f i LIBCMTD:_intrncvt_.obj
 0002:0007a240       __RoundMan                 300ce240 f i LIBCMTD:_intrncvt_.obj
 0002:0007a350       __ZeroTail                 300ce350 f i LIBCMTD:_intrncvt_.obj
 0002:0007a400       __IncMan                   300ce400 f i LIBCMTD:_intrncvt_.obj
 0002:0007a4e0       __CopyMan                  300ce4e0 f i LIBCMTD:_intrncvt_.obj
 0002:0007a550       __FillZeroMan              300ce550 f i LIBCMTD:_intrncvt_.obj
 0002:0007a590       __IsZeroMan                300ce590 f i LIBCMTD:_intrncvt_.obj
 0002:0007a5e0       __ShrMan                   300ce5e0 f i LIBCMTD:_intrncvt_.obj
 0002:0007a710       __ld12tof                  300ce710 f   LIBCMTD:_intrncvt_.obj
 0002:0007a740       __ld12told                 300ce740 f   LIBCMTD:_intrncvt_.obj
 0002:0007a840       ___crtGetStringTypeA       300ce840 f   LIBCMTD:a_str.obj
 0002:0007aa00       __mtinitlocks              300cea00 f   LIBCMTD:mlock.obj
 0002:0007aab0       __mtdeletelocks            300ceab0 f   LIBCMTD:mlock.obj
 0002:0007aba0       __mtinitlocknum            300ceba0 f   LIBCMTD:mlock.obj
 0002:0007ad40       __lock                     300ced40 f   LIBCMTD:mlock.obj
 0002:0007ad90       __unlock                   300ced90 f   LIBCMTD:mlock.obj
 0002:0007adb0       __lockerr_exit             300cedb0 f   LIBCMTD:mlock.obj
 0002:0007ade0       __CrtDbgBreak              300cede0 f   LIBCMTD:dbgrptt.obj
 0002:0007adf0       __CrtSetReportMode         300cedf0 f   LIBCMTD:dbgrptt.obj
 0002:0007af80       __CrtSetReportFile         300cef80 f   LIBCMTD:dbgrptt.obj
 0002:0007b0b0       __CrtSetReportHook         300cf0b0 f   LIBCMTD:dbgrptt.obj
 0002:0007b0e0       __CrtGetReportHook         300cf0e0 f   LIBCMTD:dbgrptt.obj
 0002:0007b0f0       __VCrtDbgReportA           300cf0f0 f   LIBCMTD:dbgrptt.obj
 0002:0007bb20       __VCrtDbgReportW           300cfb20 f   LIBCMTD:dbgrptt.obj
 0002:0007c6a0       __swprintf                 300d06a0 f   LIBCMTD:swprintf.obj
 0002:0007c920       ___swprintf_l              300d0920 f   LIBCMTD:swprintf.obj
 0002:0007c960       _swprintf_s                300d0960 f   LIBCMTD:swprintf.obj
 0002:0007c9a0       __snwprintf_s              300d09a0 f   LIBCMTD:swprintf.obj
 0002:0007c9e0       __swprintf_p               300d09e0 f   LIBCMTD:swprintf.obj
 0002:0007ca20       __swprintf_s_l             300d0a20 f   LIBCMTD:swprintf.obj
 0002:0007ca60       __snwprintf_s_l            300d0a60 f   LIBCMTD:swprintf.obj
 0002:0007caa0       __swprintf_p_l             300d0aa0 f   LIBCMTD:swprintf.obj
 0002:0007cae0       __scwprintf                300d0ae0 f   LIBCMTD:swprintf.obj
 0002:0007cb10       __scwprintf_p              300d0b10 f   LIBCMTD:swprintf.obj
 0002:0007cb40       __scwprintf_l              300d0b40 f   LIBCMTD:swprintf.obj
 0002:0007cb70       __scwprintf_p_l            300d0b70 f   LIBCMTD:swprintf.obj
 0002:0007cba0       _memcpy_s                  300d0ba0 f   LIBCMTD:memcpy_s.obj
 0002:0007cd90       ?_JumpToContinuation@@YGXPAXPAUEHRegistrationNode@@@Z 300d0d90 f   LIBCMTD:_trnsctrl_.obj
 0002:0007cde0       ?_CallMemberFunction0@@YGXPAX0@Z 300d0de0 f   LIBCMTD:_trnsctrl_.obj
 0002:0007cdf0       ?_CallMemberFunction1@@YGXPAX00@Z 300d0df0 f   LIBCMTD:_trnsctrl_.obj
 0002:0007ce00       ?_CallMemberFunction2@@YGXPAX00H@Z 300d0e00 f   LIBCMTD:_trnsctrl_.obj
 0002:0007ce10       ?_UnwindNestedFrames@@YGXPAUEHRegistrationNode@@PAUEHExceptionRecord@@@Z 300d0e10 f   LIBCMTD:_trnsctrl_.obj
 0002:0007ce80       ___CxxFrameHandler         300d0e80 f   LIBCMTD:_trnsctrl_.obj
 0002:0007ced0       ___CxxFrameHandler3        300d0ed0 f   LIBCMTD:_trnsctrl_.obj
 0002:0007cf20       ___CxxFrameHandler2        300d0f20 f   LIBCMTD:_trnsctrl_.obj
 0002:0007cf70       ___CxxLongjmpUnwind@4      300d0f70 f   LIBCMTD:_trnsctrl_.obj
 0002:0007cfb0       ?_CallCatchBlock2@@YAPAXPAUEHRegistrationNode@@PBU_s_FuncInfo@@PAXHK@Z 300d0fb0 f   LIBCMTD:_trnsctrl_.obj
 0002:0007d0a0       ?_CallSETranslator@@YAHPAUEHExceptionRecord@@PAUEHRegistrationNode@@PAX2PBU_s_FuncInfo@@H1@Z 300d10a0 f   LIBCMTD:_trnsctrl_.obj
 0002:0007d2b0       ?_GetRangeOfTrysToCheck@@YAPBU_s_TryBlockMapEntry@@PBU_s_FuncInfo@@HHPAI1@Z 300d12b0 f   LIBCMTD:_trnsctrl_.obj
 0002:0007d350       __CreateFrameInfo          300d1350 f   LIBCMTD:_trnsctrl_.obj
 0002:0007d390       __IsExceptionObjectToBeDestroyed 300d1390 f   LIBCMTD:_trnsctrl_.obj
 0002:0007d3d0       __FindAndUnlinkFrame       300d13d0 f   LIBCMTD:_trnsctrl_.obj
 0002:0007d440       ___init_time               300d1440 f   LIBCMTD:inittime.obj
 0002:0007e4b0       ___free_lc_time            300d24b0 f   LIBCMTD:inittime.obj
 0002:0007ecc0       ___init_numeric            300d2cc0 f   LIBCMTD:initnum.obj
 0002:0007f160       ___free_lconv_num          300d3160 f   LIBCMTD:initnum.obj
 0002:0007f240       ___init_monetary           300d3240 f   LIBCMTD:initmon.obj
 0002:0007f9a0       ___free_lconv_mon          300d39a0 f   LIBCMTD:initmon.obj
 0002:0007fbb0       _localeconv                300d3bb0 f   LIBCMTD:lconv.obj
 0002:0007fc10       ___pwctype_func            300d3c10 f   LIBCMTD:ctype.obj
 0002:0007fc20       ___pctype_func             300d3c20 f   LIBCMTD:ctype.obj
 0002:0007fc80       ___mtold12                 300d3c80 f   LIBCMTD:_mantold_.obj
 0002:0007fe30       ___add_12                  300d3e30 f i LIBCMTD:_mantold_.obj
 0002:0007ff10       __matherr                  300d3f10 f   LIBCMTD:_matherr_.obj
 0002:0007ff20       __allmul                   300d3f20 f   LIBCMTD:llmul.obj
 0002:0007ff70       __aullrem                  300d3f70 f   LIBCMTD:ullrem.obj
 0002:00080010       __aulldiv                  300d4010 f   LIBCMTD:ulldiv.obj
 0002:000800a0       __lseeki64                 300d40a0 f   LIBCMTD:lseeki64.obj
 0002:00080380       __lseeki64_nolock          300d4380 f   LIBCMTD:lseeki64.obj
 0002:000804b0       __write                    300d44b0 f   LIBCMTD:write.obj
 0002:00080760       __write_nolock             300d4760 f   LIBCMTD:write.obj
 0002:00081570       __getbuf                   300d5570 f   LIBCMTD:_getbuf.obj
 0002:00081670       __isatty                   300d5670 f   LIBCMTD:isatty.obj
 0002:00081760       __fileno                   300d5760 f   LIBCMTD:fileno.obj
 0002:000817f0       _printf                    300d57f0 f   LIBCMTD:printf.obj
 0002:00081980       __printf_l                 300d5980 f   LIBCMTD:printf.obj
 0002:000819b0       __printf_s_l               300d59b0 f   LIBCMTD:printf.obj
 0002:000819e0       _printf_s                  300d59e0 f   LIBCMTD:printf.obj
 0002:00081a10       __printf_p_l               300d5a10 f   LIBCMTD:printf.obj
 0002:00081a40       __printf_p                 300d5a40 f   LIBCMTD:printf.obj
 0002:00081a70       __set_printf_count_output  300d5a70 f   LIBCMTD:printf.obj
 0002:00081ad0       __get_printf_count_output  300d5ad0 f   LIBCMTD:printf.obj
 0002:00081b00       __wctomb_s_l               300d5b00 f   LIBCMTD:wctomb.obj
 0002:00081ec0       _wctomb_s                  300d5ec0 f   LIBCMTD:wctomb.obj
 0002:00081ef0       __wctomb_l                 300d5ef0 f   LIBCMTD:wctomb.obj
 0002:00081f90       _wctomb                    300d5f90 f   LIBCMTD:wctomb.obj
 0002:00081ff0       __output_s_l               300d5ff0 f   LIBCMTD:outputs.obj
 0002:00083b20       __frnd                     300d7b20 f   LIBCMTD:_frnd_.obj
 0002:00083b40       __onexit                   300d7b40 f   LIBCMTD:onexit.obj
 0002:00083d80       _atexit                    300d7d80 f   LIBCMTD:onexit.obj
 0002:00083db0       ___onexitinit              300d7db0 f   LIBCMTD:onexit.obj
 0002:00083e20       __ValidateImageBase        300d7e20 f   LIBCMTD:pesect.obj
 0002:00083ea0       __FindPESection            300d7ea0 f   LIBCMTD:pesect.obj
 0002:00083f40       __IsNonwritableInCurrentImage 300d7f40 f   LIBCMTD:pesect.obj
 0002:000840a0       __FF_MSGBANNER             300d80a0 f   LIBCMTD:crt0msg.obj
 0002:00084100       __GET_RTERRMSG             300d8100 f   LIBCMTD:crt0msg.obj
 0002:00084160       __NMSG_WRITE               300d8160 f   LIBCMTD:crt0msg.obj
 0002:00084560       __initp_eh_hooks           300d8560 f   LIBCMTD:hooks.obj
 0002:00084580       ?terminate@@YAXXZ          300d8580 f   LIBCMTD:hooks.obj
 0002:00084620       ?unexpected@@YAXXZ         300d8620 f   LIBCMTD:hooks.obj
 0002:00084650       ?_inconsistency@@YAXXZ     300d8650 f   LIBCMTD:hooks.obj
 0002:00084700       __initp_misc_rand_s        300d8700 f   LIBCMTD:rand_s.obj
 0002:00084720       _rand_s                    300d8720 f   LIBCMTD:rand_s.obj
 0002:000849c0       ___getlocaleinfo           300d89c0 f   LIBCMTD:inithelp.obj
 0002:00084d50       __initp_misc_purevirt      300d8d50 f   LIBCMTD:inithelp.obj
 0002:00084d70       __initp_heap_handler       300d8d70 f   LIBCMTD:handler.obj
 0002:00084d90       ?_set_new_handler@@YAP6AHI@ZP6AHI@Z@Z 300d8d90 f   LIBCMTD:handler.obj
 0002:00084de0       ?_set_new_handler@@YAP6AHI@ZH@Z 300d8de0 f   LIBCMTD:handler.obj
 0002:00084e30       ?_query_new_handler@@YAP6AHI@ZXZ 300d8e30 f   LIBCMTD:handler.obj
 0002:00084e50       __callnewh                 300d8e50 f   LIBCMTD:handler.obj
 0002:00084ea0       __commit                   300d8ea0 f   LIBCMTD:commit.obj
 0002:00085140       __stbuf                    300d9140 f   LIBCMTD:_sftbuf.obj
 0002:000852f0       __ftbuf                    300d92f0 f   LIBCMTD:_sftbuf.obj
 0002:000853a0       __woutput_l                300d93a0 f   LIBCMTD:woutput.obj
 0002:00086a30       _vfwprintf_helper          300daa30 f   LIBCMTD:vfwprint.obj
 0002:00086c10       __vfwprintf_l              300dac10 f   LIBCMTD:vfwprint.obj
 0002:00086c40       __vfwprintf_s_l            300dac40 f   LIBCMTD:vfwprint.obj
 0002:00086c70       __vfwprintf_p_l            300dac70 f   LIBCMTD:vfwprint.obj
 0002:00086ca0       _vfwprintf                 300daca0 f   LIBCMTD:vfwprint.obj
 0002:00086cd0       _vfwprintf_s               300dacd0 f   LIBCMTD:vfwprint.obj
 0002:00086d00       __vfwprintf_p              300dad00 f   LIBCMTD:vfwprint.obj
 0002:00086d30       __freebuf                  300dad30 f   LIBCMTD:_freebuf.obj
 0002:00086de0       __fcloseall                300dade0 f   LIBCMTD:closeall.obj
 0002:00086f60       __woutput_s_l              300daf60 f   LIBCMTD:woutputs.obj
 0002:00088790       __validate_param_reuseW    300dc790 f   LIBCMTD:woutputp.obj
 0002:00088aa0       __woutput_p_l              300dcaa0 f   LIBCMTD:woutputp.obj
 0002:0008d020       _malloc                    300e1020 f   LIBCMTD:dbgmalloc.obj
 0002:0008d060       _free                      300e1060 f   LIBCMTD:dbgfree.obj
 0002:0008d080       __iswctype_l               300e1080 f   LIBCMTD:iswctype.obj
 0002:0008d0a0       _iswctype                  300e10a0 f   LIBCMTD:iswctype.obj
 0002:0008d120       _is_wctype                 300e1120 f   LIBCMTD:iswctype.obj
 0002:0008d140       ___init_ctype              300e1140 f   LIBCMTD:initctyp.obj
 0002:0008d860       ____mb_cur_max_func        300e1860 f   LIBCMTD:initctyp.obj
 0002:0008d8c0       ____mb_cur_max_l_func      300e18c0 f   LIBCMTD:initctyp.obj
 0002:0008d900       ____lc_codepage_func       300e1900 f   LIBCMTD:initctyp.obj
 0002:0008d960       ____lc_collate_cp_func     300e1960 f   LIBCMTD:initctyp.obj
 0002:0008d9c0       ____lc_handle_func         300e19c0 f   LIBCMTD:initctyp.obj
 0002:0008da20       ___init_collate            300e1a20 f   LIBCMTD:initcoll.obj
 0002:0008da30       _strncpy_s                 300e1a30 f   LIBCMTD:strncpy_s.obj
 0002:0008df20       _strcspn                   300e1f20 f   LIBCMTD:strcspn.obj
 0002:0008df80       _strncmp                   300e1f80 f   LIBCMTD:strncmp.obj
 0002:0008e150       _strpbrk                   300e2150 f   LIBCMTD:strpbrk.obj
 0002:0008e1a0       _memcmp                    300e21a0 f   LIBCMTD:memcmp.obj
 0002:0008eec0       _strcat_s                  300e2ec0 f   LIBCMTD:strcat_s.obj
 0002:0008f390       ___get_qualified_locale    300e3390 f   LIBCMTD:getqloc.obj
 0002:00090560       __malloc_base              300e4560 f   LIBCMTD:malloc.obj
 0002:00090610       __heap_alloc_base          300e4610 f i LIBCMTD:malloc.obj
 0002:00090680       __CrtSetReportHook2        300e4680 f   LIBCMTD:dbgrpt.obj
 0002:00090a70       __CrtDbgReport             300e4a70 f   LIBCMTD:dbgrpt.obj
 0002:00090ac0       __CrtDbgReportV            300e4ac0 f i LIBCMTD:dbgrpt.obj
 0002:00090af0       ___crtMessageWindowA       300e4af0 f   LIBCMTD:dbgrpt.obj
 0002:00090ff0       __expand_base              300e4ff0 f   LIBCMTD:expand.obj
 0002:000911a0       __realloc_base             300e51a0 f   LIBCMTD:realloc.obj
 0002:000912e0       __free_base                300e52e0 f   LIBCMTD:free.obj
 0002:00091350       __heapchk                  300e5350 f   LIBCMTD:heapchk.obj
 0002:00091390       __heapset                  300e5390 f   LIBCMTD:heapchk.obj
 0002:000913a0       _sprintf                   300e53a0 f   LIBCMTD:sprintf.obj
 0002:000915a0       __sprintf_l                300e55a0 f   LIBCMTD:sprintf.obj
 0002:000915e0       _sprintf_s                 300e55e0 f   LIBCMTD:sprintf.obj
 0002:00091620       __sprintf_s_l              300e5620 f   LIBCMTD:sprintf.obj
 0002:00091660       __snprintf_s               300e5660 f   LIBCMTD:sprintf.obj
 0002:000916a0       __snprintf_s_l             300e56a0 f   LIBCMTD:sprintf.obj
 0002:000916e0       __sprintf_p                300e56e0 f   LIBCMTD:sprintf.obj
 0002:00091720       __sprintf_p_l              300e5720 f   LIBCMTD:sprintf.obj
 0002:00091760       __scprintf                 300e5760 f   LIBCMTD:sprintf.obj
 0002:00091790       __scprintf_p               300e5790 f   LIBCMTD:sprintf.obj
 0002:000917c0       __scprintf_l               300e57c0 f   LIBCMTD:sprintf.obj
 0002:000917f0       __scprintf_p_l             300e57f0 f   LIBCMTD:sprintf.obj
 0002:00091820       __ismbbkalnum_l            300e5820 f   LIBCMTD:ismbbyte.obj
 0002:00091850       __ismbbkalnum              300e5850 f   LIBCMTD:ismbbyte.obj
 0002:00091870       __ismbbkprint_l            300e5870 f   LIBCMTD:ismbbyte.obj
 0002:000918a0       __ismbbkprint              300e58a0 f   LIBCMTD:ismbbyte.obj
 0002:000918c0       __ismbbkpunct_l            300e58c0 f   LIBCMTD:ismbbyte.obj
 0002:000918f0       __ismbbkpunct              300e58f0 f   LIBCMTD:ismbbyte.obj
 0002:00091910       __ismbbalnum_l             300e5910 f   LIBCMTD:ismbbyte.obj
 0002:00091940       __ismbbalnum               300e5940 f   LIBCMTD:ismbbyte.obj
 0002:00091970       __ismbbalpha_l             300e5970 f   LIBCMTD:ismbbyte.obj
 0002:000919a0       __ismbbalpha               300e59a0 f   LIBCMTD:ismbbyte.obj
 0002:000919d0       __ismbbgraph_l             300e59d0 f   LIBCMTD:ismbbyte.obj
 0002:00091a00       __ismbbgraph               300e5a00 f   LIBCMTD:ismbbyte.obj
 0002:00091a30       __ismbbprint_l             300e5a30 f   LIBCMTD:ismbbyte.obj
 0002:00091a60       __ismbbprint               300e5a60 f   LIBCMTD:ismbbyte.obj
 0002:00091a90       __ismbbpunct_l             300e5a90 f   LIBCMTD:ismbbyte.obj
 0002:00091ac0       __ismbbpunct               300e5ac0 f   LIBCMTD:ismbbyte.obj
 0002:00091ae0       __ismbblead_l              300e5ae0 f   LIBCMTD:ismbbyte.obj
 0002:00091b10       __ismbblead                300e5b10 f   LIBCMTD:ismbbyte.obj
 0002:00091b30       __ismbbtrail_l             300e5b30 f   LIBCMTD:ismbbyte.obj
 0002:00091b60       __ismbbtrail               300e5b60 f   LIBCMTD:ismbbyte.obj
 0002:00091b80       __ismbbkana_l              300e5b80 f   LIBCMTD:ismbbyte.obj
 0002:00091c10       __ismbbkana                300e5c10 f   LIBCMTD:ismbbyte.obj
 0002:00091d30       __local_unwind4            300e5d30 f   LIBCMTD:exsup4.obj
 0002:00091e06       __seh_longjmp_unwind4@4    300e5e06 f   LIBCMTD:exsup4.obj
 0002:00091e22       @_EH4_CallFilterFunc@8     300e5e22 f   LIBCMTD:exsup4.obj
 0002:00091e39       @_EH4_TransferToHandler@8  300e5e39 f   LIBCMTD:exsup4.obj
 0002:00091e52       @_EH4_GlobalUnwind2@8      300e5e52 f   LIBCMTD:exsup4.obj
 0002:00091e6b       @_EH4_LocalUnwind@16       300e5e6b f   LIBCMTD:exsup4.obj
 0002:00091ee0       __statusfp2                300e5ee0 f   LIBCMTD:_ieee87_.obj
 0002:00091f30       __statusfp                 300e5f30 f   LIBCMTD:_ieee87_.obj
 0002:00091f90       __clearfp                  300e5f90 f   LIBCMTD:_ieee87_.obj
 0002:00091ff0       ___control87_2             300e5ff0 f   LIBCMTD:_ieee87_.obj
 0002:000920c0       __controlfp                300e60c0 f   LIBCMTD:_ieee87_.obj
 0002:000920f0       __control87                300e60f0 f i LIBCMTD:_ieee87_.obj
 0002:000921d0       __set_controlfp            300e61d0 f   LIBCMTD:_ieee87_.obj
 0002:00092280       __fpreset                  300e6280 f   LIBCMTD:_ieee87_.obj
 0002:00092c20       _$I10_OUTPUT               300e6c20 f   LIBCMTD:_x10fout_.obj
 0002:00093330       __mbstowcs_l_helper        300e7330 f   LIBCMTD:mbstowcs.obj
 0002:00093760       __mbstowcs_l               300e7760 f   LIBCMTD:mbstowcs.obj
 0002:00093790       _mbstowcs                  300e7790 f   LIBCMTD:mbstowcs.obj
 0002:000937f0       __mbstowcs_s_l             300e77f0 f   LIBCMTD:mbstowcs.obj
 0002:00093c50       _mbstowcs_s                300e7c50 f   LIBCMTD:mbstowcs.obj
 0002:00093c80       __vsnprintf_helper         300e7c80 f   LIBCMTD:vsnprnc.obj
 0002:00093ee0       __vsnprintf_c              300e7ee0 f   LIBCMTD:vsnprnc.obj
 0002:00093f40       __vsnprintf_c_l            300e7f40 f   LIBCMTD:vsnprnc.obj
 0002:00093fa0       __vsprintf_s_l             300e7fa0 f   LIBCMTD:vsnprnc.obj
 0002:000942a0       _vsprintf_s                300e82a0 f   LIBCMTD:vsnprnc.obj
 0002:000942d0       __vsnprintf_s_l            300e82d0 f   LIBCMTD:vsnprnc.obj
 0002:00094750       __vsnprintf_s              300e8750 f   LIBCMTD:vsnprnc.obj
 0002:00094780       __vsprintf_p               300e8780 f   LIBCMTD:vsnprnc.obj
 0002:000947e0       __vsprintf_p_l             300e87e0 f   LIBCMTD:vsnprnc.obj
 0002:00094840       __itoa_s                   300e8840 f   LIBCMTD:xtoas.obj
 0002:00094cf0       __ltoa_s                   300e8cf0 f   LIBCMTD:xtoas.obj
 0002:00094d40       __ultoa_s                  300e8d40 f   LIBCMTD:xtoas.obj
 0002:00094d70       __i64toa_s                 300e8d70 f   LIBCMTD:xtoas.obj
 0002:00095270       __ui64toa_s                300e9270 f   LIBCMTD:xtoas.obj
 0002:000952a0       __wcstombs_l_helper        300e92a0 f   LIBCMTD:wcstombs.obj
 0002:00095940       __wcstombs_l               300e9940 f   LIBCMTD:wcstombs.obj
 0002:00095970       _wcstombs                  300e9970 f   LIBCMTD:wcstombs.obj
 0002:000959a0       __wcstombs_s_l             300e99a0 f   LIBCMTD:wcstombs.obj
 0002:00095d90       _wcstombs_s                300e9d90 f   LIBCMTD:wcstombs.obj
 0002:00095dc0       __vswprintf_l              300e9dc0 f   LIBCMTD:vswprint.obj
 0002:00096030       __vswprintf                300ea030 f   LIBCMTD:vswprint.obj
 0002:00096060       ___vswprintf_l             300ea060 f   LIBCMTD:vswprint.obj
 0002:00096090       __vscwprintf_helper        300ea090 f   LIBCMTD:vswprint.obj
 0002:000961a0       __vscwprintf               300ea1a0 f   LIBCMTD:vswprint.obj
 0002:000961d0       __vscwprintf_l             300ea1d0 f   LIBCMTD:vswprint.obj
 0002:00096200       __vscwprintf_p             300ea200 f   LIBCMTD:vswprint.obj
 0002:00096230       __vscwprintf_p_l           300ea230 f   LIBCMTD:vswprint.obj
 0002:00096260       ___InternalCxxFrameHandler 300ea260 f   LIBCMTD:frame.obj
 0002:000969d0       ??0bad_exception@std@@QAE@PBD@Z 300ea9d0 f i LIBCMTD:frame.obj
 0002:00096a00       ??1bad_exception@std@@UAE@XZ 300eaa00 f i LIBCMTD:frame.obj
 0002:00096a30       ??_Ebad_exception@std@@UAEPAXI@Z 300eaa30 f i LIBCMTD:frame.obj
 0002:00096a30       ??_Gbad_exception@std@@UAEPAXI@Z 300eaa30 f i LIBCMTD:frame.obj
 0002:00096a70       ??0bad_exception@std@@QAE@ABV01@@Z 300eaa70 f i LIBCMTD:frame.obj
 0002:00096c90       ___TypeMatch               300eac90 f   LIBCMTD:frame.obj
 0002:00096d70       ___FrameUnwindFilter       300ead70 f   LIBCMTD:frame.obj
 0002:00096e10       ___FrameUnwindToState      300eae10 f   LIBCMTD:frame.obj
 0002:000974a0       ___BuildCatchObjectHelper  300eb4a0 f   LIBCMTD:frame.obj
 0002:000977b0       ___BuildCatchObject        300eb7b0 f   LIBCMTD:frame.obj
 0002:00097900       ___DestructExceptionObject 300eb900 f   LIBCMTD:frame.obj
 0002:000979e0       ___AdjustPointer           300eb9e0 f   LIBCMTD:frame.obj
 0002:00097a40       ?__uncaught_exception@@YA_NXZ 300eba40 f   LIBCMTD:frame.obj
 0002:00097a60       ___CxxExceptionFilter      300eba60 f   LIBCMTD:frame.obj
 0002:00097cd0       ___CxxRegisterExceptionObject 300ebcd0 f   LIBCMTD:frame.obj
 0002:00097e50       ___CxxDetectRethrow        300ebe50 f   LIBCMTD:frame.obj
 0002:00097f00       ___CxxUnregisterExceptionObject 300ebf00 f   LIBCMTD:frame.obj
 0002:000980e0       ___CxxQueryExceptionSize   300ec0e0 f   LIBCMTD:frame.obj
 0002:000980f0       ___CxxCallUnwindDtor       300ec0f0 f   LIBCMTD:frame.obj
 0002:00098190       ___CxxCallUnwindDelDtor    300ec190 f   LIBCMTD:frame.obj
 0002:00098230       ___CxxCallUnwindStdDelDtor 300ec230 f   LIBCMTD:frame.obj
 0002:000982d0       ___CxxCallUnwindVecDtor    300ec2d0 f   LIBCMTD:frame.obj
 0002:000985a0       ?_is_exception_typeof@@YAHABVtype_info@@PAU_EXCEPTION_POINTERS@@@Z 300ec5a0 f   LIBCMTD:frame.obj
 0002:000986b0       __CallSettingFrame@12      300ec6b0 f   LIBCMTD:lowhelpr.obj
 0002:000986d7       __NLG_Return               300ec6d7     LIBCMTD:lowhelpr.obj
 0002:00098710       __alloc_osfhnd             300ec710 f   LIBCMTD:osfinfo.obj
 0002:00098a70       __set_osfhnd               300eca70 f   LIBCMTD:osfinfo.obj
 0002:00098b70       __free_osfhnd              300ecb70 f   LIBCMTD:osfinfo.obj
 0002:00098c90       __get_osfhandle            300ecc90 f   LIBCMTD:osfinfo.obj
 0002:00098e50       __open_osfhandle           300ece50 f   LIBCMTD:osfinfo.obj
 0002:00099110       ___lock_fhandle            300ed110 f   LIBCMTD:osfinfo.obj
 0002:00099250       __unlock_fhandle           300ed250 f   LIBCMTD:osfinfo.obj
 0002:00099290       __putwch                   300ed290 f   LIBCMTD:putwch.obj
 0002:00099340       __putwch_nolock            300ed340 f   LIBCMTD:putwch.obj
 0002:000993b0       __mbtowc_l                 300ed3b0 f   LIBCMTD:mbtowc.obj
 0002:00099650       _mbtowc                    300ed650 f   LIBCMTD:mbtowc.obj
 0002:00099680       _vprintf_helper            300ed680 f   LIBCMTD:vprintf.obj
 0002:000997e0       __vprintf_l                300ed7e0 f   LIBCMTD:vprintf.obj
 0002:00099810       __vprintf_s_l              300ed810 f   LIBCMTD:vprintf.obj
 0002:00099840       __vprintf_p_l              300ed840 f   LIBCMTD:vprintf.obj
 0002:00099870       _vprintf                   300ed870 f   LIBCMTD:vprintf.obj
 0002:000998a0       _vprintf_s                 300ed8a0 f   LIBCMTD:vprintf.obj
 0002:000998d0       __vprintf_p                300ed8d0 f   LIBCMTD:vprintf.obj
 0002:00099900       ___crtGetLocaleInfoA       300ed900 f   LIBCMTD:a_loc.obj
 0002:00099ab0       _fputwc                    300edab0 f   LIBCMTD:fputwc.obj
 0002:00099bf0       __fputwc_nolock            300edbf0 f   LIBCMTD:fputwc.obj
 0002:00099fa0       _putwc                     300edfa0 f   LIBCMTD:fputwc.obj
 0002:00099fc0       _fclose                    300edfc0 f   LIBCMTD:fclose.obj
 0002:0009a110       __fclose_nolock            300ee110 f   LIBCMTD:fclose.obj
 0002:0009a250       _wcstol                    300ee250 f   LIBCMTD:wcstol.obj
 0002:0009a710       __wcstol_l                 300ee710 f   LIBCMTD:wcstol.obj
 0002:0009a740       _wcstoul                   300ee740 f   LIBCMTD:wcstol.obj
 0002:0009a770       __wcstoul_l                300ee770 f   LIBCMTD:wcstol.obj
 0002:0009a7a0       __stricmp_l                300ee7a0 f   LIBCMTD:stricmp.obj
 0002:0009a9b0       ___ascii_stricmp           300ee9b0 f   LIBCMTD:stricmp.obj
 0002:0009aa40       __stricmp                  300eea40 f   LIBCMTD:stricmp.obj
 0002:0009ab90       __strnicmp_l               300eeb90 f   LIBCMTD:strnicmp.obj
 0002:0009ae60       __strnicmp                 300eee60 f   LIBCMTD:strnicmp.obj
 0002:0009b050       ___crtMessageBoxA          300ef050 f   LIBCMTD:crtmbox.obj
 0002:0009b300       __global_unwind2           300ef300 f   LIBCMTD:exsup.obj
 0002:0009b365       __local_unwind2            300ef365 f   LIBCMTD:exsup.obj
 0002:0009b3e9       __abnormal_termination     300ef3e9 f   LIBCMTD:exsup.obj
 0002:0009b40c       __NLG_Notify1              300ef40c f   LIBCMTD:exsup.obj
 0002:0009b415       __NLG_Notify               300ef415 f   LIBCMTD:exsup.obj
 0002:0009b42c       __NLG_Dispatch             300ef42c     LIBCMTD:exsup.obj
 0002:0009b42c       __NLG_Dispatch2            300ef42c     LIBCMTD:exsup.obj
 0002:0009b434       __NLG_Call                 300ef434 f   LIBCMTD:exsup.obj
 0002:0009b436       __NLG_Return2              300ef436     LIBCMTD:exsup.obj
 0002:0009b490       ?_ValidateRead@@YAHPBXI@Z  300ef490 f   LIBCMTD:validate.obj
 0002:0009b4c0       ?_ValidateWrite@@YAHPAXI@Z 300ef4c0 f   LIBCMTD:validate.obj
 0002:0009b4f0       ?_ValidateExecute@@YAHP6GHXZ@Z 300ef4f0 f   LIBCMTD:validate.obj
 0002:0009b520       __CxxThrowException@8      300ef520 f   LIBCMTD:throw.obj
 0002:0009b590       ?name@type_info@@QBEPBDPAU__type_info_node@@@Z 300ef590 f   LIBCMTD:typinfo.obj
 0002:0009b5c0       ??1type_info@@UAE@XZ       300ef5c0 f   LIBCMTD:typinfo.obj
 0002:0009b5f0       ??_Etype_info@@UAEPAXI@Z   300ef5f0 f i LIBCMTD:typinfo.obj
 0002:0009b5f0       ??_Gtype_info@@UAEPAXI@Z   300ef5f0 f i LIBCMTD:typinfo.obj
 0002:0009b630       ?_name_internal_method@type_info@@QBEPBDPAU__type_info_node@@@Z 300ef630 f   LIBCMTD:typinfo.obj
 0002:0009b660       ?_type_info_dtor_internal_method@type_info@@QAEXXZ 300ef660 f   LIBCMTD:typinfo.obj
 0002:0009b680       ??8type_info@@QBE_NABV0@@Z 300ef680 f   LIBCMTD:typinfo.obj
 0002:0009b6c0       ??9type_info@@QBE_NABV0@@Z 300ef6c0 f   LIBCMTD:typinfo.obj
 0002:0009b700       ?before@type_info@@QBEHABV1@@Z 300ef700 f   LIBCMTD:typinfo.obj
 0002:0009b740       ?raw_name@type_info@@QBEPBDXZ 300ef740 f   LIBCMTD:typinfo.obj
 0002:0009b760       ??0type_info@@AAE@ABV0@@Z  300ef760 f   LIBCMTD:typinfo.obj
 0002:0009b790       ??4type_info@@AAEAAV0@ABV0@@Z 300ef790 f   LIBCMTD:typinfo.obj
 0002:0009b7b0       ??0exception@std@@QAE@XZ   300ef7b0 f   LIBCMTD:stdexcpt.obj
 0002:0009b7f0       ??_Gexception@std@@UAEPAXI@Z 300ef7f0 f i LIBCMTD:stdexcpt.obj
 0002:0009b7f0       ??_Eexception@std@@UAEPAXI@Z 300ef7f0 f i LIBCMTD:stdexcpt.obj
 0002:0009b830       ??0exception@std@@QAE@ABQBD@Z 300ef830 f   LIBCMTD:stdexcpt.obj
 0002:0009b880       ??0exception@std@@QAE@ABQBDH@Z 300ef880 f   LIBCMTD:stdexcpt.obj
 0002:0009b8c0       ??0exception@std@@QAE@ABV01@@Z 300ef8c0 f   LIBCMTD:stdexcpt.obj
 0002:0009b910       ??4exception@std@@QAEAAV01@ABV01@@Z 300ef910 f   LIBCMTD:stdexcpt.obj
 0002:0009b970       ??1exception@std@@UAE@XZ   300ef970 f   LIBCMTD:stdexcpt.obj
 0002:0009b9a0       ?what@exception@std@@UBEPBDXZ 300ef9a0 f   LIBCMTD:stdexcpt.obj
 0002:0009b9e0       ?_Copy_str@exception@std@@AAEXPBD@Z 300ef9e0 f   LIBCMTD:stdexcpt.obj
 0002:0009ba60       ?_Tidy@exception@std@@AAEXXZ 300efa60 f   LIBCMTD:stdexcpt.obj
 0002:0009bab0       ??0bad_cast@std@@QAE@PBD@Z 300efab0 f   LIBCMTD:stdexcpt.obj
 0002:0009bae0       ??_Ebad_cast@std@@UAEPAXI@Z 300efae0 f i LIBCMTD:stdexcpt.obj
 0002:0009bae0       ??_Gbad_cast@std@@UAEPAXI@Z 300efae0 f i LIBCMTD:stdexcpt.obj
 0002:0009bb20       ??0bad_cast@std@@QAE@ABV01@@Z 300efb20 f   LIBCMTD:stdexcpt.obj
 0002:0009bb50       ??1bad_cast@std@@UAE@XZ    300efb50 f   LIBCMTD:stdexcpt.obj
 0002:0009bb80       ??0bad_typeid@std@@QAE@PBD@Z 300efb80 f   LIBCMTD:stdexcpt.obj
 0002:0009bbb0       ??_Ebad_typeid@std@@UAEPAXI@Z 300efbb0 f i LIBCMTD:stdexcpt.obj
 0002:0009bbb0       ??_Gbad_typeid@std@@UAEPAXI@Z 300efbb0 f i LIBCMTD:stdexcpt.obj
 0002:0009bbf0       ??0bad_typeid@std@@QAE@ABV01@@Z 300efbf0 f   LIBCMTD:stdexcpt.obj
 0002:0009bc20       ??1bad_typeid@std@@UAE@XZ  300efc20 f   LIBCMTD:stdexcpt.obj
 0002:0009bc50       ??0__non_rtti_object@std@@QAE@PBD@Z 300efc50 f   LIBCMTD:stdexcpt.obj
 0002:0009bc80       ??_G__non_rtti_object@std@@UAEPAXI@Z 300efc80 f i LIBCMTD:stdexcpt.obj
 0002:0009bc80       ??_E__non_rtti_object@std@@UAEPAXI@Z 300efc80 f i LIBCMTD:stdexcpt.obj
 0002:0009bcc0       ??0__non_rtti_object@std@@QAE@ABV01@@Z 300efcc0 f   LIBCMTD:stdexcpt.obj
 0002:0009bcf0       ??1__non_rtti_object@std@@UAE@XZ 300efcf0 f   LIBCMTD:stdexcpt.obj
 0002:0009bd20       ??3@YAXPAX@Z               300efd20 f   LIBCMTD:dbgdel.obj
 0002:0009be40       ___initconout              300efe40 f   LIBCMTD:initcon.obj
 0002:0009be70       ___termconout              300efe70 f   LIBCMTD:initcon.obj
 0002:0009bea0       __flswbuf                  300efea0 f   LIBCMTD:_flswbuf.obj
 0002:0009c230       __close                    300f0230 f   LIBCMTD:close.obj
 0002:0009c4d0       __close_nolock             300f04d0 f   LIBCMTD:close.obj
 0002:0009c5d0       __wchartodigit             300f05d0 f   LIBCMTD:wchtodig.obj
 0002:0009c9c0       ___ascii_strnicmp          300f09c0 f   LIBCMTD:_strnicm.obj
 0002:0009ca40       ?_Type_info_dtor@type_info@@CAXPAV1@@Z 300f0a40 f   LIBCMTD:typname.obj
 0002:0009cb90       ?_Name_base@type_info@@CAPBDPBV1@PAU__type_info_node@@@Z 300f0b90 f   LIBCMTD:typname.obj
 0002:0009cda0       ?_Type_info_dtor_internal@type_info@@CAXPAV1@@Z 300f0da0 f   LIBCMTD:typname.obj
 0002:0009cef0       ___unDNameHelper           300f0ef0 f   LIBCMTD:typname.obj
 0002:0009cf40       ?_Name_base_internal@type_info@@CAPBDPBV1@PAU__type_info_node@@@Z 300f0f40 f   LIBCMTD:typname.obj
 0002:0009d170       ___clean_type_info_names_internal 300f1170 f   LIBCMTD:typname.obj
 0002:0009d250       ___unDName                 300f1250 f   LIBCMTD:undname.obj
 0002:0009d360       ?Constructor@_HeapManager@@QAEXP6APAXI@ZP6AXPAX@Z@Z 300f1360 f i LIBCMTD:undname.obj
 0002:0009d3b0       ?Destructor@_HeapManager@@QAEXXZ 300f13b0 f i LIBCMTD:undname.obj
 0002:0009d410       ___unDNameEx               300f1410 f   LIBCMTD:undname.obj
 0002:0009d520       ??0UnDecorator@@QAE@PADPBDHP6APADJ@ZK@Z 300f1520 f i LIBCMTD:undname.obj
 0002:0009d5e0       ??BUnDecorator@@QAEPADXZ   300f15e0 f i LIBCMTD:undname.obj
 0002:0009d8a0       ?dbGetString@DName@@QBEPADXZ 300f18a0 f   LIBCMTD:undname.obj
 0002:0009d8d0       ?getDecoratedName@UnDecorator@@CA?AVDName@@XZ 300f18d0 f   LIBCMTD:undname.obj
 0002:0009dcb0       ?getSymbolName@UnDecorator@@CA?AVDName@@XZ 300f1cb0 f i LIBCMTD:undname.obj
 0002:0009dd40       ?getZName@UnDecorator@@CA?AVDName@@_N0@Z 300f1d40 f   LIBCMTD:undname.obj
 0002:0009e090       ?getOperatorName@UnDecorator@@CA?AVDName@@_NPA_N@Z 300f2090 f i LIBCMTD:undname.obj
 0002:0009ec50       ?getStringEncoding@UnDecorator@@CA?AVDName@@PADH@Z 300f2c50 f   LIBCMTD:undname.obj
 0002:0009ed90       ?getScope@UnDecorator@@CA?AVDName@@XZ 300f2d90 f   LIBCMTD:undname.obj
 0002:0009f260       ?getSignedDimension@UnDecorator@@CA?AVDName@@XZ 300f3260 f   LIBCMTD:undname.obj
 0002:0009f300       ?getDimension@UnDecorator@@CA?AVDName@@_N@Z 300f3300 f   LIBCMTD:undname.obj
 0002:0009f660       ?getNumberOfDimensions@UnDecorator@@CAHXZ 300f3660 f   LIBCMTD:undname.obj
 0002:0009f7a0       ?getTemplateName@UnDecorator@@CA?AVDName@@_N@Z 300f37a0 f   LIBCMTD:undname.obj
 0002:0009f9d0       ?getTemplateArgumentList@UnDecorator@@CA?AVDName@@XZ 300f39d0 f   LIBCMTD:undname.obj
 0002:0009fcf0       ?getTemplateConstant@UnDecorator@@CA?AVDName@@XZ 300f3cf0 f   LIBCMTD:undname.obj
 0002:000a02a0       ?composeDeclaration@UnDecorator@@CA?AVDName@@ABV2@@Z 300f42a0 f i LIBCMTD:undname.obj
 0002:000a1e10       ?getTypeEncoding@UnDecorator@@CAHXZ 300f5e10 f i LIBCMTD:undname.obj
 0002:000a2ae0       ?getBasedType@UnDecorator@@CA?AVDName@@XZ 300f6ae0 f   LIBCMTD:undname.obj
 0002:000a2bd0       ?getScopedName@UnDecorator@@CA?AVDName@@XZ 300f6bd0 f   LIBCMTD:undname.obj
 0002:000a2d30       ?getCallingConvention@UnDecorator@@CA?AVDName@@XZ 300f6d30 f   LIBCMTD:undname.obj
 0002:000a2f00       ?getReturnType@UnDecorator@@CA?AVDName@@PAV2@@Z 300f6f00 f   LIBCMTD:undname.obj
 0002:000a2f60       ?getDataType@UnDecorator@@CA?AVDName@@PAV2@@Z 300f6f60 f   LIBCMTD:undname.obj
 0002:000a30c0       ?getPrimaryDataType@UnDecorator@@CA?AVDName@@ABV2@@Z 300f70c0 f   LIBCMTD:undname.obj
 0002:000a3540       ?getArgumentTypes@UnDecorator@@CA?AVDName@@XZ 300f7540 f   LIBCMTD:undname.obj
 0002:000a36f0       ?getArgumentList@UnDecorator@@CA?AVDName@@XZ 300f76f0 f   LIBCMTD:undname.obj
 0002:000a3890       ?getThrowTypes@UnDecorator@@CA?AVDName@@XZ 300f7890 f   LIBCMTD:undname.obj
 0002:000a3970       ?getBasicDataType@UnDecorator@@CA?AVDName@@ABV2@@Z 300f7970 f   LIBCMTD:undname.obj
 0002:000a40a0       ?getECSUDataType@UnDecorator@@CA?AVDName@@XZ 300f80a0 f   LIBCMTD:undname.obj
 0002:000a42f0       ?getECSUName@UnDecorator@@CA?AVDName@@XZ 300f82f0 f i LIBCMTD:undname.obj
 0002:000a4310       ?getEnumType@UnDecorator@@CA?AVDName@@XZ 300f8310 f i LIBCMTD:undname.obj
 0002:000a44b0       ?getFunctionIndirectType@UnDecorator@@CA?AVDName@@ABV2@@Z 300f84b0 f   LIBCMTD:undname.obj
 0002:000a4a00       ?getPtrRefType@UnDecorator@@CA?AVDName@@ABV2@0PBD@Z 300f8a00 f   LIBCMTD:undname.obj
 0002:000a4bc0       ?getExtendedDataIndirectType@UnDecorator@@CA?AVDName@@AAPBDAA_NH@Z 300f8bc0 f   LIBCMTD:undname.obj
 0002:000a4e70       ?getDataIndirectType@UnDecorator@@CA?AVDName@@ABV2@PBD0H@Z 300f8e70 f   LIBCMTD:undname.obj
 0002:000a5730       ?getPtrRefDataType@UnDecorator@@CA?AVDName@@ABV2@H@Z 300f9730 f i LIBCMTD:undname.obj
 0002:000a58c0       ?getArrayType@UnDecorator@@CA?AVDName@@ABV2@@Z 300f98c0 f i LIBCMTD:undname.obj
 0002:000a5b80       ?getLexicalFrame@UnDecorator@@CA?AVDName@@XZ 300f9b80 f i LIBCMTD:undname.obj
 0002:000a5bd0       ?getThisType@UnDecorator@@CA?AVDName@@XZ 300f9bd0 f i LIBCMTD:undname.obj
 0002:000a5c20       ?getPointerType@UnDecorator@@CA?AVDName@@ABV2@0@Z 300f9c20 f i LIBCMTD:undname.obj
 0002:000a5c60       ?getPointerTypeArray@UnDecorator@@CA?AVDName@@ABV2@0@Z 300f9c60 f i LIBCMTD:undname.obj
 0002:000a5ca0       ?getReferenceType@UnDecorator@@CA?AVDName@@ABV2@0PBD@Z 300f9ca0 f i LIBCMTD:undname.obj
 0002:000a5cd0       ?getDisplacement@UnDecorator@@CA?AVDName@@XZ 300f9cd0 f i LIBCMTD:undname.obj
 0002:000a5cf0       ?getCallIndex@UnDecorator@@CA?AVDName@@XZ 300f9cf0 f i LIBCMTD:undname.obj
 0002:000a5d10       ?getGuardNumber@UnDecorator@@CA?AVDName@@XZ 300f9d10 f i LIBCMTD:undname.obj
 0002:000a5d30       ?getVbTableType@UnDecorator@@CA?AVDName@@ABV2@@Z 300f9d30 f i LIBCMTD:undname.obj
 0002:000a5d50       ?getVCallThunkType@UnDecorator@@CA?AVDName@@XZ 300f9d50 f i LIBCMTD:undname.obj
 0002:000a5dd0       ?getVfTableType@UnDecorator@@CA?AVDName@@ABV2@@Z 300f9dd0 f i LIBCMTD:undname.obj
 0002:000a6000       ?getStorageConvention@UnDecorator@@CA?AVDName@@XZ 300fa000 f i LIBCMTD:undname.obj
 0002:000a6020       ?getDataIndirectType@UnDecorator@@CA?AVDName@@XZ 300fa020 f i LIBCMTD:undname.obj
 0002:000a6070       ?getVdispMapType@UnDecorator@@CA?AVDName@@ABV2@@Z 300fa070 f i LIBCMTD:undname.obj
 0002:000a6100       ?getExternalDataType@UnDecorator@@CA?AVDName@@ABV2@@Z 300fa100 f i LIBCMTD:undname.obj
 0002:000a61c0       ?doMSKeywords@UnDecorator@@SAHXZ 300fa1c0 f i LIBCMTD:undname.obj
 0002:000a61e0       ?doPtr64@UnDecorator@@SAHXZ 300fa1e0 f i LIBCMTD:undname.obj
 0002:000a6200       ?doFunctionReturns@UnDecorator@@SAHXZ 300fa200 f i LIBCMTD:undname.obj
 0002:000a6220       ?doAllocationModel@UnDecorator@@SAHXZ 300fa220 f i LIBCMTD:undname.obj
 0002:000a6240       ?doAllocationLanguage@UnDecorator@@SAHXZ 300fa240 f i LIBCMTD:undname.obj
 0002:000a6260       ?doThisTypes@UnDecorator@@SAHXZ 300fa260 f i LIBCMTD:undname.obj
 0002:000a6280       ?doAccessSpecifiers@UnDecorator@@SAHXZ 300fa280 f i LIBCMTD:undname.obj
 0002:000a62a0       ?doThrowTypes@UnDecorator@@SAHXZ 300fa2a0 f i LIBCMTD:undname.obj
 0002:000a62c0       ?doMemberTypes@UnDecorator@@SAHXZ 300fa2c0 f i LIBCMTD:undname.obj
 0002:000a62e0       ?doNameOnly@UnDecorator@@SAHXZ 300fa2e0 f i LIBCMTD:undname.obj
 0002:000a6300       ?doTypeOnly@UnDecorator@@SAHXZ 300fa300 f i LIBCMTD:undname.obj
 0002:000a6320       ?haveTemplateParameters@UnDecorator@@SAHXZ 300fa320 f i LIBCMTD:undname.obj
 0002:000a6340       ?doEcsu@UnDecorator@@SAHXZ 300fa340 f i LIBCMTD:undname.obj
 0002:000a6360       ?doEllipsis@UnDecorator@@SAHXZ 300fa360 f i LIBCMTD:undname.obj
 0002:000a6380       ?UScore@UnDecorator@@SAPBDW4Tokens@@@Z 300fa380 f   LIBCMTD:undname.obj
 0002:000a63c0       ?doUnderScore@UnDecorator@@SAHXZ 300fa3c0 f i LIBCMTD:undname.obj
 0002:000a63e0       ??2@YAPAXIAAV_HeapManager@@H@Z 300fa3e0 f i LIBCMTD:undname.obj
 0002:000a6400       ?getMemory@_HeapManager@@QAEPAXIH@Z 300fa400 f   LIBCMTD:undname.obj
 0002:000a6550       ??0Block@_HeapManager@@QAE@XZ 300fa550 f i LIBCMTD:undname.obj
 0002:000a6570       ??H@YA?AVDName@@DABV0@@Z   300fa570 f i LIBCMTD:undname.obj
 0002:000a65b0       ??H@YA?AVDName@@W4DNameStatus@@ABV0@@Z 300fa5b0 f i LIBCMTD:undname.obj
 0002:000a65f0       ??H@YA?AVDName@@PBDABV0@@Z 300fa5f0 f i LIBCMTD:undname.obj
 0002:000a6630       ??0DName@@QAE@XZ           300fa630 f i LIBCMTD:undname.obj
 0002:000a6720       ??0DName@@QAE@D@Z          300fa720 f   LIBCMTD:undname.obj
 0002:000a6830       ??0DName@@QAE@ABV0@@Z      300fa830 f i LIBCMTD:undname.obj
 0002:000a6860       ??0DName@@QAE@PAV0@@Z      300fa860 f   LIBCMTD:undname.obj
 0002:000a69e0       ??0DName@@QAE@PBD@Z        300fa9e0 f   LIBCMTD:undname.obj
 0002:000a6b10       ??0DName@@QAE@AAPBDD@Z     300fab10 f   LIBCMTD:undname.obj
 0002:000a6e80       ?doNoIdentCharCheck@UnDecorator@@SAHXZ 300fae80 f i LIBCMTD:undname.obj
 0002:000a6ea0       ??0DName@@QAE@_K@Z         300faea0 f   LIBCMTD:undname.obj
 0002:000a7030       ??0DName@@QAE@_J@Z         300fb030 f   LIBCMTD:undname.obj
 0002:000a7210       ??0DName@@QAE@W4DNameStatus@@@Z 300fb210 f   LIBCMTD:undname.obj
 0002:000a7370       ?isValid@DName@@QBEHXZ     300fb370 f i LIBCMTD:undname.obj
 0002:000a73a0       ?isEmpty@DName@@QBEHXZ     300fb3a0 f i LIBCMTD:undname.obj
 0002:000a73c0       ?status@DName@@QBE?AW4DNameStatus@@XZ 300fb3c0 f i LIBCMTD:undname.obj
 0002:000a73e0       ?setPtrRef@DName@@QAEAAV1@XZ 300fb3e0 f i LIBCMTD:undname.obj
 0002:000a7410       ?isPtrRef@DName@@QBEHXZ    300fb410 f i LIBCMTD:undname.obj
 0002:000a7430       ?isUDC@DName@@QBEHXZ       300fb430 f i LIBCMTD:undname.obj
 0002:000a7480       ?setIsUDC@DName@@QAEXXZ    300fb480 f i LIBCMTD:undname.obj
 0002:000a74c0       ?isUDTThunk@DName@@QBEHXZ  300fb4c0 f i LIBCMTD:undname.obj
 0002:000a7510       ?setIsArray@DName@@QAEXXZ  300fb510 f i LIBCMTD:undname.obj
 0002:000a7540       ?isArray@DName@@QBEHXZ     300fb540 f i LIBCMTD:undname.obj
 0002:000a7560       ?isNoTE@DName@@QBEHXZ      300fb560 f i LIBCMTD:undname.obj
 0002:000a7580       ?setIsNoTE@DName@@QAEXXZ   300fb580 f i LIBCMTD:undname.obj
 0002:000a75b0       ?isPinPtr@DName@@QBEHXZ    300fb5b0 f i LIBCMTD:undname.obj
 0002:000a75d0       ?setIsPinPtr@DName@@QAEXXZ 300fb5d0 f i LIBCMTD:undname.obj
 0002:000a7600       ?isComArray@DName@@QBEHXZ  300fb600 f i LIBCMTD:undname.obj
 0002:000a7620       ?setIsComArray@DName@@QAEXXZ 300fb620 f i LIBCMTD:undname.obj
 0002:000a7650       ?isVCallThunk@DName@@QBEHXZ 300fb650 f i LIBCMTD:undname.obj
 0002:000a7670       ?setIsVCallThunk@DName@@QAEXXZ 300fb670 f i LIBCMTD:undname.obj
 0002:000a76a0       ?length@DName@@QBEHXZ      300fb6a0 f i LIBCMTD:undname.obj
 0002:000a76e0       ?getLastChar@DName@@QBEDXZ 300fb6e0 f i LIBCMTD:undname.obj
 0002:000a7720       ?getString@DName@@QBEPADPADH@Z 300fb720 f i LIBCMTD:undname.obj
 0002:000a77d0       ?getString@DName@@QBEPADPAD0@Z 300fb7d0 f i LIBCMTD:undname.obj
 0002:000a7820       ??HDName@@QBE?AV0@D@Z      300fb820 f   LIBCMTD:undname.obj
 0002:000a7870       ??HDName@@QBE?AV0@PBD@Z    300fb870 f   LIBCMTD:undname.obj
 0002:000a78c0       ??HDName@@QBE?AV0@ABV0@@Z  300fb8c0 f   LIBCMTD:undname.obj
 0002:000a7910       ??HDName@@QBE?AV0@PAV0@@Z  300fb910 f   LIBCMTD:undname.obj
 0002:000a7960       ??HDName@@QBE?AV0@W4DNameStatus@@@Z 300fb960 f   LIBCMTD:undname.obj
 0002:000a79b0       ?append@DName@@AAEXPAVDNameNode@@@Z 300fb9b0 f   LIBCMTD:undname.obj
 0002:000a7a60       ??YDName@@QAEAAV0@D@Z      300fba60 f   LIBCMTD:undname.obj
 0002:000a7b10       ??YDName@@QAEAAV0@PBD@Z    300fbb10 f   LIBCMTD:undname.obj
 0002:000a7bd0       ??YDName@@QAEAAV0@ABV0@@Z  300fbbd0 f   LIBCMTD:undname.obj
 0002:000a7c50       ??YDName@@QAEAAV0@PAV0@@Z  300fbc50 f   LIBCMTD:undname.obj
 0002:000a7d30       ??YDName@@QAEAAV0@W4DNameStatus@@@Z 300fbd30 f   LIBCMTD:undname.obj
 0002:000a7db0       ??_5DName@@QAEAAV0@ABV0@@Z 300fbdb0 f   LIBCMTD:undname.obj
 0002:000a7e20       ??4DName@@QAEAAV0@D@Z      300fbe20 f i LIBCMTD:undname.obj
 0002:000a7f30       ??4DName@@QAEAAV0@PBD@Z    300fbf30 f   LIBCMTD:undname.obj
 0002:000a8040       ??4DName@@QAEAAV0@ABV0@@Z  300fc040 f   LIBCMTD:undname.obj
 0002:000a8070       ??4DName@@QAEAAV0@PAV0@@Z  300fc070 f   LIBCMTD:undname.obj
 0002:000a81f0       ??4DName@@QAEAAV0@W4DNameStatus@@@Z 300fc1f0 f   LIBCMTD:undname.obj
 0002:000a8330       ?doPchar@DName@@AAEXPBDH@Z 300fc330 f   LIBCMTD:undname.obj
 0002:000a84c0       ?isFull@Replicator@@QBEHXZ 300fc4c0 f i LIBCMTD:undname.obj
 0002:000a84e0       ??0Replicator@@QAE@XZ      300fc4e0 f i LIBCMTD:undname.obj
 0002:000a8500       ??YReplicator@@QAEAAV0@ABVDName@@@Z 300fc500 f   LIBCMTD:undname.obj
 0002:000a85b0       ??AReplicator@@QBE?AVDName@@H@Z 300fc5b0 f   LIBCMTD:undname.obj
 0002:000a8630       ??0DNameNode@@IAE@XZ       300fc630 f   LIBCMTD:undname.obj
 0002:000a8650       ??0charNode@@QAE@D@Z       300fc650 f   LIBCMTD:undname.obj
 0002:000a8690       ?length@charNode@@UBEHXZ   300fc690 f i LIBCMTD:undname.obj
 0002:000a86b0       ?getLastChar@charNode@@UBEDXZ 300fc6b0 f i LIBCMTD:undname.obj
 0002:000a86d0       ?getString@charNode@@UBEPADPAD0@Z 300fc6d0 f i LIBCMTD:undname.obj
 0002:000a8710       ??0pcharNode@@QAE@PBDH@Z   300fc710 f   LIBCMTD:undname.obj
 0002:000a87d0       ?length@pcharNode@@UBEHXZ  300fc7d0 f i LIBCMTD:undname.obj
 0002:000a87f0       ?getLastChar@pcharNode@@UBEDXZ 300fc7f0 f i LIBCMTD:undname.obj
 0002:000a8840       ?getString@pcharNode@@UBEPADPAD0@Z 300fc840 f i LIBCMTD:undname.obj
 0002:000a8880       ?getStringHelper@@YAPADPAD00H@Z 300fc880 f i LIBCMTD:undname.obj
 0002:000a88d0       ??0pDNameNode@@QAE@PAVDName@@@Z 300fc8d0 f   LIBCMTD:undname.obj
 0002:000a8950       ?length@pDNameNode@@UBEHXZ 300fc950 f i LIBCMTD:undname.obj
 0002:000a8990       ?getLastChar@pDNameNode@@UBEDXZ 300fc990 f i LIBCMTD:undname.obj
 0002:000a89d0       ?getString@pDNameNode@@UBEPADPAD0@Z 300fc9d0 f i LIBCMTD:undname.obj
 0002:000a8a20       ??0DNameStatusNode@@AAE@W4DNameStatus@@@Z 300fca20 f   LIBCMTD:undname.obj
 0002:000a8a80       ?length@DNameStatusNode@@UBEHXZ 300fca80 f i LIBCMTD:undname.obj
 0002:000a8aa0       ?getLastChar@DNameStatusNode@@UBEDXZ 300fcaa0 f i LIBCMTD:undname.obj
 0002:000a8ad0       ?getString@DNameStatusNode@@UBEPADPAD0@Z 300fcad0 f i LIBCMTD:undname.obj
 0002:000a8b20       ?make@DNameStatusNode@@SAPAV1@W4DNameStatus@@@Z 300fcb20 f i LIBCMTD:undname.obj
 0002:000a8c00       ??0pairNode@@QAE@PAVDNameNode@@0@Z 300fcc00 f   LIBCMTD:undname.obj
 0002:000a8c50       ?length@pairNode@@UBEHXZ   300fcc50 f i LIBCMTD:undname.obj
 0002:000a8cb0       ?getLastChar@pairNode@@UBEDXZ 300fccb0 f i LIBCMTD:undname.obj
 0002:000a8d10       ?getString@pairNode@@UBEPADPAD0@Z 300fcd10 f i LIBCMTD:undname.obj
 0002:000a8e90       __purecall                 300fce90 f   LIBCMTD:purevirt.obj
 0002:000a8ee0       __set_purecall_handler     300fcee0 f   LIBCMTD:purevirt.obj
 0002:000a8f20       __get_purecall_handler     300fcf20 f   LIBCMTD:purevirt.obj
 0002:000a8f38       _GetModuleFileNameW@12     300fcf38 f   kernel32:KERNEL32.dll
 0002:000a8f3e       _WriteConsoleW@20          300fcf3e f   kernel32:KERNEL32.dll
 0002:000a8f44       _GetFileType@4             300fcf44 f   kernel32:KERNEL32.dll
 0002:000a8f4a       _GetStdHandle@4            300fcf4a f   kernel32:KERNEL32.dll
 0002:000a8f50       _GetCurrentThreadId@0      300fcf50 f   kernel32:KERNEL32.dll
 0002:000a8f56       _DecodePointer@4           300fcf56 f   kernel32:KERNEL32.dll
 0002:000a8f5c       _GetCommandLineA@0         300fcf5c f   kernel32:KERNEL32.dll
 0002:000a8f62       _EncodePointer@4           300fcf62 f   kernel32:KERNEL32.dll
 0002:000a8f68       _TerminateProcess@8        300fcf68 f   kernel32:KERNEL32.dll
 0002:000a8f6e       _GetCurrentProcess@0       300fcf6e f   kernel32:KERNEL32.dll
 0002:000a8f74       _UnhandledExceptionFilter@4 300fcf74 f   kernel32:KERNEL32.dll
 0002:000a8f7a       _SetUnhandledExceptionFilter@4 300fcf7a f   kernel32:KERNEL32.dll
 0002:000a8f80       _IsDebuggerPresent@0       300fcf80 f   kernel32:KERNEL32.dll
 0002:000a8f86       _IsProcessorFeaturePresent@4 300fcf86 f   kernel32:KERNEL32.dll
 0002:000a8f8c       _InterlockedIncrement@4    300fcf8c f   kernel32:KERNEL32.dll
 0002:000a8f92       _InterlockedDecrement@4    300fcf92 f   kernel32:KERNEL32.dll
 0002:000a8f98       _GetACP@0                  300fcf98 f   kernel32:KERNEL32.dll
 0002:000a8f9e       _GetOEMCP@0                300fcf9e f   kernel32:KERNEL32.dll
 0002:000a8fa4       _GetCPInfo@8               300fcfa4 f   kernel32:KERNEL32.dll
 0002:000a8faa       _IsValidCodePage@4         300fcfaa f   kernel32:KERNEL32.dll
 0002:000a8fb0       _TlsAlloc@0                300fcfb0 f   kernel32:KERNEL32.dll
 0002:000a8fb6       _TlsGetValue@4             300fcfb6 f   kernel32:KERNEL32.dll
 0002:000a8fbc       _TlsSetValue@8             300fcfbc f   kernel32:KERNEL32.dll
 0002:000a8fc2       _TlsFree@4                 300fcfc2 f   kernel32:KERNEL32.dll
 0002:000a8fc8       _GetProcAddress@8          300fcfc8 f   kernel32:KERNEL32.dll
 0002:000a8fce       _GetModuleHandleW@4        300fcfce f   kernel32:KERNEL32.dll
 0002:000a8fd4       _SetLastError@4            300fcfd4 f   kernel32:KERNEL32.dll
 0002:000a8fda       _GetLastError@0            300fcfda f   kernel32:KERNEL32.dll
 0002:000a8fe0       _GetCurrentThread@0        300fcfe0 f   kernel32:KERNEL32.dll
 0002:000a8fe6       _RaiseException@16         300fcfe6 f   kernel32:KERNEL32.dll
 0002:000a8fec       _ExitProcess@4             300fcfec f   kernel32:KERNEL32.dll
 0002:000a8ff2       _SetConsoleCtrlHandler@8   300fcff2 f   kernel32:KERNEL32.dll
 0002:000a8ff8       _LoadLibraryW@4            300fcff8 f   kernel32:KERNEL32.dll
 0002:000a8ffe       _EnterCriticalSection@4    300fcffe f   kernel32:KERNEL32.dll
 0002:000a9004       _LeaveCriticalSection@4    300fd004 f   kernel32:KERNEL32.dll
 0002:000a900a       _WideCharToMultiByte@32    300fd00a f   kernel32:KERNEL32.dll
 0002:000a9010       _LCMapStringW@24           300fd010 f   kernel32:KERNEL32.dll
 0002:000a9016       _MultiByteToWideChar@24    300fd016 f   kernel32:KERNEL32.dll
 0002:000a901c       _HeapValidate@12           300fd01c f   kernel32:KERNEL32.dll
 0002:000a9022       _IsBadReadPtr@8            300fd022 f   kernel32:KERNEL32.dll
 0002:000a9028       _SetHandleCount@4          300fd028 f   kernel32:KERNEL32.dll
 0002:000a902e       _InitializeCriticalSectionAndSpinCount@8 300fd02e f   kernel32:KERNEL32.dll
 0002:000a9034       _GetStartupInfoW@4         300fd034 f   kernel32:KERNEL32.dll
 0002:000a903a       _DeleteCriticalSection@4   300fd03a f   kernel32:KERNEL32.dll
 0002:000a9040       _GetModuleFileNameA@12     300fd040 f   kernel32:KERNEL32.dll
 0002:000a9046       _FreeEnvironmentStringsW@4 300fd046 f   kernel32:KERNEL32.dll
 0002:000a904c       _GetEnvironmentStringsW@0  300fd04c f   kernel32:KERNEL32.dll
 0002:000a9052       _HeapCreate@12             300fd052 f   kernel32:KERNEL32.dll
 0002:000a9058       _HeapDestroy@4             300fd058 f   kernel32:KERNEL32.dll
 0002:000a905e       _QueryPerformanceCounter@4 300fd05e f   kernel32:KERNEL32.dll
 0002:000a9064       _GetTickCount@0            300fd064 f   kernel32:KERNEL32.dll
 0002:000a906a       _GetCurrentProcessId@0     300fd06a f   kernel32:KERNEL32.dll
 0002:000a9070       _GetSystemTimeAsFileTime@4 300fd070 f   kernel32:KERNEL32.dll
 0002:000a9076       _GetStringTypeW@16         300fd076 f   kernel32:KERNEL32.dll
 0002:000a907c       _FatalAppExitA@8           300fd07c f   kernel32:KERNEL32.dll
 0002:000a9082       _WriteFile@20              300fd082 f   kernel32:KERNEL32.dll
 0002:000a9088       _OutputDebugStringA@4      300fd088 f   kernel32:KERNEL32.dll
 0002:000a908e       _OutputDebugStringW@4      300fd08e f   kernel32:KERNEL32.dll
 0002:000a9094       _RtlUnwind@16              300fd094 f   kernel32:KERNEL32.dll
 0002:000a909a       _SetFilePointer@16         300fd09a f   kernel32:KERNEL32.dll
 0002:000a90a0       _GetConsoleCP@0            300fd0a0 f   kernel32:KERNEL32.dll
 0002:000a90a6       _GetConsoleMode@8          300fd0a6 f   kernel32:KERNEL32.dll
 0002:000a90ac       _FreeLibrary@4             300fd0ac f   kernel32:KERNEL32.dll
 0002:000a90b2       _InterlockedExchange@8     300fd0b2 f   kernel32:KERNEL32.dll
 0002:000a90b8       _GetLocaleInfoW@16         300fd0b8 f   kernel32:KERNEL32.dll
 0002:000a90be       _FlushFileBuffers@4        300fd0be f   kernel32:KERNEL32.dll
 0002:000a90c4       _GetLocaleInfoA@16         300fd0c4 f   kernel32:KERNEL32.dll
 0002:000a90ca       _IsValidLocale@8           300fd0ca f   kernel32:KERNEL32.dll
 0002:000a90d0       _EnumSystemLocalesA@8      300fd0d0 f   kernel32:KERNEL32.dll
 0002:000a90d6       _GetUserDefaultLCID@0      300fd0d6 f   kernel32:KERNEL32.dll
 0002:000a90dc       _HeapAlloc@12              300fd0dc f   kernel32:KERNEL32.dll
 0002:000a90e2       _HeapReAlloc@16            300fd0e2 f   kernel32:KERNEL32.dll
 0002:000a90e8       _HeapSize@12               300fd0e8 f   kernel32:KERNEL32.dll
 0002:000a90ee       _HeapQueryInformation@20   300fd0ee f   kernel32:KERNEL32.dll
 0002:000a90f4       _HeapFree@12               300fd0f4 f   kernel32:KERNEL32.dll
 0002:000a90fa       _SetStdHandle@8            300fd0fa f   kernel32:KERNEL32.dll
 0002:000a9100       _CreateFileW@28            300fd100 f   kernel32:KERNEL32.dll
 0002:000a9106       _CloseHandle@4             300fd106 f   kernel32:KERNEL32.dll
 0003:00000000       ___xc_a                    300ff000     LIBCMTD:crt0init.obj
 0003:00000104       ___xc_z                    300ff104     LIBCMTD:crt0init.obj
 0003:00000208       ___xi_a                    300ff208     LIBCMTD:crt0init.obj
 0003:00000424       ___xi_z                    300ff424     LIBCMTD:crt0init.obj
 0003:00000528       ___xp_a                    300ff528     LIBCMTD:crt0init.obj
 0003:0000083c       ___xp_z                    300ff83c     LIBCMTD:crt0init.obj
 0003:00000940       ___xt_a                    300ff940     LIBCMTD:crt0init.obj
 0003:00000a44       ___xt_z                    300ffa44     LIBCMTD:crt0init.obj
 0003:00000b6c       ??_C@_08GBKLDCBE@EV_TAUNT?$AA@ 300ffb6c     bg_misc.obj
 0003:00000b78       ??_C@_0BE@OHJHDFJH@EV_STOPLOOPINGSOUND?$AA@ 300ffb78     bg_misc.obj
 0003:00000b90       ??_C@_0O@PBPAKHP@EV_DEBUG_LINE?$AA@ 300ffb90     bg_misc.obj
 0003:00000ba0       ??_C@_0N@GAJBP@EV_SCOREPLUM?$AA@ 300ffba0     bg_misc.obj
 0003:00000bb0       ??_C@_0O@JLGFLKBE@EV_GIB_PLAYER?$AA@ 300ffbb0     bg_misc.obj
 0003:00000bc0       ??_C@_0L@HFJJHBKJ@EV_ZOOMOUT?$AA@ 300ffbc0     bg_misc.obj
 0003:00000bd0       ??_C@_09DCGPBHAH@EV_ZOOMIN?$AA@ 300ffbd0     bg_misc.obj
 0003:00000bdc       ??_C@_0BE@DNBACDOH@EV_IMMOBILIZED_FREE?$AA@ 300ffbdc     bg_misc.obj
 0003:00000bf4       ??_C@_0P@CLLMONDH@EV_IMMOBILIZED?$AA@ 300ffbf4     bg_misc.obj
 0003:00000c08       ??_C@_0BB@EGIJIDAN@EV_POWERUP_REGEN?$AA@ 300ffc08     bg_misc.obj
 0003:00000c1c       ??_C@_0BG@CHAMNADK@EV_POWERUP_BATTLESUIT?$AA@ 300ffc1c     bg_misc.obj
 0003:00000c38       ??_C@_0BA@HLHGHIIE@EV_POWERUP_QUAD?$AA@ 300ffc38     bg_misc.obj
 0003:00000c4c       ??_C@_0M@PPLCDPP@EV_OBITUARY?$AA@ 300ffc4c     bg_misc.obj
 0003:00000c5c       ??_C@_09KNGHBIAK@EV_DEATH3?$AA@ 300ffc5c     bg_misc.obj
 0003:00000c68       ??_C@_09LEHMCJEL@EV_DEATH2?$AA@ 300ffc68     bg_misc.obj
 0003:00000c74       ??_C@_09JPFBHKII@EV_DEATH1?$AA@ 300ffc74     bg_misc.obj
 0003:00000c80       ??_C@_07EMHHKOOH@EV_PAIN?$AA@ 300ffc80     bg_misc.obj
 0003:00000c8c       ??_C@_09ICDIPKFJ@EV_BULLET?$AA@ 300ffc8c     bg_misc.obj
 0003:00000c98       ??_C@_0L@LHBIHDML@EV_SHOTGUN?$AA@ 300ffc98     bg_misc.obj
 0003:00000ca8       ??_C@_0N@HMLLJFGF@EV_RAILTRAIL?$AA@ 300ffca8     bg_misc.obj
 0003:00000cb8       ??_C@_0BG@LPAHEABB@EV_MISSILE_MISS_METAL?$AA@ 300ffcb8     bg_misc.obj
 0003:00000cd4       ??_C@_0BA@CAHALNAE@EV_MISSILE_MISS?$AA@ 300ffcd4     bg_misc.obj
 0003:00000ce8       ??_C@_0P@JFMFNBMO@EV_MISSILE_HIT?$AA@ 300ffce8     bg_misc.obj
 0003:00000cfc       ??_C@_0BD@MFLMCLPN@EV_BULLET_HIT_WALL?$AA@ 300ffcfc     bg_misc.obj
 0003:00000d14       ??_C@_0BE@KBABEJMP@EV_BULLET_HIT_FLESH?$AA@ 300ffd14     bg_misc.obj
 0003:00000d2c       ??_C@_0BF@DDOIKLHD@EV_GLOBAL_TEAM_SOUND?$AA@ 300ffd2c     bg_misc.obj
 0003:00000d48       ??_C@_0BA@JAMKLOPJ@EV_GLOBAL_SOUND?$AA@ 300ffd48     bg_misc.obj
 0003:00000d5c       ??_C@_0BB@LJGGMAII@EV_GENERAL_SOUND?$AA@ 300ffd5c     bg_misc.obj
 0003:00000d70       ??_C@_0N@DMONOBHP@EV_PL_BOUNCE?$AA@ 300ffd70     bg_misc.obj
 0003:00000d80       ??_C@_0BC@ECIIAFLJ@EV_GRENADE_BOUNCE?$AA@ 300ffd80     bg_misc.obj
 0003:00000d98       ??_C@_0BH@FNNILPIN@EV_PLAYER_TELEPORT_OUT?$AA@ 300ffd98     bg_misc.obj
 0003:00000db4       ??_C@_0BG@HBBJKNDP@EV_PLAYER_TELEPORT_IN?$AA@ 300ffdb4     bg_misc.obj
 0003:00000dd0       ??_C@_0M@ECGFPIMP@EV_ITEM_POP?$AA@ 300ffdd0     bg_misc.obj
 0003:00000de0       ??_C@_0BA@GJNCODNG@EV_ITEM_RESPAWN?$AA@ 300ffde0     bg_misc.obj
 0003:00000df4       ??_C@_0O@HHGOLJPJ@EV_USE_ITEM15?$AA@ 300ffdf4     bg_misc.obj
 0003:00000e04       ??_C@_0O@GOHFIILI@EV_USE_ITEM14?$AA@ 300ffe04     bg_misc.obj
 0003:00000e14       ??_C@_0O@CBDEBOHP@EV_USE_ITEM13?$AA@ 300ffe14     bg_misc.obj
 0003:00000e24       ??_C@_0O@DICPCPDO@EV_USE_ITEM12?$AA@ 300ffe24     bg_misc.obj
 0003:00000e34       ??_C@_0O@BDACHMPN@EV_USE_ITEM11?$AA@ 300ffe34     bg_misc.obj
 0003:00000e44       ??_C@_0O@KBJENLM@EV_USE_ITEM10?$AA@ 300ffe44     bg_misc.obj
 0003:00000e54       ??_C@_0N@PHODCBCK@EV_USE_ITEM9?$AA@ 300ffe54     bg_misc.obj
 0003:00000e64       ??_C@_0N@OOPIBAGL@EV_USE_ITEM8?$AA@ 300ffe64     bg_misc.obj
 0003:00000e74       ??_C@_0N@GJGAAMKE@EV_USE_ITEM7?$AA@ 300ffe74     bg_misc.obj
 0003:00000e84       ??_C@_0N@HAHLDNOF@EV_USE_ITEM6?$AA@ 300ffe84     bg_misc.obj
 0003:00000e94       ??_C@_0N@FLFGGOCG@EV_USE_ITEM5?$AA@ 300ffe94     bg_misc.obj
 0003:00000ea4       ??_C@_0N@ECENFPGH@EV_USE_ITEM4?$AA@ 300ffea4     bg_misc.obj
 0003:00000eb4       ??_C@_0N@NAMMJKA@EV_USE_ITEM3?$AA@ 300ffeb4     bg_misc.obj
 0003:00000ec4       ??_C@_0N@BEBHPIOB@EV_USE_ITEM2?$AA@ 300ffec4     bg_misc.obj
 0003:00000ed4       ??_C@_0N@DPDKKLCC@EV_USE_ITEM1?$AA@ 300ffed4     bg_misc.obj
 0003:00000ee4       ??_C@_0N@CGCBJKGD@EV_USE_ITEM0?$AA@ 300ffee4     bg_misc.obj
 0003:00000ef4       ??_C@_0P@PFJPAFGH@EV_FIRE_WEAPON?$AA@ 300ffef4     bg_misc.obj
 0003:00000f08       ??_C@_0BB@ENKPHJLP@EV_CHANGE_WEAPON?$AA@ 300fff08     bg_misc.obj
 0003:00000f1c       ??_C@_09NMIICG@EV_NOAMMO?$AA@ 300fff1c     bg_misc.obj
 0003:00000f28       ??_C@_0BG@KFILGAMN@EV_GLOBAL_ITEM_PICKUP?$AA@ 300fff28     bg_misc.obj
 0003:00000f44       ??_C@_0P@BGIOEPCB@EV_ITEM_PICKUP?$AA@ 300fff44     bg_misc.obj
 0003:00000f58       ??_C@_0P@NIPCJOBG@EV_WATER_CLEAR?$AA@ 300fff58     bg_misc.obj
 0003:00000f6c       ??_C@_0P@MIAIODEJ@EV_WATER_UNDER?$AA@ 300fff6c     bg_misc.obj
 0003:00000f80       ??_C@_0P@LHDMOIIG@EV_WATER_LEAVE?$AA@ 300fff80     bg_misc.obj
 0003:00000f94       ??_C@_0P@GCDBKPMP@EV_WATER_TOUCH?$AA@ 300fff94     bg_misc.obj
 0003:00000fa8       ??_C@_07GKBEHGAP@EV_JUMP?$AA@ 300fffa8     bg_misc.obj
 0003:00000fb4       ??_C@_0M@BPNFGBOJ@EV_JUMP_PAD?$AA@ 300fffb4     bg_misc.obj
 0003:00000fc4       ??_C@_0M@LKJJNJOM@EV_FALL_FAR?$AA@ 300fffc4     bg_misc.obj
 0003:00000fd4       ??_C@_0P@MGFLMCKC@EV_FALL_MEDIUM?$AA@ 300fffd4     bg_misc.obj
 0003:00000fe8       ??_C@_0O@EAFDHAJM@EV_FALL_SHORT?$AA@ 300fffe8     bg_misc.obj
 0003:00000ff8       ??_C@_0L@HOOIOPKF@EV_STEP_16?$AA@ 300ffff8     bg_misc.obj
 0003:00001008       ??_C@_0L@BKIECKKB@EV_STEP_12?$AA@ 30100008     bg_misc.obj
 0003:00001018       ??_C@_09EHOLDGNN@EV_STEP_8?$AA@ 30100018     bg_misc.obj
 0003:00001024       ??_C@_09OLFOHJNB@EV_STEP_4?$AA@ 30100024     bg_misc.obj
 0003:00001030       ??_C@_07FFIIIPLH@EV_SWIM?$AA@ 30100030     bg_misc.obj
 0003:0000103c       ??_C@_0M@NPJBGELA@EV_FOOTWADE?$AA@ 3010003c     bg_misc.obj
 0003:0000104c       ??_C@_0O@HLJHKIDH@EV_FOOTSPLASH?$AA@ 3010004c     bg_misc.obj
 0003:0000105c       ??_C@_0BC@DIJMAMMI@EV_FOOTSTEP_METAL?$AA@ 3010005c     bg_misc.obj
 0003:00001074       ??_C@_0M@HLKBOJPO@EV_FOOTSTEP?$AA@ 30100074     bg_misc.obj
 0003:00001084       ??_C@_07JFMDDPHJ@EV_NONE?$AA@ 30100084     bg_misc.obj
 0003:00001090       ??_C@_0M@JBPODGEJ@Turret?5Ammo?$AA@ 30100090     bg_misc.obj
 0003:000010a0       ??_C@_0BB@JMEPAFJD@?7icons?1icona_bfg?$AA@ 301000a0     bg_misc.obj
 0003:000010b4       ??_C@_0M@IDPLOENM@ammo_turret?$AA@ 301000b4     bg_misc.obj
 0003:000010c4       ??_C@_06KJINBPNG@Turret?$AA@ 301000c4     bg_misc.obj
 0003:000010cc       ??_C@_0BD@HLMPDGIB@icons?1iconw_turret?$AA@ 301000cc     bg_misc.obj
 0003:000010e4       ??_C@_0BI@LADHNDA@models?1turrets?1gun2?4md3?$AA@ 301000e4     bg_misc.obj
 0003:00001100       ??_C@_0O@MDAHGGAO@weapon_turret?$AA@ 30100100     bg_misc.obj
 0003:00001110       ??_C@_09MDBFHCAB@Blue?5Flag?$AA@ 30100110     bg_misc.obj
 0003:0000111c       ??_C@_0BB@EMIIAFKA@icons?1iconf_blu1?$AA@ 3010011c     bg_misc.obj
 0003:00001130       ??_C@_0BI@FKICCNIF@models?1flags?1b_flag?4md3?$AA@ 30100130     bg_misc.obj
 0003:0000114c       ??_C@_0BC@NLKCOFAB@team_CTF_blueflag?$AA@ 3010014c     bg_misc.obj
 0003:00001164       ??_C@_08GAOGPIJL@Red?5Flag?$AA@ 30100164     bg_misc.obj
 0003:00001170       ??_C@_0BB@EMIEBEOP@icons?1iconf_red1?$AA@ 30100170     bg_misc.obj
 0003:00001184       ??_C@_0BI@PEHEOJEO@models?1flags?1r_flag?4md3?$AA@ 30100184     bg_misc.obj
 0003:000011a0       ??_C@_0BB@JNMMCIHG@team_CTF_redflag?$AA@ 301001a0     bg_misc.obj
 0003:000011b4       ??_C@_06FDKFDAP@Flight?$AA@ 301001b4     bg_misc.obj
 0003:000011bc       ??_C@_0N@GLEPEEPG@icons?1flight?$AA@ 301001bc     bg_misc.obj
 0003:000011cc       ??_C@_0CI@IADFFEDP@models?1powerups?1instant?1flight_r@ 301001cc     bg_misc.obj
 0003:000011fc       ??_C@_0CD@MKDGJOMG@models?1powerups?1instant?1flight?4m@ 301001fc     bg_misc.obj
 0003:00001228       ??_C@_0BH@OMEMFENG@sound?1items?1flight?4ogg?$AA@ 30100228     bg_misc.obj
 0003:00001244       ??_C@_0M@MBNKEMMH@item_flight?$AA@ 30100244     bg_misc.obj
 0003:00001254       ??_C@_0BG@HFMCMKHP@sound?1items?1regen?4ogg?$AA@ 30100254     bg_misc.obj
 0003:00001270       ??_C@_0N@CBPBLBHG@Regeneration?$AA@ 30100270     bg_misc.obj
 0003:00001280       ??_C@_0M@FDCLJBFC@icons?1regen?$AA@ 30100280     bg_misc.obj
 0003:00001290       ??_C@_0CH@FANACKJM@models?1powerups?1instant?1regen_ri@ 30100290     bg_misc.obj
 0003:000012c0       ??_C@_0CC@OEAPIKIN@models?1powerups?1instant?1regen?4md@ 301002c0     bg_misc.obj
 0003:000012e8       ??_C@_0BN@CDJDFNIH@sound?1items?1regeneration?4ogg?$AA@ 301002e8     bg_misc.obj
 0003:0000130c       ??_C@_0L@MMGPPPDM@item_regen?$AA@ 3010030c     bg_misc.obj
 0003:0000131c       ??_C@_0N@LCCEENAK@Invisibility?$AA@ 3010031c     bg_misc.obj
 0003:0000132c       ??_C@_0M@FDDJPHJJ@icons?1invis?$AA@ 3010032c     bg_misc.obj
 0003:0000133c       ??_C@_0CH@IMIHJDNC@models?1powerups?1instant?1invis_ri@ 3010033c     bg_misc.obj
 0003:0000136c       ??_C@_0CC@HBONCEML@models?1powerups?1instant?1invis?4md@ 3010036c     bg_misc.obj
 0003:00001394       ??_C@_0BN@CLONDLLD@sound?1items?1invisibility?4ogg?$AA@ 30100394     bg_misc.obj
 0003:000013b8       ??_C@_0L@MMHNJJPH@item_invis?$AA@ 301003b8     bg_misc.obj
 0003:000013c8       ??_C@_05HOIAGEJD@Speed?$AA@ 301003c8     bg_misc.obj
 0003:000013d0       ??_C@_0M@CFINMGCL@icons?1haste?$AA@ 301003d0     bg_misc.obj
 0003:000013e0       ??_C@_0CH@KKDDKNEF@models?1powerups?1instant?1haste_ri@ 301003e0     bg_misc.obj
 0003:00001410       ??_C@_0CC@NKPAJCMI@models?1powerups?1instant?1haste?4md@ 30100410     bg_misc.obj
 0003:00001438       ??_C@_0BG@ELDNNCDK@sound?1items?1haste?4ogg?$AA@ 30100438     bg_misc.obj
 0003:00001454       ??_C@_0L@LKMJKIEF@item_haste?$AA@ 30100454     bg_misc.obj
 0003:00001464       ??_C@_0DA@DNFJPMEC@sound?1items?1airout?4ogg?5sound?1ite@ 30100464     bg_misc.obj
 0003:000014a0       ??_C@_0M@ONKEJEFE@Battle?5Suit?$AA@ 301004a0     bg_misc.obj
 0003:000014b0       ??_C@_0BB@MGICBJOH@icons?1envirosuit?$AA@ 301004b0     bg_misc.obj
 0003:000014c4       ??_C@_0CI@KAEDJDGE@models?1powerups?1instant?1enviro_r@ 301004c4     bg_misc.obj
 0003:000014f4       ??_C@_0CD@JLGNIGLA@models?1powerups?1instant?1enviro?4m@ 301004f4     bg_misc.obj
 0003:00001520       ??_C@_0BI@PGFIKKOB@sound?1items?1protect?4ogg?$AA@ 30100520     bg_misc.obj
 0003:0000153c       ??_C@_0M@HBCGNAN@item_enviro?$AA@ 3010053c     bg_misc.obj
 0003:0000154c       ??_C@_0DA@NKOABMFK@sound?1items?1damage2?4ogg?5sound?1it@ 3010054c     bg_misc.obj
 0003:00001588       ??_C@_0M@KOJLOALK@Quad?5Damage?$AA@ 30100588     bg_misc.obj
 0003:00001598       ??_C@_0L@DICHEOBB@icons?1quad?$AA@ 30100598     bg_misc.obj
 0003:000015a8       ??_C@_0CG@JNMBMLHJ@models?1powerups?1instant?1quad_rin@ 301005a8     bg_misc.obj
 0003:000015d8       ??_C@_0CB@HIFGFDGN@models?1powerups?1instant?1quad?4md3@ 301005d8     bg_misc.obj
 0003:00001600       ??_C@_0BL@KJLAJOPC@sound?1items?1quaddamage?4ogg?$AA@ 30100600     bg_misc.obj
 0003:00001620       ??_C@_09MDKNIFFH@item_quad?$AA@ 30100620     bg_misc.obj
 0003:0000162c       ??_C@_0BL@KJHMNGLE@sound?1items?1use_medkit?4ogg?$AA@ 3010062c     bg_misc.obj
 0003:0000164c       ??_C@_0N@PNMDFAPK@icons?1medkit?$AA@ 3010064c     bg_misc.obj
 0003:0000165c       ??_C@_0CL@LOBKLABC@models?1powerups?1holdable?1medkit_@ 3010065c     bg_misc.obj
 0003:00001690       ??_C@_0CE@NKMJILL@models?1powerups?1holdable?1medkit?4@ 30100690     bg_misc.obj
 0003:000016bc       ??_C@_0BA@PDDMBOCP@holdable_medkit?$AA@ 301006bc     bg_misc.obj
 0003:000016d0       ??_C@_0BE@PCKJDFFA@Personal?5Teleporter?$AA@ 301006d0     bg_misc.obj
 0003:000016e8       ??_C@_0BB@HCFICFKF@icons?1teleporter?$AA@ 301006e8     bg_misc.obj
 0003:000016fc       ??_C@_0CI@FHEOFFOB@models?1powerups?1holdable?1telepor@ 301006fc     bg_misc.obj
 0003:0000172c       ??_C@_0BJ@DPHHCJOK@sound?1items?1holdable?4ogg?$AA@ 3010072c     bg_misc.obj
 0003:0000174c       ??_C@_0BE@GNEKBMLB@holdable_teleporter?$AA@ 3010074c     bg_misc.obj
 0003:00001764       ??_C@_0BA@NIKNDLKG@icons?1icona_bfg?$AA@ 30100764     bg_misc.obj
 0003:00001778       ??_C@_0BP@BOBKFIKJ@models?1powerups?1ammo?1bfgam?4md3?$AA@ 30100778     bg_misc.obj
 0003:000017a0       ??_C@_08EHEJHGBG@ammo_bfg?$AA@ 301007a0     bg_misc.obj
 0003:000017ac       ??_C@_0M@IJJGOAAB@Gauss?5Cells?$AA@ 301007ac     bg_misc.obj
 0003:000017bc       ??_C@_0BE@DPOADFL@icons?1icona_railgun?$AA@ 301007bc     bg_misc.obj
 0003:000017d4       ??_C@_0CD@CAJEPMME@models?1powerups?1ammo?1railgunam?4m@ 301007d4     bg_misc.obj
 0003:00001800       ??_C@_0L@JEFOIHIM@ammo_slugs?$AA@ 30100800     bg_misc.obj
 0003:00001810       ??_C@_0BI@FBEHHFDG@Singularity?5Reactor?5Rod?$AA@ 30100810     bg_misc.obj
 0003:0000182c       ??_C@_0BD@BFBJLPJK@icons?1icona_rocket?$AA@ 3010082c     bg_misc.obj
 0003:00001844       ??_C@_0CC@KCOEDLFM@models?1powerups?1ammo?1rocketam?4md@ 30100844     bg_misc.obj
 0003:0000186c       ??_C@_0N@CLEPKBOE@ammo_rockets?$AA@ 3010086c     bg_misc.obj
 0003:0000187c       ??_C@_0L@LBDPEOIE@Flame?5Ammo?$AA@ 3010087c     bg_misc.obj
 0003:0000188c       ??_C@_0BG@MEGMAGOM@icons?1icona_lightning?$AA@ 3010088c     bg_misc.obj
 0003:000018a8       ??_C@_0CF@HDAADIIL@models?1powerups?1ammo?1lightningam@ 301008a8     bg_misc.obj
 0003:000018d4       ??_C@_0P@NBJHKAMD@ammo_lightning?$AA@ 301008d4     bg_misc.obj
 0003:000018e8       ??_C@_0L@BMHPCLCJ@Gata?5Discs?$AA@ 301008e8     bg_misc.obj
 0003:000018f8       ??_C@_0BD@NCNJEHKB@icons?1icona_plasma?$AA@ 301008f8     bg_misc.obj
 0003:00001910       ??_C@_0CC@FGLALJGN@models?1powerups?1ammo?1plasmaam?4md@ 30100910     bg_misc.obj
 0003:00001938       ??_C@_0L@LLNMBAJC@ammo_cells?$AA@ 30100938     bg_misc.obj
 0003:00001948       ??_C@_08PMBIADEN@Grenades?$AA@ 30100948     bg_misc.obj
 0003:00001954       ??_C@_0BE@LHOKGGAM@icons?1icona_grenade?$AA@ 30100954     bg_misc.obj
 0003:0000196c       ??_C@_0CD@HNOBKKLC@models?1powerups?1ammo?1grenadeam?4m@ 3010096c     bg_misc.obj
 0003:00001998       ??_C@_0O@CMJIOKCF@ammo_grenades?$AA@ 30100998     bg_misc.obj
 0003:000019a8       ??_C@_08OAGDODMJ@LFO?5Cell?$AA@ 301009a8     bg_misc.obj
 0003:000019b4       ??_C@_0BH@HMOAGCNP@icons?1icona_machinegun?$AA@ 301009b4     bg_misc.obj
 0003:000019d0       ??_C@_0CG@OLENEOKN@models?1powerups?1ammo?1machineguna@ 301009d0     bg_misc.obj
 0003:00001a00       ??_C@_0N@NHCMDNIK@ammo_bullets?$AA@ 30100a00     bg_misc.obj
 0003:00001a10       ??_C@_06PBPEPGGL@Shells?$AA@ 30100a10     bg_misc.obj
 0003:00001a18       ??_C@_0BE@NMAFHJEI@icons?1icona_shotgun?$AA@ 30100a18     bg_misc.obj
 0003:00001a30       ??_C@_0CD@MBAGJHDE@models?1powerups?1ammo?1shotgunam?4m@ 30100a30     bg_misc.obj
 0003:00001a5c       ??_C@_0BH@PNPJBLIF@sound?1misc?1am_pkup?4ogg?$AA@ 30100a5c     bg_misc.obj
 0003:00001a78       ??_C@_0M@NLICANGB@ammo_shells?$AA@ 30100a78     bg_misc.obj
 0003:00001a88       ??_C@_0P@CFJPDDC@Grappling?5Hook?$AA@ 30100a88     bg_misc.obj
 0003:00001a9c       ??_C@_0BE@DPKNJNBE@icons?1iconw_grapple?$AA@ 30100a9c     bg_misc.obj
 0003:00001ab4       ??_C@_0CE@LFAGANA@models?1weapons2?1grapple?1grapple?4@ 30100ab4     bg_misc.obj
 0003:00001ae0       ??_C@_0BF@MEMGGPGH@weapon_grapplinghook?$AA@ 30100ae0     bg_misc.obj
 0003:00001afc       ??_C@_0L@JGBIKAO@Devastator?$AA@ 30100afc     bg_misc.obj
 0003:00001b0c       ??_C@_0BA@NCCNKCA@icons?1iconw_bfg?$AA@ 30100b0c     bg_misc.obj
 0003:00001b20       ??_C@_0BM@HHDGGOHP@models?1weapons2?1bfg?1bfg?4md3?$AA@ 30100b20     bg_misc.obj
 0003:00001b44       ??_C@_0L@JBGNLNGG@weapon_bfg?$AA@ 30100b44     bg_misc.obj
 0003:00001b54       ??_C@_08KINKOGP@Gata?5Gun?$AA@ 30100b54     bg_misc.obj
 0003:00001b60       ??_C@_0BD@NADHMFK@icons?1iconw_plasma?$AA@ 30100b60     bg_misc.obj
 0003:00001b78       ??_C@_0CC@EHGHEDND@models?1weapons2?1plasma?1plasma?4md@ 30100b78     bg_misc.obj
 0003:00001ba0       ??_C@_0BB@LBHAKENA@weapon_plasmagun?$AA@ 30100ba0     bg_misc.obj
 0003:00001bb4       ??_C@_0BA@PIIOLPEK@M42?5Gauss?5Rifle?$AA@ 30100bb4     bg_misc.obj
 0003:00001bc8       ??_C@_0BE@CJEOPCPE@icons?1iconw_railgun?$AA@ 30100bc8     bg_misc.obj
 0003:00001be0       ??_C@_0CE@JHJFFEBE@models?1weapons2?1railgun?1railgun?4@ 30100be0     bg_misc.obj
 0003:00001c0c       ??_C@_0P@FEPBKEBF@weapon_railgun?$AA@ 30100c0c     bg_misc.obj
 0003:00001c20       ??_C@_0O@PLONGGH@Flame?5Thrower?$AA@ 30100c20     bg_misc.obj
 0003:00001c30       ??_C@_0BC@FPENNALA@icons?1iconw_flame?$AA@ 30100c30     bg_misc.obj
 0003:00001c48       ??_C@_0CO@NOBDPJNE@models?1weapons2?1flamethrower?1fla@ 30100c48     bg_misc.obj
 0003:00001c80       ??_C@_0BB@OCCEAFCD@weapon_lightning?$AA@ 30100c80     bg_misc.obj
 0003:00001c94       ??_C@_0BD@DLLFKBOL@Singularity?5Cannon?$AA@ 30100c94     bg_misc.obj
 0003:00001cac       ??_C@_0BD@MKMDIEGB@icons?1iconw_rocket?$AA@ 30100cac     bg_misc.obj
 0003:00001cc4       ??_C@_0CE@GGGFLKKE@models?1weapons2?1rocketl?1rocketl?4@ 30100cc4     bg_misc.obj
 0003:00001cf0       ??_C@_0BG@HJKONAJE@weapon_rocketlauncher?$AA@ 30100cf0     bg_misc.obj
 0003:00001d10       ??_C@_0EG@LFEMOCGK@sound?1weapons?1grenade?1hgrenb1a?4w@ 30100d10     bg_misc.obj
 0003:00001d64       ??_C@_0BB@GIEOMMBO@Grenade?5Launcher?$AA@ 30100d64     bg_misc.obj
 0003:00001d78       ??_C@_0BE@JNFKJHKD@icons?1iconw_grenade?$AA@ 30100d78     bg_misc.obj
 0003:00001d90       ??_C@_0CG@INCGOMDL@models?1weapons2?1grenadel?1grenade@ 30100d90     bg_misc.obj
 0003:00001dc0       ??_C@_0BH@DGCCJPLM@weapon_grenadelauncher?$AA@ 30100dc0     bg_misc.obj
 0003:00001ddc       ??_C@_09JIBFFKEO@LFO?5Rifle?$AA@ 30100ddc     bg_misc.obj
 0003:00001de8       ??_C@_0BH@GIACBLNI@icons?1iconw_machinegun?$AA@ 30100de8     bg_misc.obj
 0003:00001e04       ??_C@_0CK@BBPFNIFO@models?1weapons2?1machinegun?1machi@ 30100e04     bg_misc.obj
 0003:00001e38       ??_C@_0BC@HHBNPFPN@weapon_machinegun?$AA@ 30100e38     bg_misc.obj
 0003:00001e50       ??_C@_07DGIAOJJ@Shotgun?$AA@ 30100e50     bg_misc.obj
 0003:00001e5c       ??_C@_0BE@PGLFIIOH@icons?1iconw_shotgun?$AA@ 30100e5c     bg_misc.obj
 0003:00001e74       ??_C@_0CE@CJGCHKCN@models?1weapons2?1shotgun?1shotgun?4@ 30100e74     bg_misc.obj
 0003:00001ea0       ??_C@_0P@ILAKNOAG@weapon_shotgun?$AA@ 30100ea0     bg_misc.obj
 0003:00001eb4       ??_C@_08ELAHAPJB@Gauntlet?$AA@ 30100eb4     bg_misc.obj
 0003:00001ec0       ??_C@_0BF@PMEPIOCM@icons?1iconw_gauntlet?$AA@ 30100ec0     bg_misc.obj
 0003:00001edc       ??_C@_0CG@PFPPJBAC@models?1weapons2?1gauntlet?1gauntle@ 30100edc     bg_misc.obj
 0003:00001f0c       ??_C@_0BG@NDFMFOAJ@sound?1misc?1w_pkup?4ogg?$AA@ 30100f0c     bg_misc.obj
 0003:00001f28       ??_C@_0BA@CLDPODJE@weapon_gauntlet?$AA@ 30100f28     bg_misc.obj
 0003:00001f3c       ??_C@_06JDLGEHAD@Medkit?$AA@ 30100f3c     bg_misc.obj
 0003:00001f44       ??_C@_0BB@EGPGIMOM@icons?1iconh_mega?$AA@ 30100f44     bg_misc.obj
 0003:00001f58       ??_C@_0CH@NEGHBKPB@models?1powerups?1health?1mega_sphe@ 30100f58     bg_misc.obj
 0003:00001f88       ??_C@_0CG@PDJMMGME@models?1powerups?1health?1mega_cros@ 30100f88     bg_misc.obj
 0003:00001fb8       ??_C@_0BJ@JEEPGHAE@sound?1items?1m_health?4ogg?$AA@ 30100fb8     bg_misc.obj
 0003:00001fd8       ??_C@_0BB@PBGAONGH@item_health_mega?$AA@ 30100fd8     bg_misc.obj
 0003:00001fec       ??_C@_09EBELOOOD@50?5Health?$AA@ 30100fec     bg_misc.obj
 0003:00001ff8       ??_C@_0BA@IGNANAGL@icons?1iconh_red?$AA@ 30100ff8     bg_misc.obj
 0003:0000200c       ??_C@_0CI@CEEMEFNH@models?1powerups?1health?1large_sph@ 3010100c     bg_misc.obj
 0003:0000203c       ??_C@_0CH@NHFAKEFE@models?1powerups?1health?1large_cro@ 3010103c     bg_misc.obj
 0003:0000206c       ??_C@_0BJ@EJNJLOIB@sound?1items?1l_health?4ogg?$AA@ 3010106c     bg_misc.obj
 0003:0000208c       ??_C@_0BC@JGDLKFIO@item_health_large?$AA@ 3010108c     bg_misc.obj
 0003:000020a4       ??_C@_09OJAALANF@25?5Health?$AA@ 301010a4     bg_misc.obj
 0003:000020b0       ??_C@_0BD@CDBLAHCA@icons?1iconh_yellow?$AA@ 301010b0     bg_misc.obj
 0003:000020c8       ??_C@_0CJ@NCCPDHOD@models?1powerups?1health?1medium_sp@ 301010c8     bg_misc.obj
 0003:000020fc       ??_C@_0CI@NAEMLIB@models?1powerups?1health?1medium_cr@ 301010fc     bg_misc.obj
 0003:0000212c       ??_C@_0BJ@CJIFALMK@sound?1items?1n_health?4ogg?$AA@ 3010112c     bg_misc.obj
 0003:0000214c       ??_C@_0M@KCNAKNNL@item_health?$AA@ 3010114c     bg_misc.obj
 0003:0000215c       ??_C@_08IAIFJOAI@5?5Health?$AA@ 3010115c     bg_misc.obj
 0003:00002168       ??_C@_0BC@IMNPBGFF@icons?1iconh_green?$AA@ 30101168     bg_misc.obj
 0003:00002180       ??_C@_0CI@MPAPPIIE@models?1powerups?1health?1small_sph@ 30101180     bg_misc.obj
 0003:000021b0       ??_C@_0CH@JKNLMIJB@models?1powerups?1health?1small_cro@ 301011b0     bg_misc.obj
 0003:000021e0       ??_C@_0BJ@NKKOMNGO@sound?1items?1s_health?4ogg?$AA@ 301011e0     bg_misc.obj
 0003:00002200       ??_C@_0BC@DOHAFEBI@item_health_small?$AA@ 30101200     bg_misc.obj
 0003:00002218       ??_C@_0M@ICCAHGAD@Heavy?5Armor?$AA@ 30101218     bg_misc.obj
 0003:00002228       ??_C@_0BA@CEJNPBJG@icons?1iconr_red?$AA@ 30101228     bg_misc.obj
 0003:0000223c       ??_C@_0CE@EGJFDJJK@models?1powerups?1armor?1armor_red?4@ 3010123c     bg_misc.obj
 0003:00002268       ??_C@_0BA@EKKMHIH@item_armor_body?$AA@ 30101268     bg_misc.obj
 0003:0000227c       ??_C@_05JOOFIMIN@Armor?$AA@ 3010127c     bg_misc.obj
 0003:00002284       ??_C@_0BD@BKPFMPMP@icons?1iconr_yellow?$AA@ 30101284     bg_misc.obj
 0003:0000229c       ??_C@_0CE@PHKMKHKB@models?1powerups?1armor?1armor_yel?4@ 3010129c     bg_misc.obj
 0003:000022c8       ??_C@_0BI@GPDGGCLI@sound?1misc?1ar2_pkup?4ogg?$AA@ 301012c8     bg_misc.obj
 0003:000022e4       ??_C@_0BC@FPPLPJIL@item_armor_combat?$AA@ 301012e4     bg_misc.obj
 0003:000022fc       ??_C@_0M@PJIPIDNH@Armor?5Shard?$AA@ 301012fc     bg_misc.obj
 0003:0000230c       ??_C@_0BC@LPFHDODA@icons?1iconr_shard?$AA@ 3010130c     bg_misc.obj
 0003:00002324       ??_C@_0CH@NEKDLKN@models?1powerups?1armor?1shard_sphe@ 30101324     bg_misc.obj
 0003:00002354       ??_C@_0CA@NOFOCCIK@models?1powerups?1armor?1shard?4md3?$AA@ 30101354     bg_misc.obj
 0003:0000237c       ??_C@_0BI@PGNEAELJ@sound?1misc?1ar1_pkup?4ogg?$AA@ 3010137c     bg_misc.obj
 0003:00002398       ??_C@_0BB@DDGIAABK@item_armor_shard?$AA@ 30101398     bg_misc.obj
 0003:000023ac       ??_C@_00CNPNBAHC@?$AA@     301013ac     bg_misc.obj
 0003:000023b0       ??_C@_0BH@MFGKJDLM@HoldableItem?5not?5found?$AA@ 301013b0     bg_misc.obj
 0003:000023cc       ??_C@_0CB@DEACFJO@Couldn?8t?5find?5item?5for?5weapon?5?$CFi@ 301013cc     bg_misc.obj
 0003:000023f8       __real@c042000000000000    301013f8     bg_misc.obj
 0003:00002408       __real@4042000000000000    30101408     bg_misc.obj
 0003:00002418       __real@c049000000000000    30101418     bg_misc.obj
 0003:00002428       __real@4046000000000000    30101428     bg_misc.obj
 0003:00002434       ??_C@_0CG@HNLFCMEK@BG_CanItemBeGrabbed?3?5unknown?5enu@ 30101434     bg_misc.obj
 0003:00002464       ??_C@_0BM@NECGLAIF@BG_CanItemBeGrabbed?3?5IT_BAD?$AA@ 30101464     bg_misc.obj
 0003:00002488       ??_C@_0CI@MFONMA@BG_CanItemBeGrabbed?3?5index?5out?5o@ 30101488     bg_misc.obj
 0003:000024b8       ??_C@_0CK@DNBGNAED@BG_EvaluateTrajectory?3?5unknown?5t@ 301014b8     bg_misc.obj
 0003:000024f0       __real@404e000000000000    301014f0     bg_misc.obj
 0003:00002500       __real@4079000000000000    30101500     bg_misc.obj
 0003:0000250c       __real@00000000            3010150c     bg_misc.obj
 0003:00002510       __real@0000000000000000    30101510     bg_misc.obj
 0003:00002520       __real@400921fb60000000    30101520     bg_misc.obj
 0003:00002530       __real@3f50624dd2f1a9fc    30101530     bg_misc.obj
 0003:0000253c       ??_C@_0CP@MCFPOIMF@BG_EvaluateTrajectoryDelta?3?5unkn@ 3010153c     bg_misc.obj
 0003:00002578       __real@405e000000000000    30101578     bg_misc.obj
 0003:00002588       __real@4089000000000000    30101588     bg_misc.obj
 0003:00002598       __real@3fe0000000000000    30101598     bg_misc.obj
 0003:000025a4       ??_C@_0DA@KOPJLGJF@Cgame?5event?5svt?5?$CF5d?5?9?$DO?5?$CF5d?3?5num?5@ 301015a4     bg_misc.obj
 0003:000025e0       ??_C@_0L@MNPDPHLD@showevents?$AA@ 301015e0     bg_misc.obj
 0003:000025f0       __real@4046800000000000    301015f0     bg_misc.obj
 0003:00002600       __real@3f76800000000000    30101600     bg_pmove.obj
 0003:00002610       __real@3ff0000000000000    30101610     bg_pmove.obj
 0003:0000261c       __real@3f8020c5            3010161c     bg_pmove.obj
 0003:00002620       __real@c2700000            30101620     bg_pmove.obj
 0003:00002628       __real@405fc00000000000    30101628     bg_pmove.obj
 0003:00002634       __real@43af0000            30101634     bg_pmove.obj
 0003:00002638       __real@4069000000000000    30101638     bg_pmove.obj
 0003:00002648       __real@4030000000000000    30101648     bg_pmove.obj
 0003:00002658       __real@4010000000000000    30101658     bg_pmove.obj
 0003:00002668       __real@403e000000000000    30101668     bg_pmove.obj
 0003:00002678       __real@4024000000000000    30101678     bg_pmove.obj
 0003:00002688       __real@4059000000000000    30101688     bg_pmove.obj
 0003:00002698       __real@c030000000000000    30101698     bg_pmove.obj
 0003:000026a8       __real@4008000000000000    301016a8     bg_pmove.obj
 0003:000026b4       __real@43870000            301016b4     bg_pmove.obj
 0003:000026b8       __real@4034000000000000    301016b8     bg_pmove.obj
 0003:000026c8       __real@3ff8000000000000    301016c8     bg_pmove.obj
 0003:000026d8       __real@c069000000000000    301016d8     bg_pmove.obj
 0003:000026e4       ??_C@_08KACHPCJN@?$CFi?3Land?6?$AA@ 301016e4     bg_pmove.obj
 0003:000026f0       ??_C@_09OPMLNNOA@?$CFi?3steep?6?$AA@ 301016f0     bg_pmove.obj
 0003:00002700       __real@3fe6666660000000    30101700     bg_pmove.obj
 0003:0000270c       ??_C@_0M@CKJFDFGH@?$CFi?3kickoff?6?$AA@ 3010170c     bg_pmove.obj
 0003:00002720       __real@3fd0000000000000    30101720     bg_pmove.obj
 0003:00002730       __real@401c000000000000    30101730     bg_pmove.obj
 0003:00002740       __real@4044000000000000    30101740     bg_pmove.obj
 0003:00002750       __real@3f1a36e2eb1c432d    30101750     bg_pmove.obj
 0003:00002760       __real@4000000000000000    30101760     bg_pmove.obj
 0003:0000276c       ??_C@_0N@KJCNHCBK@?$CFi?3allsolid?6?$AA@ 3010176c     bg_pmove.obj
 0003:00002780       __real@4050000000000000    30101780     bg_pmove.obj
 0003:0000278c       ??_C@_08EOGJDHPF@?$CFi?3lift?6?$AA@ 3010178c     bg_pmove.obj
 0003:00002798       __real@c038000000000000    30101798     bg_pmove.obj
 0003:000027a4       __real@42000000            301017a4     bg_pmove.obj
 0003:000027a8       __real@c1000000            301017a8     bg_pmove.obj
 0003:000027ac       __real@41800000            301017ac     bg_pmove.obj
 0003:000027b0       __real@41700000            301017b0     bg_pmove.obj
 0003:000027b4       __real@c1c00000            301017b4     bg_pmove.obj
 0003:000027b8       __real@c1700000            301017b8     bg_pmove.obj
 0003:000027bc       __real@42280000            301017bc     bg_pmove.obj
 0003:000027c0       __real@c2280000            301017c0     bg_pmove.obj
 0003:000027c4       __real@3e99999a            301017c4     bg_pmove.obj
 0003:000027c8       __real@3ecccccd            301017c8     bg_pmove.obj
 0003:000027cc       __real@3f000000            301017cc     bg_pmove.obj
 0003:000027d0       __real@4014000000000000    301017d0     bg_pmove.obj
 0003:000027e0       __real@3ff4cccccccccccd    301017e0     bg_pmove.obj
 0003:000027f0       __real@3fb999999999999a    301017f0     bg_slidemove.obj
 0003:00002800       __real@3fefae147ae147ae    30101800     bg_slidemove.obj
 0003:0000280c       ??_C@_0M@CDHDENEF@?$CFi?3stepped?6?$AA@ 3010180c     bg_slidemove.obj
 0003:00002820       __real@402e000000000000    30101820     bg_slidemove.obj
 0003:00002830       __real@4026000000000000    30101830     bg_slidemove.obj
 0003:0000283c       ??_C@_0BE@FLPNHHPN@?$CFi?3bend?5can?8t?5step?6?$AA@ 3010183c     bg_slidemove.obj
 0003:00002858       __real@3fe6666666666666    30101858     bg_slidemove.obj
 0003:00002864       __real@3f800000            30101864     bg_slidemove.obj
 0003:00002868       __real@4032000000000000    30101868     bg_slidemove.obj
 0003:00002874       ??_C@_08JPIPMJPC@?9scanner?$AA@ 30101874     cg_consolecmds.obj
 0003:00002880       ??_C@_08OMJFLAHI@?$CLscanner?$AA@ 30101880     cg_consolecmds.obj
 0003:0000288c       ??_C@_0N@FDCACBMC@loaddeferred?$AA@ 3010188c     cg_consolecmds.obj
 0003:0000289c       ??_C@_0L@FBDGNAPC@startOrbit?$AA@ 3010189c     cg_consolecmds.obj
 0003:000028ac       ??_C@_04FNICOANA@tcmd?$AA@ 301018ac     cg_consolecmds.obj
 0003:000028b4       ??_C@_0P@KDBBCIM@vtell_attacker?$AA@ 301018b4     cg_consolecmds.obj
 0003:000028c8       ??_C@_0N@OKPMAMBK@vtell_target?$AA@ 301018c8     cg_consolecmds.obj
 0003:000028d8       ??_C@_0O@CIPPGGPC@tell_attacker?$AA@ 301018d8     cg_consolecmds.obj
 0003:000028e8       ??_C@_0M@IEEMCPKO@tell_target?$AA@ 301018e8     cg_consolecmds.obj
 0003:000028f8       ??_C@_06GEPNGEJI@weapon?$AA@ 301018f8     cg_consolecmds.obj
 0003:00002900       ??_C@_08DMEBPOGB@weapprev?$AA@ 30101900     cg_consolecmds.obj
 0003:0000290c       ??_C@_08IJHOKAF@weapnext?$AA@ 3010190c     cg_consolecmds.obj
 0003:00002918       ??_C@_08KKGKLAHJ@sizedown?$AA@ 30101918     cg_consolecmds.obj
 0003:00002924       ??_C@_06FCHHJILH@sizeup?$AA@ 30101924     cg_consolecmds.obj
 0003:0000292c       ??_C@_07DLBEELCG@?9scores?$AA@ 3010192c     cg_consolecmds.obj
 0003:00002938       ??_C@_07PNHLECKB@?$CLscores?$AA@ 30101938     cg_consolecmds.obj
 0003:00002944       ??_C@_07NBKBBFDF@viewpos?$AA@ 30101944     cg_consolecmds.obj
 0003:00002950       ??_C@_08ONPIGPGM@prevskin?$AA@ 30101950     cg_consolecmds.obj
 0003:0000295c       ??_C@_08LEEFJCLI@nextskin?$AA@ 3010195c     cg_consolecmds.obj
 0003:00002968       ??_C@_09KFHKLKJD@prevframe?$AA@ 30101968     cg_consolecmds.obj
 0003:00002974       ??_C@_09CEJNBBKD@nextframe?$AA@ 30101974     cg_consolecmds.obj
 0003:00002980       ??_C@_09FDMDKFOH@testmodel?$AA@ 30101980     cg_consolecmds.obj
 0003:0000298c       ??_C@_07OFBIMGPG@testgun?$AA@ 3010198c     cg_consolecmds.obj
 0003:00002998       ??_C@_08FJOFODJK@gc?5?$CFi?5?$CFi?$AA@ 30101998     cg_consolecmds.obj
 0003:000029a4       ??_C@_0M@NABCNGBA@cg_viewsize?$AA@ 301019a4     cg_consolecmds.obj
 0003:000029b4       ??_C@_02IKAHHCAI@?$CFi?$AA@ 301019b4     cg_consolecmds.obj
 0003:000029b8       ??_C@_0BB@MJMOCNNN@?$CI?$CFi?5?$CFi?5?$CFi?$CJ?5?3?5?$CFi?6?$AA@ 301019b8     cg_consolecmds.obj
 0003:000029cc       ??_C@_05DBKDOICH@score?$AA@ 301019cc     cg_consolecmds.obj
 0003:000029d4       ??_C@_0L@EGAGNODH@tell?5?$CFi?5?$CFs?$AA@ 301019d4     cg_consolecmds.obj
 0003:000029e4       ??_C@_0M@JNCDINKA@vtell?5?$CFi?5?$CFs?$AA@ 301019e4     cg_consolecmds.obj
 0003:000029f4       ??_C@_0BE@FKFEAA@cg_thirdPersonRange?$AA@ 301019f4     cg_consolecmds.obj
 0003:00002a0c       ??_C@_03GNABGMEE@100?$AA@  30101a0c     cg_consolecmds.obj
 0003:00002a10       ??_C@_0BE@HGBFBDIP@cg_thirdPersonAngle?$AA@ 30101a10     cg_consolecmds.obj
 0003:00002a28       ??_C@_01HIHLOKLC@1?$AA@    30101a28     cg_consolecmds.obj
 0003:00002a2c       ??_C@_01BMBHCPLG@5?$AA@    30101a2c     cg_consolecmds.obj
 0003:00002a30       ??_C@_0P@OPFJLCMG@cg_thirdPerson?$AA@ 30101a30     cg_consolecmds.obj
 0003:00002a44       ??_C@_0P@GDCMABHL@cg_cameraOrbit?$AA@ 30101a44     cg_consolecmds.obj
 0003:00002a58       ??_C@_01GBGANLPD@0?$AA@    30101a58     cg_consolecmds.obj
 0003:00002a5c       ??_C@_09DNECJBKD@developer?$AA@ 30101a5c     cg_consolecmds.obj
 0003:00002a68       ??_C@_0M@NJBPNDAH@loaddefered?$AA@ 30101a68     cg_consolecmds.obj
 0003:00002a78       ??_C@_08OKGPDOIO@teamtask?$AA@ 30101a78     cg_consolecmds.obj
 0003:00002a84       ??_C@_05BLKJBNOD@stats?$AA@ 30101a84     cg_consolecmds.obj
 0003:00002a8c       ??_C@_08OLLMCBNG@teamvote?$AA@ 30101a8c     cg_consolecmds.obj
 0003:00002a98       ??_C@_0N@JDBKAFAM@callteamvote?$AA@ 30101a98     cg_consolecmds.obj
 0003:00002aa8       ??_C@_04GHHIKFLG@vote?$AA@ 30101aa8     cg_consolecmds.obj
 0003:00002ab0       ??_C@_08NNMLCPB@callvote?$AA@ 30101ab0     cg_consolecmds.obj
 0003:00002abc       ??_C@_0L@CCEFBCKP@setviewpos?$AA@ 30101abc     cg_consolecmds.obj
 0003:00002acc       ??_C@_06CJHCPEHG@addbot?$AA@ 30101acc     cg_consolecmds.obj
 0003:00002ad4       ??_C@_09EFOFPGPE@levelshot?$AA@ 30101ad4     cg_consolecmds.obj
 0003:00002ae0       ??_C@_06HNJAFFAK@follow?$AA@ 30101ae0     cg_consolecmds.obj
 0003:00002ae8       ??_C@_04KADBPNCB@team?$AA@ 30101ae8     cg_consolecmds.obj
 0003:00002af0       ??_C@_06IHODGGMJ@noclip?$AA@ 30101af0     cg_consolecmds.obj
 0003:00002af8       ??_C@_08HPLPOCJL@notarget?$AA@ 30101af8     cg_consolecmds.obj
 0003:00002b04       ??_C@_03DKFAMNOH@god?$AA@  30101b04     cg_consolecmds.obj
 0003:00002b08       ??_C@_04BMBHJADG@give?$AA@ 30101b08     cg_consolecmds.obj
 0003:00002b10       ??_C@_06JMKGCPMO@votell?$AA@ 30101b10     cg_consolecmds.obj
 0003:00002b18       ??_C@_0L@GKKIAMHC@vosay_team?$AA@ 30101b18     cg_consolecmds.obj
 0003:00002b28       ??_C@_05EGEGDMMG@vosay?$AA@ 30101b28     cg_consolecmds.obj
 0003:00002b30       ??_C@_06IMDBNOMM@vtaunt?$AA@ 30101b30     cg_consolecmds.obj
 0003:00002b38       ??_C@_05BLGJOHFB@vtell?$AA@ 30101b38     cg_consolecmds.obj
 0003:00002b40       ??_C@_09CPIJOHHK@vsay_team?$AA@ 30101b40     cg_consolecmds.obj
 0003:00002b4c       ??_C@_04IBCNHBFH@vsay?$AA@ 30101b4c     cg_consolecmds.obj
 0003:00002b54       ??_C@_04LBPCFPDD@tell?$AA@ 30101b54     cg_consolecmds.obj
 0003:00002b5c       ??_C@_08NBFNGOHN@say_team?$AA@ 30101b5c     cg_consolecmds.obj
 0003:00002b68       ??_C@_03BANJEMDJ@say?$AA@  30101b68     cg_consolecmds.obj
 0003:00002b6c       ??_C@_04BJJEOANI@kill?$AA@ 30101b6c     cg_consolecmds.obj
 0003:00002b74       __real@41f00000            30101b74     cg_draw.obj
 0003:00002b78       __real@3fd126e978d4fdf4    30101b78     cg_draw.obj
 0003:00002b88       __real@bfe0000000000000    30101b88     cg_draw.obj
 0003:00002b98       __real@409f400000000000    30101b98     cg_draw.obj
 0003:00002ba4       ??_C@_0CE@GNKHIBFA@CG_DrawActive?3?5Undefined?5stereoV@ 30101ba4     cg_draw.obj
 0003:00002bd0       __real@43eb0000            30101bd0     cg_draw.obj
 0003:00002bd8       __real@40a0000000000000    30101bd8     cg_draw.obj
 0003:00002be4       __real@c1200000            30101be4     cg_draw.obj
 0003:00002be8       __real@42b40000            30101be8     cg_draw.obj
 0003:00002bec       __real@43a68000            30101bec     cg_draw.obj
 0003:00002bf0       __real@438e8000            30101bf0     cg_draw.obj
 0003:00002bf4       __real@42c80000            30101bf4     cg_draw.obj
 0003:00002bf8       __real@43d80000            30101bf8     cg_draw.obj
 0003:00002c00       __real@4056800000000000    30101c00     cg_draw.obj
 0003:00002c10       __real@408f400000000000    30101c10     cg_draw.obj
 0003:00002c1c       __real@428c0000            30101c1c     cg_draw.obj
 0003:00002c20       __real@3ea8f5c3            30101c20     cg_draw.obj
 0003:00002c24       __real@41c00000            30101c24     cg_draw.obj
 0003:00002c28       __real@407e000000000000    30101c28     cg_draw.obj
 0003:00002c34       __real@42700000            30101c34     cg_draw.obj
 0003:00002c38       __real@40dfffc000000000    30101c38     cg_draw.obj
 0003:00002c48       __real@4066800000000000    30101c48     cg_draw.obj
 0003:00002c58       __real@407f400000000000    30101c58     cg_draw.obj
 0003:00002c64       __real@42400000            30101c64     cg_draw.obj
 0003:00002c68       ??_C@_01EFFIKLCJ@n?$AA@    30101c68     cg_draw.obj
 0003:00002c70       __real@4084000000000000    30101c70     cg_draw.obj
 0003:00002c7c       __real@43340000            30101c7c     cg_draw.obj
 0003:00002c80       ??_C@_0BH@OGHHEKME@time?3?$CFi?5snap?3?$CFi?5cmd?3?$CFi?$AA@ 30101c80     cg_draw.obj
 0003:00002c9c       ??_C@_05MDNADFFP@?$CFifps?$AA@ 30101c9c     cg_draw.obj
 0003:00002ca4       ??_C@_07FFDCCNEB@?$CFi?3?$CFi?$CFi?$AA@ 30101ca4     cg_draw.obj
 0003:00002cb0       __real@4020000000000000    30101cb0     cg_draw.obj
 0003:00002cbc       __real@41000000            30101cbc     cg_draw.obj
 0003:00002cc0       ??_C@_07FJAEFGNG@?$CF3i?5?$CF3i?$AA@ 30101cc0     cg_draw.obj
 0003:00002ccc       ??_C@_07CIFAGBMG@unknown?$AA@ 30101ccc     cg_draw.obj
 0003:00002cd8       ??_C@_03NKIHJOPP@?$CF2i?$AA@ 30101cd8     cg_draw.obj
 0003:00002ce0       __real@4038000000000000    30101ce0     cg_draw.obj
 0003:00002cf0       __real@4048000000000000    30101cf0     cg_draw.obj
 0003:00002cfc       __real@44200000            30101cfc     cg_draw.obj
 0003:00002d00       __real@44140000            30101d00     cg_draw.obj
 0003:00002d04       __real@43580000            30101d04     cg_draw.obj
 0003:00002d08       ??_C@_02DPKJAMEF@?$CFd?$AA@ 30101d08     cg_draw.obj
 0003:00002d0c       __real@42300000            30101d0c     cg_draw.obj
 0003:00002d10       __real@43940000            30101d10     cg_draw.obj
 0003:00002d14       __real@42600000            30101d14     cg_draw.obj
 0003:00002d18       ??_C@_03KLKIPBNP@snc?$AA@  30101d18     cg_draw.obj
 0003:00002d20       __real@408c200000000000    30101d20     cg_draw.obj
 0003:00002d30       __real@4072c00000000000    30101d30     cg_draw.obj
 0003:00002d3c       ??_C@_0P@NNJCDNEK@gfx?12d?1net?4tga?$AA@ 30101d3c     cg_draw.obj
 0003:00002d50       ??_C@_0BH@HFDDJIMF@Connection?5Interrupted?$AA@ 30101d50     cg_draw.obj
 0003:00002d70       __real@4074000000000000    30101d70     cg_draw.obj
 0003:00002d80       __real@4100000000000000    30101d80     cg_draw.obj
 0003:00002d8c       ??_C@_0CI@GGHFPFB@press?5ESC?5and?5use?5the?5JOIN?5menu?5@ 30101d8c     cg_draw.obj
 0003:00002dbc       ??_C@_0BA@PJMJBMDH@waiting?5to?5play?$AA@ 30101dbc     cg_draw.obj
 0003:00002dd0       ??_C@_09GNDCBOBP@SPECTATOR?$AA@ 30101dd0     cg_draw.obj
 0003:00002ddc       ??_C@_0BJ@JAENOHOK@VOTE?$CI?$CFi?$CJ?3?$CFs?5yes?3?$CFi?5no?3?$CFi?$AA@ 30101ddc     cg_draw.obj
 0003:00002dfc       ??_C@_0BN@CPIJHJOL@TEAMVOTE?$CI?$CFi?$CJ?3?$CFs?5yes?3?$CFi?5no?3?$CFi?$AA@ 30101dfc     cg_draw.obj
 0003:00002e20       ??_C@_09BEIPBMDN@following?$AA@ 30101e20     cg_draw.obj
 0003:00002e2c       ??_C@_0P@DLPMEENJ@YOU?5NEED?5AMMO?$CB?$AA@ 30101e2c     cg_draw.obj
 0003:00002e40       ??_C@_0M@COLOONJC@OUT?5OF?5AMMO?$AA@ 30101e40     cg_draw.obj
 0003:00002e50       __real@3ef5c28f            30101e50     cg_draw.obj
 0003:00002e54       __real@3f028f5c            30101e54     cg_draw.obj
 0003:00002e58       __real@3f0a3d71            30101e58     cg_draw.obj
 0003:00002e5c       __real@3ee66666            30101e5c     cg_draw.obj
 0003:00002e60       ??_C@_0O@DIOKDBHN@Starts?5in?3?5?$CFi?$AA@ 30101e60     cg_draw.obj
 0003:00002e70       ??_C@_0CH@GKMPFBPJ@You?5Have?5?$CFi?5Seconds?5To?5Join?5This@ 30101e70     cg_draw.obj
 0003:00002ea0       __real@3ff19999a0000000    30101ea0     cg_draw.obj
 0003:00002eac       ??_C@_0BB@OOIHNFAG@Capture?5the?5Flag?$AA@ 30101eac     cg_draw.obj
 0003:00002ec0       ??_C@_0BA@KHHNIIJE@Team?5Deathmatch?$AA@ 30101ec0     cg_draw.obj
 0003:00002ed4       ??_C@_0O@DHBNPBCC@Team?5Survival?$AA@ 30101ed4     cg_draw.obj
 0003:00002ee4       ??_C@_0M@FLAIIEBL@Trepidation?$AA@ 30101ee4     cg_draw.obj
 0003:00002ef4       ??_C@_08EKDOEJAI@Survival?$AA@ 30101ef4     cg_draw.obj
 0003:00002f00       ??_C@_0N@PCEMCJC@Free?5For?5All?$AA@ 30101f00     cg_draw.obj
 0003:00002f10       ??_C@_07IDNNKBDJ@Arsenal?$AA@ 30101f10     cg_draw.obj
 0003:00002f1c       ??_C@_08MFFNPGJB@?$CFs?5vs?5?$CFs?$AA@ 30101f1c     cg_draw.obj
 0003:00002f28       ??_C@_0BE@JNOOFOAO@Waiting?5for?5players?$AA@ 30101f28     cg_draw.obj
 0003:00002f40       __real@43f00000            30101f40     cg_draw.obj
 0003:00002f44       __real@3d800000            30101f44     cg_drawtools.obj
 0003:00002f48       __real@3fb0000000000000    30101f48     cg_drawtools.obj
 0003:00002f58       __real@4040800000000000    30101f58     cg_drawtools.obj
 0003:00002f68       __real@3fd5c28f5c28f5c2    30101f68     cg_drawtools.obj
 0003:00002f78       __real@3fe51eb851eb851f    30101f78     cg_drawtools.obj
 0003:00002f84       __real@3e100000            30101f84     cg_drawtools.obj
 0003:00002f88       __real@4070000000000000    30101f88     cg_drawtools.obj
 0003:00002f94       __real@3f400000            30101f94     cg_drawtools.obj
 0003:00002f98       __real@3fe999999999999a    30101f98     cg_drawtools.obj
 0003:00002fa8       __real@403b000000000000    30101fa8     cg_drawtools.obj
 0003:00002fb4       __real@3dd80000            30101fb4     cg_drawtools.obj
 0003:00002fb8       __real@4080000000000000    30101fb8     cg_drawtools.obj
 0003:00002fc8       __real@406f400000000000    30101fc8     cg_effects.obj
 0003:00002fd8       __real@4018000000000000    30101fd8     cg_effects.obj
 0003:00002fe4       __real@40400000            30101fe4     cg_effects.obj
 0003:00002fe8       __real@406fe00000000000    30101fe8     cg_effects.obj
 0003:00002ff8       __real@4076800000000000    30101ff8     cg_effects.obj
 0003:00003004       ??_C@_0BM@FJKGAFKH@CG_MakeExplosion?3?5msec?5?$DN?5?$CFi?$AA@ 30102004     cg_effects.obj
 0003:00003028       __real@3f19999a            30102028     cg_effects.obj
 0003:00003030       __real@40a7700000000000    30102030     cg_effects.obj
 0003:0000303c       __real@3dcccccd            3010203c     cg_effects.obj
 0003:00003040       __real@40b7700000000000    30102040     cg_effects.obj
 0003:00003050       __real@4004000000000000    30102050     cg_effects.obj
 0003:00003060       __real@4062c00000000000    30102060     cg_effects.obj
 0003:00003070       __real@4039000000000000    30102070     cg_effects.obj
 0003:00003080       __real@405f400000000000    30102080     cg_effects.obj
 0003:00003090       __real@4065e00000000000    30102090     cg_effects.obj
 0003:000030a0       __real@4090000000000000    301020a0     cg_ents.obj
 0003:000030ac       ??_C@_0DB@OLDIELNC@CG_InterpoateEntityPosition?3?5cg?4@ 301020ac     cg_ents.obj
 0003:000030e8       ??_C@_0BF@NGFHFBLN@Bad?5entity?5type?3?5?$CFi?6?$AA@ 301020e8     cg_ents.obj
 0003:00003108       __real@c090000000000000    30102108     cg_ents.obj
 0003:00003118       __real@4028000000000000    30102118     cg_ents.obj
 0003:00003128       __real@3f747ae147ae147b    30102128     cg_ents.obj
 0003:00003138       __real@3ee4f8b588e368f1    30102138     cg_ents.obj
 0003:00003144       __real@41600000            30102144     cg_ents.obj
 0003:00003148       ??_C@_0BM@DFPOGHOF@Bad?5item?5index?5?$CFi?5on?5entity?$AA@ 30102148     cg_ents.obj
 0003:0000316c       __real@41200000            3010216c     cg_ents.obj
 0003:00003170       __real@40a00000            30102170     cg_ents.obj
 0003:00003174       __real@40c00000            30102174     cg_ents.obj
 0003:00003178       ??_C@_04HDOCAJNK@?$CFs?$CFs?$AA@ 30102178     cg_event.obj
 0003:00003180       ??_C@_04IIAODBDM@?$CFith?$AA@ 30102180     cg_event.obj
 0003:00003188       ??_C@_04CADGACIC@?$CFird?$AA@ 30102188     cg_event.obj
 0003:00003190       ??_C@_04DFAKFIJG@?$CFind?$AA@ 30102190     cg_event.obj
 0003:00003198       ??_C@_04GLDGHKOE@?$CFist?$AA@ 30102198     cg_event.obj
 0003:000031a0       ??_C@_04LJNOOPLI@13th?$AA@ 301021a0     cg_event.obj
 0003:000031a8       ??_C@_04BGCIINN@12th?$AA@  301021a8     cg_event.obj
 0003:000031b0       ??_C@_04BDNHCHDD@11th?$AA@ 301021b0     cg_event.obj
 0003:000031b8       ??_C@_07GHHLNL@?$FO33rd?$FO7?$AA@ 301021b8     cg_event.obj
 0003:000031c4       ??_C@_07PJLEMDNE@?$FO12nd?$FO7?$AA@ 301021c4     cg_event.obj
 0003:000031d0       ??_C@_07OFHBJKHB@?$FO41st?$FO7?$AA@ 301021d0     cg_event.obj
 0003:000031dc       ??_C@_09LNCLIHP@Tied?5for?5?$AA@ 301021dc     cg_event.obj
 0003:000031e8       ??_C@_0P@MHKKKFHB@?$CKpain100_1?4wav?$AA@ 301021e8     cg_event.obj
 0003:000031fc       ??_C@_0O@PJAMCPJF@?$CKpain75_1?4wav?$AA@ 301021fc     cg_event.obj
 0003:0000320c       ??_C@_0O@JPBKAJHH@?$CKpain50_1?4wav?$AA@ 3010220c     cg_event.obj
 0003:0000321c       ??_C@_0O@LDJLGKNK@?$CKpain25_1?4wav?$AA@ 3010221c     cg_event.obj
 0003:0000322c       ??_C@_0BC@OKELKAPM@Unknown?5event?3?5?$CFi?$AA@ 3010222c     cg_event.obj
 0003:00003244       ??_C@_08GCOIMFOL@UNKNOWN?6?$AA@ 30102244     cg_event.obj
 0003:00003250       ??_C@_0P@DKFKJLCN@EV_DEBUG_LINE?6?$AA@ 30102250     cg_event.obj
 0003:00003264       ??_C@_0BF@JEGDHJFI@EV_STOPLOOPINGSOUND?6?$AA@ 30102264     cg_event.obj
 0003:00003280       ??_C@_09KKKOLHEN@EV_ERROR?6?$AA@ 30102280     cg_event.obj
 0003:0000328c       ??_C@_0BA@EAKALNCL@EV_BREAK_GLASS?6?$AA@ 3010228c     cg_event.obj
 0003:000032a0       ??_C@_0BA@NIFKONHN@EV_BODY_NOHEAD?6?$AA@ 301022a0     cg_event.obj
 0003:000032b4       ??_C@_0BI@JBCCBDDD@EV_GIB_PLAYER_HEADSHOT?6?$AA@ 301022b4     cg_event.obj
 0003:000032d0       ??_C@_0P@OAKOFJEN@EV_GIB_PLAYER?6?$AA@ 301022d0     cg_event.obj
 0003:000032e4       ??_C@_0BF@MELMIPHC@EV_IMMOBILIZED_FREE?6?$AA@ 301022e4     cg_event.obj
 0003:00003300       ??_C@_0BA@ECHJPBGI@EV_IMMOBILIZED?6?$AA@ 30102300     cg_event.obj
 0003:00003314       ??_C@_0BC@IEBIBNLE@EV_POWERUP_REGEN?6?$AA@ 30102314     cg_event.obj
 0003:0000332c       ??_C@_0BH@DMMEDNOI@EV_POWERUP_BATTLESUIT?6?$AA@ 3010232c     cg_event.obj
 0003:00003348       ??_C@_0BB@BAEBNJML@EV_POWERUP_QUAD?6?$AA@ 30102348     cg_event.obj
 0003:0000335c       ??_C@_0N@NHOCPMCE@EV_OBITUARY?6?$AA@ 3010235c     cg_event.obj
 0003:0000336c       ??_C@_0N@OJAOIBLE@?$CKdeath?$CFi?4wav?$AA@ 3010236c     cg_event.obj
 0003:0000337c       ??_C@_0L@GGFIAEKN@EV_DEATHx?6?$AA@ 3010237c     cg_event.obj
 0003:0000338c       ??_C@_08MEMNOIPP@EV_PAIN?6?$AA@ 3010238c     cg_event.obj
 0003:00003398       ??_C@_0BG@DDNACAKH@EV_GLOBAL_TEAM_SOUND?6?$AA@ 30102398     cg_event.obj
 0003:000033b4       ??_C@_0BB@DOBOGIIM@EV_GLOBAL_SOUND?6?$AA@ 301023b4     cg_event.obj
 0003:000033c8       ??_C@_0BC@BJDFIFFI@EV_GENERAL_SOUND?6?$AA@ 301023c8     cg_event.obj
 0003:000033e0       ??_C@_0M@PGOOOLMB@EV_SHOTGUN?6?$AA@ 301023e0     cg_event.obj
 0003:000033f0       ??_C@_0BF@PBJFDGOC@EV_BULLET_HIT_FLESH?6?$AA@ 301023f0     cg_event.obj
 0003:0000340c       ??_C@_0BE@DJCGNKAA@EV_BULLET_HIT_WALL?6?$AA@ 3010240c     cg_event.obj
 0003:00003424       ??_C@_0O@MHELMGMI@EV_RAILTRAIL?6?$AA@ 30102424     cg_event.obj
 0003:00003434       ??_C@_0BH@JAOAMPDI@EV_MISSILE_MISS_METAL?6?$AA@ 30102434     cg_event.obj
 0003:00003450       ??_C@_0BB@PNKCFMCO@EV_MISSILE_MISS?6?$AA@ 30102450     cg_event.obj
 0003:00003464       ??_C@_0BA@IGKGMCOM@EV_MISSILE_HIT?6?$AA@ 30102464     cg_event.obj
 0003:00003478       ??_C@_0O@HHOHODHG@EV_SCOREPLUM?6?$AA@ 30102478     cg_event.obj
 0003:00003488       ??_C@_0O@DKGJGJMG@EV_PL_BOUNCE?6?$AA@ 30102488     cg_event.obj
 0003:00003498       ??_C@_0BD@EIBAGLKH@EV_GRENADE_BOUNCE?6?$AA@ 30102498     cg_event.obj
 0003:000034b0       ??_C@_0BB@JFDGENII@EV_ITEM_RESPAWN?6?$AA@ 301024b0     cg_event.obj
 0003:000034c4       ??_C@_0N@PBHGFCFD@EV_ITEM_POP?6?$AA@ 301024c4     cg_event.obj
 0003:000034d4       ??_C@_0BI@GJLLMPKI@EV_PLAYER_TELEPORT_OUT?6?$AA@ 301024d4     cg_event.obj
 0003:000034f0       ??_C@_0BH@EMPINMBK@EV_PLAYER_TELEPORT_IN?6?$AA@ 301024f0     cg_event.obj
 0003:0000350c       ??_C@_0P@DPDLKGLM@EV_USE_ITEM14?6?$AA@ 3010250c     cg_event.obj
 0003:00003520       ??_C@_0P@DKHELADJ@EV_USE_ITEM13?6?$AA@ 30102520     cg_event.obj
 0003:00003534       ??_C@_0P@DLLGNKAO@EV_USE_ITEM12?6?$AA@ 30102534     cg_event.obj
 0003:00003548       ??_C@_0P@DJPAGEFH@EV_USE_ITEM11?6?$AA@ 30102548     cg_event.obj
 0003:0000355c       ??_C@_0P@DIDCAOGA@EV_USE_ITEM10?6?$AA@ 3010255c     cg_event.obj
 0003:00003570       ??_C@_0O@CBKDMCHN@EV_USE_ITEM9?6?$AA@ 30102570     cg_event.obj
 0003:00003580       ??_C@_0O@CAGBKIEK@EV_USE_ITEM8?6?$AA@ 30102580     cg_event.obj
 0003:00003590       ??_C@_0O@CLDNOPHH@EV_USE_ITEM7?6?$AA@ 30102590     cg_event.obj
 0003:000035a0       ??_C@_0O@CKPPIFEA@EV_USE_ITEM6?6?$AA@ 301025a0     cg_event.obj
 0003:000035b0       ??_C@_0O@CILJDLBJ@EV_USE_ITEM5?6?$AA@ 301025b0     cg_event.obj
 0003:000035c0       ??_C@_0O@CJHLFBCO@EV_USE_ITEM4?6?$AA@ 301025c0     cg_event.obj
 0003:000035d0       ??_C@_0O@CMDEEHKL@EV_USE_ITEM3?6?$AA@ 301025d0     cg_event.obj
 0003:000035e0       ??_C@_0O@CNPGCNJM@EV_USE_ITEM2?6?$AA@ 301025e0     cg_event.obj
 0003:000035f0       ??_C@_0O@CPLAJDMF@EV_USE_ITEM1?6?$AA@ 301025f0     cg_event.obj
 0003:00003600       ??_C@_0O@COHCPJPC@EV_USE_ITEM0?6?$AA@ 30102600     cg_event.obj
 0003:00003610       ??_C@_0BB@IHNGCFAE@EV_FIRE_WEAPON2?6?$AA@ 30102610     cg_event.obj
 0003:00003624       ??_C@_0BA@CJMMIDHE@EV_FIRE_WEAPON?6?$AA@ 30102624     cg_event.obj
 0003:00003638       ??_C@_0BC@KBHMOJOO@EV_CHANGE_WEAPON?6?$AA@ 30102638     cg_event.obj
 0003:00003650       ??_C@_0L@CIOCLBPP@EV_NOAMMO?6?$AA@ 30102650     cg_event.obj
 0003:00003660       ??_C@_0BH@BPJPNNOH@EV_GLOBAL_ITEM_PICKUP?6?$AA@ 30102660     cg_event.obj
 0003:0000367c       ??_C@_0BA@LGJAHGJL@EV_ITEM_PICKUP?6?$AA@ 3010267c     cg_event.obj
 0003:00003690       ??_C@_09OICPJII@?$CKgasp?4wav?$AA@ 30102690     cg_event.obj
 0003:0000369c       ??_C@_0BA@OODKPEF@EV_WATER_CLEAR?6?$AA@ 3010269c     cg_event.obj
 0003:000036b0       ??_C@_0BA@PFCHBJFN@EV_WATER_UNDER?6?$AA@ 301026b0     cg_event.obj
 0003:000036c4       ??_C@_0BA@POIDPCHH@EV_WATER_LEAVE?6?$AA@ 301026c4     cg_event.obj
 0003:000036d8       ??_C@_0BA@PBFGAGAE@EV_WATER_TOUCH?6?$AA@ 301026d8     cg_event.obj
 0003:000036ec       ??_C@_0N@NFOOMBAN@?$CKtaunt?$CFd?4wav?$AA@ 301026ec     cg_event.obj
 0003:000036fc       ??_C@_0L@FDBCLIPJ@?$CKtaunt?4wav?$AA@ 301026fc     cg_event.obj
 0003:0000370c       ??_C@_09OAFEJHMF@EV_TAUNT?6?$AA@ 3010270c     cg_event.obj
 0003:00003718       ??_C@_08GKDKOBGN@EV_JUMP?6?$AA@ 30102718     cg_event.obj
 0003:00003724       ??_C@_0L@FMHDEMAN@?$CKjump1?4wav?$AA@ 30102724     cg_event.obj
 0003:00003734       __real@447a0000            30102734     cg_event.obj
 0003:00003738       ??_C@_0N@CDCGGHDH@EV_JUMP_PAD?6?$AA@ 30102738     cg_event.obj
 0003:00003748       __real@4040000000000000    30102748     cg_event.obj
 0003:00003754       ??_C@_08LGDHLDGB@EV_STEP?6?$AA@ 30102754     cg_event.obj
 0003:00003760       ??_C@_0L@NLLHEJNK@?$CKfall1?4wav?$AA@ 30102760     cg_event.obj
 0003:00003770       ??_C@_0N@FDOJNPAA@EV_FALL_FAR?6?$AA@ 30102770     cg_event.obj
 0003:00003780       __real@c1800000            30102780     cg_event.obj
 0003:00003784       ??_C@_0BA@MCPBHBIM@EV_FALL_MEDIUM?6?$AA@ 30102784     cg_event.obj
 0003:00003798       ??_C@_0P@DBGGEJF@EV_FALL_SHORT?6?$AA@ 30102798     cg_event.obj
 0003:000037ac       ??_C@_08KPLPEGCK@EV_SWIM?6?$AA@ 301027ac     cg_event.obj
 0003:000037b8       ??_C@_0N@DBFBMKGC@EV_FOOTWADE?6?$AA@ 301027b8     cg_event.obj
 0003:000037c8       ??_C@_0P@ECCJNKCN@EV_FOOTSPLASH?6?$AA@ 301027c8     cg_event.obj
 0003:000037dc       ??_C@_0BD@GPGIDOAE@EV_FOOTSTEP_METAL?6?$AA@ 301027dc     cg_event.obj
 0003:000037f4       ??_C@_0N@KAJBJGHI@EV_FOOTSTEP?6?$AA@ 301027f4     cg_event.obj
 0003:00003804       ??_C@_0L@GMIFJJAD@ZEROEVENT?6?$AA@ 30102804     cg_event.obj
 0003:00003814       ??_C@_0BE@HGIJDIOP@ent?3?$CF3i?5?5event?3?$CF3i?5?$AA@ 30102814     cg_event.obj
 0003:0000382c       ??_C@_09PIPBOPDG@?$CFs?5died?4?6?$AA@ 3010282c     cg_event.obj
 0003:00003838       ??_C@_0M@NLIGKFEM@?$CFs?5?$CFs?5?$CFs?$CFs?6?$AA@ 30102838     cg_event.obj
 0003:00003848       ??_C@_0O@JEEJCGAD@was?5killed?5by?$AA@ 30102848     cg_event.obj
 0003:00003858       ??_C@_0L@KDOFNJGN@?8s?5turret?4?$AA@ 30102858     cg_event.obj
 0003:00003868       ??_C@_0BC@COCLMABC@was?5shot?5down?5by?5?$AA@ 30102868     cg_event.obj
 0003:00003880       ??_C@_0BB@FDKCDDFH@?8s?5flame?5thrower?$AA@ 30102880     cg_event.obj
 0003:00003894       ??_C@_0P@IFEMDIMI@was?5toasted?5by?$AA@ 30102894     cg_event.obj
 0003:000038a8       ??_C@_0BC@CJMFGHKA@?8s?5personal?5space?$AA@ 301028a8     cg_event.obj
 0003:000038c0       ??_C@_0BA@CBNEPGEH@tried?5to?5invade?$AA@ 301028c0     cg_event.obj
 0003:000038d4       ??_C@_0CB@NAGKNM@was?5annialated?5by?5the?5fallout?5of@ 301028d4     cg_event.obj
 0003:000038fc       ??_C@_0O@EPLFLIP@?8s?5Devastator?$AA@ 301028fc     cg_event.obj
 0003:0000390c       ??_C@_0BC@JELENAPE@was?5annialated?5by?$AA@ 3010290c     cg_event.obj
 0003:00003924       ??_C@_0N@GKIEHJNK@was?5burnt?5by?$AA@ 30102924     cg_event.obj
 0003:00003934       ??_C@_0BB@GCFHMILA@was?5degaussed?5by?$AA@ 30102934     cg_event.obj
 0003:00003948       ??_C@_0M@EJBKDDAD@?8s?5gata?5fun?$AA@ 30102948     cg_event.obj
 0003:00003958       ??_C@_0P@GOMOMOE@was?5shreded?5by?$AA@ 30102958     cg_event.obj
 0003:0000396c       ??_C@_0M@PBKGFEGG@?8s?5gata?5gun?$AA@ 3010296c     cg_event.obj
 0003:0000397c       ??_C@_0BI@NCIIJKAE@was?5sliced?5to?5shreds?5by?$AA@ 3010297c     cg_event.obj
 0003:00003998       ??_C@_0O@JENMCGOI@almost?5dodged?$AA@ 30102998     cg_event.obj
 0003:000039a8       ??_C@_0P@JCMOFPGP@?8s?5singularity?$AA@ 301029a8     cg_event.obj
 0003:000039bc       ??_C@_0P@IBIDAGBP@was?5crushed?5by?$AA@ 301029bc     cg_event.obj
 0003:000039d0       ??_C@_0M@BHBOCILJ@?8s?5shrapnel?$AA@ 301029d0     cg_event.obj
 0003:000039e0       ??_C@_0BA@LIKKPCIN@was?5shredded?5by?$AA@ 301029e0     cg_event.obj
 0003:000039f4       ??_C@_0L@KPHMDLGC@?8s?5grenade?$AA@ 301029f4     cg_event.obj
 0003:00003a04       ??_C@_03BGFDOPOL@ate?$AA@  30102a04     cg_event.obj
 0003:00003a08       ??_C@_0BD@MKJCHKPL@was?5gunned?5down?5by?$AA@ 30102a08     cg_event.obj
 0003:00003a20       ??_C@_0BB@OCEOJJPP@was?5assaulted?5by?$AA@ 30102a20     cg_event.obj
 0003:00003a34       ??_C@_0BA@DIGOJPDF@was?5pummeled?5by?$AA@ 30102a34     cg_event.obj
 0003:00003a48       ??_C@_0O@IBMLDOEJ@was?5caught?5by?$AA@ 30102a48     cg_event.obj
 0003:00003a58       ??_C@_06LNKFDEGN@noname?$AA@ 30102a58     cg_event.obj
 0003:00003a60       ??_C@_0BK@EOCFHEDO@Headshot?$CB?6?6You?5fragged?5?$CFs?$AA@ 30102a60     cg_event.obj
 0003:00003a80       ??_C@_0CL@OOBLPIHB@Headshot?$CB?6?6You?5fragged?5?$CFs?6?$CFs?5pla@ 30102a80     cg_event.obj
 0003:00003ab4       ??_C@_0P@IOLDCJGB@You?5fragged?5?$CFs?$AA@ 30102ab4     cg_event.obj
 0003:00003ac8       ??_C@_0CA@EJEIBOAF@You?5fragged?5?$CFs?6?$CFs?5place?5with?5?$CFi?$AA@ 30102ac8     cg_event.obj
 0003:00003af0       ??_C@_07EJPAKPEC@?$CFs?5?$CFs?4?6?$AA@ 30102af0     cg_event.obj
 0003:00003afc       ??_C@_0P@DNKIPMGE@killed?5himself?$AA@ 30102afc     cg_event.obj
 0003:00003b10       ??_C@_0O@JCBLJPFM@killed?5itself?$AA@ 30102b10     cg_event.obj
 0003:00003b20       ??_C@_0P@IIICGFO@killed?5herself?$AA@ 30102b20     cg_event.obj
 0003:00003b34       ??_C@_0BK@DOIDJIEP@got?5his?5head?5blown?5off?5by?$AA@ 30102b34     cg_event.obj
 0003:00003b54       ??_C@_0BK@MKJOGADA@got?5its?5head?5blown?5off?5by?$AA@ 30102b54     cg_event.obj
 0003:00003b74       ??_C@_0BK@GMOPKOME@got?5her?5head?5blown?5off?5by?$AA@ 30102b74     cg_event.obj
 0003:00003b94       ??_C@_0BP@DBEBPALD@should?5have?5used?5a?5smaller?5gun?$AA@ 30102b94     cg_event.obj
 0003:00003bbc       ??_C@_0P@DPLDCCLJ@melted?5himself?$AA@ 30102bbc     cg_event.obj
 0003:00003bd0       ??_C@_0O@OEFGEIJP@melted?5itself?$AA@ 30102bd0     cg_event.obj
 0003:00003be0       ??_C@_0P@KJDPIID@melted?5herself?$AA@ 30102be0     cg_event.obj
 0003:00003bf4       ??_C@_0BA@FIENEKJD@blew?5himself?5up?$AA@ 30102bf4     cg_event.obj
 0003:00003c08       ??_C@_0P@GOLBOBGC@blew?5itself?5up?$AA@ 30102c08     cg_event.obj
 0003:00003c1c       ??_C@_0BA@DBAICHLN@blew?5herself?5up?$AA@ 30102c1c     cg_event.obj
 0003:00003c30       ??_C@_0BL@BJDCDLDL@tripped?5on?5his?5own?5grenade?$AA@ 30102c30     cg_event.obj
 0003:00003c50       ??_C@_0BL@PDGEHOJ@tripped?5on?5its?5own?5grenade?$AA@ 30102c50     cg_event.obj
 0003:00003c70       ??_C@_0BL@MBMIHDKJ@tripped?5on?5her?5own?5grenade?$AA@ 30102c70     cg_event.obj
 0003:00003c90       ??_C@_0BK@FHNEDMDH@was?5shot?5down?5by?5a?5turret?$AA@ 30102c90     cg_event.obj
 0003:00003cb0       ??_C@_0BH@GICEGFFN@was?5in?5the?5wrong?5place?$AA@ 30102cb0     cg_event.obj
 0003:00003ccc       ??_C@_0O@LCLMFGAB@saw?5the?5light?$AA@ 30102ccc     cg_event.obj
 0003:00003cdc       ??_C@_0BA@EKONGDMI@was?5immobilized?$AA@ 30102cdc     cg_event.obj
 0003:00003cf0       ??_C@_0BP@NAHBLPBA@does?5a?5back?5flip?5into?5the?5lava?$AA@ 30102cf0     cg_event.obj
 0003:00003d18       ??_C@_06CHNJJJKC@melted?$AA@ 30102d18     cg_event.obj
 0003:00003d20       ??_C@_0BB@IPCHCEIC@sank?5like?5a?5rock?$AA@ 30102d20     cg_event.obj
 0003:00003d34       ??_C@_0N@JLHEPJHP@was?5squished?$AA@ 30102d34     cg_event.obj
 0003:00003d44       ??_C@_08PAHGPPBJ@cratered?$AA@ 30102d44     cg_event.obj
 0003:00003d50       ??_C@_08MOEOKJOB@suicides?$AA@ 30102d50     cg_event.obj
 0003:00003d5c       ??_C@_02PGJLIFGD@?$FO7?$AA@ 30102d5c     cg_event.obj
 0003:00003d60       ??_C@_0CB@LLKCBBGA@CG_Obituary?3?5target?5out?5of?5range@ 30102d60     cg_event.obj
 0003:00003d88       ??_C@_06FFLMGAMD@Use?5?$CFs?$AA@ 30102d88     cg_event.obj
 0003:00003d90       ??_C@_0P@MMJPCMLF@No?5item?5to?5use?$AA@ 30102d90     cg_event.obj
 0003:00003da4       ??_C@_0BN@PBJAICBL@sound?1player?1announce?1?$CFs?4wav?$AA@ 30102da4     cg_info.obj
 0003:00003dc8       ??_C@_05PDPNFFJO@sarge?$AA@ 30102dc8     cg_info.obj
 0003:00003dd0       ??_C@_0BP@HOGFBOCC@models?1players2?1?$CFs?1icon_?$CFs?4jpg?$AA@ 30102dd0     cg_info.obj
 0003:00003df8       ??_C@_0CJ@KFDGMKIH@models?1players?1characters?1?$CFs?1ico@ 30102df8     cg_info.obj
 0003:00003e2c       ??_C@_0BO@BHADLJEM@models?1players?1?$CFs?1icon_?$CFs?4tga?$AA@ 30102e2c     cg_info.obj
 0003:00003e50       ??_C@_07DLHCIBDH@default?$AA@ 30102e50     cg_info.obj
 0003:00003e5c       ??_C@_05NCCFOPHA@model?$AA@ 30102e5c     cg_info.obj
 0003:00003e64       ??_C@_0BA@NDPDGDCC@capturelimit?5?$CFi?$AA@ 30102e64     cg_info.obj
 0003:00003e78       ??_C@_0N@FCAHJCDA@capturelimit?$AA@ 30102e78     cg_info.obj
 0003:00003e88       ??_C@_0N@KCDNPCCH@fraglimit?5?$CFi?$AA@ 30102e88     cg_info.obj
 0003:00003e98       ??_C@_09GCIEGDDN@fraglimit?$AA@ 30102e98     cg_info.obj
 0003:00003ea4       ??_C@_0N@FADOKLO@timelimit?5?$CFi?$AA@ 30102ea4     cg_info.obj
 0003:00003eb4       ??_C@_09KPHKOKCC@timelimit?$AA@ 30102eb4     cg_info.obj
 0003:00003ec0       ??_C@_0BB@DMLMKGKN@Unknown?5Gametype?$AA@ 30102ec0     cg_info.obj
 0003:00003ed4       ??_C@_0BB@GMHGFHKF@Capture?5The?5Flag?$AA@ 30102ed4     cg_info.obj
 0003:00003ee8       ??_C@_0BC@JLPLFIIA@Team?5Free?5For?5All?$AA@ 30102ee8     cg_info.obj
 0003:00003f00       ??_C@_0L@FENDKKGN@Tournament?$AA@ 30102f00     cg_info.obj
 0003:00003f10       ??_C@_0O@NNAOEDOE@Single?5Player?$AA@ 30102f10     cg_info.obj
 0003:00003f20       ??_C@_0BD@HCPEKLFD@CHEATS?5ARE?5ENABLED?$AA@ 30102f20     cg_info.obj
 0003:00003f38       ??_C@_09NFOPKLIK@sv_cheats?$AA@ 30102f38     cg_info.obj
 0003:00003f44       ??_C@_0M@POENFNKG@Pure?5Server?$AA@ 30102f44     cg_info.obj
 0003:00003f54       ??_C@_07CAKOHKGL@sv_pure?$AA@ 30102f54     cg_info.obj
 0003:00003f60       ??_C@_0M@NHCIKFPA@sv_hostname?$AA@ 30102f60     cg_info.obj
 0003:00003f70       ??_C@_0L@MPAGGMDN@sv_running?$AA@ 30102f70     cg_info.obj
 0003:00003f80       ??_C@_0BF@NHPKANBN@Awaiting?5snapshot?4?4?4?$AA@ 30102f80     cg_info.obj
 0003:00003f9c       ??_C@_0O@BKHPEAJO@Loading?4?4?4?5?$CFs?$AA@ 30102f9c     cg_info.obj
 0003:00003fac       __real@40200000            30102fac     cg_info.obj
 0003:00003fb0       __real@40000000            30102fb0     cg_info.obj
 0003:00003fb4       ??_C@_0BA@LBOAECOK@levelShotDetail?$AA@ 30102fb4     cg_info.obj
 0003:00003fc8       __real@43480000            30102fc8     cg_info.obj
 0003:00003fcc       __real@43160000            30102fcc     cg_info.obj
 0003:00003fd0       ??_C@_0BE@JCMNICLJ@menu?1art?1unknownmap?$AA@ 30102fd0     cg_info.obj
 0003:00003fe8       ??_C@_0BF@HIFMOLMK@menu?1art?1nullbar?4tga?$AA@ 30102fe8     cg_info.obj
 0003:00004004       ??_C@_0BI@HJNADLLO@menu?1art?1popespace1?4tga?$AA@ 30103004     cg_info.obj
 0003:00004020       ??_C@_0BC@PIIMIPAI@levelshots?1?$CFs?4tga?$AA@ 30103020     cg_info.obj
 0003:00004038       ??_C@_07KMNEBLH@mapname?$AA@ 30103038     cg_info.obj
 0003:00004044       ??_C@_0BF@EAFKCLOG@menu?1art?1probar2?4tga?$AA@ 30103044     cg_info.obj
 0003:00004060       ??_C@_0BE@PGAPPOMO@menu?1art?1probar?4tga?$AA@ 30103060     cg_info.obj
 0003:00004078       ??_C@_0BP@HOJADAKE@CG_FreeLocalEntity?3?5not?5active?$AA@ 30103078     cg_localents.obj
 0003:000040a0       __real@42200000            301030a0     cg_localents.obj
 0003:000040a4       __real@41a00000            301030a4     cg_localents.obj
 0003:000040a8       __real@44fa0000            301030a8     cg_localents.obj
 0003:000040b0       __real@c000000000000000    301030b0     cg_localents.obj
 0003:000040c0       __real@c024000000000000    301030c0     cg_localents.obj
 0003:000040d0       __real@405b800000000000    301030d0     cg_localents.obj
 0003:000040dc       __real@40800000            301030dc     cg_localents.obj
 0003:000040e0       __real@408fe00000000000    301030e0     cg_localents.obj
 0003:000040ec       ??_C@_0P@JBCHHKP@Bad?5leType?3?5?$CFi?$AA@ 301030ec     cg_localents.obj
 0003:00004100       __real@4045000000000000    30103100     cg_localents.obj
 0003:00004110       __real@3fd51eb851eb851f    30103110     cg_localents.obj
 0003:0000411c       ??_C@_0BJ@PPCBGHDL@gfx?12d?1numbers?1minus_32b?$AA@ 3010311c     cg_main.obj
 0003:0000413c       ??_C@_0BI@HJFCMICO@gfx?12d?1numbers?1nine_32b?$AA@ 3010313c     cg_main.obj
 0003:00004158       ??_C@_0BJ@OILFPBFC@gfx?12d?1numbers?1eight_32b?$AA@ 30103158     cg_main.obj
 0003:00004178       ??_C@_0BJ@FHLKICGB@gfx?12d?1numbers?1seven_32b?$AA@ 30103178     cg_main.obj
 0003:00004198       ??_C@_0BH@DOOFJAPO@gfx?12d?1numbers?1six_32b?$AA@ 30103198     cg_main.obj
 0003:000041b4       ??_C@_0BI@JGLLLIJP@gfx?12d?1numbers?1five_32b?$AA@ 301031b4     cg_main.obj
 0003:000041d0       ??_C@_0BI@HPOPJJKG@gfx?12d?1numbers?1four_32b?$AA@ 301031d0     cg_main.obj
 0003:000041ec       ??_C@_0BJ@KKKEIAHG@gfx?12d?1numbers?1three_32b?$AA@ 301031ec     cg_main.obj
 0003:0000420c       ??_C@_0BH@BNBCEMFH@gfx?12d?1numbers?1two_32b?$AA@ 3010320c     cg_main.obj
 0003:00004228       ??_C@_0BH@GPBOJLFB@gfx?12d?1numbers?1one_32b?$AA@ 30103228     cg_main.obj
 0003:00004244       ??_C@_0BI@NODEBLMA@gfx?12d?1numbers?1zero_32b?$AA@ 30103244     cg_main.obj
 0003:00004260       ??_C@_03MDAFIFFL@0?40?$AA@ 30103260     cg_main.obj
 0003:00004264       ??_C@_0BB@DCJMDHFD@cg_trueLightning?$AA@ 30103264     cg_main.obj
 0003:00004278       ??_C@_08POFFKPGD@cg_plOut?$AA@ 30103278     cg_main.obj
 0003:00004284       ??_C@_0O@GENBFOOH@cg_latentCmds?$AA@ 30103284     cg_main.obj
 0003:00004294       ??_C@_0P@ELPGLKJA@cg_latentSnaps?$AA@ 30103294     cg_main.obj
 0003:000042a8       ??_C@_0N@PNJIOFAD@cl_timeNudge?$AA@ 301032a8     cg_main.obj
 0003:000042b8       ??_C@_0BG@JLJMNBAA@cg_optimizePrediction?$AA@ 301032b8     cg_main.obj
 0003:000042d4       ??_C@_0BD@DFFNHBNE@cg_projectileNudge?$AA@ 301032d4     cg_main.obj
 0003:000042ec       ??_C@_02PIBHCBOA@20?$AA@   301032ec     cg_main.obj
 0003:000042f0       ??_C@_06JGIFLGEL@sv_fps?$AA@ 301032f0     cg_main.obj
 0003:000042f8       ??_C@_0BA@HJMNGHNE@cg_cmdTimeNudge?$AA@ 301032f8     cg_main.obj
 0003:0000430c       ??_C@_0M@IJEJABAH@cg_drawBBox?$AA@ 3010330c     cg_main.obj
 0003:0000431c       ??_C@_0O@DLCCPPAJ@cg_debugDelag?$AA@ 3010331c     cg_main.obj
 0003:0000432c       ??_C@_08KDEFMHHB@cg_delag?$AA@ 3010332c     cg_main.obj
 0003:00004338       ??_C@_07JCKICDKK@g_RedMC?$AA@ 30103338     cg_main.obj
 0003:00004344       ??_C@_08JPIMCHPM@g_BlueMC?$AA@ 30103344     cg_main.obj
 0003:00004350       ??_C@_0L@CFBAOKPJ@g_GameMode?$AA@ 30103350     cg_main.obj
 0003:00004360       ??_C@_0N@IHPGFFAI@cg_oldPlasma?$AA@ 30103360     cg_main.obj
 0003:00004370       ??_C@_0N@EADGKNDD@cg_oldRocket?$AA@ 30103370     cg_main.obj
 0003:00004380       ??_C@_0L@FKCBCOIH@cg_oldRail?$AA@ 30103380     cg_main.obj
 0003:00004390       ??_C@_0L@LPOJJAMJ@ui_bigFont?$AA@ 30103390     cg_main.obj
 0003:000043a0       ??_C@_04FNMPJLCB@0?425?$AA@ 301033a0     cg_main.obj
 0003:000043a8       ??_C@_0N@CLDCAIAI@ui_smallFont?$AA@ 301033a8     cg_main.obj
 0003:000043b8       ??_C@_0BF@IHAIMPIG@cg_noProjectileTrail?$AA@ 301033b8     cg_main.obj
 0003:000043d4       ??_C@_0L@BNLHLPGL@cg_noTaunt?$AA@ 301033d4     cg_main.obj
 0003:000043e4       ??_C@_01KJLJFBPL@8?$AA@    301033e4     cg_main.obj
 0003:000043e8       ??_C@_0L@JLBEBBAD@pmove_msec?$AA@ 301033e8     cg_main.obj
 0003:000043f8       ??_C@_0M@HOGKGHBI@pmove_fixed?$AA@ 301033f8     cg_main.obj
 0003:00004408       ??_C@_0P@EIAPFKBF@com_cameraMode?$AA@ 30103408     cg_main.obj
 0003:0000441c       ??_C@_0O@ECBGLFLJ@cg_scorePlums?$AA@ 3010341c     cg_main.obj
 0003:0000442c       ??_C@_09IIOBMIO@timescale?$AA@ 3010342c     cg_main.obj
 0003:00004438       ??_C@_0BG@HODAAIBP@cg_timescaleFadeSpeed?$AA@ 30103438     cg_main.obj
 0003:00004454       ??_C@_0BE@INLNOCBP@cg_timescaleFadeEnd?$AA@ 30103454     cg_main.obj
 0003:0000446c       ??_C@_02PNFIDHGF@50?$AA@   3010346c     cg_main.obj
 0003:00004470       ??_C@_0BE@EKDKKKAP@cg_cameraOrbitDelay?$AA@ 30103470     cg_main.obj
 0003:00004488       ??_C@_0L@MOJBPIBA@ui?1hud?4txt?$AA@ 30103488     cg_main.obj
 0003:00004498       ??_C@_0M@OADJJKKA@cg_hudFiles?$AA@ 30103498     cg_main.obj
 0003:000044a8       ??_C@_0BF@LICFCALK@g_synchronousClients?$AA@ 301034a8     cg_main.obj
 0003:000044c4       ??_C@_09DKNLLEN@com_blood?$AA@ 301034c4     cg_main.obj
 0003:000044d0       ??_C@_09DIABHAFB@cl_paused?$AA@ 301034d0     cg_main.obj
 0003:000044dc       ??_C@_0BA@MOHNLIKA@com_buildScript?$AA@ 301034dc     cg_main.obj
 0003:000044f0       ??_C@_0P@HEADOJJM@cg_noVoiceText?$AA@ 301034f0     cg_main.obj
 0003:00004504       ??_C@_0BA@DGINBIDE@cg_noVoiceChats?$AA@ 30103504     cg_main.obj
 0003:00004518       ??_C@_0BB@GFOCPFOA@cg_teamChatsOnly?$AA@ 30103518     cg_main.obj
 0003:0000452c       ??_C@_0O@KGJIDOMN@cg_drawFriend?$AA@ 3010352c     cg_main.obj
 0003:0000453c       ??_C@_08CGDPCFHD@cg_stats?$AA@ 3010353c     cg_main.obj
 0003:00004548       ??_C@_0M@IKKMOBIP@teamoverlay?$AA@ 30103548     cg_main.obj
 0003:00004558       ??_C@_0BD@BNGDPIGC@cg_drawTeamOverlay?$AA@ 30103558     cg_main.obj
 0003:00004570       ??_C@_0BA@PFOJHBKN@cg_deferPlayers?$AA@ 30103570     cg_main.obj
 0003:00004584       ??_C@_0BA@PKAEEJJB@cg_predictItems?$AA@ 30103584     cg_main.obj
 0003:00004598       ??_C@_0O@LJBBKNGE@cg_forceModel?$AA@ 30103598     cg_main.obj
 0003:000045a8       ??_C@_0BC@JPKKPJNB@cg_teamChatHeight?$AA@ 301035a8     cg_main.obj
 0003:000045c0       ??_C@_04NEFKOBHG@3000?$AA@ 301035c0     cg_main.obj
 0003:000045c8       ??_C@_0BA@FOMJOJCG@cg_teamChatTime?$AA@ 301035c8     cg_main.obj
 0003:000045dc       ??_C@_02PMJKFNFC@40?$AA@   301035dc     cg_main.obj
 0003:000045e0       ??_C@_0BA@CAFKIKHE@cg_tracerlength?$AA@ 301035e0     cg_main.obj
 0003:000045f4       ??_C@_0P@ENCNJBFG@cg_tracerwidth?$AA@ 301035f4     cg_main.obj
 0003:00004608       ??_C@_0BA@DJBDPKKA@cg_tracerchance?$AA@ 30103608     cg_main.obj
 0003:0000461c       ??_C@_0N@GHAOKDNB@cg_footsteps?$AA@ 3010361c     cg_main.obj
 0003:0000462c       ??_C@_0M@DOMGGLDE@cg_showmiss?$AA@ 3010362c     cg_main.obj
 0003:0000463c       ??_C@_0BB@HOMHKKFN@cg_noplayeranims?$AA@ 3010363c     cg_main.obj
 0003:00004650       ??_C@_0N@BMAKLHMK@cg_nopredict?$AA@ 30103650     cg_main.obj
 0003:00004660       ??_C@_0O@MAANEMBM@cg_errordecay?$AA@ 30103660     cg_main.obj
 0003:00004670       ??_C@_0P@NKGOJNHN@cg_debugevents?$AA@ 30103670     cg_main.obj
 0003:00004684       ??_C@_0BB@PNGPLJB@cg_debugposition?$AA@ 30103684     cg_main.obj
 0003:00004698       ??_C@_0N@OLFHJPEJ@cg_debuganim?$AA@ 30103698     cg_main.obj
 0003:000046a8       ??_C@_0N@EMGODPLM@cg_animspeed?$AA@ 301036a8     cg_main.obj
 0003:000046b8       ??_C@_03OICINGJI@0?43?$AA@ 301036b8     cg_main.obj
 0003:000046bc       ??_C@_0O@NLMPFCHA@cg_swingSpeed?$AA@ 301036bc     cg_main.obj
 0003:000046cc       ??_C@_0L@BEAFIAK@cg_bobroll?$AA@ 301036cc     cg_main.obj
 0003:000046dc       ??_C@_0M@BBIJCEAP@cg_bobpitch?$AA@ 301036dc     cg_main.obj
 0003:000046ec       ??_C@_08MBNPMEME@cg_bobup?$AA@ 301036ec     cg_main.obj
 0003:000046f8       ??_C@_05ECMHBHBD@0?4005?$AA@ 301036f8     cg_main.obj
 0003:00004700       ??_C@_0L@MJJHGKNK@cg_runroll?$AA@ 30103700     cg_main.obj
 0003:00004710       ??_C@_05NIGIBNE@0?4002?$AA@ 30103710     cg_main.obj
 0003:00004718       ??_C@_0M@JHJCCBOJ@cg_runpitch?$AA@ 30103718     cg_main.obj
 0003:00004728       ??_C@_01EKENIIDA@3?$AA@    30103728     cg_main.obj
 0003:0000472c       ??_C@_0O@CMEJDJHP@cg_centertime?$AA@ 3010372c     cg_main.obj
 0003:0000473c       ??_C@_07CJOOHIA@cg_gunZ?$AA@ 3010373c     cg_main.obj
 0003:00004748       ??_C@_07CJLDLEED@cg_gunY?$AA@ 30103748     cg_main.obj
 0003:00004754       ??_C@_07DAKIIFAC@cg_gunX?$AA@ 30103754     cg_main.obj
 0003:00004760       ??_C@_03FKNPJMHG@400?$AA@  30103760     cg_main.obj
 0003:00004764       ??_C@_0BB@PPFMMLIA@cg_railTrailTime?$AA@ 30103764     cg_main.obj
 0003:00004778       ??_C@_0N@IBNNIGPC@cg_lagometer?$AA@ 30103778     cg_main.obj
 0003:00004788       ??_C@_08OCDFECFG@cg_marks?$AA@ 30103788     cg_main.obj
 0003:00004794       ??_C@_0P@CCFIBNOJ@cg_simpleItems?$AA@ 30103794     cg_main.obj
 0003:000047a8       ??_C@_04NOOEDIPE@2500?$AA@ 301037a8     cg_main.obj
 0003:000047b0       ??_C@_0N@GADGJPHJ@cg_brassTime?$AA@ 301037b0     cg_main.obj
 0003:000047c0       ??_C@_0O@JOEPLDPN@cg_crosshairY?$AA@ 301037c0     cg_main.obj
 0003:000047d0       ??_C@_0O@IHFEICLM@cg_crosshairX?$AA@ 301037d0     cg_main.obj
 0003:000047e0       ??_C@_0BD@JJIJCGAH@cg_crosshairHealth?$AA@ 301037e0     cg_main.obj
 0003:000047f8       ??_C@_02JMHLOEOE@24?$AA@   301037f8     cg_main.obj
 0003:000047fc       ??_C@_0BB@NJOFJDCL@cg_crosshairSize?$AA@ 301037fc     cg_main.obj
 0003:00004810       ??_C@_0P@GNHKLMJL@cg_drawRewards?$AA@ 30103810     cg_main.obj
 0003:00004824       ??_C@_0BG@PFLNOEEN@cg_drawCrosshairNames?$AA@ 30103824     cg_main.obj
 0003:00004840       ??_C@_01FAMBOPH@4?$AA@     30103840     cg_main.obj
 0003:00004844       ??_C@_0BB@KBADOJHA@cg_drawCrosshair?$AA@ 30103844     cg_main.obj
 0003:00004858       ??_C@_0BA@HDEFAPDO@cg_drawAttacker?$AA@ 30103858     cg_main.obj
 0003:0000486c       ??_C@_0BD@FJPGADGN@cg_drawAmmoWarning?$AA@ 3010386c     cg_main.obj
 0003:00004884       ??_C@_0N@BEDCNPCC@cg_drawIcons?$AA@ 30103884     cg_main.obj
 0003:00004894       ??_C@_0P@DMBICICD@cg_draw3dIcons?$AA@ 30103894     cg_main.obj
 0003:000048a8       ??_C@_0BA@MIPMDAEB@cg_drawSnapshot?$AA@ 301038a8     cg_main.obj
 0003:000048bc       ??_C@_0L@CHMHIHCB@cg_drawFPS?$AA@ 301038bc     cg_main.obj
 0003:000048cc       ??_C@_0N@FOINMAON@cg_drawTimer?$AA@ 301038cc     cg_main.obj
 0003:000048dc       ??_C@_0O@IIACNNIF@cg_drawStatus?$AA@ 301038dc     cg_main.obj
 0003:000048ec       ??_C@_09EKPCJMOG@cg_draw2D?$AA@ 301038ec     cg_main.obj
 0003:000048f8       ??_C@_07FFANGJCI@cg_gibs?$AA@ 301038f8     cg_main.obj
 0003:00004904       ??_C@_0L@MAOLAFLC@cg_shadows?$AA@ 30103904     cg_main.obj
 0003:00004914       ??_C@_03KHGJEAFP@0?44?$AA@ 30103914     cg_main.obj
 0003:00004918       ??_C@_0BE@EMBJACLB@cg_stereoSeparation?$AA@ 30103918     cg_main.obj
 0003:00004930       ??_C@_02PEECMOAB@90?$AA@   30103930     cg_main.obj
 0003:00004934       ??_C@_06FDNMOLLD@cg_fov?$AA@ 30103934     cg_main.obj
 0003:0000493c       ??_C@_04PCILDIBL@15?45?$AA@ 3010393c     cg_main.obj
 0003:00004944       ??_C@_0L@DPFDGKBB@cg_zoomfov?$AA@ 30103944     cg_main.obj
 0003:00004954       ??_C@_0L@MLBFCMPB@cg_drawGun?$AA@ 30103954     cg_main.obj
 0003:00004964       ??_C@_0O@JKEEFDLF@cg_autoswitch?$AA@ 30103964     cg_main.obj
 0003:00004974       ??_C@_09JDMGBOIM@cg_ignore?$AA@ 30103974     cg_main.obj
 0003:00004980       ??_C@_0BL@MDCOCEP@vmMain?3?5unknown?5command?5?$CFi?$AA@ 30103980     cg_main.obj
 0003:000049a0       ??_C@_0P@JMIBMNM@team_headmodel?$AA@ 301039a0     cg_main.obj
 0003:000049b4       ??_C@_0L@KEDOKIKJ@team_model?$AA@ 301039b4     cg_main.obj
 0003:000049c4       ??_C@_09DHBBGOBJ@headmodel?$AA@ 301039c4     cg_main.obj
 0003:000049d0       ??_C@_02DKCKIIND@?$CFs?$AA@ 301039d0     cg_main.obj
 0003:000049d4       __real@bf800000            301039d4     cg_main.obj
 0003:000049d8       ??_C@_07DNFNGBFM@?$CFs?5?5?5?5?5?$AA@ 301039d8     cg_main.obj
 0003:000049e4       ??_C@_0BP@KAAOENNK@CG_ConfigString?3?5bad?5index?3?5?$CFi?$AA@ 301039e4     cg_main.obj
 0003:00004a0c       ??_C@_07HKJFGNHJ@clients?$AA@ 30103a0c     cg_main.obj
 0003:00004a18       ??_C@_08EIINAAAI@graphics?$AA@ 30103a18     cg_main.obj
 0003:00004a24       ??_C@_06OHLGPBPO@sounds?$AA@ 30103a24     cg_main.obj
 0003:00004a2c       ??_C@_0O@IKDCOHPA@collision?5map?$AA@ 30103a2c     cg_main.obj
 0003:00004a3c       ??_C@_0CD@GOCPBDLD@Client?1Server?5game?5mismatch?3?5?$CFs?1@ 30103a3c     cg_main.obj
 0003:00004a68       ??_C@_08CCHPPKDI@baseq3?91?$AA@ 30103a68     cg_main.obj
 0003:00004a74       ??_C@_0BI@EFKAEII@menu?1art?1font2_prop?4tga?$AA@ 30103a74     cg_main.obj
 0003:00004a90       ??_C@_0BM@PPJDNIIP@menu?1art?1font1_prop_glo?4tga?$AA@ 30103a90     cg_main.obj
 0003:00004ab4       ??_C@_0BI@JNLIGCIJ@menu?1art?1font1_prop?4tga?$AA@ 30103ab4     cg_main.obj
 0003:00004ad0       ??_C@_05PMAELIEO@white?$AA@ 30103ad0     cg_main.obj
 0003:00004ad8       ??_C@_0BA@FILGFBEK@gfx?12d?1bigchars?$AA@ 30103ad8     cg_main.obj
 0003:00004aec       ??_C@_0CA@EFKPNJLN@sound?1weapons?1plasma?1hplb2a?4wav?$AA@ 30103aec     cg_main.obj
 0003:00004b14       ??_C@_0CA@HEEHMDCA@sound?1weapons?1plasma?1hplb1a?4wav?$AA@ 30103b14     cg_main.obj
 0003:00004b3c       ??_C@_0CD@EBGCAAHF@sound?1weapons?1grenade?1hgrenb2a?4w@ 30103b3c     cg_main.obj
 0003:00004b68       ??_C@_0CD@HAIKBKOI@sound?1weapons?1grenade?1hgrenb1a?4w@ 30103b68     cg_main.obj
 0003:00004b94       ??_C@_0BJ@OCCIDPHH@sound?1items?1protect3?4ogg?$AA@ 30103b94     cg_main.obj
 0003:00004bb4       ??_C@_0BD@LCFFHFNM@sprites?1turretfire?$AA@ 30103bb4     cg_main.obj
 0003:00004bcc       ??_C@_0BA@KAJMHOPE@sprites?1bfgball?$AA@ 30103bcc     cg_main.obj
 0003:00004be0       ??_C@_0BC@DFMBLJNB@sprites?1flameball?$AA@ 30103be0     cg_main.obj
 0003:00004bf8       ??_C@_0CC@JCODPDKN@sound?1weapons?1plasma?1plasmx1a?4wa@ 30103bf8     cg_main.obj
 0003:00004c20       ??_C@_0BN@HCKLHLIK@sound?1weapons?1bfg?1devhit?4wav?$AA@ 30103c20     cg_main.obj
 0003:00004c44       ??_C@_0CC@GHLEALEG@sound?1weapons?1rocket?1rocklx1a?4wa@ 30103c44     cg_main.obj
 0003:00004c6c       ??_C@_0CD@BFPOBJCL@sound?1weapons?1railgun?1railgf1a?4w@ 30103c6c     cg_main.obj
 0003:00004c98       ??_C@_0CC@BJBGICBG@sound?1weapons?1machinegun?1ric3?4wa@ 30103c98     cg_main.obj
 0003:00004cc0       ??_C@_0CC@NCEKFBLD@sound?1weapons?1machinegun?1ric2?4wa@ 30103cc0     cg_main.obj
 0003:00004ce8       ??_C@_0CC@FENOCDBN@sound?1weapons?1machinegun?1ric1?4wa@ 30103ce8     cg_main.obj
 0003:00004d10       ??_C@_0BI@BPFIABDI@sound?1items?1damage3?4ogg?$AA@ 30103d10     cg_main.obj
 0003:00004d2c       ??_C@_0CD@CPOICIJI@sound?1player?1footsteps?1clank?$CFi?4w@ 30103d2c     cg_main.obj
 0003:00004d58       ??_C@_0CE@GNHKDPID@sound?1player?1footsteps?1splash?$CFi?4@ 30103d58     cg_main.obj
 0003:00004d84       ??_C@_0CE@GKFIFOMA@sound?1player?1footsteps?1energy?$CFi?4@ 30103d84     cg_main.obj
 0003:00004db0       ??_C@_0CC@FFJILBOO@sound?1player?1footsteps?1mech?$CFi?4wa@ 30103db0     cg_main.obj
 0003:00004dd8       ??_C@_0CD@GNKAFNDH@sound?1player?1footsteps?1flesh?$CFi?4w@ 30103dd8     cg_main.obj
 0003:00004e04       ??_C@_0CC@BMGCACJB@sound?1player?1footsteps?1boot?$CFi?4wa@ 30103e04     cg_main.obj
 0003:00004e2c       ??_C@_0CC@LNDAOHOB@sound?1player?1footsteps?1step?$CFi?4wa@ 30103e2c     cg_main.obj
 0003:00004e54       ??_C@_0BI@PEEIFPGK@sound?1world?1jumppad?4ogg?$AA@ 30103e54     cg_main.obj
 0003:00004e70       ??_C@_0BJ@ILNOCJIO@sound?1player?1watr_un?4wav?$AA@ 30103e70     cg_main.obj
 0003:00004e90       ??_C@_0BK@PEBHADE@sound?1player?1watr_out?4wav?$AA@ 30103e90     cg_main.obj
 0003:00004eb0       ??_C@_0BJ@OJFJPPOG@sound?1player?1watr_in?4ogg?$AA@ 30103eb0     cg_main.obj
 0003:00004ed0       ??_C@_0BM@HPBHJHGC@sound?1feedback?1lostlead?4ogg?$AA@ 30103ed0     cg_main.obj
 0003:00004ef4       ??_C@_0BM@BPMDMIFF@sound?1feedback?1tiedlead?4ogg?$AA@ 30103ef4     cg_main.obj
 0003:00004f18       ??_C@_0BN@DDNOHDEH@sound?1feedback?1takenlead?4ogg?$AA@ 30103f18     cg_main.obj
 0003:00004f3c       ??_C@_0BL@NCJBNNME@sound?1feedback?1defense?4ogg?$AA@ 30103f3c     cg_main.obj
 0003:00004f5c       ??_C@_0BK@LMAFEIEP@sound?1feedback?1assist?4ogg?$AA@ 30103f5c     cg_main.obj
 0003:00004f7c       ??_C@_0BP@KMNBDAJP@sound?1feedback?1humiliation?4ogg?$AA@ 30103f7c     cg_main.obj
 0003:00004fa4       ??_C@_0BK@LNLFBLOL@sound?1feedback?1denied?4ogg?$AA@ 30103fa4     cg_main.obj
 0003:00004fc4       ??_C@_0BN@MJGNGNO@sound?1feedback?1excellent?4ogg?$AA@ 30103fc4     cg_main.obj
 0003:00004fe8       ??_C@_0BO@LHKCMFHF@sound?1feedback?1impressive?4ogg?$AA@ 30103fe8     cg_main.obj
 0003:0000500c       ??_C@_0BH@DNEAPIFD@sound?1feedback?1hit?4ogg?$AA@ 3010400c     cg_main.obj
 0003:00005028       ??_C@_0BH@BPJFFDHG@sound?1player?1land1?4wav?$AA@ 30104028     cg_main.obj
 0003:00005044       ??_C@_0BG@MOPKJEGA@sound?1player?1talk?4wav?$AA@ 30104044     cg_main.obj
 0003:00005060       ??_C@_0BJ@OHOJGDLI@sound?1weapons?1noammo?4wav?$AA@ 30104060     cg_main.obj
 0003:00005080       ??_C@_0BJ@HMIIHEGP@sound?1items?1respawn1?4ogg?$AA@ 30104080     cg_main.obj
 0003:000050a0       ??_C@_0BI@IDNOFAIC@sound?1world?1teleout?4ogg?$AA@ 301040a0     cg_main.obj
 0003:000050bc       ??_C@_0BH@ILNKMPAE@sound?1world?1telein?4ogg?$AA@ 301040bc     cg_main.obj
 0003:000050d8       ??_C@_0BF@IGODOCB@sound?1misc?1error?4ogg?$AA@ 301040d8     cg_main.obj
 0003:000050f4       ??_C@_0BL@HGCNGCNM@sound?1world?1glassbreak?4ogg?$AA@ 301040f4     cg_main.obj
 0003:00005114       ??_C@_0BJ@BMOAGILK@sound?1player?1gibimp3?4wav?$AA@ 30104114     cg_main.obj
 0003:00005134       ??_C@_0BJ@NHLMLLBP@sound?1player?1gibimp2?4wav?$AA@ 30104134     cg_main.obj
 0003:00005154       ??_C@_0BJ@FBCIMJLB@sound?1player?1gibimp1?4wav?$AA@ 30104154     cg_main.obj
 0003:00005174       ??_C@_0BK@DOOOBPFM@sound?1player?1gibsplt1?4wav?$AA@ 30104174     cg_main.obj
 0003:00005194       ??_C@_0BM@CGNFAAEI@sound?1items?1use_nothing?4ogg?$AA@ 30104194     cg_main.obj
 0003:000051b8       ??_C@_0BI@OFDIELOA@sound?1items?1wearoff?4ogg?$AA@ 301041b8     cg_main.obj
 0003:000051d4       ??_C@_0BJ@EFMFEOAN@sound?1weapons?1change?4wav?$AA@ 301041d4     cg_main.obj
 0003:000051f4       ??_C@_0CG@FIPFLECJ@sound?1weapons?1machinegun?1buletby@ 301041f4     cg_main.obj
 0003:00005224       ??_C@_0CD@GPPJBEMA@sound?1teamplay?1voc_enemy_1flag?4o@ 30104224     cg_main.obj
 0003:00005250       ??_C@_0CC@BIPFHNE@sound?1teamplay?1voc_team_1flag?4og@ 30104250     cg_main.obj
 0003:00005278       ??_C@_0CA@FKHGNEJF@sound?1feedback?1voc_holyshit?4ogg?$AA@ 30104278     cg_main.obj
 0003:000052a0       ??_C@_0CA@LPDFHENK@sound?1teamplay?1voc_you_flag?4ogg?$AA@ 301042a0     cg_main.obj
 0003:000052c8       ??_C@_0CB@MPNFMAMI@sound?1teamplay?1voc_team_flag?4ogg@ 301042c8     cg_main.obj
 0003:000052f0       ??_C@_0CC@NCJADDFP@sound?1teamplay?1voc_enemy_flag?4og@ 301042f0     cg_main.obj
 0003:00005318       ??_C@_0CF@EPIOCMAD@sound?1teamplay?1voc_blue_returned@ 30104318     cg_main.obj
 0003:00005344       ??_C@_0CE@HJOEFHEE@sound?1teamplay?1voc_red_returned?4@ 30104344     cg_main.obj
 0003:00005370       ??_C@_0CG@BPELBPDC@sound?1teamplay?1flagtaken_opponen@ 30104370     cg_main.obj
 0003:000053a0       ??_C@_0CG@DNFNFJPH@sound?1teamplay?1flagtaken_yourtea@ 301043a0     cg_main.obj
 0003:000053d0       ??_C@_0CH@IPCFNOEO@sound?1teamplay?1flagreturn_oppone@ 301043d0     cg_main.obj
 0003:00005400       ??_C@_0CH@KNDDJIIL@sound?1teamplay?1flagreturn_yourte@ 30104400     cg_main.obj
 0003:00005430       ??_C@_0CI@BGEPGHDP@sound?1teamplay?1flagcapture_oppon@ 30104430     cg_main.obj
 0003:00005460       ??_C@_0CD@GJMGHGIE@sound?1teamplay?1voc_blue_scores?4o@ 30104460     cg_main.obj
 0003:0000548c       ??_C@_0CC@FOLFCCBH@sound?1teamplay?1voc_red_scores?4og@ 3010448c     cg_main.obj
 0003:000054b4       ??_C@_0CA@BEGEHJOC@sound?1feedback?1hit_teammate?4ogg?$AA@ 301044b4     cg_main.obj
 0003:000054dc       ??_C@_0BN@MFDLMLJI@sound?1feedback?1teamstied?4ogg?$AA@ 301044dc     cg_main.obj
 0003:00005500       ??_C@_0BN@GPFMCPBJ@sound?1feedback?1blueleads?4ogg?$AA@ 30104500     cg_main.obj
 0003:00005524       ??_C@_0BM@MHHGABI@sound?1feedback?1redleads?4ogg?$AA@ 30104524     cg_main.obj
 0003:00005548       ??_C@_0CI@DEFJCBPK@sound?1teamplay?1flagcapture_yourt@ 30104548     cg_main.obj
 0003:00005578       ??_C@_0BI@GNEGHMHP@sound?1world?1electro?4ogg?$AA@ 30104578     cg_main.obj
 0003:00005594       ??_C@_0BL@CIHFHPCK@sound?1feedback?1prepare?4ogg?$AA@ 30104594     cg_main.obj
 0003:000055b4       ??_C@_0BJ@HHLEMPIL@sound?1feedback?1fight?4ogg?$AA@ 301045b4     cg_main.obj
 0003:000055d4       ??_C@_0BH@DKKIBOPK@sound?1feedback?1one?4ogg?$AA@ 301045d4     cg_main.obj
 0003:000055f0       ??_C@_0BH@EIKEMJPM@sound?1feedback?1two?4ogg?$AA@ 301045f0     cg_main.obj
 0003:0000560c       ??_C@_0BJ@NOJCAFKM@sound?1feedback?1three?4ogg?$AA@ 3010460c     cg_main.obj
 0003:0000562c       ??_C@_0BL@HCIBJJA@sound?1feedback?13_frags?4ogg?$AA@ 3010462c     cg_main.obj
 0003:0000564c       ??_C@_0BL@JMINFFPP@sound?1feedback?12_frags?4ogg?$AA@ 3010464c     cg_main.obj
 0003:0000566c       ??_C@_0BK@CDFPKBKE@sound?1feedback?11_frag?4ogg?$AA@ 3010466c     cg_main.obj
 0003:0000568c       ??_C@_0CA@MOHKNIIC@sound?1feedback?1sudden_death?4ogg?$AA@ 3010468c     cg_main.obj
 0003:000056b4       ??_C@_0BM@GHAGAAAL@sound?1feedback?15_minute?4ogg?$AA@ 301046b4     cg_main.obj
 0003:000056d8       ??_C@_0BM@KHLPGKJN@sound?1feedback?11_minute?4ogg?$AA@ 301046d8     cg_main.obj
 0003:000056fc       ??_C@_03NKNKOHHD@ogg?$AA@  301046fc     cg_main.obj
 0003:00005700       ??_C@_03BICDMHKB@wav?$AA@  30104700     cg_main.obj
 0003:00005704       ??_C@_0CJ@CMOPAMCG@PrecacheItem?3?5?$CFs?5has?5bad?5precach@ 30104704     cg_main.obj
 0003:00005738       ??_C@_03JLINDLFM@?$CK?$CFi?$AA@ 30104738     cg_main.obj
 0003:0000573c       ??_C@_0BA@FANHDEHM@ScannerBlipDown?$AA@ 3010473c     cg_main.obj
 0003:00005750       ??_C@_0O@FGBKKOAO@ScannerBlipUp?$AA@ 30104750     cg_main.obj
 0003:00005760       ??_C@_0M@MNICMDOH@ScannerBlip?$AA@ 30104760     cg_main.obj
 0003:00005770       ??_C@_07JGGMAFJH@Scanner?$AA@ 30104770     cg_main.obj
 0003:0000577c       ??_C@_09GGOFPAOP@bloodMark?$AA@ 3010477c     cg_main.obj
 0003:00005788       ??_C@_04KNLNBPHI@wake?$AA@ 30104788     cg_main.obj
 0003:00005790       ??_C@_0L@KHLAIOEE@markShadow?$AA@ 30104790     cg_main.obj
 0003:000057a0       ??_C@_0BG@EGMLCGNC@gfx?1damage?1plasma_mrk?$AA@ 301047a0     cg_main.obj
 0003:000057bc       ??_C@_0BH@NJDKADCK@gfx?1damage?1hole_lg_mrk?$AA@ 301047bc     cg_main.obj
 0003:000057d8       ??_C@_0BI@HAJPOEDB@gfx?1damage?1burn_med_mrk?$AA@ 301047d8     cg_main.obj
 0003:000057f4       ??_C@_0BG@FPMKOIGF@gfx?1damage?1bullet_mrk?$AA@ 301047f4     cg_main.obj
 0003:00005810       ??_C@_0O@LNEKLMGE@medal_capture?$AA@ 30104810     cg_main.obj
 0003:00005820       ??_C@_0N@KEBDHBDI@medal_assist?$AA@ 30104820     cg_main.obj
 0003:00005830       ??_C@_0N@JPEODKCB@medal_defend?$AA@ 30104830     cg_main.obj
 0003:00005840       ??_C@_0P@CBAOAFEF@medal_gauntlet?$AA@ 30104840     cg_main.obj
 0003:00005854       ??_C@_0BA@PLFOJPJ@medal_excellent?$AA@ 30104854     cg_main.obj
 0003:00005868       ??_C@_0BB@OCKBIFDG@medal_impressive?$AA@ 30104868     cg_main.obj
 0003:0000587c       ??_C@_0CC@ICGGEAGG@models?1powerups?1shield?1shield?4md@ 3010487c     cg_main.obj
 0003:000058a4       ??_C@_0P@HDJNFJNH@teleportEffect?$AA@ 301048a4     cg_main.obj
 0003:000058b8       ??_C@_0BG@MIEMONNI@models?1misc?1telep?4md3?$AA@ 301048b8     cg_main.obj
 0003:000058d4       ??_C@_0BL@ECHNCMPC@models?1weaphits?1boom01?4md3?$AA@ 301048d4     cg_main.obj
 0003:000058f4       ??_C@_0BL@OBLKOCFL@models?1weaphits?1ring02?4md3?$AA@ 301048f4     cg_main.obj
 0003:00005914       ??_C@_0BL@KJKOFMEH@models?1weaphits?1bullet?4md3?$AA@ 30104914     cg_main.obj
 0003:00005934       ??_C@_0P@JNFBEAMD@bloodExplosion?$AA@ 30104934     cg_main.obj
 0003:00005948       ??_C@_0BB@NCNCDGDJ@sprites?1balloon3?$AA@ 30104948     cg_main.obj
 0003:0000595c       ??_C@_0BO@PBJGLKGI@models?1breakables?1glass03?4md3?$AA@ 3010495c     cg_main.obj
 0003:00005980       ??_C@_0BO@DKMKGJMN@models?1breakables?1glass02?4md3?$AA@ 30104980     cg_main.obj
 0003:000059a4       ??_C@_0BO@LMFOBLGD@models?1breakables?1glass01?4md3?$AA@ 301049a4     cg_main.obj
 0003:000059c8       ??_C@_0BG@ENKCMADE@models?1gibs?1brain?4md3?$AA@ 301049c8     cg_main.obj
 0003:000059e4       ??_C@_0BG@GCKMGPLF@models?1gibs?1skull?4md3?$AA@ 301049e4     cg_main.obj
 0003:00005a00       ??_C@_0BE@PBDAJPPM@models?1gibs?1leg?4md3?$AA@ 30104a00     cg_main.obj
 0003:00005a18       ??_C@_0BK@EGFHPFIO@models?1gibs?1intestine?4md3?$AA@ 30104a18     cg_main.obj
 0003:00005a38       ??_C@_0BI@NDPGKIHD@models?1gibs?1forearm?4md3?$AA@ 30104a38     cg_main.obj
 0003:00005a54       ??_C@_0BF@NBCNENBO@models?1gibs?1foot?4md3?$AA@ 30104a54     cg_main.obj
 0003:00005a70       ??_C@_0BF@LHDMLCCD@models?1gibs?1fist?4md3?$AA@ 30104a70     cg_main.obj
 0003:00005a8c       ??_C@_0BG@HOCHIPGC@models?1gibs?1chest?4md3?$AA@ 30104a8c     cg_main.obj
 0003:00005aa8       ??_C@_0BE@GJNHALAL@models?1gibs?1arm?4md3?$AA@ 30104aa8     cg_main.obj
 0003:00005ac0       ??_C@_0BI@KACGLCGL@models?1gibs?1abdomen?4md3?$AA@ 30104ac0     cg_main.obj
 0003:00005adc       ??_C@_0CD@FGDIHLFA@models?1weapons2?1shells?1s_shell?4m@ 30104adc     cg_main.obj
 0003:00005b08       ??_C@_0CD@LDBBEFLC@models?1weapons2?1shells?1m_shell?4m@ 30104b08     cg_main.obj
 0003:00005b34       ??_C@_0BE@MEJHIMJO@gfx?12d?1colorbar?4tga?$AA@ 30104b34     cg_main.obj
 0003:00005b4c       ??_C@_0BC@PBFIMOJD@powerups?1blueflag?$AA@ 30104b4c     cg_main.obj
 0003:00005b64       ??_C@_0M@FBFPNKIP@sprites?1foe?$AA@ 30104b64     cg_main.obj
 0003:00005b74       ??_C@_0BB@HOLOGHCC@icons?1iconf_blu3?$AA@ 30104b74     cg_main.obj
 0003:00005b88       ??_C@_0BB@GHKFFGGD@icons?1iconf_blu2?$AA@ 30104b88     cg_main.obj
 0003:00005b9c       ??_C@_0BB@HOLCHGGN@icons?1iconf_red3?$AA@ 30104b9c     cg_main.obj
 0003:00005bb0       ??_C@_0BB@GHKJEHCM@icons?1iconf_red2?$AA@ 30104bb0     cg_main.obj
 0003:00005bc4       ??_C@_0BB@BCGKNBJH@icons?1skull_blue?$AA@ 30104bc4     cg_main.obj
 0003:00005bd8       ??_C@_0BA@OMPBBNIO@icons?1skull_red?$AA@ 30104bd8     cg_main.obj
 0003:00005bec       ??_C@_0BO@CMJEFEFK@models?1powerups?1orb?1b_orb?4md3?$AA@ 30104bec     cg_main.obj
 0003:00005c10       ??_C@_0BO@LDKNFLC@models?1powerups?1orb?1r_orb?4md3?$AA@ 30104c10     cg_main.obj
 0003:00005c34       ??_C@_0BL@HIDNDGOG@powerups?1immobilizedWeapon?$AA@ 30104c34     cg_main.obj
 0003:00005c54       ??_C@_0BF@EAAEHOGA@powerups?1immobilized?$AA@ 30104c54     cg_main.obj
 0003:00005c70       ??_C@_0P@IJPLAABH@hasteSmokePuff?$AA@ 30104c70     cg_main.obj
 0003:00005c84       ??_C@_0P@NKEDBBDN@powerups?1regen?$AA@ 30104c84     cg_main.obj
 0003:00005c98       ??_C@_0BG@BGIMBFCE@powerups?1invisibility?$AA@ 30104c98     cg_main.obj
 0003:00005cb4       ??_C@_0BG@GANDEAKN@powerups?1battleWeapon?$AA@ 30104cb4     cg_main.obj
 0003:00005cd0       ??_C@_0BE@NKPPFPFJ@powerups?1battleSuit?$AA@ 30104cd0     cg_main.obj
 0003:00005ce8       ??_C@_0BE@KLLJIGAB@powerups?1quadWeapon?$AA@ 30104ce8     cg_main.obj
 0003:00005d00       ??_C@_0O@IDIMMBII@powerups?1quad?$AA@ 30104d00     cg_main.obj
 0003:00005d10       ??_C@_0BB@OCNHIGHK@powerups?1reditem?$AA@ 30104d10     cg_main.obj
 0003:00005d24       ??_C@_0P@KMJECABC@powerups?1build?$AA@ 30104d24     cg_main.obj
 0003:00005d38       ??_C@_0N@COAENKOL@icons?1noammo?$AA@ 30104d38     cg_main.obj
 0003:00005d48       ??_C@_0BA@PJMLIFEA@gfx?12d?1backtile?$AA@ 30104d48     cg_main.obj
 0003:00005d5c       ??_C@_0BD@PPPBDMEH@gfx?12d?1crosshair?$CFc?$AA@ 30104d5c     cg_main.obj
 0003:00005d74       ??_C@_0O@MHPONILH@gfx?12d?1select?$AA@ 30104d74     cg_main.obj
 0003:00005d84       ??_C@_0BA@LPLLBJPM@gfx?1misc?1tracer?$AA@ 30104d84     cg_main.obj
 0003:00005d98       ??_C@_07OPMKHJKC@sgTrail?$AA@ 30104d98     cg_main.obj
 0003:00005da4       ??_C@_0M@OBGACBNG@waterBubble?$AA@ 30104da4     cg_main.obj
 0003:00005db4       ??_C@_0N@GGGDBMDO@disconnected?$AA@ 30104db4     cg_main.obj
 0003:00005dc4       ??_C@_09GJJGLCPD@lagometer?$AA@ 30104dc4     cg_main.obj
 0003:00005dd0       ??_C@_0L@LLCKKMKM@bloodTrail?$AA@ 30104dd0     cg_main.obj
 0003:00005de0       ??_C@_0BA@PMLAEFDB@sprites?1plasma1?$AA@ 30104de0     cg_main.obj
 0003:00005df4       ??_C@_0BB@FPJBCPAO@shotgunSmokePuff?$AA@ 30104df4     cg_main.obj
 0003:00005e08       ??_C@_0BC@CJKGNGFO@smokePuffRagePro2?$AA@ 30104e08     cg_main.obj
 0003:00005e20       ??_C@_0L@ICKPEIIP@smokePuff2?$AA@ 30104e20     cg_main.obj
 0003:00005e30       ??_C@_0BB@GKFPDBKB@gfx?12d?1scope?4tga?$AA@ 30104e30     cg_main.obj
 0003:00005e44       ??_C@_0BB@LHMIJHPJ@smokePuffRagePro?$AA@ 30104e44     cg_main.obj
 0003:00005e58       ??_C@_09GPGLBPNG@smokePuff?$AA@ 30104e58     cg_main.obj
 0003:00005e64       ??_C@_0BJ@HDFOGAJ@gfx?12d?1hud?1hud_right?4tga?$AA@ 30104e64     cg_main.obj
 0003:00005e84       ??_C@_0BI@BNHAIGDB@gfx?12d?1hud?1hud_left?4tga?$AA@ 30104e84     cg_main.obj
 0003:00005ea0       ??_C@_0BI@OBOCBGHP@menu?1tab?1scoreboard?4tga?$AA@ 30104ea0     cg_main.obj
 0003:00005ebc       ??_C@_0BC@LIBCKFBH@menu?1tab?1time?4tga?$AA@ 30104ebc     cg_main.obj
 0003:00005ed4       ??_C@_0BD@DJDOFAFI@menu?1tab?1score?4tga?$AA@ 30104ed4     cg_main.obj
 0003:00005eec       ??_C@_0BC@JJNOEPIN@menu?1tab?1ping?4tga?$AA@ 30104eec     cg_main.obj
 0003:00005f04       ??_C@_0BC@FCBJHGEN@menu?1tab?1name?4tga?$AA@ 30104f04     cg_main.obj
 0003:00005f1c       ??_C@_0BB@OIENEINL@gfx?12d?1defer?4tga?$AA@ 30104f1c     cg_main.obj
 0003:00005f30       ??_C@_0P@IMGKCNMO@viewBloodBlend?$AA@ 30104f30     cg_main.obj
 0003:00005f44       ??_C@_0BE@KBEMACEB@menu?1art?1skill5?4tga?$AA@ 30104f44     cg_main.obj
 0003:00005f5c       ??_C@_0BE@GKBANBOE@menu?1art?1skill4?4tga?$AA@ 30104f5c     cg_main.obj
 0003:00005f74       ??_C@_0BE@HHBFOBFM@menu?1art?1skill3?4tga?$AA@ 30104f74     cg_main.obj
 0003:00005f8c       ??_C@_0BE@LMEJDCPJ@menu?1art?1skill2?4tga?$AA@ 30104f8c     cg_main.obj
 0003:00005fa4       ??_C@_0BE@DKNNEAFH@menu?1art?1skill1?4tga?$AA@ 30104fa4     cg_main.obj
 0003:00005fbc       ??_C@_0L@EDDEHNPC@game?5media?$AA@ 30104fbc     cg_main.obj
 0003:00005fcc       ??_C@_08MEIODECE@explode1?$AA@ 30104fcc     cg_marks.obj
 0003:00005fd8       __real@c034000000000000    30104fd8     cg_marks.obj
 0003:00005fe4       ??_C@_0CG@NBPMFGF@CG_ImpactMark?5called?5with?5?$DM?$DN?50?5r@ 30104fe4     cg_marks.obj
 0003:00006018       __real@407c200000000000    30105018     cg_marks.obj
 0003:00006024       ??_C@_04MDMPPDAB@?$CFs?$CFi?$AA@ 30105024     cg_marks.obj
 0003:0000602c       __real@3f7ff972            3010502c     cg_marks.obj
 0003:00006030       __real@40b0000000000000    30105030     cg_marks.obj
 0003:0000603c       __real@3e6147ae            3010503c     cg_marks.obj
 0003:00006040       __real@3feccccccccccccd    30105040     cg_marks.obj
 0003:0000604c       __real@c1a00000            3010504c     cg_marks.obj
 0003:00006050       __real@3f666666            30105050     cg_marks.obj
 0003:00006054       ??_C@_0CI@CKGHJCDF@CG_ParticleSnowFlurry?5pshader?5?$DN?$DN@ 30105054     cg_marks.obj
 0003:00006084       __real@c2820000            30105084     cg_marks.obj
 0003:00006088       __real@c2480000            30105088     cg_marks.obj
 0003:0000608c       ??_C@_0CC@DIFPPKPM@CG_ParticleSnow?5pshader?5?$DN?$DN?5ZERO?$CB@ 3010508c     cg_marks.obj
 0003:000060b4       __real@42820000            301050b4     cg_marks.obj
 0003:000060b8       __real@4049000000000000    301050b8     cg_marks.obj
 0003:000060c8       __real@bff0000000000000    301050c8     cg_marks.obj
 0003:000060d4       ??_C@_0BL@MLDGCJII@CG_ParticleSmoke?5?$DN?$DN?5ZERO?$CB?6?$AA@ 301050d4     cg_marks.obj
 0003:000060f8       __real@4066600000000000    301050f8     cg_marks.obj
 0003:00006104       ??_C@_0DE@LHPJKLJP@CG_ParticleExplosion?3?5unknown?5an@ 30105104     cg_marks.obj
 0003:00006148       ??_C@_0EI@EKMNKCC@CG_ParticleExplosion?3?5animStr?5is@ 30105148     cg_marks.obj
 0003:000061a0       __real@43800000            301051a0     cg_marks.obj
 0003:000061a4       __real@42800000            301051a4     cg_marks.obj
 0003:000061a8       __real@43000000            301051a8     cg_marks.obj
 0003:000061ac       __real@3e800000            301051ac     cg_marks.obj
 0003:000061b0       ??_C@_0CN@HAOPCKBM@CG_ParticleImpactSmokePuff?5pshad@ 301051b0     cg_marks.obj
 0003:000061e8       ??_C@_0CE@FDMOADGI@CG_Particle_Bleed?5pshader?5?$DN?$DN?5ZER@ 301051e8     cg_marks.obj
 0003:00006214       ??_C@_0CC@KJEJNONH@CG_Particle_OilParticle?5?$DN?$DN?5ZERO?$CB@ 30105214     cg_marks.obj
 0003:0000623c       __real@44bb8000            3010523c     cg_marks.obj
 0003:00006240       __real@3fe199999999999a    30105240     cg_marks.obj
 0003:0000624c       ??_C@_0BP@LFCJGJJN@CG_Particle_OilSlick?5?$DN?$DN?5ZERO?$CB?6?$AA@ 3010524c     cg_marks.obj
 0003:00006274       ??_C@_0BL@DDKPPMGF@CG_OilSlickRevove?5NULL?5id?6?$AA@ 30105274     cg_marks.obj
 0003:00006298       __real@3fd999999999999a    30105298     cg_marks.obj
 0003:000062a8       __real@3fe3333333333333    301052a8     cg_marks.obj
 0003:000062b4       ??_C@_0BP@PNDEBGI@CG_BloodPool?5pshader?5?$DN?$DN?5ZERO?$CB?6?$AA@ 301052b4     cg_marks.obj
 0003:000062e0       __real@3fc99999a0000000    301052e0     cg_marks.obj
 0003:000062ec       __real@42c00000            301052ec     cg_marks.obj
 0003:000062f0       __real@40ab580000000000    301052f0     cg_marks.obj
 0003:000062fc       ??_C@_0M@INFOGECE@?$CKtaunt5?4wav?$AA@ 301052fc     cg_players.obj
 0003:0000630c       ??_C@_0M@EGACLHIB@?$CKtaunt4?4wav?$AA@ 3010530c     cg_players.obj
 0003:0000631c       ??_C@_0M@FLAHIHDJ@?$CKtaunt3?4wav?$AA@ 3010531c     cg_players.obj
 0003:0000632c       ??_C@_0M@JAFLFEJM@?$CKtaunt2?4wav?$AA@ 3010532c     cg_players.obj
 0003:0000633c       ??_C@_0M@BGMPCGDC@?$CKtaunt1?4wav?$AA@ 3010533c     cg_players.obj
 0003:0000634c       ??_C@_0L@FMIBJCKG@?$CKdrown?4wav?$AA@ 3010534c     cg_players.obj
 0003:0000635c       ??_C@_0O@LBBMLEKM@?$CKfalling1?4wav?$AA@ 3010535c     cg_players.obj
 0003:0000636c       ??_C@_0M@EADDCLKM@?$CKdeath3?4wav?$AA@ 3010536c     cg_players.obj
 0003:0000637c       ??_C@_0M@ILGPPIAJ@?$CKdeath2?4wav?$AA@ 3010537c     cg_players.obj
 0003:0000638c       ??_C@_0M@NPLIKKH@?$CKdeath1?4wav?$AA@ 3010538c     cg_players.obj
 0003:0000639c       ??_C@_0BJ@HBJEEGKP@Unknown?5custom?5sound?3?5?$CFs?$AA@ 3010539c     cg_players.obj
 0003:000063bc       ??_C@_0CH@OIHGELEA@Memory?5is?5low?4?5?5Using?5deferred?5m@ 301053bc     cg_players.obj
 0003:000063ec       ??_C@_06EGNCJDCP@hmodel?$AA@ 301053ec     cg_players.obj
 0003:000063f4       ??_C@_0L@CPNMJIBN@g_blueteam?$AA@ 301053f4     cg_players.obj
 0003:00006404       ??_C@_09LPNHELAH@g_redteam?$AA@ 30105404     cg_players.obj
 0003:00006410       ??_C@_02JKAOMCMK@tl?$AA@   30105410     cg_players.obj
 0003:00006414       ??_C@_02BIBFFKJD@tt?$AA@   30105414     cg_players.obj
 0003:00006418       ??_C@_01PFHFFBPC@t?$AA@    30105418     cg_players.obj
 0003:0000641c       ??_C@_01HHGOMJKL@l?$AA@    3010541c     cg_players.obj
 0003:00006420       ??_C@_01NOFIACDB@w?$AA@    30105420     cg_players.obj
 0003:00006424       ??_C@_02IKKIEBB@hc?$AA@    30105424     cg_players.obj
 0003:00006428       ??_C@_05ODMCMJAJ@skill?$AA@ 30105428     cg_players.obj
 0003:00006430       ??_C@_02KHFPAHOF@c2?$AA@   30105430     cg_players.obj
 0003:00006434       ??_C@_02IMHCFECG@c1?$AA@   30105434     cg_players.obj
 0003:00006438       ??_C@_0BH@GDBNNMMC@sound?1voice?1?$CFs?1misc?1?$CFs?$AA@ 30105438     cg_players.obj
 0003:00006454       ??_C@_0BD@NDLIHGFC@sound?1player?1?$CFs?1?$CFs?$AA@ 30105454     cg_players.obj
 0003:0000646c       ??_C@_08BPBKIHMF@tag_flag?$AA@ 3010546c     cg_players.obj
 0003:00006478       ??_C@_0CG@NFMPGJHJ@DEFAULT_MODEL?5?$CI?$CFs?$CJ?5failed?5to?5reg@ 30105478     cg_players.obj
 0003:000064a8       ??_C@_0DF@GJHBNGJF@DEFAULT_TEAM_MODEL?5?1?5skin?5?$CI?$CFs?1?$CFs@ 301054a8     cg_players.obj
 0003:000064e8       ??_C@_07OLKAFEPH@Stroggs?$AA@ 301054e8     cg_players.obj
 0003:000064f4       ??_C@_06GMDNOCON@Pagans?$AA@ 301054f4     cg_players.obj
 0003:000064fc       ??_C@_0DH@DLIOIGIN@CG_RegisterClientModelname?$CI?5?$CFs?0?5@ 301054fc     cg_players.obj
 0003:00006540       ??_C@_0DE@DIMLEICP@CG_RegisterClientModelname?3?5Fail@ 30105540     cg_players.obj
 0003:00006580       ??_C@_03LJIJAGL@tga?$AA@   30105580     cg_players.obj
 0003:00006584       ??_C@_04DMJJIPAH@icon?$AA@ 30105584     cg_players.obj
 0003:0000658c       ??_C@_04NHPAFEHJ@skin?$AA@ 3010558c     cg_players.obj
 0003:00006594       ??_C@_0DO@DCEDDICL@CG_RegisterClientModelname?3?5Fail@ 30105594     cg_players.obj
 0003:000065e0       ??_C@_0CB@LGDFOCAG@models?1players2?1?$CFs?1animation?4cfg@ 301055e0     cg_players.obj
 0003:00006608       ??_C@_0CL@CKIMBAJB@models?1players?1characters?1?$CFs?1ani@ 30105608     cg_players.obj
 0003:0000663c       ??_C@_0CA@MLIOIMKH@models?1players?1?$CFs?1animation?4cfg?$AA@ 3010563c     cg_players.obj
 0003:00006668       ??_C@_0EI@JKKEAJCE@CG_RegisterClientModelname?3?5Fail@ 30105668     cg_players.obj
 0003:000066c0       ??_C@_0EN@IMOKGMNE@CG_RegisterClientModelname?3?5Fail@ 301056c0     cg_players.obj
 0003:0000671c       ??_C@_03NPMJBIL@?$CFs?1?$AA@ 3010571c     cg_players.obj
 0003:00006720       ??_C@_0DB@JFHOKPOB@Failed?5to?5load?5skin?5file?3?5?$CFs?5?3?5?$CF@ 30105720     cg_players.obj
 0003:0000675c       ??_C@_0BM@IIHFHFGE@models?1players2?1?$CFs?1head?4md3?$AA@ 3010575c     cg_players.obj
 0003:00006780       ??_C@_0BL@MHNDFDC@models?1players?1?$CFs?1head?4md3?$AA@ 30105780     cg_players.obj
 0003:000067a0       ??_C@_0BP@KFHLABFJ@models?1players?1heads?1?$CFs?1?$CFs?4md3?$AA@ 301057a0     cg_players.obj
 0003:000067c8       ??_C@_0BN@OMLJBPMJ@models?1players2?1?$CFs?1upper?4md3?$AA@ 301057c8     cg_players.obj
 0003:000067ec       ??_C@_0BN@FNLGBIN@models?1players2?1?$CFs?1upper?4mdr?$AA@ 301057ec     cg_players.obj
 0003:00006810       ??_C@_0CH@BOIMLMJA@models?1players?1characters?1?$CFs?1upp@ 30105810     cg_players.obj
 0003:00006840       ??_C@_0BM@GODFODEI@models?1players?1?$CFs?1upper?4md3?$AA@ 30105840     cg_players.obj
 0003:00006864       ??_C@_0DK@EICPAKBA@CG_RegisterClientModelname?3?5Fail@ 30105864     cg_players.obj
 0003:000068ac       ??_C@_0BN@EOLODBFC@models?1players2?1?$CFs?1lower?4md3?$AA@ 301058ac     cg_players.obj
 0003:000068d0       ??_C@_0BN@KHNMEPBG@models?1players2?1?$CFs?1lower?4mdr?$AA@ 301058d0     cg_players.obj
 0003:000068f4       ??_C@_0CH@LMILJCAL@models?1players?1characters?1?$CFs?1low@ 301058f4     cg_players.obj
 0003:00006924       ??_C@_0BM@MMDCMNND@models?1players?1?$CFs?1lower?4md3?$AA@ 30105924     cg_players.obj
 0003:00006948       ??_C@_0CB@CMKGLJDL@Error?5parsing?5animation?5file?3?5?$CFs@ 30105948     cg_players.obj
 0003:00006970       ??_C@_0BK@CGODILEM@unknown?5token?5?8?$CFs?8?5is?5?$CFs?6?$AA@ 30105970     cg_players.obj
 0003:00006990       ??_C@_0L@FDFHPMAL@fixedtorso?$AA@ 30105990     cg_players.obj
 0003:000069a0       ??_C@_09BMKCBKIH@fixedlegs?$AA@ 301059a0     cg_players.obj
 0003:000069ac       ??_C@_03OMLNFKE@sex?$AA@   301059ac     cg_players.obj
 0003:000069b0       ??_C@_0L@JPPMCFBB@headoffset?$AA@ 301059b0     cg_players.obj
 0003:000069c0       ??_C@_0DE@BMOOGNMN@Bad?5footsteps?5parm?5in?5?$CFs?3?5?$CFs?5Rev@ 301059c0     cg_players.obj
 0003:00006a00       ??_C@_06KKGCKCNJ@energy?$AA@ 30105a00     cg_players.obj
 0003:00006a08       ??_C@_04LDDCCIPJ@mech?$AA@ 30105a08     cg_players.obj
 0003:00006a10       ??_C@_05DLDJBIMA@flesh?$AA@ 30105a10     cg_players.obj
 0003:00006a18       ??_C@_04LBLCPLHF@boot?$AA@ 30105a18     cg_players.obj
 0003:00006a20       ??_C@_06IKLLLDHL@normal?$AA@ 30105a20     cg_players.obj
 0003:00006a28       ??_C@_09IPEFJHNA@footsteps?$AA@ 30105a28     cg_players.obj
 0003:00006a34       ??_C@_0BC@NFDFKMPA@File?5?$CFs?5too?5long?6?$AA@ 30105a34     cg_players.obj
 0003:00006a4c       ??_C@_0BO@NJLFMMKL@models?1players2?1?$CFs?$CFs?1?$CFs_?$CFs?4?$CFs?$AA@ 30105a4c     cg_players.obj
 0003:00006a70       ??_C@_0CA@PPJPGBAH@models?1players2?1?$CFs?$CFs?1?$CFs?$CFs_?$CFs?4?$CFs?$AA@ 30105a70     cg_players.obj
 0003:00006a98       ??_C@_0BN@EDIIPDOB@models?1players?1?$CFs?$CFs?1?$CFs_?$CFs?4?$CFs?$AA@ 30105a98     cg_players.obj
 0003:00006abc       ??_C@_0BP@EDGPHBII@models?1players?1?$CFs?$CFs?1?$CFs?$CFs_?$CFs?4?$CFs?$AA@ 30105abc     cg_players.obj
 0003:00006ae4       ??_C@_0CB@MPEGEFCN@models?1players2?1?$CFs?$CFs?1?$CFs?1?$CFs_?$CFs?4?$CFs@ 30105ae4     cg_players.obj
 0003:00006b0c       ??_C@_0CD@GCCHDLN@models?1players2?1?$CFs?$CFs?1?$CFs?1?$CFs?$CFs_?$CFs?4@ 30105b0c     cg_players.obj
 0003:00006b38       ??_C@_0CA@LCPNCLIM@models?1players?1?$CFs?$CFs?1?$CFs?1?$CFs_?$CFs?4?$CFs?$AA@ 30105b38     cg_players.obj
 0003:00006b60       ??_C@_0CC@BLDEMPPB@models?1players?1?$CFs?$CFs?1?$CFs?1?$CFs?$CFs_?$CFs?4?$CF@ 30105b60     cg_players.obj
 0003:00006b88       ??_C@_06NGEOGMCH@heads?1?$AA@ 30105b88     cg_players.obj
 0003:00006b90       ??_C@_03FAAAOPJM@red?$AA@  30105b90     cg_players.obj
 0003:00006b94       ??_C@_04OBGPFBCN@blue?$AA@ 30105b94     cg_players.obj
 0003:00006b9c       ??_C@_0BM@CECLOEIL@Head?5skin?5load?5failure?3?5?$CFs?6?$AA@ 30105b9c     cg_players.obj
 0003:00006bc0       ??_C@_04NEODDMOL@head?$AA@ 30105bc0     cg_players.obj
 0003:00006bc8       ??_C@_0BN@BAPBAPJE@Torso?5skin?5load?5failure?3?5?$CFs?6?$AA@ 30105bc8     cg_players.obj
 0003:00006bec       ??_C@_05NECKJAMC@upper?$AA@ 30105bec     cg_players.obj
 0003:00006bf4       ??_C@_0BL@NBGPNFJF@Leg?5skin?5load?5failure?3?5?$CFs?6?$AA@ 30105bf4     cg_players.obj
 0003:00006c14       ??_C@_05IPJEPLHL@lower?$AA@ 30105c14     cg_players.obj
 0003:00006c1c       ??_C@_0M@DDGCLDMM@characters?1?$AA@ 30105c1c     cg_players.obj
 0003:00006c2c       ??_C@_0CB@DJAPMALF@models?1players2?1?$CFs?$CFs?1?$CFs_?$CFs_?$CFs?4?$CFs@ 30105c2c     cg_players.obj
 0003:00006c54       ??_C@_0CD@CJHPGPOF@models?1players2?1?$CFs?$CFs?1?$CFs?$CFs_?$CFs_?$CFs?4@ 30105c54     cg_players.obj
 0003:00006c80       ??_C@_0CA@EELEKOBE@models?1players?1?$CFs?$CFs?1?$CFs_?$CFs_?$CFs?4?$CFs?$AA@ 30105c80     cg_players.obj
 0003:00006ca8       ??_C@_0CC@DEGJNDKJ@models?1players?1?$CFs?$CFs?1?$CFs?$CFs_?$CFs_?$CFs?4?$CF@ 30105ca8     cg_players.obj
 0003:00006cd0       ??_C@_0CN@PBDGFPPP@CG_SetDeferredClientInfo?3?5no?5val@ 30105cd0     cg_players.obj
 0003:00006d08       ??_C@_08PGAPCFON@tag_head?$AA@ 30105d08     cg_players.obj
 0003:00006d14       ??_C@_09FJEJHBEN@tag_torso?$AA@ 30105d14     cg_players.obj
 0003:00006d20       ??_C@_0BP@EEHJJPLA@Bad?5clientNum?5on?5player?5entity?$AA@ 30105d20     cg_players.obj
 0003:00006d48       __real@3fc00000            30105d48     cg_players.obj
 0003:00006d4c       ??_C@_0BF@IBAKKNBL@Clamp?5lf?9?$DOframeTime?6?$AA@ 30105d4c     cg_players.obj
 0003:00006d68       ??_C@_09JCEMHLHC@Anim?3?5?$CFi?6?$AA@ 30105d68     cg_players.obj
 0003:00006d74       ??_C@_0BJ@OHDPKGG@Bad?5animation?5number?3?5?$CFi?$AA@ 30105d74     cg_players.obj
 0003:00006d98       __real@3fa99999a0000000    30105d98     cg_players.obj
 0003:00006da8       __real@3fe8000000000000    30105da8     cg_players.obj
 0003:00006db8       __real@c076800000000000    30105db8     cg_players.obj
 0003:00006dc4       __real@41c80000            30105dc4     cg_players.obj
 0003:00006dc8       ??_C@_0BK@GAIDHALI@Bad?5player?5movement?5angle?$AA@ 30105dc8     cg_players.obj
 0003:00006de8       __real@3e4ccccd            30105de8     cg_players.obj
 0003:00006dec       ??_C@_0BN@LNFJGOJC@?$FO3You?5have?5been?5immobilized?$CB?$AA@ 30105dec     cg_players.obj
 0003:00006e10       __real@43fa0000            30105e10     cg_players.obj
 0003:00006e14       __real@3e19999a            30105e14     cg_players.obj
 0003:00006e18       __real@4060000000000000    30105e18     cg_players.obj
 0003:00006e24       ??_C@_0BN@FKDGBGEH@?$CFi?5ResetPlayerEntity?5yaw?$DN?$CFi?6?$AA@ 30105e24     cg_players.obj
 0003:00006e48       ??_C@_0CC@NIDOAJN@WARNING?3?5changed?5predicted?5event@ 30105e48     cg_playerstate.obj
 0003:00006e70       ??_C@_0BH@JOJLKMBP@WARNING?3?5double?5event?6?$AA@ 30105e70     cg_predict.obj
 0003:00006e8c       ??_C@_0BI@ELMKHMCD@WARNING?3?5dropped?5event?6?$AA@ 30105e8c     cg_predict.obj
 0003:00006ea8       ??_C@_0L@DOJHFFNN@not?5moved?6?$AA@ 30105ea8     cg_predict.obj
 0003:00006eb8       ??_C@_0L@NKHFPHNI@?$FL?$CFi?5?3?5?$CFi?$FN?5?$AA@ 30105eb8     cg_predict.obj
 0003:00006ec8       ??_C@_0BC@LIGBKPGP@saved?5state?5miss?6?$AA@ 30105ec8     cg_predict.obj
 0003:00006ee0       ??_C@_0BN@HNLMAFPF@Double?5prediction?5decay?3?5?$CFf?6?$AA@ 30105ee0     cg_predict.obj
 0003:00006f04       ??_C@_0BF@BBGFLFIG@Prediction?5miss?3?5?$CFf?6?$AA@ 30105f04     cg_predict.obj
 0003:00006f20       ??_C@_0BC@GIKLPGML@prediction?5error?6?$AA@ 30105f20     cg_predict.obj
 0003:00006f38       ??_C@_0BE@DPKKIGLP@PredictionTeleport?6?$AA@ 30105f38     cg_predict.obj
 0003:00006f50       ??_C@_0BE@KHANFHAN@errorcode?5?$CFd?5at?5?$CFd?6?$AA@ 30105f50     cg_predict.obj
 0003:00006f68       ??_C@_02NCPIBIBE@33?$AA@   30105f68     cg_predict.obj
 0003:00006f6c       ??_C@_0CE@JCAHPAJ@exceeded?5PACKET_BACKUP?5on?5comman@ 30105f6c     cg_predict.obj
 0003:00006f98       ??_C@_0O@HPEAPLON@delta?3?5?$CF?42f?5?5?$AA@ 30105f98     cg_predict.obj
 0003:00006fa8       __real@3f847ae160000000    30105fa8     cg_predict.obj
 0003:00006fb8       __real@c040000000000000    30105fb8     cg_scanner.obj
 0003:00006fc4       ??_C@_0CA@FKHPAONJ@SCORE?5?5PING?5?5TIME?5ACCURACY?5NAME?$AA@ 30105fc4     cg_scoreboard.obj
 0003:00006fec       ??_C@_0BE@IPIDHCFO@Blue?5leads?5?$CFi?5to?5?$CFi?$AA@ 30105fec     cg_scoreboard.obj
 0003:00007004       ??_C@_0BD@KNNGDKPF@Red?5leads?5?$CFi?5to?5?$CFi?$AA@ 30106004     cg_scoreboard.obj
 0003:0000701c       ??_C@_0BF@GPCPNFAF@Teams?5are?5tied?5at?5?$CFi?$AA@ 3010601c     cg_scoreboard.obj
 0003:00007038       ??_C@_0BB@IIGPLNFH@?$CFs?5place?5with?5?$CFi?$AA@ 30106038     cg_scoreboard.obj
 0003:0000704c       ??_C@_0O@BCAEDBLM@Fragged?5by?5?$CFs?$AA@ 3010604c     cg_scoreboard.obj
 0003:0000705c       ??_C@_05KACKNMMA@READY?$AA@ 3010605c     cg_scoreboard.obj
 0003:00007064       __real@42a00000            30106064     cg_scoreboard.obj
 0003:00007068       __real@43e10000            30106068     cg_scoreboard.obj
 0003:0000706c       __real@41880000            3010606c     cg_scoreboard.obj
 0003:00007070       __real@3f333333            30106070     cg_scoreboard.obj
 0003:00007074       ??_C@_0BI@MKBDHKNM@?$CF9i?5?$CF4ims?5?$CF4i?5?$CF4i?$CF4s?5?$CFs?$AA@ 30106074     cg_scoreboard.obj
 0003:00007090       ??_C@_0BN@GKBKCEOC@SPEC?5?$CF9i?5?$CF4ims?5?$CF4i?5?$CF4i?$CF4s?5?$CFs?$AA@ 30106090     cg_scoreboard.obj
 0003:000070b4       ??_C@_0BM@GBCICPNB@?$CIX?$CJ?5?$CF9i?5?$CF4ims?5?$CF4i?5?$CF4i?$CF4s?5?$CFs?$AA@ 301060b4     cg_scoreboard.obj
 0003:000070d8       ??_C@_01FGNFDNOH@?$CF?$AA@ 301060d8     cg_scoreboard.obj
 0003:000070dc       ??_C@_0BC@EIJNNBMO@?5connecting?5?5?5?5?$CFs?$AA@ 301060dc     cg_scoreboard.obj
 0003:000070f4       ??_C@_05PPJGDEGI@?$CFi?1?$CFi?$AA@ 301060f4     cg_scoreboard.obj
 0003:000070fc       ??_C@_0BH@DLHNHBEG@Bad?5score?9?$DOclient?3?5?$CFi?6?$AA@ 301060fc     cg_scoreboard.obj
 0003:00007118       ??_C@_09FONCBBOD@Blue?5Team?$AA@ 30106118     cg_scoreboard.obj
 0003:00007124       ??_C@_08PNCBJLHJ@Red?5Team?$AA@ 30106124     cg_scoreboard.obj
 0003:00007130       ??_C@_0L@HAPFDNKJ@Scoreboard?$AA@ 30106130     cg_scoreboard.obj
 0003:00007140       ??_C@_0BC@HILCMIJJ@followflagcarrier?$AA@ 30106140     cg_servercmds.obj
 0003:00007158       ??_C@_0L@BCFFODB@returnflag?$AA@ 30106158     cg_servercmds.obj
 0003:00007168       ??_C@_08LJGLPHPA@followme?$AA@ 30106168     cg_servercmds.obj
 0003:00007174       ??_C@_04LOFLEJM@camp?$AA@  30106174     cg_servercmds.obj
 0003:0000717c       ??_C@_06KPEKKPL@patrol?$AA@ 3010617c     cg_servercmds.obj
 0003:00007184       ??_C@_0L@LIAONOLJ@defendflag?$AA@ 30106184     cg_servercmds.obj
 0003:00007194       ??_C@_06BMABBLML@defend?$AA@ 30106194     cg_servercmds.obj
 0003:0000719c       ??_C@_07GBMLDGPP@offense?$AA@ 3010619c     cg_servercmds.obj
 0003:000071a8       ??_C@_07NOFDDIA@getflag?$AA@ 301061a8     cg_servercmds.obj
 0003:00007214       ??_C@_0P@PDLBFPPD@g_delagHitscan?$AA@ 30106214     cg_servercmds.obj
 0003:00007228       ??_C@_0L@MPHEHILH@g_instagib?$AA@ 30106228     cg_servercmds.obj
 0003:00007238       ??_C@_0L@OOBNLHBJ@g_blueTeam?$AA@ 30106238     cg_servercmds.obj
 0003:00007248       ??_C@_09HOBGGEAD@g_redTeam?$AA@ 30106248     cg_servercmds.obj
 0003:00007254       ??_C@_0M@DKNJHPLK@maps?1?$CFs?4bsp?$AA@ 30106254     cg_servercmds.obj
 0003:00007264       ??_C@_0O@OCOCOONB@sv_maxclients?$AA@ 30106264     cg_servercmds.obj
 0003:00007274       ??_C@_09ELHMOKHN@teamflags?$AA@ 30106274     cg_servercmds.obj
 0003:00007280       ??_C@_07GMGCLCAP@dmflags?$AA@ 30106280     cg_servercmds.obj
 0003:0000728c       ??_C@_0L@GFINLBEC@g_gametype?$AA@ 3010628c     cg_servercmds.obj
 0003:0000729c       ??_C@_01EOFPKCAF@?$EA?$AA@ 3010629c     cg_servercmds.obj
 0003:000072a0       ??_C@_01JLIPDDHJ@?3?$AA@   301062a0     cg_servercmds.obj
 0003:000072a4       ??_C@_01NEMOKFLO@?$DN?$AA@ 301062a4     cg_servercmds.obj
 0003:000072a8       ??_C@_01CELHOKLL@?$HN?$AA@ 301062a8     cg_servercmds.obj
 0003:000072ac       ??_C@_0CO@OOFJHLNN@?$FO1expected?5?$HL?5found?5?$CFs?5in?5voice?5c@ 301062ac     cg_servercmds.obj
 0003:000072e4       ??_C@_01HCONENDN@?$HL?$AA@ 301062e4     cg_servercmds.obj
 0003:000072e8       ??_C@_0DE@LFCGMCMO@?$FO1expected?5gender?5not?5found?5in?5v@ 301062e8     cg_servercmds.obj
 0003:00007328       ??_C@_06GHFJMDBL@neuter?$AA@ 30106328     cg_servercmds.obj
 0003:00007330       ??_C@_04ICKCIGNO@male?$AA@ 30106330     cg_servercmds.obj
 0003:00007338       ??_C@_06GJLDEJIL@female?$AA@ 30106338     cg_servercmds.obj
 0003:00007340       ??_C@_0DJ@DIHCICBL@?$FO1voice?5chat?5file?5too?5large?3?5?$CFs?5@ 30106340     cg_servercmds.obj
 0003:00007384       ??_C@_0CB@LCNFPPPE@?$FO1voice?5chat?5file?5not?5found?3?5?$CFs?6@ 30106384     cg_servercmds.obj
 0003:000073ac       ??_C@_0BN@NIPMNCMN@voice?5chat?5memory?5size?5?$DN?5?$CFd?6?$AA@ 301063ac     cg_servercmds.obj
 0003:000073d0       ??_C@_0BE@KNDJABAE@scripts?1male5?4voice?$AA@ 301063d0     cg_servercmds.obj
 0003:000073e8       ??_C@_0BE@GBJDABJK@scripts?1male4?4voice?$AA@ 301063e8     cg_servercmds.obj
 0003:00007400       ??_C@_0BE@GLFGAIID@scripts?1male3?4voice?$AA@ 30106400     cg_servercmds.obj
 0003:00007418       ??_C@_0BE@KHPMAIBN@scripts?1male2?4voice?$AA@ 30106418     cg_servercmds.obj
 0003:00007430       ??_C@_0BE@CJHDAPPO@scripts?1male1?4voice?$AA@ 30106430     cg_servercmds.obj
 0003:00007448       ??_C@_0BG@COMLMEN@scripts?1female3?4voice?$AA@ 30106448     cg_servercmds.obj
 0003:00007464       ??_C@_0BG@MOEGLMND@scripts?1female2?4voice?$AA@ 30106464     cg_servercmds.obj
 0003:00007480       ??_C@_0BG@EAMJLLDA@scripts?1female1?4voice?$AA@ 30106480     cg_servercmds.obj
 0003:0000749c       ??_C@_0O@BPOFCDLG@scripts?1?$CFs?4vc?$AA@ 3010649c     cg_servercmds.obj
 0003:000074ac       ??_C@_05GFOLEBJA@?$CFs?1?$CFs?$AA@ 301064ac     cg_servercmds.obj
 0003:000074b4       ??_C@_0CB@KPHIIGNM@Unknown?5client?5game?5command?3?5?$CFs?6@ 301064b4     cg_servercmds.obj
 0003:000074dc       ??_C@_09MCFHHOIO@playerpos?$AA@ 301064dc     cg_servercmds.obj
 0003:000074e8       ??_C@_0BA@GNMFKLDC@clientLevelShot?$AA@ 301064e8     cg_servercmds.obj
 0003:000074fc       ??_C@_0M@BLBAMFDN@remapShader?$AA@ 301064fc     cg_servercmds.obj
 0003:0000750c       ??_C@_0M@NBIMEKNE@map_restart?$AA@ 3010650c     cg_servercmds.obj
 0003:0000751c       ??_C@_05DPGKEEHN@tinfo?$AA@ 3010651c     cg_servercmds.obj
 0003:00007524       ??_C@_06KBCJDMLG@scores?$AA@ 30106524     cg_servercmds.obj
 0003:0000752c       ??_C@_06FPNOEFND@vtchat?$AA@ 3010652c     cg_servercmds.obj
 0003:00007534       ??_C@_05LBAAHPBE@vchat?$AA@ 30106534     cg_servercmds.obj
 0003:0000753c       ??_C@_05PMMINOBP@tchat?$AA@ 3010653c     cg_servercmds.obj
 0003:00007544       ??_C@_03OFAPEBGM@?$CFs?6?$AA@ 30106544     cg_servercmds.obj
 0003:00007548       ??_C@_04BLJLMHHG@chat?$AA@ 30106548     cg_servercmds.obj
 0003:00007550       ??_C@_05IJDJACGD@print?$AA@ 30106550     cg_servercmds.obj
 0003:00007558       ??_C@_02EODNHJKB@cs?$AA@   30106558     cg_servercmds.obj
 0003:0000755c       ??_C@_07BLCNMCEB@?$CLgreset?$AA@ 3010655c     cg_servercmds.obj
 0003:00007568       ??_C@_06JKPHMBPD@?9gzoom?$AA@ 30106568     cg_servercmds.obj
 0003:00007570       ??_C@_06PJCHPEMJ@?$CLgzoom?$AA@ 30106570     cg_servercmds.obj
 0003:00007578       ??_C@_02GFBACKGC@cp?$AA@   30106578     cg_servercmds.obj
 0003:0000757c       ??_C@_06DOEGFMGC@FIGHT?$CB?$AA@ 3010657c     cg_servercmds.obj
 0003:00007584       ??_C@_0P@HFBEHELF@CG_MapRestart?6?$AA@ 30106584     cg_servercmds.obj
 0003:00007598       ??_C@_0DI@NCDIEGIG@CG_ProcessSnapshots?3?5cg?4nextSnap@ 30106598     cg_snapshot.obj
 0003:000075dc       ??_C@_0CF@EPBFNJFD@CG_ProcessSnapshots?3?5cg?4snap?5?$DN?$DN?5@ 301065dc     cg_snapshot.obj
 0003:00007608       ??_C@_0DA@GODLLJKJ@CG_ProcessSnapshots?3?5Server?5time@ 30106608     cg_snapshot.obj
 0003:00007644       ??_C@_0DK@PBDCPFPE@WARNING?3?5CG_ProcessSnapshots?3?5Se@ 30106644     cg_snapshot.obj
 0003:0000768c       ??_C@_0CO@FFJEMNFE@CG_ProcessSnapshots?3?5n?5?$DM?5cg?4late@ 3010668c     cg_snapshot.obj
 0003:000076c4       ??_C@_0DI@LCOJHHHI@WARNING?3?5CG_ProcessSnapshots?3?5n?5@ 301066c4     cg_snapshot.obj
 0003:00007708       ??_C@_0CI@JDFDPIEH@CG_TransitionSnapshot?3?5NULL?5cg?4n@ 30106708     cg_snapshot.obj
 0003:00007738       ??_C@_0CE@BCLPNDDL@CG_TransitionSnapshot?3?5NULL?5cg?4s@ 30106738     cg_snapshot.obj
 0003:00007764       ??_C@_0DI@DABDJKNL@WARNING?3?5CG_ReadNextSnapshot?3?5wa@ 30106764     cg_snapshot.obj
 0003:000077a8       __real@44610000            301067a8     cg_unlagged.obj
 0003:000077ac       ??_C@_0DK@LEFDLAEL@?$FO3Ext?3?5time?3?5?$CFd?0?5j?3?5?$CFd?0?5k?3?5?$CFd?0?5o@ 301067ac     cg_unlagged.obj
 0003:000077f8       ??_C@_0EH@JOFMMEPF@?$FO5frac?3?5?$CF0?44f?0?5origin1?3?5?$CF0?42f?5?$CF0@ 301067f8     cg_unlagged.obj
 0003:00007850       ??_C@_0DK@KPAOPAAM@?$FO3Int?3?5time?3?5?$CFd?0?5j?3?5?$CFd?0?5k?3?5?$CFd?0?5o@ 30106850     cg_unlagged.obj
 0003:00007898       __real@40c0000000000000    30106898     cg_unlagged.obj
 0003:000078a8       __real@402c000000000000    301068a8     cg_unlagged.obj
 0003:000078b4       ??_C@_0M@IHLHPKEP@bbox_nocull?$AA@ 301068b4     cg_unlagged.obj
 0003:000078c4       ??_C@_04OPGNGMKE@bbox?$AA@ 301068c4     cg_unlagged.obj
 0003:000078cc       ??_C@_0BO@IOCCPNHA@Allowed?5values?5are?5?$CFd?5to?5?$CFd?4?6?$AA@ 301068cc     cg_unlagged.obj
 0003:000078f0       ??_C@_0BG@GCFGCMGP@Can?8t?5register?5model?6?$AA@ 301068f0     cg_view.obj
 0003:0000790c       ??_C@_09FLAEHDCJ@frame?5?$CFi?6?$AA@ 3010690c     cg_view.obj
 0003:00007918       ??_C@_08JKENKHJN@skin?5?$CFi?6?$AA@ 30106918     cg_view.obj
 0003:00007924       ??_C@_0BD@PLOBIDP@cg?4clientFrame?3?$CFi?6?$AA@ 30106924     cg_view.obj
 0003:0000793c       ??_C@_02NJPGOMH@?$CFf?$AA@ 3010693c     cg_view.obj
 0003:00007940       __real@c020000000000000    30106940     cg_view.obj
 0003:0000794c       ??_C@_02PJNFELNH@30?$AA@   3010694c     cg_view.obj
 0003:00007950       __real@c04ca5dc00000000    30106950     cg_view.obj
 0003:0000795c       __real@42340000            3010695c     cg_view.obj
 0003:00007960       __real@4052c00000000000    30106960     cg_view.obj
 0003:0000796c       __real@43200000            3010696c     cg_view.obj
 0003:00007970       __real@4064000000000000    30106970     cg_view.obj
 0003:0000797c       __real@3f8ccccd            3010697c     cg_weapons.obj
 0003:00007980       __real@c018000000000000    30106980     cg_weapons.obj
 0003:00007990       __real@403a000000000000    30106990     cg_weapons.obj
 0003:0000799c       ??_C@_0N@EKABNDDO@bfgExplosion?$AA@ 3010699c     cg_weapons.obj
 0003:000079ac       ??_C@_0BP@PEJEDJFL@sound?1weapons?1bfg?1bfg_fire?4wav?$AA@ 301069ac     cg_weapons.obj
 0003:000079d4       ??_C@_0BO@DKJAPIPN@sound?1weapons?1bfg?1bfg_hum?4wav?$AA@ 301069d4     cg_weapons.obj
 0003:000079f8       ??_C@_08IJBDIACA@railCore?$AA@ 301069f8     cg_weapons.obj
 0003:00007a04       ??_C@_0O@HDLAOPGI@railExplosion?$AA@ 30106a04     cg_weapons.obj
 0003:00007a14       ??_C@_0CB@BJCODCG@sound?1weapons?1railgun?1rg_hum?4wav@ 30106a14     cg_weapons.obj
 0003:00007a3c       ??_C@_08EJMAMOFN@railDisc?$AA@ 30106a3c     cg_weapons.obj
 0003:00007a48       ??_C@_0BA@JAAHPOLK@plasmaExplosion?$AA@ 30106a48     cg_weapons.obj
 0003:00007a5c       ??_C@_0CC@NOGOIAAL@sound?1weapons?1plasma?1hyprbf1a?4wa@ 30106a5c     cg_weapons.obj
 0003:00007a84       ??_C@_0BJ@GMOLBDLG@models?1weaphits?1disc?4md3?$AA@ 30106a84     cg_weapons.obj
 0003:00007aa4       ??_C@_0BB@LIEJLDGP@grenadeExplosion?$AA@ 30106aa4     cg_weapons.obj
 0003:00007ab8       ??_C@_0CD@BGNAFJPC@sound?1weapons?1grenade?1grenlf1a?4w@ 30106ab8     cg_weapons.obj
 0003:00007ae4       __real@442f0000            30106ae4     cg_weapons.obj
 0003:00007ae8       ??_C@_0BJ@IPKCPFEO@models?1ammo?1grenade1?4md3?$AA@ 30106ae8     cg_weapons.obj
 0003:00007b08       ??_C@_0CC@OIFCIFP@sound?1weapons?1rocket?1rocklf1a?4wa@ 30106b08     cg_weapons.obj
 0003:00007b30       ??_C@_0CB@EAPDKGGC@sound?1weapons?1rocket?1rockfly?4wav@ 30106b30     cg_weapons.obj
 0003:00007b58       ??_C@_0CD@NCGDEMHJ@sound?1weapons?1shotgun?1sshotf1b?4w@ 30106b58     cg_weapons.obj
 0003:00007b84       ??_C@_0BA@DOLAHAKE@bulletExplosion?$AA@ 30106b84     cg_weapons.obj
 0003:00007b98       ??_C@_0CG@KIFMNGEH@sound?1weapons?1machinegun?1machgf4@ 30106b98     cg_weapons.obj
 0003:00007bc8       ??_C@_0CG@GNPLOIMJ@sound?1weapons?1machinegun?1machgf3@ 30106bc8     cg_weapons.obj
 0003:00007bf8       ??_C@_0CG@MLIMODHN@sound?1weapons?1machinegun?1machgf2@ 30106bf8     cg_weapons.obj
 0003:00007c28       ??_C@_0CG@PKGEPJOA@sound?1weapons?1machinegun?1machgf1@ 30106c28     cg_weapons.obj
 0003:00007c58       ??_C@_0BP@HFJKFEMF@sound?1weapons?1melee?1fsthum?4wav?$AA@ 30106c58     cg_weapons.obj
 0003:00007c80       ??_C@_0BO@BLENFKPL@models?1ammo?1rocket?1rocket?4md3?$AA@ 30106c80     cg_weapons.obj
 0003:00007ca4       ??_C@_0BB@FHMAJPD@lightningBoltNew?$AA@ 30106ca4     cg_weapons.obj
 0003:00007cb8       ??_C@_0BA@NABNBOMN@rocketExplosion?$AA@ 30106cb8     cg_weapons.obj
 0003:00007ccc       ??_C@_0CI@OIFBLMAP@sound?1weapons?1flamethrower?1firei@ 30106ccc     cg_weapons.obj
 0003:00007cfc       ??_C@_0CA@FGEGNBKP@sound?1weapons?1plasma?1lasfly?4wav?$AA@ 30106cfc     cg_weapons.obj
 0003:00007d24       ??_C@_0CA@KEKFDEFA@sound?1weapons?1melee?1fstatck?4wav?$AA@ 30106d24     cg_weapons.obj
 0003:00007d4c       ??_C@_0BP@BOHFALII@sound?1weapons?1melee?1fstrun?4wav?$AA@ 30106d4c     cg_weapons.obj
 0003:00007d74       ??_C@_0CJ@PEFFPDCJ@models?1weapons2?1shotgun?1shotgun_@ 30106d74     cg_weapons.obj
 0003:00007da8       ??_C@_09OLHEALFG@_hand?4md3?$AA@ 30106da8     cg_weapons.obj
 0003:00007db4       ??_C@_0M@GGMINFPA@_barrel?4md3?$AA@ 30106db4     cg_weapons.obj
 0003:00007dc4       ??_C@_0L@DAPODOKF@_flash?4md3?$AA@ 30106dc4     cg_weapons.obj
 0003:00007dd4       ??_C@_0BI@JJFMDMDC@Couldn?8t?5find?5weapon?5?$CFi?$AA@ 30106dd4     cg_weapons.obj
 0003:00007df0       __real@c044000000000000    30106df0     cg_weapons.obj
 0003:00007e00       __real@3fc999999999999a    30106e00     cg_weapons.obj
 0003:00007e10       __real@404f800000000000    30106e10     cg_weapons.obj
 0003:00007e20       __real@4054000000000000    30106e20     cg_weapons.obj
 0003:00007e2c       ??_C@_0DH@ECKDIILO@CG_RegisterItemVisuals?3?5itemNum?5@ 30106e2c     cg_weapons.obj
 0003:00007e70       ??_C@_09FNBKMGLL@tag_flash?$AA@ 30106e70     cg_weapons.obj
 0003:00007e7c       ??_C@_0L@EKFDHKMA@tag_barrel?$AA@ 30106e7c     cg_weapons.obj
 0003:00007e8c       ??_C@_0L@FGMMEJDC@tag_weapon?$AA@ 30106e8c     cg_weapons.obj
 0003:00007ea0       __real@4097700000000000    30106ea0     cg_weapons.obj
 0003:00007eb0       __real@bfc999999999999a    30106eb0     cg_weapons.obj
 0003:00007ec0       __real@3f847ae147ae147b    30106ec0     cg_weapons.obj
 0003:00007ecc       ??_C@_0CN@NBNBAPF@CG_FireWeapon?3?5ent?9?$DOweapon?5?$DO?$DN?5WP@ 30106ecc     cg_weapons.obj
 0003:00007f04       __real@43960000            30106f04     cg_weapons.obj
 0003:00007f08       __real@4085e00000000000    30106f08     cg_weapons.obj
 0003:00007f18       __real@40f0000000000000    30106f18     q_math.obj
 0003:00007f24       ??_C@_0CP@LMDDDEGA@Float?5to?5int?5casting?5behaviour?3?5@ 30106f24     q_math.obj
 0003:00007f5c       ??_C@_0DD@IDIIOPEO@Float?5to?5int?5casting?5behaviour?3?5@ 30106f5c     q_math.obj
 0003:00007f9c       ??_C@_1DE@EJPCDGJI@?$AAQ?$AA_?$AAf?$AAa?$AAb?$AAs?$AA?$CI?$AAi?$AAn?$AAv?$AA_?$AAd?$AAe?$AAn?$AAo?$AAm?$AA?$CJ?$AA?5?$AA?$CB?$AA?$DN?$AA?5?$AA0?$AA?4?$AA0?$AAf?$AA?$AA@ 30106f9c     q_math.obj
 0003:00007fe0       ??_C@_1HC@GODEKELI@?$AAc?$AA?3?$AA?2?$AAw?$AAe?$AAb?$AA?2?$AAt?$AAr?$AAe?$AAp?$AAd?$AAe?$AAv?$AA?2?$AAt?$AAr?$AAe?$AAp?$AAi?$AAd?$AAa?$AAt?$AAi?$AAo?$AAn?$AA?2?$AAv?$AAm?$AAs?$AA?9?$AAs@ 30106fe0     q_math.obj
 0003:00008068       __real@c066800000000000    30107068     q_math.obj
 0003:00008078       __real@4066c16c16c16c17    30107078     q_math.obj
 0003:00008088       __real@40e0000000000000    30107088     q_math.obj
 0003:00008094       __real@c7c34f80            30107094     q_math.obj
 0003:00008098       __real@47c34f80            30107098     q_math.obj
 0003:000080a0       __real@3f91df46a0000000    301070a0     q_math.obj
 0003:000080ac       ??_C@_0BI@KPLEBEJF@ERROR?3?5?$CFs?0?5line?5?$CFd?3?5?$CFs?6?$AA@ 301070ac     q_shared.obj
 0003:000080c8       ??_C@_0BK@DJMKDJBL@WARNING?3?5?$CFs?0?5line?5?$CFd?3?5?$CFs?6?$AA@ 301070c8     q_shared.obj
 0003:000080e8       ??_C@_0BF@BFEJCABG@MatchToken?3?5?$CFs?5?$CB?$DN?5?$CFs?$AA@ 301070e8     q_shared.obj
 0003:00008104       ??_C@_01PKGAHCOL@?$CJ?$AA@ 30107104     q_shared.obj
 0003:00008108       ??_C@_01ODHLEDKK@?$CI?$AA@ 30107108     q_shared.obj
 0003:0000810c       ??_C@_0BJ@OLBOPICM@Q_strncpyz?3?5destsize?5?$DM?51?$AA@ 3010710c     q_shared.obj
 0003:0000812c       ??_C@_0BF@BJHHBLMD@Q_strncpyz?3?5NULL?5src?$AA@ 3010712c     q_shared.obj
 0003:00008148       ??_C@_0BG@EKAPNPCH@Q_strncpyz?3?5NULL?5dest?$AA@ 30107148     q_shared.obj
 0003:00008164       ??_C@_0BN@EFOOAHFL@Q_strcat?3?5already?5overflowed?$AA@ 30107164     q_shared.obj
 0003:00008188       ??_C@_0CD@GIPJKOOD@Com_sprintf?3?5overflow?5of?5?$CFi?5in?5?$CF@ 30107188     q_shared.obj
 0003:000081b4       ??_C@_0CC@GMEFDOKA@Com_sprintf?3?5overflowed?5bigbuffe@ 301071b4     q_shared.obj
 0003:000081dc       ??_C@_0CG@FLHABLN@Info_ValueForKey?3?5oversize?5infos@ 301071dc     q_shared.obj
 0003:0000820c       ??_C@_0CE@HMPLGKDK@Info_RemoveKey?3?5oversize?5infostr@ 3010720c     q_shared.obj
 0003:00008238       ??_C@_0CI@CPIEPBLO@Info_RemoveKey_Big?3?5oversize?5inf@ 30107238     q_shared.obj
 0003:00008268       ??_C@_0BN@CAOBGKLE@Info?5string?5length?5exceeded?6?$AA@ 30107268     q_shared.obj
 0003:0000828c       ??_C@_06NELKLDPM@?2?$CFs?2?$CFs?$AA@ 3010728c     q_shared.obj
 0003:00008294       ??_C@_0CD@MGFMEBLE@Can?8t?5use?5keys?5or?5values?5with?5a?5@ 30107294     q_shared.obj
 0003:000082c0       ??_C@_0CL@JCFAGLFD@Can?8t?5use?5keys?5or?5values?5with?5a?5@ 301072c0     q_shared.obj
 0003:000082f4       ??_C@_0CD@JIDDAEOO@Can?8t?5use?5keys?5or?5values?5with?5a?5@ 301072f4     q_shared.obj
 0003:00008320       ??_C@_0CJ@CEEBDGNA@Info_SetValueForKey?3?5oversize?5in@ 30107320     q_shared.obj
 0003:00008354       ??_C@_0CB@EMDOOGBI@BIG?5Info?5string?5length?5exceeded?6@ 30107354     q_shared.obj
 0003:0000837c       ??_C@_0L@JDDHILPC@fadeAmount?$AA@ 3010737c     ui_shared.obj
 0003:0000838c       ??_C@_09LGBLEGN@fadeCycle?$AA@ 3010738c     ui_shared.obj
 0003:00008398       ??_C@_09DPBPOIDH@fadeClamp?$AA@ 30107398     ui_shared.obj
 0003:000083a4       ??_C@_05EIEHMANA@popup?$AA@ 301073a4     ui_shared.obj
 0003:000083ac       ??_C@_07BNAIEIKL@itemDef?$AA@ 301073ac     ui_shared.obj
 0003:000083b8       ??_C@_09LMHPKFJB@soundLoop?$AA@ 301073b8     ui_shared.obj
 0003:000083c4       ??_C@_0BB@FOHPFLED@outOfBoundsClick?$AA@ 301073c4     ui_shared.obj
 0003:000083d8       ??_C@_0N@EEPADJLO@disablecolor?$AA@ 301073d8     ui_shared.obj
 0003:000083e8       ??_C@_0L@OKFLOHAM@focuscolor?$AA@ 301073e8     ui_shared.obj
 0003:000083f8       ??_C@_0L@NBMNMLHL@borderSize?$AA@ 301073f8     ui_shared.obj
 0003:00008408       ??_C@_05IIPJAONP@onESC?$AA@ 30107408     ui_shared.obj
 0003:00008410       ??_C@_07LAOJOJAJ@onClose?$AA@ 30107410     ui_shared.obj
 0003:0000841c       ??_C@_06CJGNFCEB@onOpen?$AA@ 3010741c     ui_shared.obj
 0003:00008424       ??_C@_0L@GIACNHMO@fullscreen?$AA@ 30107424     ui_shared.obj
 0003:00008434       ??_C@_04EFPADHIC@font?$AA@ 30107434     ui_shared.obj
 0003:0000843c       ??_C@_0M@IHJKFHF@doubleclick?$AA@ 3010743c     ui_shared.obj
 0003:0000844c       ??_C@_09DHDJHDLH@cinematic?$AA@ 3010744c     ui_shared.obj
 0003:00008458       ??_C@_08BDDCOCNI@hideCvar?$AA@ 30107458     ui_shared.obj
 0003:00008464       ??_C@_08LNBEMJIA@showCvar?$AA@ 30107464     ui_shared.obj
 0003:00008470       ??_C@_0M@FBHLBFCC@disableCvar?$AA@ 30107470     ui_shared.obj
 0003:00008480       ??_C@_08KBIDCBHN@cvarTest?$AA@ 30107480     ui_shared.obj
 0003:0000848c       ??_C@_0L@LCDHKNEJ@enableCvar?$AA@ 3010748c     ui_shared.obj
 0003:0000849c       ??_C@_0O@DACAJCLK@ownerdrawFlag?$AA@ 3010749c     ui_shared.obj
 0003:000084ac       ??_C@_0O@BGFKBLBI@addColorRange?$AA@ 301074ac     ui_shared.obj
 0003:000084bc       ??_C@_0O@IKNDJMDK@cvarFloatList?$AA@ 301074bc     ui_shared.obj
 0003:000084cc       ??_C@_0M@GOKMFACI@cvarStrList?$AA@ 301074cc     ui_shared.obj
 0003:000084dc       ??_C@_09CGGKHKAP@cvarFloat?$AA@ 301074dc     ui_shared.obj
 0003:000084e8       ??_C@_0L@NOGKCHFE@focusSound?$AA@ 301074e8     ui_shared.obj
 0003:000084f8       ??_C@_0O@HPCOAMJM@maxPaintChars?$AA@ 301074f8     ui_shared.obj
 0003:00008508       ??_C@_08IHGPPBOI@maxChars?$AA@ 30107508     ui_shared.obj
 0003:00008514       ??_C@_04PNAHEAFM@cvar?$AA@ 30107514     ui_shared.obj
 0003:0000851c       ??_C@_07BELCMIIP@special?$AA@ 3010751c     ui_shared.obj
 0003:00008528       ??_C@_06DDLLCOJG@action?$AA@ 30107528     ui_shared.obj
 0003:00008530       ??_C@_0O@GFPABKKP@mouseExitText?$AA@ 30107530     ui_shared.obj
 0003:00008540       ??_C@_0P@BCEPHLNB@mouseEnterText?$AA@ 30107540     ui_shared.obj
 0003:00008554       ??_C@_09OIHCIOIA@mouseExit?$AA@ 30107554     ui_shared.obj
 0003:00008560       ??_C@_0L@KAGOMOPN@mouseEnter?$AA@ 30107560     ui_shared.obj
 0003:00008570       ??_C@_0L@LMAJDKOE@leaveFocus?$AA@ 30107570     ui_shared.obj
 0003:00008580       ??_C@_07PFEHHELH@onFocus?$AA@ 30107580     ui_shared.obj
 0003:0000858c       ??_C@_0L@EGCKCJDC@background?$AA@ 3010758c     ui_shared.obj
 0003:0000859c       ??_C@_0N@LGJOCBPD@outlinecolor?$AA@ 3010759c     ui_shared.obj
 0003:000085ac       ??_C@_0M@CJNAABJD@bordercolor?$AA@ 301075ac     ui_shared.obj
 0003:000085bc       ??_C@_09MONNBKNO@forecolor?$AA@ 301075bc     ui_shared.obj
 0003:000085c8       ??_C@_09OPNKCLNO@backcolor?$AA@ 301075c8     ui_shared.obj
 0003:000085d4       ??_C@_09FMCFHDEN@textstyle?$AA@ 301075d4     ui_shared.obj
 0003:000085e0       ??_C@_09BLEIEHKP@textscale?$AA@ 301075e0     ui_shared.obj
 0003:000085ec       ??_C@_0L@FCLMCIJC@textaligny?$AA@ 301075ec     ui_shared.obj
 0003:000085fc       ??_C@_0L@ELKHBJND@textalignx?$AA@ 301075fc     ui_shared.obj
 0003:0000860c       ??_C@_09PNBDGNCL@textalign?$AA@ 3010760c     ui_shared.obj
 0003:00008618       ??_C@_05CBJPDLOK@align?$AA@ 30107618     ui_shared.obj
 0003:00008620       ??_C@_09HGLBOMNF@ownerdraw?$AA@ 30107620     ui_shared.obj
 0003:0000862c       ??_C@_07DPDAEJMK@visible?$AA@ 3010762c     ui_shared.obj
 0003:00008638       ??_C@_0L@BAAMOEHP@bordersize?$AA@ 30107638     ui_shared.obj
 0003:00008648       ??_C@_06ODFLABIG@border?$AA@ 30107648     ui_shared.obj
 0003:00008650       ??_C@_07HIFEPIJN@columns?$AA@ 30107650     ui_shared.obj
 0003:0000865c       ??_C@_0M@HBNIAHKL@elementtype?$AA@ 3010765c     ui_shared.obj
 0003:0000866c       ??_C@_06GEEPENGB@feeder?$AA@ 3010766c     ui_shared.obj
 0003:00008674       ??_C@_0O@MNJDKOBB@elementheight?$AA@ 30107674     ui_shared.obj
 0003:00008684       ??_C@_0N@MILKKPGL@elementwidth?$AA@ 30107684     ui_shared.obj
 0003:00008694       ??_C@_04GPMDFGEJ@type?$AA@ 30107694     ui_shared.obj
 0003:0000869c       ??_C@_0BB@EIBMEDHI@horizontalscroll?$AA@ 3010769c     ui_shared.obj
 0003:000086b0       ??_C@_0M@HHKOOJO@autowrapped?$AA@ 301076b0     ui_shared.obj
 0003:000086c0       ??_C@_07FJHHECNJ@wrapped?$AA@ 301076c0     ui_shared.obj
 0003:000086cc       ??_C@_0O@FDEIBLKE@notselectable?$AA@ 301076cc     ui_shared.obj
 0003:000086dc       ??_C@_0L@GFEIECKE@decoration?$AA@ 301076dc     ui_shared.obj
 0003:000086ec       ??_C@_05IAKJCFIM@style?$AA@ 301076ec     ui_shared.obj
 0003:000086f4       ??_C@_04LHPFHFPH@rect?$AA@ 301076f4     ui_shared.obj
 0003:000086fc       ??_C@_0M@HHMGANAM@model_angle?$AA@ 301076fc     ui_shared.obj
 0003:0000870c       ??_C@_0P@NOKHMHPD@model_rotation?$AA@ 3010770c     ui_shared.obj
 0003:00008720       ??_C@_0L@NMCIJLPA@model_fovy?$AA@ 30107720     ui_shared.obj
 0003:00008730       ??_C@_0L@MFDDKKLB@model_fovx?$AA@ 30107730     ui_shared.obj
 0003:00008740       ??_C@_0N@LHLPLFLG@model_origin?$AA@ 30107740     ui_shared.obj
 0003:00008750       ??_C@_0N@HLFJAKEA@asset_shader?$AA@ 30107750     ui_shared.obj
 0003:00008760       ??_C@_0M@DKAIGAGN@asset_model?$AA@ 30107760     ui_shared.obj
 0003:00008770       ??_C@_05MGJOOGAJ@group?$AA@ 30107770     ui_shared.obj
 0003:00008778       ??_C@_04CIMGMMMG@text?$AA@ 30107778     ui_shared.obj
 0003:00008780       ??_C@_04MEMAJGDJ@name?$AA@ 30107780     ui_shared.obj
 0003:00008788       ??_C@_0M@HDIJIOFC@cl_freelook?$AA@ 30107788     ui_shared.obj
 0003:00008798       ??_C@_08BEMLPELN@m_filter?$AA@ 30107798     ui_shared.obj
 0003:000087a4       ??_C@_0O@CDIHIFMG@joy_threshold?$AA@ 301077a4     ui_shared.obj
 0003:000087b4       ??_C@_0M@MJEIGFNL@in_joystick?$AA@ 301077b4     ui_shared.obj
 0003:000087c4       ??_C@_0M@JFLMCFNC@sensitivity?$AA@ 301077c4     ui_shared.obj
 0003:000087d4       ??_C@_07JIEGLHEC@m_pitch?$AA@ 301077d4     ui_shared.obj
 0003:000087e0       ??_C@_06HFMKGFEH@cl_run?$AA@ 301077e0     ui_shared.obj
 0003:000087e8       ??_C@_0N@NFNJCLFL@messagemode4?$AA@ 301077e8     ui_shared.obj
 0003:000087f8       ??_C@_0N@JKJILNJM@messagemode3?$AA@ 301077f8     ui_shared.obj
 0003:00008808       ??_C@_0N@IDIDIMNN@messagemode2?$AA@ 30107808     ui_shared.obj
 0003:00008818       ??_C@_0M@JINOELJH@messagemode?$AA@ 30107818     ui_shared.obj
 0003:00008828       ??_C@_0L@JEAJCAAH@scoresDown?$AA@ 30107828     ui_shared.obj
 0003:00008838       ??_C@_08NILIEBDN@scoresUp?$AA@ 30107838     ui_shared.obj
 0003:00008844       ??_C@_0O@BNPKDDEF@tauntGauntlet?$AA@ 30107844     ui_shared.obj
 0003:00008854       ??_C@_0BB@DHLHLJJP@tauntDeathInsult?$AA@ 30107854     ui_shared.obj
 0003:00008868       ??_C@_0L@OFGCNOGN@tauntTaunt?$AA@ 30107868     ui_shared.obj
 0003:00008878       ??_C@_0M@FHJJKLIB@tauntPraise?$AA@ 30107878     ui_shared.obj
 0003:00008888       ??_C@_0BA@LAKLAIKA@tauntKillInsult?$AA@ 30107888     ui_shared.obj
 0003:0000889c       ??_C@_0M@HEJOPHDA@taskSuicide?$AA@ 3010789c     ui_shared.obj
 0003:000088ac       ??_C@_0M@NPBCACOK@taskOwnFlag?$AA@ 301078ac     ui_shared.obj
 0003:000088bc       ??_C@_0L@JKHNIMGE@taskEscort?$AA@ 301078bc     ui_shared.obj
 0003:000088cc       ??_C@_0N@DNLIECKN@taskRetrieve?$AA@ 301078cc     ui_shared.obj
 0003:000088dc       ??_C@_0L@HALHAPMG@taskFollow?$AA@ 301078dc     ui_shared.obj
 0003:000088ec       ??_C@_08OELCHPPI@taskCamp?$AA@ 301078ec     ui_shared.obj
 0003:000088f8       ??_C@_0L@HNDPADH@taskPatrol?$AA@ 301078f8     ui_shared.obj
 0003:00008908       ??_C@_0M@JPJGJJPF@taskDefense?$AA@ 30107908     ui_shared.obj
 0003:00008918       ??_C@_0M@PDBEJPDO@taskOffense?$AA@ 30107918     ui_shared.obj
 0003:00008928       ??_C@_09PEFBKJOE@denyOrder?$AA@ 30107928     ui_shared.obj
 0003:00008934       ??_C@_0N@KJLGMAFH@confirmOrder?$AA@ 30107934     ui_shared.obj
 0003:00008944       ??_C@_09DIHAGAEB@nextOrder?$AA@ 30107944     ui_shared.obj
 0003:00008950       ??_C@_0P@GJIGAACM@nextTeamMember?$AA@ 30107950     ui_shared.obj
 0003:00008964       ??_C@_0P@NMPIEJIB@prevTeamMember?$AA@ 30107964     ui_shared.obj
 0003:00008978       ??_C@_08DDALFEDF@?$CLbutton4?$AA@ 30107978     ui_shared.obj
 0003:00008984       ??_C@_08HMEKMCPC@?$CLbutton3?$AA@ 30107984     ui_shared.obj
 0003:00008990       ??_C@_07MAODEHGM@?$CLattack?$AA@ 30107990     ui_shared.obj
 0003:0000899c       ??_C@_09EAGNIMIH@weapon?513?$AA@ 3010799c     ui_shared.obj
 0003:000089a8       ??_C@_09FJHGLNMG@weapon?512?$AA@ 301079a8     ui_shared.obj
 0003:000089b4       ??_C@_09HCFLOOAF@weapon?511?$AA@ 301079b4     ui_shared.obj
 0003:000089c0       ??_C@_09GLEANPEE@weapon?510?$AA@ 301079c0     ui_shared.obj
 0003:000089cc       ??_C@_08MFIOAKPE@weapon?59?$AA@ 301079cc     ui_shared.obj
 0003:000089d8       ??_C@_08NMJFDLLF@weapon?58?$AA@ 301079d8     ui_shared.obj
 0003:000089e4       ??_C@_08FLANCHHK@weapon?57?$AA@ 301079e4     ui_shared.obj
 0003:000089f0       ??_C@_08ECBGBGDL@weapon?56?$AA@ 301079f0     ui_shared.obj
 0003:000089fc       ??_C@_08GJDLEFPI@weapon?55?$AA@ 301079fc     ui_shared.obj
 0003:00008a08       ??_C@_08HACAHELJ@weapon?54?$AA@ 30107a08     ui_shared.obj
 0003:00008a14       ??_C@_08DPGBOCHO@weapon?53?$AA@ 30107a14     ui_shared.obj
 0003:00008a20       ??_C@_08CGHKNDDP@weapon?52?$AA@ 30107a20     ui_shared.obj
 0003:00008a2c       ??_C@_08NFHIAPM@weapon?51?$AA@ 30107a2c     ui_shared.obj
 0003:00008a38       ??_C@_05GAKJCNGF@?$CLzoom?$AA@ 30107a38     ui_shared.obj
 0003:00008a40       ??_C@_0L@FHIBDANG@centerview?$AA@ 30107a40     ui_shared.obj
 0003:00008a50       ??_C@_06OBEGBCAL@?$CLmlook?$AA@ 30107a50     ui_shared.obj
 0003:00008a58       ??_C@_09KCKOGCLI@?$CLlookdown?$AA@ 30107a58     ui_shared.obj
 0003:00008a64       ??_C@_07BDFIGFL@?$CLlookup?$AA@ 30107a64     ui_shared.obj
 0003:00008a70       ??_C@_07CHKKNAEO@?$CLstrafe?$AA@ 30107a70     ui_shared.obj
 0003:00008a7c       ??_C@_06NGIHBNMB@?$CLright?$AA@ 30107a7c     ui_shared.obj
 0003:00008a84       ??_C@_05HEGFDNLE@?$CLleft?$AA@ 30107a84     ui_shared.obj
 0003:00008a8c       ??_C@_09HNJJMOJG@?$CLmovedown?$AA@ 30107a8c     ui_shared.obj
 0003:00008a98       ??_C@_07CKGNAPCP@?$CLmoveup?$AA@ 30107a98     ui_shared.obj
 0003:00008aa4       ??_C@_0L@FMBJCMEG@?$CLmoveright?$AA@ 30107aa4     ui_shared.obj
 0003:00008ab4       ??_C@_09IPJNFGKP@?$CLmoveleft?$AA@ 30107ab4     ui_shared.obj
 0003:00008ac0       ??_C@_05IPKGNIPH@?$CLback?$AA@ 30107ac0     ui_shared.obj
 0003:00008ac8       ??_C@_08KKEOHAPB@?$CLforward?$AA@ 30107ac8     ui_shared.obj
 0003:00008ad4       ??_C@_06JIDIHCBO@?$CLspeed?$AA@ 30107ad4     ui_shared.obj
 0003:00008adc       ??_C@_08GFFBPDLD@?$CLbutton2?$AA@ 30107adc     ui_shared.obj
 0003:00008ae8       ??_C@_05KJPHCDKJ@orbit?$AA@ 30107ae8     ui_shared.obj
 0003:00008af0       ??_C@_0L@NDOCJLDE@playlooped?$AA@ 30107af0     ui_shared.obj
 0003:00008b00       ??_C@_04GBHMDDO@play?$AA@  30107b00     ui_shared.obj
 0003:00008b08       ??_C@_04MGEIEJAD@exec?$AA@ 30107b08     ui_shared.obj
 0003:00008b10       ??_C@_07DFOFNCMO@setcvar?$AA@ 30107b10     ui_shared.obj
 0003:00008b1c       ??_C@_0L@KGLELNDP@transition?$AA@ 30107b1c     ui_shared.obj
 0003:00008b2c       ??_C@_0O@DDHOJBLA@setplayerhead?$AA@ 30107b2c     ui_shared.obj
 0003:00008b3c       ??_C@_0P@COHLPKKB@setplayermodel?$AA@ 30107b3c     ui_shared.obj
 0003:00008b50       ??_C@_08OKIAJKBO@setfocus?$AA@ 30107b50     ui_shared.obj
 0003:00008b5c       ??_C@_0N@KMLJLNON@setteamcolor?$AA@ 30107b5c     ui_shared.obj
 0003:00008b6c       ??_C@_0N@EBBIOPHN@setitemcolor?$AA@ 30107b6c     ui_shared.obj
 0003:00008b7c       ??_C@_0O@FOIIKEEB@setbackground?$AA@ 30107b7c     ui_shared.obj
 0003:00008b8c       ??_C@_08FBOLLCAN@setasset?$AA@ 30107b8c     ui_shared.obj
 0003:00008b98       ??_C@_05LBOHBHFK@close?$AA@ 30107b98     ui_shared.obj
 0003:00008ba0       ??_C@_0BA@JLPGECPM@conditionalopen?$AA@ 30107ba0     ui_shared.obj
 0003:00008bb4       ??_C@_04PMOCAHAA@open?$AA@ 30107bb4     ui_shared.obj
 0003:00008bbc       ??_C@_08OKIEAMBM@setcolor?$AA@ 30107bbc     ui_shared.obj
 0003:00008bc8       ??_C@_04IBOFHAPJ@hide?$AA@ 30107bc8     ui_shared.obj
 0003:00008bd0       ??_C@_04FKMICODN@show?$AA@ 30107bd0     ui_shared.obj
 0003:00008bd8       ??_C@_07BJADIKJG@fadeout?$AA@ 30107bd8     ui_shared.obj
 0003:00008be4       ??_C@_06JFGPOFJL@fadein?$AA@ 30107be4     ui_shared.obj
 0003:00008bf0       ??_C@_0CD@LBKPCJLM@UI_Alloc?3?5Failure?4?5Out?5of?5memory@ 30107bf0     ui_shared.obj
 0003:00008c1c       ??_C@_0DG@OMGKABNP@Memory?5Pool?5is?5?$CF?41f?$CF?$CF?5full?0?5?$CFi?5b@ 30107c1c     ui_shared.obj
 0003:00008c60       __real@4130000000000000    30107c60     ui_shared.obj
 0003:00008c6c       ??_C@_0DG@MABFDHIF@String?5Pool?5is?5?$CF?41f?$CF?$CF?5full?0?5?$CFi?5b@ 30107c6c     ui_shared.obj
 0003:00008cb0       __real@4118000000000000    30107cb0     ui_shared.obj
 0003:00008cbc       ??_C@_0BC@DKLFONDB@?9?9?9?9?9?9?9?9?9?9?9?9?9?9?9?9?6?$AA@ 30107cbc     ui_shared.obj
 0003:00008cd4       ??_C@_0BJ@GAPDFKFM@Memory?1String?5Pool?5Info?6?$AA@ 30107cd4     ui_shared.obj
 0003:00008cf4       ??_C@_0BM@DJGMFAMK@?$FO3WARNING?3?5?$CFs?0?5line?5?$CFd?3?5?$CFs?6?$AA@ 30107cf4     ui_shared.obj
 0003:00008d18       ??_C@_0BK@OKFEFFGN@?$FO1ERROR?3?5?$CFs?0?5line?5?$CFd?3?5?$CFs?6?$AA@ 30107d18     ui_shared.obj
 0003:00008d38       ??_C@_0BN@CKJPOGNB@expected?5float?5but?5found?5?$CFs?6?$AA@ 30107d38     ui_shared.obj
 0003:00008d5c       ??_C@_0BP@FLADEANJ@expected?5integer?5but?5found?5?$CFs?6?$AA@ 30107d5c     ui_shared.obj
 0003:00008d84       ??_C@_01CLKCMJKC@?5?$AA@   30107d84     ui_shared.obj
 0003:00008d88       ??_C@_04OEDFLLKD@?$CC?$CFs?$CC?$AA@ 30107d88     ui_shared.obj
 0003:00008d90       ??_C@_05LKKGNBCL@?$CFs?5?$DL?5?$AA@ 30107d90     ui_shared.obj
 0003:00008d98       __real@4058000000000000    30107d98     ui_shared.obj
 0003:00008da4       __real@41400000            30107da4     ui_shared.obj
 0003:00008da8       ??_C@_0BI@MLGEDDNA@slider?5handle?5key?5exit?6?$AA@ 30107da8     ui_shared.obj
 0003:00008dc4       __real@42cc0000            30107dc4     ui_shared.obj
 0003:00008dc8       ??_C@_0M@FHKEBODE@screenshot?6?$AA@ 30107dc8     ui_shared.obj
 0003:00008dd8       ??_C@_02JINPPBEP@No?$AA@   30107dd8     ui_shared.obj
 0003:00008ddc       ??_C@_03CCLAEDDF@Yes?$AA@  30107ddc     ui_shared.obj
 0003:00008de0       ??_C@_0M@LMHCNBPD@in_restart?6?$AA@ 30107de0     ui_shared.obj
 0003:00008df0       ??_C@_03BBKEAIF@?$DP?$DP?$DP?$AA@ 30107df0     ui_shared.obj
 0003:00008df4       ??_C@_04FJKIFICP@?5or?5?$AA@ 30107df4     ui_shared.obj
 0003:00008dfc       ??_C@_05DJCKAPIL@FIXME?$AA@ 30107dfc     ui_shared.obj
 0003:00008e08       __real@3fe99999a0000000    30107e08     ui_shared.obj
 0003:00008e14       __real@3f4ccccd            30107e14     ui_shared.obj
 0003:00008e18       __real@3d567750            30107e18     ui_shared.obj
 0003:00008e1c       __real@3f0ccccd            30107e1c     ui_shared.obj
 0003:00008e20       ??_C@_0BO@GKGLOPGG@end?5of?5file?5inside?5menu?5item?6?$AA@ 30107e20     ui_shared.obj
 0003:00008e44       ??_C@_0CE@OIGKMGKE@couldn?8t?5parse?5menu?5item?5keyword@ 30107e44     ui_shared.obj
 0003:00008e70       ??_C@_0BN@JHFMAPJL@unknown?5menu?5item?5keyword?5?$CFs?$AA@ 30107e70     ui_shared.obj
 0003:00008e94       ??_C@_04GHJNJNPO@main?$AA@ 30107e94     ui_shared.obj
 0003:00008e9c       ??_C@_0BP@HJCDHJDP@couldn?8t?5parse?5menu?5keyword?5?$CFs?$AA@ 30107e9c     ui_shared.obj
 0003:00008ec4       ??_C@_0BI@PALCAEGK@unknown?5menu?5keyword?5?$CFs?$AA@ 30107ec4     ui_shared.obj
 0003:00008ee0       ??_C@_0BJ@MPIMCBOA@end?5of?5file?5inside?5menu?6?$AA@ 30107ee0     ui_shared.obj
 0003:00008f00       ??_C@_07KLAFGBNN@fps?3?5?$CFf?$AA@ 30107f00     ui_shared.obj
 0003:00008f0c       __real@40e00000            30107f0c     ui_shared.obj
 0003:00008f10       __FPinit                   30107f10     LIBCMTD:_fpinit_.obj
 0003:00008f14       ?ProcessDetach@NativeDll@<CrtImplementationDetails>@@0IB 30107f14     LIBCMTD:atof.obj
 0003:00008f18       ?ProcessAttach@NativeDll@<CrtImplementationDetails>@@0IB 30107f18     LIBCMTD:atof.obj
 0003:00008f1c       ?ThreadAttach@NativeDll@<CrtImplementationDetails>@@0IB 30107f1c     LIBCMTD:atof.obj
 0003:00008f20       ?ThreadDetach@NativeDll@<CrtImplementationDetails>@@0IB 30107f20     LIBCMTD:atof.obj
 0003:00008f24       ?ProcessVerifier@NativeDll@<CrtImplementationDetails>@@0IB 30107f24     LIBCMTD:atof.obj
 0003:00008f28       ??_C@_1BA@NJCJMLHI@?$AA_?$AAa?$AAt?$AAo?$AAf?$AA_?$AAl?$AA?$AA@ 30107f28     LIBCMTD:atof.obj
 0003:00008f40       ??_C@_1FM@HAAJIFE@?$AAf?$AA?3?$AA?2?$AAd?$AAd?$AA?2?$AAv?$AAc?$AAt?$AAo?$AAo?$AAl?$AAs?$AA?2?$AAc?$AAr?$AAt?$AA_?$AAb?$AAl?$AAd?$AA?2?$AAs?$AAe?$AAl?$AAf?$AA_?$AAx?$AA8?$AA6?$AA?2?$AAc@ 30107f40     LIBCMTD:atof.obj
 0003:00008fb0       ??_C@_1BK@LAOAACLJ@?$AAn?$AAp?$AAt?$AAr?$AA?5?$AA?$CB?$AA?$DN?$AA?5?$AAN?$AAU?$AAL?$AAL?$AA?$AA@ 30107fb0     LIBCMTD:atof.obj
 0003:00008fd0       ??_C@_1CC@OLIJCKA@?$AA?$CI?$AAs?$AAt?$AAr?$AAi?$AAn?$AAg?$AA?5?$AA?$CB?$AA?$DN?$AA?5?$AAN?$AAU?$AAL?$AAL?$AA?$CJ?$AA?$AA@ 30107fd0     LIBCMTD:vsprintf.obj
 0003:00008ff8       ??_C@_1BI@IGILPKD@?$AA_?$AAv?$AAs?$AAp?$AAr?$AAi?$AAn?$AAt?$AAf?$AA_?$AAl?$AA?$AA@ 30107ff8     LIBCMTD:vsprintf.obj
 0003:00009018       ??_C@_1GE@DPADKNCG@?$AAf?$AA?3?$AA?2?$AAd?$AAd?$AA?2?$AAv?$AAc?$AAt?$AAo?$AAo?$AAl?$AAs?$AA?2?$AAc?$AAr?$AAt?$AA_?$AAb?$AAl?$AAd?$AA?2?$AAs?$AAe?$AAl?$AAf?$AA_?$AAx?$AA8?$AA6?$AA?2?$AAc@ 30108018     LIBCMTD:vsprintf.obj
 0003:00009090       ??_C@_1CC@MGIEJOME@?$AA?$CI?$AAf?$AAo?$AAr?$AAm?$AAa?$AAt?$AA?5?$AA?$CB?$AA?$DN?$AA?5?$AAN?$AAU?$AAL?$AAL?$AA?$CJ?$AA?$AA@ 30108090     LIBCMTD:vsprintf.obj
 0003:000090b8       ??_C@_1CE@HMKDJHB@?$AA_?$AAv?$AAs?$AAc?$AAp?$AAr?$AAi?$AAn?$AAt?$AAf?$AA_?$AAh?$AAe?$AAl?$AAp?$AAe?$AAr?$AA?$AA@ 301080b8     LIBCMTD:vsprintf.obj
 0003:00009150       ??_C@_15IABLJNFO@?$AA?6?$AA?6?$AA?$AA@ 30108150     LIBCMTD:wassert.obj
 0003:00009158       ??_C@_13LBAGMAIH@?$AA?6?$AA?$AA@ 30108158     LIBCMTD:wassert.obj
 0003:0000915c       ??_C@_17LGKOMLJ@?$AA?4?$AA?4?$AA?4?$AA?$AA@ 3010815c     LIBCMTD:wassert.obj
 0003:00009168       ??_C@_1EK@MBDPDCGA@?$AAM?$AAi?$AAc?$AAr?$AAo?$AAs?$AAo?$AAf?$AAt?$AA?5?$AAV?$AAi?$AAs?$AAu?$AAa?$AAl?$AA?5?$AAC?$AA?$CL?$AA?$CL?$AA?5?$AAR?$AAu?$AAn?$AAt?$AAi?$AAm?$AAe?$AA?5?$AAL?$AAi?$AAb@ 30108168     LIBCMTD:wassert.obj
 0003:000091c0       ??_C@_1HK@POCJMFGK@?$AA?$CI?$AAP?$AAr?$AAe?$AAs?$AAs?$AA?5?$AAR?$AAe?$AAt?$AAr?$AAy?$AA?5?$AAt?$AAo?$AA?5?$AAd?$AAe?$AAb?$AAu?$AAg?$AA?5?$AAt?$AAh?$AAe?$AA?5?$AAa?$AAp?$AAp?$AAl?$AAi?$AAc@ 301081c0     LIBCMTD:wassert.obj
 0003:00009258       ??_C@_1LO@HBAMOOPN@?$AAw?$AAc?$AAs?$AAc?$AAa?$AAt?$AA_?$AAs?$AA?$CI?$AAa?$AAs?$AAs?$AAe?$AAr?$AAt?$AAb?$AAu?$AAf?$AA?0?$AA?5?$AA?$CI?$AA6?$AA0?$AA?5?$AA?$CK?$AA?5?$AA9?$AA?$CJ?$AA?0?$AA?5?$AAL?$AA?$CC@ 30108258     LIBCMTD:wassert.obj
 0003:00009340       ??_C@_1FG@GMPCGFKH@?$AAw?$AAc?$AAs?$AAc?$AAa?$AAt?$AA_?$AAs?$AA?$CI?$AAa?$AAs?$AAs?$AAe?$AAr?$AAt?$AAb?$AAu?$AAf?$AA?0?$AA?5?$AA?$CI?$AA6?$AA0?$AA?5?$AA?$CK?$AA?5?$AA9?$AA?$CJ?$AA?0?$AA?5?$AAd?$AAb@ 30108340     LIBCMTD:wassert.obj
 0003:000093a8       ??_C@_1OA@EGMLFBHJ@?$AAF?$AAo?$AAr?$AA?5?$AAi?$AAn?$AAf?$AAo?$AAr?$AAm?$AAa?$AAt?$AAi?$AAo?$AAn?$AA?5?$AAo?$AAn?$AA?5?$AAh?$AAo?$AAw?$AA?5?$AAy?$AAo?$AAu?$AAr?$AA?5?$AAp?$AAr?$AAo?$AAg@ 301083a8     LIBCMTD:wassert.obj
 0003:000094b8       ??_C@_1BCO@FMFFDPPF@?$AAw?$AAc?$AAs?$AAc?$AAa?$AAt?$AA_?$AAs?$AA?$CI?$AAa?$AAs?$AAs?$AAe?$AAr?$AAt?$AAb?$AAu?$AAf?$AA?0?$AA?5?$AA?$CI?$AA6?$AA0?$AA?5?$AA?$CK?$AA?5?$AA9?$AA?$CJ?$AA?0?$AA?5?$AAL?$AA?$CC@ 301084b8     LIBCMTD:wassert.obj
 0003:00009628       ??_C@_1EM@MBEKCGIC@?$AAw?$AAc?$AAs?$AAc?$AAa?$AAt?$AA_?$AAs?$AA?$CI?$AA?5?$AAa?$AAs?$AAs?$AAe?$AAr?$AAt?$AAb?$AAu?$AAf?$AA?0?$AA?5?$AA?$CI?$AA6?$AA0?$AA?5?$AA?$CK?$AA?5?$AA9?$AA?$CJ?$AA?0?$AA?5?$AAe@ 30108628     LIBCMTD:wassert.obj
 0003:00009688       ??_C@_1CHM@CEIMNDLH@?$AAw?$AAc?$AAs?$AAn?$AAc?$AAa?$AAt?$AA_?$AAs?$AA?$CI?$AA?5?$AAa?$AAs?$AAs?$AAe?$AAr?$AAt?$AAb?$AAu?$AAf?$AA?0?$AA?5?$AA?$CI?$AA6?$AA0?$AA?5?$AA?$CK?$AA?5?$AA9?$AA?$CJ?$AA?0?$AA?5@ 30108688     LIBCMTD:wassert.obj
 0003:00009984       ??_C@_1BK@PEDCIPMA@?$AAE?$AAx?$AAp?$AAr?$AAe?$AAs?$AAs?$AAi?$AAo?$AAn?$AA?3?$AA?5?$AA?$AA@ 30108984     LIBCMTD:wassert.obj
 0003:000099a8       ??_C@_1GC@HOBBPFHJ@?$AAw?$AAc?$AAs?$AAc?$AAa?$AAt?$AA_?$AAs?$AA?$CI?$AA?5?$AAa?$AAs?$AAs?$AAe?$AAr?$AAt?$AAb?$AAu?$AAf?$AA?0?$AA?5?$AA?$CI?$AA6?$AA0?$AA?5?$AA?$CK?$AA?5?$AA9?$AA?$CJ?$AA?0?$AA?5?$AAL@ 301089a8     LIBCMTD:wassert.obj
 0003:00009a20       ??_C@_1KG@CFEIMPNH@?$AA_?$AAi?$AAt?$AAo?$AAw?$AA_?$AAs?$AA?$CI?$AA?5?$AAl?$AAi?$AAn?$AAe?$AAn?$AAo?$AA?0?$AA?5?$AAa?$AAs?$AAs?$AAe?$AAr?$AAt?$AAb?$AAu?$AAf?$AA?5?$AA?$CL?$AA?5?$AAw?$AAc?$AAs@ 30108a20     LIBCMTD:wassert.obj
 0003:00009ae8       ??_C@_1O@KCAFKHJE@?$AAL?$AAi?$AAn?$AAe?$AA?3?$AA?5?$AA?$AA@ 30108ae8     LIBCMTD:wassert.obj
 0003:00009af8       ??_C@_1FG@NHDGJLMI@?$AAw?$AAc?$AAs?$AAc?$AAa?$AAt?$AA_?$AAs?$AA?$CI?$AA?5?$AAa?$AAs?$AAs?$AAe?$AAr?$AAt?$AAb?$AAu?$AAf?$AA?0?$AA?5?$AA?$CI?$AA6?$AA0?$AA?5?$AA?$CK?$AA?5?$AA9?$AA?$CJ?$AA?0?$AA?5?$AAL@ 30108af8     LIBCMTD:wassert.obj
 0003:00009b60       ??_C@_1FE@IIFBBPFI@?$AAw?$AAc?$AAs?$AAc?$AAa?$AAt?$AA_?$AAs?$AA?$CI?$AA?5?$AAa?$AAs?$AAs?$AAe?$AAr?$AAt?$AAb?$AAu?$AAf?$AA?0?$AA?5?$AA?$CI?$AA6?$AA0?$AA?5?$AA?$CK?$AA?5?$AA9?$AA?$CJ?$AA?0?$AA?5?$AAf@ 30108b60     LIBCMTD:wassert.obj
 0003:00009bc8       ??_C@_1IC@CFFJBMAD@?$AAw?$AAc?$AAs?$AAc?$AAa?$AAt?$AA_?$AAs?$AA?$CI?$AA?5?$AAa?$AAs?$AAs?$AAe?$AAr?$AAt?$AAb?$AAu?$AAf?$AA?0?$AA?5?$AA?$CI?$AA6?$AA0?$AA?5?$AA?$CK?$AA?5?$AA9?$AA?$CJ?$AA?0?$AA?5?$AAp@ 30108bc8     LIBCMTD:wassert.obj
 0003:00009c68       ??_C@_1HG@OJJMBIKO@?$AAw?$AAc?$AAs?$AAn?$AAc?$AAa?$AAt?$AA_?$AAs?$AA?$CI?$AA?5?$AAa?$AAs?$AAs?$AAe?$AAr?$AAt?$AAb?$AAu?$AAf?$AA?0?$AA?5?$AA?$CI?$AA6?$AA0?$AA?5?$AA?$CK?$AA?5?$AA9?$AA?$CJ?$AA?0?$AA?5@ 30108c68     LIBCMTD:wassert.obj
 0003:00009cf8       ??_C@_1GO@BIHLMMND@?$AAw?$AAc?$AAs?$AAn?$AAc?$AAa?$AAt?$AA_?$AAs?$AA?$CI?$AA?5?$AAa?$AAs?$AAs?$AAe?$AAr?$AAt?$AAb?$AAu?$AAf?$AA?0?$AA?5?$AA?$CI?$AA6?$AA0?$AA?5?$AA?$CK?$AA?5?$AA9?$AA?$CJ?$AA?0?$AA?5@ 30108cf8     LIBCMTD:wassert.obj
 0003:00009d80       ??_C@_1FO@IJLLDBEB@?$AAw?$AAc?$AAs?$AAc?$AAa?$AAt?$AA_?$AAs?$AA?$CI?$AA?5?$AAa?$AAs?$AAs?$AAe?$AAr?$AAt?$AAb?$AAu?$AAf?$AA?0?$AA?5?$AA?$CI?$AA6?$AA0?$AA?5?$AA?$CK?$AA?5?$AA9?$AA?$CJ?$AA?0?$AA?5?$AAp@ 30108d80     LIBCMTD:wassert.obj
 0003:00009df0       ??_C@_1FG@CLEECKIJ@?$AAw?$AAc?$AAs?$AAc?$AAa?$AAt?$AA_?$AAs?$AA?$CI?$AA?5?$AAa?$AAs?$AAs?$AAe?$AAr?$AAt?$AAb?$AAu?$AAf?$AA?0?$AA?5?$AA?$CI?$AA6?$AA0?$AA?5?$AA?$CK?$AA?5?$AA9?$AA?$CJ?$AA?0?$AA?5?$AAd@ 30108df0     LIBCMTD:wassert.obj
 0003:00009e58       ??_C@_1GG@PMHOPJKA@?$AAw?$AAc?$AAs?$AAn?$AAc?$AAa?$AAt?$AA_?$AAs?$AA?$CI?$AA?5?$AAa?$AAs?$AAs?$AAe?$AAr?$AAt?$AAb?$AAu?$AAf?$AA?0?$AA?5?$AA?$CI?$AA6?$AA0?$AA?5?$AA?$CK?$AA?5?$AA9?$AA?$CJ?$AA?0?$AA?5@ 30108e58     LIBCMTD:wassert.obj
 0003:00009ed4       ??_C@_1O@HEMHKNDC@?$AAF?$AAi?$AAl?$AAe?$AA?3?$AA?5?$AA?$AA@ 30108ed4     LIBCMTD:wassert.obj
 0003:00009ee8       ??_C@_1FG@HIDBOJF@?$AAw?$AAc?$AAs?$AAc?$AAa?$AAt?$AA_?$AAs?$AA?$CI?$AA?5?$AAa?$AAs?$AAs?$AAe?$AAr?$AAt?$AAb?$AAu?$AAf?$AA?0?$AA?5?$AA?$CI?$AA6?$AA0?$AA?5?$AA?$CK?$AA?5?$AA9?$AA?$CJ?$AA?0?$AA?5?$AAL@ 30108ee8     LIBCMTD:wassert.obj
 0003:00009f50       ??_C@_1FC@FFKGGIKO@?$AAw?$AAc?$AAs?$AAc?$AAa?$AAt?$AA_?$AAs?$AA?$CI?$AA?5?$AAa?$AAs?$AAs?$AAe?$AAr?$AAt?$AAb?$AAu?$AAf?$AA?0?$AA?5?$AA?$CI?$AA6?$AA0?$AA?5?$AA?$CK?$AA?5?$AA9?$AA?$CJ?$AA?0?$AA?5?$AAn@ 30108f50     LIBCMTD:wassert.obj
 0003:00009fb8       ??_C@_1EK@BDNABPEK@?$AAw?$AAc?$AAs?$AAc?$AAa?$AAt?$AA_?$AAs?$AA?$CI?$AA?5?$AAa?$AAs?$AAs?$AAe?$AAr?$AAt?$AAb?$AAu?$AAf?$AA?0?$AA?5?$AA?$CI?$AA6?$AA0?$AA?5?$AA?$CK?$AA?5?$AA9?$AA?$CJ?$AA?0?$AA?5?$AAp@ 30108fb8     LIBCMTD:wassert.obj
 0003:0000a010       ??_C@_1HK@JKBDGMGN@?$AAw?$AAc?$AAs?$AAn?$AAc?$AAp?$AAy?$AA_?$AAs?$AA?$CI?$AA?5?$AAp?$AAc?$AAh?$AA?0?$AA?5?$AA?$CI?$AA2?$AA6?$AA0?$AA?5?$AA?$CL?$AA?5?$AA1?$AA?$CJ?$AA?5?$AA?9?$AA?5?$AA?$CI?$AAp?$AAc?$AAh@ 30109010     LIBCMTD:wassert.obj
 0003:0000a0a4       ??_C@_1CO@EAEJAADC@?$AA?$DM?$AAp?$AAr?$AAo?$AAg?$AAr?$AAa?$AAm?$AA?5?$AAn?$AAa?$AAm?$AAe?$AA?5?$AAu?$AAn?$AAk?$AAn?$AAo?$AAw?$AAn?$AA?$DO?$AA?$AA@ 301090a4     LIBCMTD:wassert.obj
 0003:0000a0e0       ??_C@_1HA@EPFCONEE@?$AAw?$AAc?$AAs?$AAc?$AAp?$AAy?$AA_?$AAs?$AA?$CI?$AA?5?$AAp?$AAr?$AAo?$AAg?$AAn?$AAa?$AAm?$AAe?$AA?0?$AA?5?$AA2?$AA6?$AA0?$AA?5?$AA?$CL?$AA?5?$AA1?$AA?0?$AA?5?$AAL?$AA?$CC?$AA?$DM@ 301090e0     LIBCMTD:wassert.obj
 0003:0000a168       ??_C@_1BE@PHKBBGE@?$AAP?$AAr?$AAo?$AAg?$AAr?$AAa?$AAm?$AA?3?$AA?5?$AA?$AA@ 30109168     LIBCMTD:wassert.obj
 0003:0000a180       ??_C@_1FM@LKICECBD@?$AAw?$AAc?$AAs?$AAc?$AAa?$AAt?$AA_?$AAs?$AA?$CI?$AA?5?$AAa?$AAs?$AAs?$AAe?$AAr?$AAt?$AAb?$AAu?$AAf?$AA?0?$AA?5?$AA?$CI?$AA6?$AA0?$AA?5?$AA?$CK?$AA?5?$AA9?$AA?$CJ?$AA?0?$AA?5?$AAL@ 30109180     LIBCMTD:wassert.obj
 0003:0000a1f0       ??_C@_1FI@JIGMFG@?$AAw?$AAc?$AAs?$AAc?$AAa?$AAt?$AA_?$AAs?$AA?$CI?$AA?5?$AAa?$AAs?$AAs?$AAe?$AAr?$AAt?$AAb?$AAu?$AAf?$AA?0?$AA?5?$AA?$CI?$AA6?$AA0?$AA?5?$AA?$CK?$AA?5?$AA9?$AA?$CJ?$AA?0?$AA?5?$AAd@ 301091f0     LIBCMTD:wassert.obj
 0003:0000a25c       ??_C@_1CE@OJBNHDMO@?$AAA?$AAs?$AAs?$AAe?$AAr?$AAt?$AAi?$AAo?$AAn?$AA?5?$AAf?$AAa?$AAi?$AAl?$AAe?$AAd?$AA?$CB?$AA?$AA@ 3010925c     LIBCMTD:wassert.obj
 0003:0000a288       ??_C@_1GM@EFCJNBAA@?$AAw?$AAc?$AAs?$AAc?$AAp?$AAy?$AA_?$AAs?$AA?$CI?$AA?5?$AAa?$AAs?$AAs?$AAe?$AAr?$AAt?$AAb?$AAu?$AAf?$AA?0?$AA?5?$AA?$CI?$AA6?$AA0?$AA?5?$AA?$CK?$AA?5?$AA9?$AA?$CJ?$AA?0?$AA?5?$AAL@ 30109288     LIBCMTD:wassert.obj
 0003:0000a30c       ??_C@_1BC@LNOOMFNA@?$AA_?$AAw?$AAa?$AAs?$AAs?$AAe?$AAr?$AAt?$AA?$AA@ 3010930c     LIBCMTD:wassert.obj
 0003:0000a328       ??_C@_1GA@COEIABIF@?$AAf?$AA?3?$AA?2?$AAd?$AAd?$AA?2?$AAv?$AAc?$AAt?$AAo?$AAo?$AAl?$AAs?$AA?2?$AAc?$AAr?$AAt?$AA_?$AAb?$AAl?$AAd?$AA?2?$AAs?$AAe?$AAl?$AAf?$AA_?$AAx?$AA8?$AA6?$AA?2?$AAc@ 30109328     LIBCMTD:wassert.obj
 0003:0000a39c       __pRawDllMain              3010939c     LIBCMTD:dllcrt0.obj
 0003:0000a39c       __pDefaultRawDllMain       3010939c     LIBCMTD:dllcrt0.obj
 0003:0000a3a0       ??_C@_0DB@OLNOAEGF@f?3?2dd?2vctools?2crt_bld?2self_x86?2c@ 301093a0     LIBCMTD:dllcrt0.obj
 0003:0000a3e0       ??_C@_1GE@KOCFNGPB@?$AA_?$AAc?$AAo?$AAn?$AAt?$AAr?$AAo?$AAl?$AAf?$AAp?$AA_?$AAs?$AA?$CI?$AA?$CI?$AA?$CI?$AAv?$AAo?$AAi?$AAd?$AA?5?$AA?$CK?$AA?$CJ?$AA0?$AA?$CJ?$AA?0?$AA?5?$AA0?$AAx?$AA0?$AA0?$AA0?$AA1@ 301093e0     LIBCMTD:fp8.obj
 0003:0000a458       ??_C@_1CK@JMKHCBEI@?$AA_?$AAs?$AAe?$AAt?$AAd?$AAe?$AAf?$AAa?$AAu?$AAl?$AAt?$AAp?$AAr?$AAe?$AAc?$AAi?$AAs?$AAi?$AAo?$AAn?$AA?$AA@ 30109458     LIBCMTD:fp8.obj
 0003:0000a490       ??_C@_1GG@PHGJJHBC@?$AAf?$AA?3?$AA?2?$AAd?$AAd?$AA?2?$AAv?$AAc?$AAt?$AAo?$AAo?$AAl?$AAs?$AA?2?$AAc?$AAr?$AAt?$AA_?$AAb?$AAl?$AAd?$AA?2?$AAs?$AAe?$AAl?$AAf?$AA_?$AAx?$AA8?$AA6?$AA?2?$AAc@ 30109490     LIBCMTD:fp8.obj
 0003:0000a50c       ??_C@_1CA@CBMNPEO@?$AAs?$AAi?$AAz?$AAe?$AAI?$AAn?$AAB?$AAy?$AAt?$AAe?$AAs?$AA?5?$AA?$DO?$AA?5?$AA0?$AA?$AA@ 3010950c     LIBCMTD:cvt.obj
 0003:0000a534       ??_C@_1BC@INKAPMHI@?$AA_?$AAc?$AAf?$AAt?$AAo?$AAe?$AA_?$AAl?$AA?$AA@ 30109534     LIBCMTD:cvt.obj
 0003:0000a550       ??_C@_1GO@NCCGBNKI@?$AAf?$AA?3?$AA?2?$AAd?$AAd?$AA?2?$AAv?$AAc?$AAt?$AAo?$AAo?$AAl?$AAs?$AA?2?$AAc?$AAr?$AAt?$AA_?$AAb?$AAl?$AAd?$AA?2?$AAs?$AAe?$AAl?$AAf?$AA_?$AAx?$AA8?$AA6?$AA?2?$AAc@ 30109550     LIBCMTD:cvt.obj
 0003:0000a5d4       ??_C@_1BI@ICGGMGLK@?$AAb?$AAu?$AAf?$AA?5?$AA?$CB?$AA?$DN?$AA?5?$AAN?$AAU?$AAL?$AAL?$AA?$AA@ 301095d4     LIBCMTD:cvt.obj
 0003:0000a5f0       ??_C@_05KLBDPFGC@e?$CL000?$AA@ 301095f0     LIBCMTD:cvt.obj
 0003:0000a5f8       ??_C@_1LE@EOIFGNCJ@?$AAs?$AAt?$AAr?$AAc?$AAp?$AAy?$AA_?$AAs?$AA?$CI?$AAp?$AA?0?$AA?5?$AA?$CI?$AAs?$AAi?$AAz?$AAe?$AAI?$AAn?$AAB?$AAy?$AAt?$AAe?$AAs?$AA?5?$AA?$DN?$AA?$DN?$AA?5?$AA?$CI?$AAs?$AAi?$AAz@ 301095f8     LIBCMTD:cvt.obj
 0003:0000a6d0       ??_C@_1HE@NACBNDPP@?$AAs?$AAi?$AAz?$AAe?$AAI?$AAn?$AAB?$AAy?$AAt?$AAe?$AAs?$AA?5?$AA?$DO?$AA?5?$AA?$CI?$AAs?$AAi?$AAz?$AAe?$AA_?$AAt?$AA?$CJ?$AA?$CI?$AA3?$AA?5?$AA?$CL?$AA?5?$AA?$CI?$AAn?$AAd?$AAe?$AAc@ 301096d0     LIBCMTD:cvt.obj
 0003:0000a75c       ??_C@_1BE@OLBNEILL@?$AA_?$AAc?$AAf?$AAt?$AAo?$AAe?$AA2?$AA_?$AAl?$AA?$AA@ 3010975c     LIBCMTD:cvt.obj
 0003:0000a778       ??_C@_1FC@IKIMAMJB@?$AAs?$AAi?$AAz?$AAe?$AAI?$AAn?$AAB?$AAy?$AAt?$AAe?$AAs?$AA?5?$AA?$DO?$AA?5?$AA?$CI?$AAs?$AAi?$AAz?$AAe?$AA_?$AAt?$AA?$CJ?$AA?$CI?$AA1?$AA?5?$AA?$CL?$AA?5?$AA4?$AA?5?$AA?$CL?$AA?5?$AAn@ 30109778     LIBCMTD:cvt.obj
 0003:0000a7dc       ??_C@_1BC@JOKPCIC@?$AA_?$AAc?$AAf?$AAt?$AAo?$AAa?$AA_?$AAl?$AA?$AA@ 301097dc     LIBCMTD:cvt.obj
 0003:0000a7f4       ??_C@_1BC@DCPPLJL@?$AA_?$AAc?$AAf?$AAt?$AAo?$AAf?$AA_?$AAl?$AA?$AA@ 301097f4     LIBCMTD:cvt.obj
 0003:0000a80c       ??_C@_1BE@CKPDLI@?$AA_?$AAc?$AAf?$AAt?$AAo?$AAf?$AA2?$AA_?$AAl?$AA?$AA@ 3010980c     LIBCMTD:cvt.obj
 0003:0000a824       ??_C@_1BC@MPIFPLAF@?$AA_?$AAc?$AAf?$AAt?$AAo?$AAg?$AA_?$AAl?$AA?$AA@ 30109824     LIBCMTD:cvt.obj
 0003:0000b2b0       __indefinite               3010a2b0     LIBCMTD:_87disp_.obj
 0003:0000b2ba       __piby2                    3010a2ba     LIBCMTD:_87disp_.obj
 0003:0000b2f8       __DEFAULT_CW_in_mem        3010a2f8     LIBCMTD:_common_.obj
 0003:0000b2fa       __pi_by_2_to_61            3010a2fa     LIBCMTD:_common_.obj
 0003:0000bdc0       ??_C@_1GC@CHGJNMHG@?$AAf?$AA?3?$AA?2?$AAd?$AAd?$AA?2?$AAv?$AAc?$AAt?$AAo?$AAo?$AAl?$AAs?$AA?2?$AAc?$AAr?$AAt?$AA_?$AAb?$AAl?$AAd?$AA?2?$AAs?$AAe?$AAl?$AAf?$AA_?$AAx?$AA8?$AA6?$AA?2?$AAc@ 3010adc0     LIBCMTD:isctype.obj
 0003:0000be38       ??_C@_1DC@BPLPALML@?$AA?$CI?$AAu?$AAn?$AAs?$AAi?$AAg?$AAn?$AAe?$AAd?$AA?$CJ?$AA?$CI?$AAc?$AA?5?$AA?$CL?$AA?5?$AA1?$AA?$CJ?$AA?5?$AA?$DM?$AA?$DN?$AA?5?$AA2?$AA5?$AA6?$AA?$AA@ 3010ae38     LIBCMTD:isctype.obj
 0003:0000be74       ??_C@_1BG@KCMPBBDK@?$AA_?$AAg?$AAe?$AAt?$AA_?$AAe?$AAr?$AAr?$AAn?$AAo?$AA?$AA@ 3010ae74     LIBCMTD:dosmap.obj
 0003:0000be90       ??_C@_1GA@MFGIMPNL@?$AAf?$AA?3?$AA?2?$AAd?$AAd?$AA?2?$AAv?$AAc?$AAt?$AAo?$AAo?$AAl?$AAs?$AA?2?$AAc?$AAr?$AAt?$AA_?$AAb?$AAl?$AAd?$AA?2?$AAs?$AAe?$AAl?$AAf?$AA_?$AAx?$AA8?$AA6?$AA?2?$AAc@ 3010ae90     LIBCMTD:dosmap.obj
 0003:0000bf04       ??_C@_1BO@LKEBEKJP@?$AAp?$AAV?$AAa?$AAl?$AAu?$AAe?$AA?5?$AA?$CB?$AA?$DN?$AA?5?$AAN?$AAU?$AAL?$AAL?$AA?$AA@ 3010af04     LIBCMTD:dosmap.obj
 0003:0000bf28       ??_C@_1BM@INIPHHDD@?$AA_?$AAg?$AAe?$AAt?$AA_?$AAd?$AAo?$AAs?$AAe?$AAr?$AAr?$AAn?$AAo?$AA?$AA@ 3010af28     LIBCMTD:dosmap.obj
 0003:0000bf4c       ??_C@_1CC@CGHMNGDG@?$AAA?$AAs?$AAs?$AAe?$AAr?$AAt?$AAi?$AAo?$AAn?$AA?5?$AAF?$AAa?$AAi?$AAl?$AAe?$AAd?$AA?$AA@ 3010af4c     LIBCMTD:dbgrptw.obj
 0003:0000bf74       ??_C@_1M@ILHOPKA@?$AAE?$AAr?$AAr?$AAo?$AAr?$AA?$AA@ 3010af74     LIBCMTD:dbgrptw.obj
 0003:0000bf84       ??_C@_1BA@GLMCNLEM@?$AAW?$AAa?$AAr?$AAn?$AAi?$AAn?$AAg?$AA?$AA@ 3010af84     LIBCMTD:dbgrptw.obj
 0003:0000bfa8       ??_C@_0DA@PCCBBBID@f?3?2dd?2vctools?2crt_bld?2self_x86?2c@ 3010afa8     LIBCMTD:dbgrptw.obj
 0003:0000bfe8       ??_C@_1FI@PHIAFFHM@?$AA?$CI?$AA?$CC?$AAT?$AAh?$AAe?$AA?5?$AAh?$AAo?$AAo?$AAk?$AA?5?$AAf?$AAu?$AAn?$AAc?$AAt?$AAi?$AAo?$AAn?$AA?5?$AAi?$AAs?$AA?5?$AAn?$AAo?$AAt?$AA?5?$AAi?$AAn?$AA?5?$AAt?$AAh@ 3010afe8     LIBCMTD:dbgrptw.obj
 0003:0000c054       ??_C@_1CG@JBJEFOCM@?$AAp?$AAf?$AAn?$AAN?$AAe?$AAw?$AAH?$AAo?$AAo?$AAk?$AA?5?$AA?$CB?$AA?$DN?$AA?5?$AAN?$AAU?$AAL?$AAL?$AA?$AA@ 3010b054     LIBCMTD:dbgrptw.obj
 0003:0000c084       ??_C@_1CI@IIHEAKEI@?$AA_?$AAC?$AAr?$AAt?$AAS?$AAe?$AAt?$AAR?$AAe?$AAp?$AAo?$AAr?$AAt?$AAH?$AAo?$AAo?$AAk?$AAW?$AA2?$AA?$AA@ 3010b084     LIBCMTD:dbgrptw.obj
 0003:0000c0b8       ??_C@_1GA@IBJGKIFE@?$AAf?$AA?3?$AA?2?$AAd?$AAd?$AA?2?$AAv?$AAc?$AAt?$AAo?$AAo?$AAl?$AAs?$AA?2?$AAc?$AAr?$AAt?$AA_?$AAb?$AAl?$AAd?$AA?2?$AAs?$AAe?$AAl?$AAf?$AA_?$AAx?$AA8?$AA6?$AA?2?$AAc@ 3010b0b8     LIBCMTD:dbgrptw.obj
 0003:0000c130       ??_C@_1HI@OFEHGPPC@?$AAm?$AAo?$AAd?$AAe?$AA?5?$AA?$DN?$AA?$DN?$AA?5?$AA_?$AAC?$AAR?$AAT?$AA_?$AAR?$AAP?$AAT?$AAH?$AAO?$AAO?$AAK?$AA_?$AAI?$AAN?$AAS?$AAT?$AAA?$AAL?$AAL?$AA?5?$AA?$HM?$AA?$HM?$AA?5@ 3010b130     LIBCMTD:dbgrptw.obj
 0003:0000c1c0       ??_C@_1EG@PEOEAKBB@?$AAM?$AAi?$AAc?$AAr?$AAo?$AAs?$AAo?$AAf?$AAt?$AA?5?$AAV?$AAi?$AAs?$AAu?$AAa?$AAl?$AA?5?$AAC?$AA?$CL?$AA?$CL?$AA?5?$AAD?$AAe?$AAb?$AAu?$AAg?$AA?5?$AAL?$AAi?$AAb?$AAr?$AAa@ 3010b1c0     LIBCMTD:dbgrptw.obj
 0003:0000c218       ??_C@_1FG@BBOLDHGF@?$AA_?$AAC?$AAr?$AAt?$AAD?$AAb?$AAg?$AAR?$AAe?$AAp?$AAo?$AAr?$AAt?$AA?3?$AA?5?$AAS?$AAt?$AAr?$AAi?$AAn?$AAg?$AA?5?$AAt?$AAo?$AAo?$AA?5?$AAl?$AAo?$AAn?$AAg?$AA?5?$AAo@ 3010b218     LIBCMTD:dbgrptw.obj
 0003:0000c280       ??_C@_1JI@EACPGHID@?$AAw?$AAc?$AAs?$AAc?$AAp?$AAy?$AA_?$AAs?$AA?$CI?$AAs?$AAz?$AAO?$AAu?$AAt?$AAM?$AAe?$AAs?$AAs?$AAa?$AAg?$AAe?$AA?0?$AA?5?$AA4?$AA0?$AA9?$AA6?$AA?0?$AA?5?$AAL?$AA?$CC?$AA_@ 3010b280     LIBCMTD:dbgrptw.obj
 0003:0000c338       ??_C@_1BI@KALLJECN@?$AA?$CI?$AA?$CK?$AA_?$AAe?$AAr?$AAr?$AAn?$AAo?$AA?$CI?$AA?$CJ?$AA?$CJ?$AA?$AA@ 3010b338     LIBCMTD:dbgrptw.obj
 0003:0000c358       ??_C@_1KK@MEFMPOLM@?$AAD?$AAe?$AAb?$AAu?$AAg?$AA?5?$AA?$CF?$AAs?$AA?$CB?$AA?6?$AA?6?$AAP?$AAr?$AAo?$AAg?$AAr?$AAa?$AAm?$AA?3?$AA?5?$AA?$CF?$AAs?$AA?$CF?$AAs?$AA?$CF?$AAs?$AA?$CF?$AAs?$AA?$CF?$AAs?$AA?$CF?$AAs@ 3010b358     LIBCMTD:dbgrptw.obj
 0003:0000c424       ??_C@_1BE@CGCJKGHI@?$AA?6?$AAM?$AAo?$AAd?$AAu?$AAl?$AAe?$AA?3?$AA?5?$AA?$AA@ 3010b424     LIBCMTD:dbgrptw.obj
 0003:0000c43c       ??_C@_1BA@LNHECFIM@?$AA?6?$AAF?$AAi?$AAl?$AAe?$AA?3?$AA?5?$AA?$AA@ 3010b43c     LIBCMTD:dbgrptw.obj
 0003:0000c450       ??_C@_1BA@GLLGCPCK@?$AA?6?$AAL?$AAi?$AAn?$AAe?$AA?3?$AA?5?$AA?$AA@ 3010b450     LIBCMTD:dbgrptw.obj
 0003:0000c464       ??_C@_11LOCGONAA@?$AA?$AA@ 3010b464     LIBCMTD:dbgrptw.obj
 0003:0000c468       ??_C@_1OG@PMPPFHAF@?$AA?6?$AA?6?$AAF?$AAo?$AAr?$AA?5?$AAi?$AAn?$AAf?$AAo?$AAr?$AAm?$AAa?$AAt?$AAi?$AAo?$AAn?$AA?5?$AAo?$AAn?$AA?5?$AAh?$AAo?$AAw?$AA?5?$AAy?$AAo?$AAu?$AAr?$AA?5?$AAp?$AAr@ 3010b468     LIBCMTD:dbgrptw.obj
 0003:0000c580       ??_C@_1NO@LECLLHOL@?$AAm?$AAe?$AAm?$AAc?$AAp?$AAy?$AA_?$AAs?$AA?$CI?$AAs?$AAz?$AAS?$AAh?$AAo?$AAr?$AAt?$AAP?$AAr?$AAo?$AAg?$AAN?$AAa?$AAm?$AAe?$AA?0?$AA?5?$AAs?$AAi?$AAz?$AAe?$AAo?$AAf@ 3010b580     LIBCMTD:dbgrptw.obj
 0003:0000c690       ??_C@_1GI@DEDNNLCI@?$AAw?$AAc?$AAs?$AAc?$AAp?$AAy?$AA_?$AAs?$AA?$CI?$AAs?$AAz?$AAE?$AAx?$AAe?$AAN?$AAa?$AAm?$AAe?$AA?0?$AA?5?$AA2?$AA6?$AA0?$AA?0?$AA?5?$AAL?$AA?$CC?$AA?$DM?$AAp?$AAr?$AAo?$AAg@ 3010b690     LIBCMTD:dbgrptw.obj
 0003:0000c70c       ??_C@_1CI@PGJIFDEK@?$AA_?$AA_?$AAc?$AAr?$AAt?$AAM?$AAe?$AAs?$AAs?$AAa?$AAg?$AAe?$AAW?$AAi?$AAn?$AAd?$AAo?$AAw?$AAW?$AA?$AA@ 3010b70c     LIBCMTD:dbgrptw.obj
 0003:0000c73c       ??_C@_0DB@MHMEONEC@f?3?2dd?2vctools?2crt_bld?2self_x86?2c@ 3010b73c     LIBCMTD:mbctype.obj
 0003:0000c778       ??_C@_1GE@HMAALBPJ@?$AAf?$AA?3?$AA?2?$AAd?$AAd?$AA?2?$AAv?$AAc?$AAt?$AAo?$AAo?$AAl?$AAs?$AA?2?$AAc?$AAr?$AAt?$AA_?$AAb?$AAl?$AAd?$AA?2?$AAs?$AAe?$AAl?$AAf?$AA_?$AAx?$AA8?$AA6?$AA?2?$AAc@ 3010b778     LIBCMTD:localref.obj
 0003:0000c7f0       ??_C@_1BKC@GGIENNAK@?$AA?$CI?$AA?$CI?$AAp?$AAt?$AAl?$AAo?$AAc?$AAi?$AA?9?$AA?$DO?$AAl?$AAc?$AA_?$AAc?$AAa?$AAt?$AAe?$AAg?$AAo?$AAr?$AAy?$AA?$FL?$AAc?$AAa?$AAt?$AAe?$AAg?$AAo?$AAr?$AAy?$AA?$FN?$AA?4@ 3010b7f0     LIBCMTD:localref.obj
 0003:0000c9e8       ??_C@_1BC@GDGBMEMK@?$AAH?$AAH?$AA?3?$AAm?$AAm?$AA?3?$AAs?$AAs?$AA?$AA@ 3010b9e8     LIBCMTD:nlsdata2.obj
 0003:0000ca00       ??_C@_1CI@KNAKOEBC@?$AAd?$AAd?$AAd?$AAd?$AA?0?$AA?5?$AAM?$AAM?$AAM?$AAM?$AA?5?$AAd?$AAd?$AA?0?$AA?5?$AAy?$AAy?$AAy?$AAy?$AA?$AA@ 3010ba00     LIBCMTD:nlsdata2.obj
 0003:0000ca30       ??_C@_1BC@IEBCMHCM@?$AAM?$AAM?$AA?1?$AAd?$AAd?$AA?1?$AAy?$AAy?$AA?$AA@ 3010ba30     LIBCMTD:nlsdata2.obj
 0003:0000ca48       ??_C@_15CLMNNGEL@?$AAP?$AAM?$AA?$AA@ 3010ba48     LIBCMTD:nlsdata2.obj
 0003:0000ca50       ??_C@_15ODEHAHHF@?$AAA?$AAM?$AA?$AA@ 3010ba50     LIBCMTD:nlsdata2.obj
 0003:0000ca58       ??_C@_1BC@FEMKIFH@?$AAD?$AAe?$AAc?$AAe?$AAm?$AAb?$AAe?$AAr?$AA?$AA@ 3010ba58     LIBCMTD:nlsdata2.obj
 0003:0000ca70       ??_C@_1BC@BGLIFPF@?$AAN?$AAo?$AAv?$AAe?$AAm?$AAb?$AAe?$AAr?$AA?$AA@ 3010ba70     LIBCMTD:nlsdata2.obj
 0003:0000ca88       ??_C@_1BA@EPANDLNG@?$AAO?$AAc?$AAt?$AAo?$AAb?$AAe?$AAr?$AA?$AA@ 3010ba88     LIBCMTD:nlsdata2.obj
 0003:0000ca9c       ??_C@_1BE@DKAAMBJL@?$AAS?$AAe?$AAp?$AAt?$AAe?$AAm?$AAb?$AAe?$AAr?$AA?$AA@ 3010ba9c     LIBCMTD:nlsdata2.obj
 0003:0000cab4       ??_C@_1O@PAHLKOAC@?$AAA?$AAu?$AAg?$AAu?$AAs?$AAt?$AA?$AA@ 3010bab4     LIBCMTD:nlsdata2.obj
 0003:0000cac4       ??_C@_19BIFMLPCD@?$AAJ?$AAu?$AAl?$AAy?$AA?$AA@ 3010bac4     LIBCMTD:nlsdata2.obj
 0003:0000cad0       ??_C@_19EPFLPGAP@?$AAJ?$AAu?$AAn?$AAe?$AA?$AA@ 3010bad0     LIBCMTD:nlsdata2.obj
 0003:0000cadc       ??_C@_1M@GJNLMHFD@?$AAA?$AAp?$AAr?$AAi?$AAl?$AA?$AA@ 3010badc     LIBCMTD:nlsdata2.obj
 0003:0000caec       ??_C@_1M@IKEENEDF@?$AAM?$AAa?$AAr?$AAc?$AAh?$AA?$AA@ 3010baec     LIBCMTD:nlsdata2.obj
 0003:0000cafc       ??_C@_1BC@JGDDFFAM@?$AAF?$AAe?$AAb?$AAr?$AAu?$AAa?$AAr?$AAy?$AA?$AA@ 3010bafc     LIBCMTD:nlsdata2.obj
 0003:0000cb14       ??_C@_1BA@EFMEIEBA@?$AAJ?$AAa?$AAn?$AAu?$AAa?$AAr?$AAy?$AA?$AA@ 3010bb14     LIBCMTD:nlsdata2.obj
 0003:0000cb28       ??_C@_17EGKACKIF@?$AAD?$AAe?$AAc?$AA?$AA@ 3010bb28     LIBCMTD:nlsdata2.obj
 0003:0000cb34       ??_C@_17BBDMLCIG@?$AAN?$AAo?$AAv?$AA?$AA@ 3010bb34     LIBCMTD:nlsdata2.obj
 0003:0000cb40       ??_C@_17FNLKOI@?$AAO?$AAc?$AAt?$AA?$AA@ 3010bb40     LIBCMTD:nlsdata2.obj
 0003:0000cb4c       ??_C@_17HCHCOKMG@?$AAS?$AAe?$AAp?$AA?$AA@ 3010bb4c     LIBCMTD:nlsdata2.obj
 0003:0000cb58       ??_C@_17ICPELBCN@?$AAA?$AAu?$AAg?$AA?$AA@ 3010bb58     LIBCMTD:nlsdata2.obj
 0003:0000cb64       ??_C@_17IJPCKHK@?$AAJ?$AAu?$AAl?$AA?$AA@ 3010bb64     LIBCMTD:nlsdata2.obj
 0003:0000cb70       ??_C@_17KCJGOCPB@?$AAJ?$AAu?$AAn?$AA?$AA@ 3010bb70     LIBCMTD:nlsdata2.obj
 0003:0000cb7c       ??_C@_17PNNKMEED@?$AAM?$AAa?$AAy?$AA?$AA@ 3010bb7c     LIBCMTD:nlsdata2.obj
 0003:0000cb88       ??_C@_17LFPOIHDD@?$AAA?$AAp?$AAr?$AA?$AA@ 3010bb88     LIBCMTD:nlsdata2.obj
 0003:0000cb94       ??_C@_17CKNLEDEC@?$AAM?$AAa?$AAr?$AA?$AA@ 3010bb94     LIBCMTD:nlsdata2.obj
 0003:0000cba0       ??_C@_17LMDJEKJN@?$AAF?$AAe?$AAb?$AA?$AA@ 3010bba0     LIBCMTD:nlsdata2.obj
 0003:0000cbac       ??_C@_17DKNBKCHM@?$AAJ?$AAa?$AAn?$AA?$AA@ 3010bbac     LIBCMTD:nlsdata2.obj
 0003:0000cbb8       ??_C@_1BC@ENMNNPAJ@?$AAS?$AAa?$AAt?$AAu?$AAr?$AAd?$AAa?$AAy?$AA?$AA@ 3010bbb8     LIBCMTD:nlsdata2.obj
 0003:0000cbd0       ??_C@_1O@PDICJHAG@?$AAF?$AAr?$AAi?$AAd?$AAa?$AAy?$AA?$AA@ 3010bbd0     LIBCMTD:nlsdata2.obj
 0003:0000cbe0       ??_C@_1BC@HHMNLIHE@?$AAT?$AAh?$AAu?$AAr?$AAs?$AAd?$AAa?$AAy?$AA?$AA@ 3010bbe0     LIBCMTD:nlsdata2.obj
 0003:0000cbf8       ??_C@_1BE@EBOGMDOH@?$AAW?$AAe?$AAd?$AAn?$AAe?$AAs?$AAd?$AAa?$AAy?$AA?$AA@ 3010bbf8     LIBCMTD:nlsdata2.obj
 0003:0000cc10       ??_C@_1BA@ENFBFFEK@?$AAT?$AAu?$AAe?$AAs?$AAd?$AAa?$AAy?$AA?$AA@ 3010bc10     LIBCMTD:nlsdata2.obj
 0003:0000cc24       ??_C@_1O@MMNBFLIA@?$AAM?$AAo?$AAn?$AAd?$AAa?$AAy?$AA?$AA@ 3010bc24     LIBCMTD:nlsdata2.obj
 0003:0000cc34       ??_C@_1O@IHNHDHPB@?$AAS?$AAu?$AAn?$AAd?$AAa?$AAy?$AA?$AA@ 3010bc34     LIBCMTD:nlsdata2.obj
 0003:0000cc44       ??_C@_17GGIBDPIH@?$AAS?$AAa?$AAt?$AA?$AA@ 3010bc44     LIBCMTD:nlsdata2.obj
 0003:0000cc50       ??_C@_17HFOLPPLP@?$AAF?$AAr?$AAi?$AA?$AA@ 3010bc50     LIBCMTD:nlsdata2.obj
 0003:0000cc5c       ??_C@_17PDPHAADD@?$AAT?$AAh?$AAu?$AA?$AA@ 3010bc5c     LIBCMTD:nlsdata2.obj
 0003:0000cc68       ??_C@_17CJEDCEPE@?$AAW?$AAe?$AAd?$AA?$AA@ 3010bc68     LIBCMTD:nlsdata2.obj
 0003:0000cc74       ??_C@_17BMKGEGOJ@?$AAT?$AAu?$AAe?$AA?$AA@ 3010bc74     LIBCMTD:nlsdata2.obj
 0003:0000cc80       ??_C@_17KBOMKBF@?$AAM?$AAo?$AAn?$AA?$AA@ 3010bc80     LIBCMTD:nlsdata2.obj
 0003:0000cc8c       ??_C@_17MBGCMIPB@?$AAS?$AAu?$AAn?$AA?$AA@ 3010bc8c     LIBCMTD:nlsdata2.obj
 0003:0000cc98       ??_C@_08JCCMCCIL@HH?3mm?3ss?$AA@ 3010bc98     LIBCMTD:nlsdata2.obj
 0003:0000cca4       ??_C@_0BE@CKGJFCPC@dddd?0?5MMMM?5dd?0?5yyyy?$AA@ 3010bca4     LIBCMTD:nlsdata2.obj
 0003:0000ccbc       ??_C@_08BPBNCDIB@MM?1dd?1yy?$AA@ 3010bcbc     LIBCMTD:nlsdata2.obj
 0003:0000ccc8       ??_C@_02CJNFDJBF@PM?$AA@   3010bcc8     LIBCMTD:nlsdata2.obj
 0003:0000cccc       ??_C@_02DEDBPAFC@AM?$AA@   3010bccc     LIBCMTD:nlsdata2.obj
 0003:0000ccd0       ??_C@_08EDHMEBNP@December?$AA@ 3010bcd0     LIBCMTD:nlsdata2.obj
 0003:0000ccdc       ??_C@_08HCHEGEOA@November?$AA@ 3010bcdc     LIBCMTD:nlsdata2.obj
 0003:0000cce8       ??_C@_07JJNFCEND@October?$AA@ 3010bce8     LIBCMTD:nlsdata2.obj
 0003:0000ccf4       ??_C@_09BHHEALKD@September?$AA@ 3010bcf4     LIBCMTD:nlsdata2.obj
 0003:0000cd00       ??_C@_06LBBHFDDG@August?$AA@ 3010bd00     LIBCMTD:nlsdata2.obj
 0003:0000cd08       ??_C@_04MIEPOIFP@July?$AA@ 3010bd08     LIBCMTD:nlsdata2.obj
 0003:0000cd10       ??_C@_04CNLMGBGM@June?$AA@ 3010bd10     LIBCMTD:nlsdata2.obj
 0003:0000cd18       ??_C@_05DMJDNLEJ@April?$AA@ 3010bd18     LIBCMTD:nlsdata2.obj
 0003:0000cd20       ??_C@_05HPCKOFNC@March?$AA@ 3010bd20     LIBCMTD:nlsdata2.obj
 0003:0000cd28       ??_C@_08GNJGEPFN@February?$AA@ 3010bd28     LIBCMTD:nlsdata2.obj
 0003:0000cd34       ??_C@_07CGJPFGJA@January?$AA@ 3010bd34     LIBCMTD:nlsdata2.obj
 0003:0000cd40       ??_C@_03MKABNOCG@Dec?$AA@  3010bd40     LIBCMTD:nlsdata2.obj
 0003:0000cd44       ??_C@_03JPJOFNIA@Nov?$AA@  3010bd44     LIBCMTD:nlsdata2.obj
 0003:0000cd48       ??_C@_03BMAOKBAD@Oct?$AA@  3010bd48     LIBCMTD:nlsdata2.obj
 0003:0000cd4c       ??_C@_03GGCAPAJC@Sep?$AA@  3010bd4c     LIBCMTD:nlsdata2.obj
 0003:0000cd50       ??_C@_03IFJFEIGA@Aug?$AA@  3010bd50     LIBCMTD:nlsdata2.obj
 0003:0000cd54       ??_C@_03LBGABGKK@Jul?$AA@  3010bd54     LIBCMTD:nlsdata2.obj
 0003:0000cd58       ??_C@_03IDFGHECI@Jun?$AA@  3010bd58     LIBCMTD:nlsdata2.obj
 0003:0000cd5c       ??_C@_03CNMDKL@May?$AA@    3010bd5c     LIBCMTD:nlsdata2.obj
 0003:0000cd60       ??_C@_03LEOLGMJP@Apr?$AA@  3010bd60     LIBCMTD:nlsdata2.obj
 0003:0000cd64       ??_C@_03ODNJBKGA@Mar?$AA@  3010bd64     LIBCMTD:nlsdata2.obj
 0003:0000cd68       ??_C@_03HJBDCHOM@Feb?$AA@  3010bd68     LIBCMTD:nlsdata2.obj
 0003:0000cd6c       ??_C@_03JIHJHPIE@Jan?$AA@  3010bd6c     LIBCMTD:nlsdata2.obj
 0003:0000cd70       ??_C@_08INBOOONO@Saturday?$AA@ 3010bd70     LIBCMTD:nlsdata2.obj
 0003:0000cd7c       ??_C@_06JECMNKMI@Friday?$AA@ 3010bd7c     LIBCMTD:nlsdata2.obj
 0003:0000cd84       ??_C@_08HACCIKIA@Thursday?$AA@ 3010bd84     LIBCMTD:nlsdata2.obj
 0003:0000cd90       ??_C@_09DLIGFAKA@Wednesday?$AA@ 3010bd90     LIBCMTD:nlsdata2.obj
 0003:0000cd9c       ??_C@_07BAAGCFCM@Tuesday?$AA@ 3010bd9c     LIBCMTD:nlsdata2.obj
 0003:0000cda8       ??_C@_06JLEDEDGH@Monday?$AA@ 3010bda8     LIBCMTD:nlsdata2.obj
 0003:0000cdb0       ??_C@_06OOPIFAJ@Sunday?$AA@ 3010bdb0     LIBCMTD:nlsdata2.obj
 0003:0000cdb8       ??_C@_03FEFJNEK@Sat?$AA@   3010bdb8     LIBCMTD:nlsdata2.obj
 0003:0000cdbc       ??_C@_03IDIOELNC@Fri?$AA@  3010bdbc     LIBCMTD:nlsdata2.obj
 0003:0000cdc0       ??_C@_03IOFIKPDN@Thu?$AA@  3010bdc0     LIBCMTD:nlsdata2.obj
 0003:0000cdc4       ??_C@_03MHOMLAJA@Wed?$AA@  3010bdc4     LIBCMTD:nlsdata2.obj
 0003:0000cdc8       ??_C@_03NAGEINEP@Tue?$AA@  3010bdc8     LIBCMTD:nlsdata2.obj
 0003:0000cdcc       ??_C@_03PDAGKDH@Mon?$AA@   3010bdcc     LIBCMTD:nlsdata2.obj
 0003:0000cdd0       ??_C@_03KOEHGMDN@Sun?$AA@  3010bdd0     LIBCMTD:nlsdata2.obj
 0003:0000cdd4       ??_C@_0DC@LMJHGCKC@f?3?2dd?2vctools?2crt_bld?2self_x86?2c@ 3010bdd4     LIBCMTD:tidtable.obj
 0003:0000ce10       ??_C@_07PEJMOBNF@FlsFree?$AA@ 3010be10     LIBCMTD:tidtable.obj
 0003:0000ce1c       ??_C@_0M@JCPCPOEF@FlsSetValue?$AA@ 3010be1c     LIBCMTD:tidtable.obj
 0003:0000ce2c       ??_C@_0M@GDNOONDI@FlsGetValue?$AA@ 3010be2c     LIBCMTD:tidtable.obj
 0003:0000ce3c       ??_C@_08KNHFBNJ@FlsAlloc?$AA@ 3010be3c     LIBCMTD:tidtable.obj
 0003:0000ce48       ??_C@_1BK@DBDEIDLH@?$AAK?$AAE?$AAR?$AAN?$AAE?$AAL?$AA3?$AA2?$AA?4?$AAD?$AAL?$AAL?$AA?$AA@ 3010be48     LIBCMTD:tidtable.obj
 0003:0000ce68       ??_C@_1BO@IHLJHOPI@?$AA_?$AA_?$AAs?$AAt?$AAr?$AAg?$AAt?$AAo?$AAl?$AAd?$AA1?$AA2?$AA_?$AAl?$AA?$AA@ 3010be68     LIBCMTD:_strgtold_.obj
 0003:0000ce90       ??_C@_1IG@IGKPPFIM@?$AAf?$AA?3?$AA?2?$AAd?$AAd?$AA?2?$AAv?$AAc?$AAt?$AAo?$AAo?$AAl?$AAs?$AA?2?$AAc?$AAr?$AAt?$AA_?$AAb?$AAl?$AAd?$AA?2?$AAs?$AAe?$AAl?$AAf?$AA_?$AAx?$AA8?$AA6?$AA?2?$AAc@ 3010be90     LIBCMTD:_strgtold_.obj
 0003:0000cf30       ??_C@_1CA@MBDBOHIB@?$AA_?$AAL?$AAo?$AAc?$AAa?$AAl?$AAe?$AA?5?$AA?$CB?$AA?$DN?$AA?5?$AAN?$AAU?$AAL?$AAL?$AA?$AA@ 3010bf30     LIBCMTD:_strgtold_.obj
 0003:0000cf58       ??_C@_0L@KDOEJCKC@_nextafter?$AA@ 3010bf58     LIBCMTD:_fpexcept_.obj
 0003:0000cf68       ??_C@_05JGDBENOH@_logb?$AA@ 3010bf68     LIBCMTD:_fpexcept_.obj
 0003:0000cf70       ??_C@_03ONILCKOB@_yn?$AA@  3010bf70     LIBCMTD:_fpexcept_.obj
 0003:0000cf74       ??_C@_03NAKIGLHK@_y1?$AA@  3010bf74     LIBCMTD:_fpexcept_.obj
 0003:0000cf78       ??_C@_03MJLDFKDL@_y0?$AA@  3010bf78     LIBCMTD:_fpexcept_.obj
 0003:0000cf7c       ??_C@_05GKKHEGJL@frexp?$AA@ 3010bf7c     LIBCMTD:_fpexcept_.obj
 0003:0000cf84       ??_C@_04KEPJIHGP@fmod?$AA@ 3010bf84     LIBCMTD:_fpexcept_.obj
 0003:0000cf8c       ??_C@_06MEIMCGCF@_hypot?$AA@ 3010bf8c     LIBCMTD:_fpexcept_.obj
 0003:0000cf94       ??_C@_05KBKMEMPO@_cabs?$AA@ 3010bf94     LIBCMTD:_fpexcept_.obj
 0003:0000cf9c       ??_C@_05CEJMAHNP@ldexp?$AA@ 3010bf9c     LIBCMTD:_fpexcept_.obj
 0003:0000cfa4       ??_C@_04EHEDPDJG@modf?$AA@ 3010bfa4     LIBCMTD:_fpexcept_.obj
 0003:0000cfac       ??_C@_04ODHECPBC@fabs?$AA@ 3010bfac     LIBCMTD:_fpexcept_.obj
 0003:0000cfb4       ??_C@_05PBJFFIGL@floor?$AA@ 3010bfb4     LIBCMTD:_fpexcept_.obj
 0003:0000cfbc       ??_C@_04GFPJNGEK@ceil?$AA@ 3010bfbc     LIBCMTD:_fpexcept_.obj
 0003:0000cfc4       ??_C@_03IIINPABG@tan?$AA@  3010bfc4     LIBCMTD:_fpexcept_.obj
 0003:0000cfc8       ??_C@_03LALBNOCG@cos?$AA@  3010bfc8     LIBCMTD:_fpexcept_.obj
 0003:0000cfcc       ??_C@_03BLEJJJBH@sin?$AA@  3010bfcc     LIBCMTD:_fpexcept_.obj
 0003:0000cfd0       ??_C@_04EIAKFFMI@sqrt?$AA@ 3010bfd0     LIBCMTD:_fpexcept_.obj
 0003:0000cfd8       ??_C@_05KNGEOGJB@atan2?$AA@ 3010bfd8     LIBCMTD:_fpexcept_.obj
 0003:0000cfe0       ??_C@_04MLLJIGOK@atan?$AA@ 3010bfe0     LIBCMTD:_fpexcept_.obj
 0003:0000cfe8       ??_C@_04PDIFKINK@acos?$AA@ 3010bfe8     LIBCMTD:_fpexcept_.obj
 0003:0000cff0       ??_C@_04FIHNOPOL@asin?$AA@ 3010bff0     LIBCMTD:_fpexcept_.obj
 0003:0000cff8       ??_C@_04FJHINJAO@tanh?$AA@ 3010bff8     LIBCMTD:_fpexcept_.obj
 0003:0000d000       ??_C@_04HPJJNFIM@cosh?$AA@ 3010c000     LIBCMTD:_fpexcept_.obj
 0003:0000d008       ??_C@_04COOMCNPB@sinh?$AA@ 3010c008     LIBCMTD:_fpexcept_.obj
 0003:0000d010       ??_C@_05HGHHAHAP@log10?$AA@ 3010c010     LIBCMTD:_fpexcept_.obj
 0003:0000d018       ??_C@_03MGHMBJCF@log?$AA@  3010c018     LIBCMTD:_fpexcept_.obj
 0003:0000d01c       ??_C@_03JGHBODFD@pow?$AA@  3010c01c     LIBCMTD:_fpexcept_.obj
 0003:0000d020       ??_C@_03KHJOGHMM@exp?$AA@  3010c020     LIBCMTD:_fpexcept_.obj
 0003:0000d028       ??_C@_1FE@CEHLKAHD@?$AAi?$AAb?$AAa?$AAs?$AAe?$AA?5?$AA?$DN?$AA?$DN?$AA?5?$AA0?$AA?5?$AA?$HM?$AA?$HM?$AA?5?$AA?$CI?$AA2?$AA?5?$AA?$DM?$AA?$DN?$AA?5?$AAi?$AAb?$AAa?$AAs?$AAe?$AA?5?$AA?$CG?$AA?$CG?$AA?5?$AAi?$AAb?$AAa@ 3010c028     LIBCMTD:strtol.obj
 0003:0000d08c       ??_C@_1BA@LOLAMAJG@?$AAs?$AAt?$AAr?$AAt?$AAo?$AAx?$AAl?$AA?$AA@ 3010c08c     LIBCMTD:strtol.obj
 0003:0000d0a0       ??_C@_1GA@IPHKKOEI@?$AAf?$AA?3?$AA?2?$AAd?$AAd?$AA?2?$AAv?$AAc?$AAt?$AAo?$AAo?$AAl?$AAs?$AA?2?$AAc?$AAr?$AAt?$AA_?$AAb?$AAl?$AAd?$AA?2?$AAs?$AAe?$AAl?$AAf?$AA_?$AAx?$AA8?$AA6?$AA?2?$AAc@ 3010c0a0     LIBCMTD:strtol.obj
 0003:0000d114       ??_C@_1BA@BMMDEPNE@?$AAs?$AAt?$AAr?$AAt?$AAo?$AAx?$AAq?$AA?$AA@ 3010c114     LIBCMTD:strtoq.obj
 0003:0000d128       ??_C@_1GA@GIMEIKLC@?$AAf?$AA?3?$AA?2?$AAd?$AAd?$AA?2?$AAv?$AAc?$AAt?$AAo?$AAo?$AAl?$AAs?$AA?2?$AAc?$AAr?$AAt?$AA_?$AAb?$AAl?$AAd?$AA?2?$AAs?$AAe?$AAl?$AAf?$AA_?$AAx?$AA8?$AA6?$AA?2?$AAc@ 3010c128     LIBCMTD:strtoq.obj
 0003:0000d1a0       ??_C@_1HO@MLMGPAFH@?$AA?$CI?$AA?$CC?$AAi?$AAn?$AAc?$AAo?$AAn?$AAs?$AAi?$AAs?$AAt?$AAe?$AAn?$AAt?$AA?5?$AAI?$AAO?$AAB?$AA?5?$AAf?$AAi?$AAe?$AAl?$AAd?$AAs?$AA?$CC?$AA?0?$AA?5?$AAs?$AAt?$AAr?$AAe@ 3010c1a0     LIBCMTD:_flsbuf.obj
 0003:0000d238       ??_C@_1GC@GNCCMPNN@?$AAf?$AA?3?$AA?2?$AAd?$AAd?$AA?2?$AAv?$AAc?$AAt?$AAo?$AAo?$AAl?$AAs?$AA?2?$AAc?$AAr?$AAt?$AA_?$AAb?$AAl?$AAd?$AA?2?$AAs?$AAe?$AAl?$AAf?$AA_?$AAx?$AA8?$AA6?$AA?2?$AAc@ 3010c238     LIBCMTD:_flsbuf.obj
 0003:0000d2b0       ??_C@_1BI@MFCLPIBM@?$AAs?$AAt?$AAr?$AA?5?$AA?$CB?$AA?$DN?$AA?5?$AAN?$AAU?$AAL?$AAL?$AA?$AA@ 3010c2b0     LIBCMTD:_flsbuf.obj
 0003:0000d2cc       ??_C@_1O@CEDCILHN@?$AA?$CI?$AAn?$AAu?$AAl?$AAl?$AA?$CJ?$AA?$AA@ 3010c2cc     LIBCMTD:output.obj
 0003:0000d2dc       ??_C@_06OJHGLDPL@?$CInull?$CJ?$AA@ 3010c2dc     LIBCMTD:output.obj
 0003:0000d2e8       ___lookuptable             3010c2e8     LIBCMTD:output.obj
 0003:0000d354       ??_C@_0DA@NFBEBPEE@f?3?2dd?2vctools?2crt_bld?2self_x86?2c@ 3010c354     LIBCMTD:output.obj
 0003:0000d390       ??_C@_1EK@PNGFDECN@?$AA?$CI?$AA?$CC?$AA?8?$AAn?$AA?8?$AA?5?$AAf?$AAo?$AAr?$AAm?$AAa?$AAt?$AA?5?$AAs?$AAp?$AAe?$AAc?$AAi?$AAf?$AAi?$AAe?$AAr?$AA?5?$AAd?$AAi?$AAs?$AAa?$AAb?$AAl?$AAe?$AAd?$AA?$CC@ 3010c390     LIBCMTD:output.obj
 0003:0000d3e8       ??_C@_1CC@IFFHEMNF@?$AA?$CI?$AAc?$AAh?$AA?5?$AA?$CB?$AA?$DN?$AA?5?$AA_?$AAT?$AA?$CI?$AA?8?$AA?2?$AA0?$AA?8?$AA?$CJ?$AA?$CJ?$AA?$AA@ 3010c3e8     LIBCMTD:output.obj
 0003:0000d410       ??_C@_1BAA@ODEGEDCK@?$AA?$CI?$AA?5?$AA?$CI?$AA_?$AAS?$AAt?$AAr?$AAe?$AAa?$AAm?$AA?9?$AA?$DO?$AA_?$AAf?$AAl?$AAa?$AAg?$AA?5?$AA?$CG?$AA?5?$AA_?$AAI?$AAO?$AAS?$AAT?$AAR?$AAG?$AA?$CJ?$AA?5?$AA?$HM?$AA?$HM?$AA?5@ 3010c410     LIBCMTD:output.obj
 0003:0000d544       ??_C@_1BE@IONLIDNC@?$AA_?$AAo?$AAu?$AAt?$AAp?$AAu?$AAt?$AA_?$AAl?$AA?$AA@ 3010c544     LIBCMTD:output.obj
 0003:0000d560       ??_C@_1GA@HHFOFBLN@?$AAf?$AA?3?$AA?2?$AAd?$AAd?$AA?2?$AAv?$AAc?$AAt?$AAo?$AAo?$AAl?$AAs?$AA?2?$AAc?$AAr?$AAt?$AA_?$AAb?$AAl?$AAd?$AA?2?$AAs?$AAe?$AAl?$AAf?$AA_?$AAx?$AA8?$AA6?$AA?2?$AAc@ 3010c560     LIBCMTD:output.obj
 0003:0000d5d4       ??_C@_1CC@FADMNIL@?$AA?$CI?$AAs?$AAt?$AAr?$AAe?$AAa?$AAm?$AA?5?$AA?$CB?$AA?$DN?$AA?5?$AAN?$AAU?$AAL?$AAL?$AA?$CJ?$AA?$AA@ 3010c5d4     LIBCMTD:output.obj
 0003:0000d600       ??_C@_1FK@BCPANIEK@?$AA?$CI?$AA?$CC?$AAM?$AAi?$AAs?$AAs?$AAi?$AAn?$AAg?$AA?5?$AAp?$AAo?$AAs?$AAi?$AAt?$AAi?$AAo?$AAn?$AA?5?$AAi?$AAn?$AA?5?$AAt?$AAh?$AAe?$AA?5?$AAf?$AAo?$AAr?$AAm?$AAa?$AAt@ 3010c600     LIBCMTD:outputp.obj
 0003:0000d670       ??_C@_1FK@LNCFKALM@?$AA?$CI?$AA?$CI?$AAs?$AAt?$AAa?$AAt?$AAe?$AA?5?$AA?$DN?$AA?$DN?$AA?5?$AAS?$AAT?$AA_?$AAN?$AAO?$AAR?$AAM?$AAA?$AAL?$AA?$CJ?$AA?5?$AA?$HM?$AA?$HM?$AA?5?$AA?$CI?$AAs?$AAt?$AAa?$AAt?$AAe?$AA?5@ 3010c670     LIBCMTD:outputp.obj
 0003:0000d6e0       ??_C@_1JC@OACKELNN@?$AA_?$AAt?$AAv?$AAa?$AAl?$AAi?$AAd?$AAa?$AAt?$AAe?$AA_?$AAp?$AAa?$AAr?$AAa?$AAm?$AA_?$AAr?$AAe?$AAu?$AAs?$AAe?$AA?$CI?$AA?$CG?$AAp?$AAo?$AAs?$AA_?$AAv?$AAa?$AAl?$AAu@ 3010c6e0     LIBCMTD:outputp.obj
 0003:0000d790       ??_C@_1IK@NBGDDCBN@?$AA_?$AAt?$AAv?$AAa?$AAl?$AAi?$AAd?$AAa?$AAt?$AAe?$AA_?$AAp?$AAa?$AAr?$AAa?$AAm?$AA_?$AAr?$AAe?$AAu?$AAs?$AAe?$AA?$CI?$AA?$CG?$AAp?$AAo?$AAs?$AA_?$AAv?$AAa?$AAl?$AAu@ 3010c790     LIBCMTD:outputp.obj
 0003:0000d838       ??_C@_1DG@GOHGNKHE@?$AAp?$AAa?$AAs?$AAs?$AA?5?$AA?$DN?$AA?$DN?$AA?5?$AAF?$AAO?$AAR?$AAM?$AAA?$AAT?$AA_?$AAO?$AAU?$AAT?$AAP?$AAU?$AAT?$AA_?$AAP?$AAA?$AAS?$AAS?$AA?$AA@ 3010c838     LIBCMTD:outputp.obj
 0003:0000d878       ??_C@_1IM@DNGHAPLB@?$AA_?$AAt?$AAv?$AAa?$AAl?$AAi?$AAd?$AAa?$AAt?$AAe?$AA_?$AAp?$AAa?$AAr?$AAa?$AAm?$AA_?$AAr?$AAe?$AAu?$AAs?$AAe?$AA?$CI?$AA?$CG?$AAp?$AAo?$AAs?$AA_?$AAv?$AAa?$AAl?$AAu@ 3010c878     LIBCMTD:outputp.obj
 0003:0000d920       ??_C@_1IG@HJIMKDHC@?$AA_?$AAt?$AAv?$AAa?$AAl?$AAi?$AAd?$AAa?$AAt?$AAe?$AA_?$AAp?$AAa?$AAr?$AAa?$AAm?$AA_?$AAr?$AAe?$AAu?$AAs?$AAe?$AA?$CI?$AA?$CG?$AAp?$AAo?$AAs?$AA_?$AAv?$AAa?$AAl?$AAu@ 3010c920     LIBCMTD:outputp.obj
 0003:0000d9c0       ??_C@_1IG@FDCPLALG@?$AA_?$AAt?$AAv?$AAa?$AAl?$AAi?$AAd?$AAa?$AAt?$AAe?$AA_?$AAp?$AAa?$AAr?$AAa?$AAm?$AA_?$AAr?$AAe?$AAu?$AAs?$AAe?$AA?$CI?$AA?$CG?$AAp?$AAo?$AAs?$AA_?$AAv?$AAa?$AAl?$AAu@ 3010c9c0     LIBCMTD:outputp.obj
 0003:0000da60       ??_C@_1IK@MHEDJAMK@?$AA_?$AAt?$AAv?$AAa?$AAl?$AAi?$AAd?$AAa?$AAt?$AAe?$AA_?$AAp?$AAa?$AAr?$AAa?$AAm?$AA_?$AAr?$AAe?$AAu?$AAs?$AAe?$AA?$CI?$AA?$CG?$AAp?$AAo?$AAs?$AA_?$AAv?$AAa?$AAl?$AAu@ 3010ca60     LIBCMTD:outputp.obj
 0003:0000db08       ??_C@_1EM@BNPHBBIA@?$AA?$CI?$AA?$CI?$AAt?$AAy?$AAp?$AAe?$AA_?$AAp?$AAo?$AAs?$AA?$DO?$AA?$DN?$AA0?$AA?$CJ?$AA?5?$AA?$CG?$AA?$CG?$AA?5?$AA?$CI?$AAt?$AAy?$AAp?$AAe?$AA_?$AAp?$AAo?$AAs?$AA?$DM?$AA_?$AAA?$AAR?$AAG@ 3010cb08     LIBCMTD:outputp.obj
 0003:0000db68       ??_C@_1IK@EIEPDKHJ@?$AA_?$AAt?$AAv?$AAa?$AAl?$AAi?$AAd?$AAa?$AAt?$AAe?$AA_?$AAp?$AAa?$AAr?$AAa?$AAm?$AA_?$AAr?$AAe?$AAu?$AAs?$AAe?$AA?$CI?$AA?$CG?$AAp?$AAo?$AAs?$AA_?$AAv?$AAa?$AAl?$AAu@ 3010cb68     LIBCMTD:outputp.obj
 0003:0000dc10       ??_C@_1JG@JBJBOCFB@?$AA?$CI?$AA?$CI?$AAp?$AAr?$AAe?$AAc?$AAi?$AAs?$AA_?$AAp?$AAo?$AAs?$AA?5?$AA?$DO?$AA?$DN?$AA?5?$AA0?$AA?$CJ?$AA?5?$AA?$CG?$AA?$CG?$AA?5?$AA?$CI?$AA?$CK?$AAe?$AAn?$AAd?$AA_?$AAp?$AAo?$AAs?$AA?5@ 3010cc10     LIBCMTD:outputp.obj
 0003:0000dcc8       ??_C@_1II@PIPIMLPF@?$AA_?$AAt?$AAv?$AAa?$AAl?$AAi?$AAd?$AAa?$AAt?$AAe?$AA_?$AAp?$AAa?$AAr?$AAa?$AAm?$AA_?$AAr?$AAe?$AAu?$AAs?$AAe?$AA?$CI?$AA?$CG?$AAp?$AAo?$AAs?$AA_?$AAv?$AAa?$AAl?$AAu@ 3010ccc8     LIBCMTD:outputp.obj
 0003:0000dd70       ??_C@_1JE@NMBHOLFI@?$AA?$CI?$AA?$CI?$AAw?$AAi?$AAd?$AAt?$AAh?$AA_?$AAp?$AAo?$AAs?$AA?5?$AA?$DO?$AA?$DN?$AA?5?$AA0?$AA?$CJ?$AA?5?$AA?$CG?$AA?$CG?$AA?5?$AA?$CI?$AA?$CK?$AAe?$AAn?$AAd?$AA_?$AAp?$AAo?$AAs?$AA?5?$AA?$DN@ 3010cd70     LIBCMTD:outputp.obj
 0003:0000de28       ??_C@_1EE@DMAIGNBG@?$AA?$CI?$AA?$CC?$AAI?$AAn?$AAc?$AAo?$AAr?$AAr?$AAe?$AAc?$AAt?$AA?5?$AAf?$AAo?$AAr?$AAm?$AAa?$AAt?$AA?5?$AAs?$AAp?$AAe?$AAc?$AAi?$AAf?$AAi?$AAe?$AAr?$AA?$CC?$AA?0?$AA?5?$AA0@ 3010ce28     LIBCMTD:outputp.obj
 0003:0000de80       ??_C@_1JC@PFJNKEIO@?$AA?$CI?$AA?$CI?$AAt?$AAy?$AAp?$AAe?$AA_?$AAp?$AAo?$AAs?$AA?5?$AA?$DO?$AA?$DN?$AA?5?$AA0?$AA?$CJ?$AA?5?$AA?$CG?$AA?$CG?$AA?5?$AA?$CI?$AA?$CK?$AAe?$AAn?$AAd?$AA_?$AAp?$AAo?$AAs?$AA?5?$AA?$DN?$AA?$DN@ 3010ce80     LIBCMTD:outputp.obj
 0003:0000df30       ??_C@_1BI@KANOLAMF@?$AA_?$AAo?$AAu?$AAt?$AAp?$AAu?$AAt?$AA_?$AAp?$AA_?$AAl?$AA?$AA@ 3010cf30     LIBCMTD:outputp.obj
 0003:0000dfcc       ??_C@_05EOHGHCHD@exp10?$AA@ 3010cfcc     LIBCMTD:_libm_error_.obj
 0003:0000fce0       __OP_ATAN2jmptab           3010ece0     LIBCMTD:_87triga_.obj
 0003:000118a8       ??_C@_0P@MIGLKIOC@CorExitProcess?$AA@ 301108a8     LIBCMTD:crt0dat.obj
 0003:000118bc       ??_C@_1BI@BGOHAHKC@?$AAm?$AAs?$AAc?$AAo?$AAr?$AAe?$AAe?$AA?4?$AAd?$AAl?$AAl?$AA?$AA@ 301108bc     LIBCMTD:crt0dat.obj
 0003:000118d8       ??_C@_1CC@CDIPMFPD@?$AA_?$AAw?$AAp?$AAg?$AAm?$AAp?$AAt?$AAr?$AA?5?$AA?$CB?$AA?$DN?$AA?5?$AAN?$AAU?$AAL?$AAL?$AA?$AA@ 301108d8     LIBCMTD:crt0dat.obj
 0003:00011900       ??_C@_1BK@PNLDCCDP@?$AA_?$AAg?$AAe?$AAt?$AA_?$AAw?$AAp?$AAg?$AAm?$AAp?$AAt?$AAr?$AA?$AA@ 30110900     LIBCMTD:crt0dat.obj
 0003:00011920       ??_C@_1GC@DGCPEDNJ@?$AAf?$AA?3?$AA?2?$AAd?$AAd?$AA?2?$AAv?$AAc?$AAt?$AAo?$AAo?$AAl?$AAs?$AA?2?$AAc?$AAr?$AAt?$AA_?$AAb?$AAl?$AAd?$AA?2?$AAs?$AAe?$AAl?$AAf?$AA_?$AAx?$AA8?$AA6?$AA?2?$AAc@ 30110920     LIBCMTD:crt0dat.obj
 0003:00011998       ??_C@_1CA@BBNAFCKO@?$AA_?$AAp?$AAg?$AAm?$AAp?$AAt?$AAr?$AA?5?$AA?$CB?$AA?$DN?$AA?5?$AAN?$AAU?$AAL?$AAL?$AA?$AA@ 30110998     LIBCMTD:crt0dat.obj
 0003:000119c0       ??_C@_1BI@COAAPHJK@?$AA_?$AAg?$AAe?$AAt?$AA_?$AAp?$AAg?$AAm?$AAp?$AAt?$AAr?$AA?$AA@ 301109c0     LIBCMTD:crt0dat.obj
 0003:000119dc       ??_C@_1O@EJLDHPPL@?$AAs?$AAi?$AAg?$AAn?$AAa?$AAl?$AA?$AA@ 301109dc     LIBCMTD:winsig.obj
 0003:000119f0       ??_C@_1GA@DBECNFG@?$AAf?$AA?3?$AA?2?$AAd?$AAd?$AA?2?$AAv?$AAc?$AAt?$AAo?$AAo?$AAl?$AAs?$AA?2?$AAc?$AAr?$AAt?$AA_?$AAb?$AAl?$AAd?$AA?2?$AAs?$AAe?$AAl?$AAf?$AA_?$AAx?$AA8?$AA6?$AA?2?$AAc@ 301109f0     LIBCMTD:winsig.obj
 0003:00011a64       ??_C@_1DO@MLNEDKGB@?$AA?$CI?$AA?$CC?$AAI?$AAn?$AAv?$AAa?$AAl?$AAi?$AAd?$AA?5?$AAs?$AAi?$AAg?$AAn?$AAa?$AAl?$AA?5?$AAo?$AAr?$AA?5?$AAe?$AAr?$AAr?$AAo?$AAr?$AA?$CC?$AA?0?$AA?5?$AA0?$AA?$CJ?$AA?$AA@ 30110a64     LIBCMTD:winsig.obj
 0003:00011ab0       ??_C@_0DA@ELJOOIJF@f?3?2dd?2vctools?2crt_bld?2self_x86?2c@ 30110ab0     LIBCMTD:winsig.obj
 0003:00011aec       ??_C@_1M@DMJEIKHL@?$AAr?$AAa?$AAi?$AAs?$AAe?$AA?$AA@ 30110aec     LIBCMTD:winsig.obj
 0003:00011afc       ??_C@_0BI@DFKBFLJE@GetProcessWindowStation?$AA@ 30110afc     LIBCMTD:crtmboxw.obj
 0003:00011b18       ??_C@_0BK@DEKFELLI@GetUserObjectInformationW?$AA@ 30110b18     LIBCMTD:crtmboxw.obj
 0003:00011b38       ??_C@_0BD@HHGDFDBJ@GetLastActivePopup?$AA@ 30110b38     LIBCMTD:crtmboxw.obj
 0003:00011b50       ??_C@_0BA@HNOPNCHB@GetActiveWindow?$AA@ 30110b50     LIBCMTD:crtmboxw.obj
 0003:00011b64       ??_C@_0M@DLDCCGNP@MessageBoxW?$AA@ 30110b64     LIBCMTD:crtmboxw.obj
 0003:00011b74       ??_C@_1BG@GOEBHBDC@?$AAU?$AAS?$AAE?$AAR?$AA3?$AA2?$AA?4?$AAD?$AAL?$AAL?$AA?$AA@ 30110b74     LIBCMTD:crtmboxw.obj
 0003:00011b90       ??_C@_1CM@HABGDNLJ@?$AAl?$AAe?$AAn?$AAg?$AAt?$AAh?$AA?5?$AA?$DM?$AA?5?$AAs?$AAi?$AAz?$AAe?$AAI?$AAn?$AAT?$AAC?$AAh?$AAa?$AAr?$AAs?$AA?$AA@ 30110b90     LIBCMTD:xtows.obj
 0003:00011bc4       ??_C@_1DE@PCJGDBBD@?$AA2?$AA?5?$AA?$DM?$AA?$DN?$AA?5?$AAr?$AAa?$AAd?$AAi?$AAx?$AA?5?$AA?$CG?$AA?$CG?$AA?5?$AAr?$AAa?$AAd?$AAi?$AAx?$AA?5?$AA?$DM?$AA?$DN?$AA?5?$AA3?$AA6?$AA?$AA@ 30110bc4     LIBCMTD:xtows.obj
 0003:00011c08       ??_C@_1FA@MKGGAGEI@?$AAs?$AAi?$AAz?$AAe?$AAI?$AAn?$AAT?$AAC?$AAh?$AAa?$AAr?$AAs?$AA?5?$AA?$DO?$AA?5?$AA?$CI?$AAs?$AAi?$AAz?$AAe?$AA_?$AAt?$AA?$CJ?$AA?$CI?$AAi?$AAs?$AA_?$AAn?$AAe?$AAg?$AA?5?$AA?$DP@ 30110c08     LIBCMTD:xtows.obj
 0003:00011c68       ??_C@_1CC@JNJFIMGE@?$AAs?$AAi?$AAz?$AAe?$AAI?$AAn?$AAT?$AAC?$AAh?$AAa?$AAr?$AAs?$AA?5?$AA?$DO?$AA?5?$AA0?$AA?$AA@ 30110c68     LIBCMTD:xtows.obj
 0003:00011c90       ??_C@_1O@NCBFODOE@?$AAx?$AAt?$AAo?$AAw?$AA_?$AAs?$AA?$AA@ 30110c90     LIBCMTD:xtows.obj
 0003:00011ca0       ??_C@_1FM@MFCBFCGB@?$AAf?$AA?3?$AA?2?$AAd?$AAd?$AA?2?$AAv?$AAc?$AAt?$AAo?$AAo?$AAl?$AAs?$AA?2?$AAc?$AAr?$AAt?$AA_?$AAb?$AAl?$AAd?$AA?2?$AAs?$AAe?$AAl?$AAf?$AA_?$AAx?$AA8?$AA6?$AA?2?$AAc@ 30110ca0     LIBCMTD:xtows.obj
 0003:00011d10       ??_C@_1BC@HDEJCFPB@?$AAx?$AA6?$AA4?$AAt?$AAo?$AAw?$AA_?$AAs?$AA?$AA@ 30110d10     LIBCMTD:xtows.obj
 0003:00011d28       ??_C@_1DM@MADKGDLO@?$AA?$CI?$AAL?$AA?$CC?$AAB?$AAu?$AAf?$AAf?$AAe?$AAr?$AA?5?$AAi?$AAs?$AA?5?$AAt?$AAo?$AAo?$AA?5?$AAs?$AAm?$AAa?$AAl?$AAl?$AA?$CC?$AA?5?$AA?$CG?$AA?$CG?$AA?5?$AA0?$AA?$CJ?$AA?$AA@ 30110d28     LIBCMTD:wcsncat_s.obj
 0003:00011d70       ??_C@_1CI@HCPHDDLE@?$AAB?$AAu?$AAf?$AAf?$AAe?$AAr?$AA?5?$AAi?$AAs?$AA?5?$AAt?$AAo?$AAo?$AA?5?$AAs?$AAm?$AAa?$AAl?$AAl?$AA?$AA@ 30110d70     LIBCMTD:wcsncat_s.obj
 0003:00011da0       ??_C@_1FA@MJKDNFFB@?$AA?$CI?$AAL?$AA?$CC?$AAS?$AAt?$AAr?$AAi?$AAn?$AAg?$AA?5?$AAi?$AAs?$AA?5?$AAn?$AAo?$AAt?$AA?5?$AAn?$AAu?$AAl?$AAl?$AA?5?$AAt?$AAe?$AAr?$AAm?$AAi?$AAn?$AAa?$AAt?$AAe?$AAd@ 30110da0     LIBCMTD:wcsncat_s.obj
 0003:00011e00       ??_C@_1DM@FHLMIEG@?$AAS?$AAt?$AAr?$AAi?$AAn?$AAg?$AA?5?$AAi?$AAs?$AA?5?$AAn?$AAo?$AAt?$AA?5?$AAn?$AAu?$AAl?$AAl?$AA?5?$AAt?$AAe?$AAr?$AAm?$AAi?$AAn?$AAa?$AAt?$AAe?$AAd?$AA?$AA@ 30110e00     LIBCMTD:wcsncat_s.obj
 0003:00011e48       ??_C@_1CG@OFBJMIGJ@?$AA?$CI?$AA?$CI?$AA?$CI?$AA_?$AAS?$AAr?$AAc?$AA?$CJ?$AA?$CJ?$AA?$CJ?$AA?5?$AA?$CB?$AA?$DN?$AA?5?$AAN?$AAU?$AAL?$AAL?$AA?$AA@ 30110e48     LIBCMTD:wcsncat_s.obj
 0003:00011e78       ??_C@_1BE@KPKIKKCF@?$AAw?$AAc?$AAs?$AAn?$AAc?$AAa?$AAt?$AA_?$AAs?$AA?$AA@ 30110e78     LIBCMTD:wcsncat_s.obj
 0003:00011e90       ??_C@_1GK@DICCLCDF@?$AAf?$AA?3?$AA?2?$AAd?$AAd?$AA?2?$AAv?$AAc?$AAt?$AAo?$AAo?$AAl?$AAs?$AA?2?$AAc?$AAr?$AAt?$AA_?$AAb?$AAl?$AAd?$AA?2?$AAs?$AAe?$AAl?$AAf?$AA_?$AAx?$AA8?$AA6?$AA?2?$AAc@ 30110e90     LIBCMTD:wcsncat_s.obj
 0003:00011f10       ??_C@_1FC@PFMLEHKI@?$AA?$CI?$AA?$CI?$AA_?$AAD?$AAs?$AAt?$AA?$CJ?$AA?$CJ?$AA?5?$AA?$CB?$AA?$DN?$AA?5?$AAN?$AAU?$AAL?$AAL?$AA?5?$AA?$CG?$AA?$CG?$AA?5?$AA?$CI?$AA?$CI?$AA_?$AAS?$AAi?$AAz?$AAe?$AAI?$AAn?$AAW?$AAo?$AAr@ 30110f10     LIBCMTD:wcsncat_s.obj
 0003:00011f74       ??_C@_1BE@PMMBFFCC@?$AAw?$AAc?$AAs?$AAn?$AAc?$AAp?$AAy?$AA_?$AAs?$AA?$AA@ 30110f74     LIBCMTD:wcsncpy_s.obj
 0003:00011f90       ??_C@_1GK@PAJJBKJF@?$AAf?$AA?3?$AA?2?$AAd?$AAd?$AA?2?$AAv?$AAc?$AAt?$AAo?$AAo?$AAl?$AAs?$AA?2?$AAc?$AAr?$AAt?$AA_?$AAb?$AAl?$AAd?$AA?2?$AAs?$AAe?$AAl?$AAf?$AA_?$AAx?$AA8?$AA6?$AA?2?$AAc@ 30110f90     LIBCMTD:wcsncpy_s.obj
 0003:00012010       ??_C@_1BC@PLIEPKPJ@?$AAw?$AAc?$AAs?$AAc?$AAa?$AAt?$AA_?$AAs?$AA?$AA@ 30111010     LIBCMTD:wcscat_s.obj
 0003:00012028       ??_C@_1GI@NOKGIAGA@?$AAf?$AA?3?$AA?2?$AAd?$AAd?$AA?2?$AAv?$AAc?$AAt?$AAo?$AAo?$AAl?$AAs?$AA?2?$AAc?$AAr?$AAt?$AA_?$AAb?$AAl?$AAd?$AA?2?$AAs?$AAe?$AAl?$AAf?$AA_?$AAx?$AA8?$AA6?$AA?2?$AAc@ 30111028     LIBCMTD:wcscat_s.obj
 0003:000120a4       ??_C@_1BC@KIONAFPO@?$AAw?$AAc?$AAs?$AAc?$AAp?$AAy?$AA_?$AAs?$AA?$AA@ 301110a4     LIBCMTD:wcscpy_s.obj
 0003:000120c0       ??_C@_1GI@BGBNCIMA@?$AAf?$AA?3?$AA?2?$AAd?$AAd?$AA?2?$AAv?$AAc?$AAt?$AAo?$AAo?$AAl?$AAs?$AA?2?$AAc?$AAr?$AAt?$AA_?$AAb?$AAl?$AAd?$AA?2?$AAs?$AAe?$AAl?$AAf?$AA_?$AAx?$AA8?$AA6?$AA?2?$AAc@ 301110c0     LIBCMTD:wcscpy_s.obj
 0003:0001213c       ??_C@_1BC@BHLPNJBO@?$AAf?$AAw?$AAp?$AAr?$AAi?$AAn?$AAt?$AAf?$AA?$AA@ 3011113c     LIBCMTD:fwprintf.obj
 0003:00012158       ??_C@_1GE@NIBJAMDO@?$AAf?$AA?3?$AA?2?$AAd?$AAd?$AA?2?$AAv?$AAc?$AAt?$AAo?$AAo?$AAl?$AAs?$AA?2?$AAc?$AAr?$AAt?$AA_?$AAb?$AAl?$AAd?$AA?2?$AAs?$AAe?$AAl?$AAf?$AA_?$AAx?$AA8?$AA6?$AA?2?$AAc@ 30111158     LIBCMTD:fwprintf.obj
 0003:000121d0       ??_C@_1BM@JMKHIAHP@?$AA?$CI?$AAs?$AAt?$AAr?$AA?5?$AA?$CB?$AA?$DN?$AA?5?$AAN?$AAU?$AAL?$AAL?$AA?$CJ?$AA?$AA@ 301111d0     LIBCMTD:fwprintf.obj
 0003:000121f4       ??_C@_0DB@MIGHMKAN@f?3?2dd?2vctools?2crt_bld?2self_x86?2c@ 301111f4     LIBCMTD:setvbuf.obj
 0003:00012230       ??_C@_1EG@IJNJIDNB@?$AA?$CI?$AA?$CI?$AA2?$AA?5?$AA?$DM?$AA?$DN?$AA?5?$AAs?$AAi?$AAz?$AAe?$AA?$CJ?$AA?5?$AA?$CG?$AA?$CG?$AA?5?$AA?$CI?$AAs?$AAi?$AAz?$AAe?$AA?5?$AA?$DM?$AA?$DN?$AA?5?$AAI?$AAN?$AAT?$AA_?$AAM?$AAA?$AAX@ 30111230     LIBCMTD:setvbuf.obj
 0003:00012288       ??_C@_1HC@CBFEDAGG@?$AA?$CI?$AAt?$AAy?$AAp?$AAe?$AA?5?$AA?$DN?$AA?$DN?$AA?5?$AA_?$AAI?$AAO?$AAN?$AAB?$AAF?$AA?$CJ?$AA?5?$AA?$HM?$AA?$HM?$AA?5?$AA?$CI?$AAt?$AAy?$AAp?$AAe?$AA?5?$AA?$DN?$AA?$DN?$AA?5?$AA_?$AAI?$AAO@ 30111288     LIBCMTD:setvbuf.obj
 0003:00012310       ??_C@_1BA@OGODIODK@?$AAs?$AAe?$AAt?$AAv?$AAb?$AAu?$AAf?$AA?$AA@ 30111310     LIBCMTD:setvbuf.obj
 0003:00012328       ??_C@_1GC@FPPJLAOD@?$AAf?$AA?3?$AA?2?$AAd?$AAd?$AA?2?$AAv?$AAc?$AAt?$AAo?$AAo?$AAl?$AAs?$AA?2?$AAc?$AAr?$AAt?$AA_?$AAb?$AAl?$AAd?$AA?2?$AAs?$AAe?$AAl?$AAf?$AA_?$AAx?$AA8?$AA6?$AA?2?$AAc@ 30111328     LIBCMTD:setvbuf.obj
 0003:000123a0       ??_C@_0CP@BNKDODJJ@f?3?2dd?2vctools?2crt_bld?2self_x86?2c@ 301113a0     LIBCMTD:_file.obj
 0003:000123d8       ??_C@_1CA@LFDHAMEM@?$AA_?$AAs?$AAe?$AAt?$AA_?$AAe?$AAr?$AAr?$AAo?$AAr?$AA_?$AAm?$AAo?$AAd?$AAe?$AA?$AA@ 301113d8     LIBCMTD:errmode.obj
 0003:00012400       ??_C@_1GC@FGMGFCNB@?$AAf?$AA?3?$AA?2?$AAd?$AAd?$AA?2?$AAv?$AAc?$AAt?$AAo?$AAo?$AAl?$AAs?$AA?2?$AAc?$AAr?$AAt?$AA_?$AAb?$AAl?$AAd?$AA?2?$AAs?$AAe?$AAl?$AAf?$AA_?$AAx?$AA8?$AA6?$AA?2?$AAc@ 30111400     LIBCMTD:errmode.obj
 0003:00012478       ??_C@_1DE@BCNCAIK@?$AA?$CI?$AA?$CC?$AAI?$AAn?$AAv?$AAa?$AAl?$AAi?$AAd?$AA?5?$AAe?$AAr?$AAr?$AAo?$AAr?$AA_?$AAm?$AAo?$AAd?$AAe?$AA?$CC?$AA?0?$AA?5?$AA0?$AA?$CJ?$AA?$AA@ 30111478     LIBCMTD:errmode.obj
 0003:000124b8       ??_C@_1EC@FABAOFFO@?$AA?$CI?$AAc?$AAo?$AAu?$AAn?$AAt?$AA?5?$AA?$DN?$AA?$DN?$AA?5?$AA0?$AA?$CJ?$AA?5?$AA?$HM?$AA?$HM?$AA?5?$AA?$CI?$AAs?$AAt?$AAr?$AAi?$AAn?$AAg?$AA?5?$AA?$CB?$AA?$DN?$AA?5?$AAN?$AAU?$AAL?$AAL?$AA?$CJ@ 301114b8     LIBCMTD:vswprnc.obj
 0003:00012508       ??_C@_1CE@IGKFIJFD@?$AA_?$AAv?$AAs?$AAw?$AAp?$AAr?$AAi?$AAn?$AAt?$AAf?$AA_?$AAh?$AAe?$AAl?$AAp?$AAe?$AAr?$AA?$AA@ 30111508     LIBCMTD:vswprnc.obj
 0003:00012538       ??_C@_1GE@KINELFI@?$AAf?$AA?3?$AA?2?$AAd?$AAd?$AA?2?$AAv?$AAc?$AAt?$AAo?$AAo?$AAl?$AAs?$AA?2?$AAc?$AAr?$AAt?$AA_?$AAb?$AAl?$AAd?$AA?2?$AAs?$AAe?$AAl?$AAf?$AA_?$AAx?$AA8?$AA6?$AA?2?$AAc@ 30111538     LIBCMTD:vswprnc.obj
 0003:000125b0       ??_C@_1DA@HPBFKMEB@?$AA?$CI?$AA?$CC?$AAB?$AAu?$AAf?$AAf?$AAe?$AAr?$AA?5?$AAt?$AAo?$AAo?$AA?5?$AAs?$AAm?$AAa?$AAl?$AAl?$AA?$CC?$AA?0?$AA?5?$AA0?$AA?$CJ?$AA?$AA@ 301115b0     LIBCMTD:vswprnc.obj
 0003:000125f0       ??_C@_1EE@MPCHJFGP@?$AAs?$AAt?$AAr?$AAi?$AAn?$AAg?$AA?5?$AA?$CB?$AA?$DN?$AA?5?$AAN?$AAU?$AAL?$AAL?$AA?5?$AA?$CG?$AA?$CG?$AA?5?$AAs?$AAi?$AAz?$AAe?$AAI?$AAn?$AAW?$AAo?$AAr?$AAd?$AAs?$AA?5?$AA?$DO?$AA?5@ 301115f0     LIBCMTD:vswprnc.obj
 0003:00012644       ??_C@_1BO@OALHJLCI@?$AA_?$AAv?$AAs?$AAw?$AAp?$AAr?$AAi?$AAn?$AAt?$AAf?$AA_?$AAs?$AA_?$AAl?$AA?$AA@ 30111644     LIBCMTD:vswprnc.obj
 0003:00012668       ??_C@_1BO@MLMCMBKN@?$AAf?$AAo?$AAr?$AAm?$AAa?$AAt?$AA?5?$AA?$CB?$AA?$DN?$AA?5?$AAN?$AAU?$AAL?$AAL?$AA?$AA@ 30111668     LIBCMTD:vswprnc.obj
 0003:0001268c       ??_C@_1CA@BKFKMJFF@?$AA_?$AAv?$AAs?$AAn?$AAw?$AAp?$AAr?$AAi?$AAn?$AAt?$AAf?$AA_?$AAs?$AA_?$AAl?$AA?$AA@ 3011168c     LIBCMTD:vswprnc.obj
 0003:000126b8       ??_C@_1GA@INJGGEBC@?$AAf?$AA?3?$AA?2?$AAd?$AAd?$AA?2?$AAv?$AAc?$AAt?$AAo?$AAo?$AAl?$AAs?$AA?2?$AAc?$AAr?$AAt?$AA_?$AAb?$AAl?$AAd?$AA?2?$AAs?$AAe?$AAl?$AAf?$AA_?$AAx?$AA8?$AA6?$AA?2?$AAc@ 301116b8     LIBCMTD:a_map.obj
 0003:00012730       ??_C@_1FE@KNPCCODH@?$AA?$CI?$AA?$CC?$AAC?$AAo?$AAr?$AAr?$AAu?$AAp?$AAt?$AAe?$AAd?$AA?5?$AAp?$AAo?$AAi?$AAn?$AAt?$AAe?$AAr?$AA?5?$AAp?$AAa?$AAs?$AAs?$AAe?$AAd?$AA?5?$AAt?$AAo?$AA?5?$AA_?$AAf@ 30111730     LIBCMTD:a_map.obj
 0003:00012794       ??_C@_07LCBHPJJN@LC_TIME?$AA@ 30111794     LIBCMTD:setlocal.obj
 0003:000127a0       ??_C@_0L@DLHIECNL@LC_NUMERIC?$AA@ 301117a0     LIBCMTD:setlocal.obj
 0003:000127b0       ??_C@_0M@MIENIKLA@LC_MONETARY?$AA@ 301117b0     LIBCMTD:setlocal.obj
 0003:000127c0       ??_C@_08EADHIDAD@LC_CTYPE?$AA@ 301117c0     LIBCMTD:setlocal.obj
 0003:000127cc       ??_C@_0L@KFJHEKIK@LC_COLLATE?$AA@ 301117cc     LIBCMTD:setlocal.obj
 0003:000127dc       ??_C@_06NEFDFEKB@LC_ALL?$AA@ 301117dc     LIBCMTD:setlocal.obj
 0003:000127e8       ___lc_category             301117e8     LIBCMTD:setlocal.obj
 0003:000128d8       ??_C@_1CI@FGIONOJM@?$AA_?$AAc?$AAo?$AAn?$AAf?$AAi?$AAg?$AAt?$AAh?$AAr?$AAe?$AAa?$AAd?$AAl?$AAo?$AAc?$AAa?$AAl?$AAe?$AA?$AA@ 301118d8     LIBCMTD:setlocal.obj
 0003:00012908       ??_C@_1GE@OLEIGPBJ@?$AAf?$AA?3?$AA?2?$AAd?$AAd?$AA?2?$AAv?$AAc?$AAt?$AAo?$AAo?$AAl?$AAs?$AA?2?$AAc?$AAr?$AAt?$AA_?$AAb?$AAl?$AAd?$AA?2?$AAs?$AAe?$AAl?$AAf?$AA_?$AAx?$AA8?$AA6?$AA?2?$AAc@ 30111908     LIBCMTD:setlocal.obj
 0003:00012980       ??_C@_1GA@LDEGDKD@?$AA?$CI?$AA?$CC?$AAI?$AAn?$AAv?$AAa?$AAl?$AAi?$AAd?$AA?5?$AAp?$AAa?$AAr?$AAa?$AAm?$AAe?$AAt?$AAe?$AAr?$AA?5?$AAf?$AAo?$AAr?$AA?5?$AA_?$AAc?$AAo?$AAn?$AAf?$AAi?$AAg?$AAt@ 30111980     LIBCMTD:setlocal.obj
 0003:000129f4       ??_C@_0DC@JCPFNMID@f?3?2dd?2vctools?2crt_bld?2self_x86?2c@ 301119f4     LIBCMTD:setlocal.obj
 0003:00012a30       ??_C@_1BE@DBJGBOJC@?$AAs?$AAe?$AAt?$AAl?$AAo?$AAc?$AAa?$AAl?$AAe?$AA?$AA@ 30111a30     LIBCMTD:setlocal.obj
 0003:00012a48       ??_C@_1FG@OHLFEKMC@?$AAL?$AAC?$AA_?$AAM?$AAI?$AAN?$AA?5?$AA?$DM?$AA?$DN?$AA?5?$AA_?$AAc?$AAa?$AAt?$AAe?$AAg?$AAo?$AAr?$AAy?$AA?5?$AA?$CG?$AA?$CG?$AA?5?$AA_?$AAc?$AAa?$AAt?$AAe?$AAg?$AAo?$AAr?$AAy@ 30111a48     LIBCMTD:setlocal.obj
 0003:00012ab0       ??_C@_1IA@PFIKKKFB@?$AAs?$AAt?$AAr?$AAn?$AAc?$AAp?$AAy?$AA_?$AAs?$AA?$CI?$AAl?$AAc?$AAt?$AAe?$AAm?$AAp?$AA?0?$AA?5?$AA?$CI?$AAs?$AAi?$AAz?$AAe?$AAo?$AAf?$AA?$CI?$AAl?$AAc?$AAt?$AAe?$AAm?$AAp@ 30111ab0     LIBCMTD:setlocal.obj
 0003:00012b4c       ??_C@_1CE@OFNHIOO@?$AA_?$AAs?$AAe?$AAt?$AAl?$AAo?$AAc?$AAa?$AAl?$AAe?$AA_?$AAn?$AAo?$AAl?$AAo?$AAc?$AAk?$AA?$AA@ 30111b4c     LIBCMTD:setlocal.obj
 0003:00012b78       ??_C@_01ICJEACDI@?$DL?$AA@ 30111b78     LIBCMTD:setlocal.obj
 0003:00012b7c       ??_C@_02BALPLPBG@?$DN?$DL?$AA@ 30111b7c     LIBCMTD:setlocal.obj
 0003:00012b80       ??_C@_1GO@JALHLJEH@?$AAs?$AAt?$AAr?$AAc?$AAp?$AAy?$AA_?$AAs?$AA?$CI?$AAp?$AAc?$AAh?$AA?5?$AA?$CL?$AA?5?$AAs?$AAi?$AAz?$AAe?$AAo?$AAf?$AA?$CI?$AAi?$AAn?$AAt?$AA?$CJ?$AA?0?$AA?5?$AAc?$AAc?$AAh?$AA?5@ 30111b80     LIBCMTD:setlocal.obj
 0003:00012c04       ??_C@_1CG@IEFIICPK@?$AA_?$AAs?$AAe?$AAt?$AAl?$AAo?$AAc?$AAa?$AAl?$AAe?$AA_?$AAs?$AAe?$AAt?$AA_?$AAc?$AAa?$AAt?$AA?$AA@ 30111c04     LIBCMTD:setlocal.obj
 0003:00012c34       ??_C@_1DA@GDKKLCLM@?$AAs?$AAt?$AAr?$AAc?$AAa?$AAt?$AA_?$AAs?$AA?$CI?$AAp?$AAc?$AAh?$AA?0?$AA?5?$AAc?$AAc?$AAh?$AA?0?$AA?5?$AA?$CC?$AA?$DL?$AA?$CC?$AA?$CJ?$AA?$AA@ 30111c34     LIBCMTD:setlocal.obj
 0003:00012c70       ??_C@_1CG@NNFIJLDA@?$AA_?$AAs?$AAe?$AAt?$AAl?$AAo?$AAc?$AAa?$AAl?$AAe?$AA_?$AAg?$AAe?$AAt?$AA_?$AAa?$AAl?$AAl?$AA?$AA@ 30111c70     LIBCMTD:setlocal.obj
 0003:00012ca0       ??_C@_1FA@MHAOOIBO@?$AAs?$AAt?$AAr?$AAc?$AAp?$AAy?$AA_?$AAs?$AA?$CI?$AAo?$AAu?$AAt?$AAp?$AAu?$AAt?$AA?0?$AA?5?$AAs?$AAi?$AAz?$AAe?$AAI?$AAn?$AAC?$AAh?$AAa?$AAr?$AAs?$AA?0?$AA?5?$AAc?$AAa@ 30111ca0     LIBCMTD:setlocal.obj
 0003:00012d00       ??_C@_1IA@ONNFOEDA@?$AAs?$AAt?$AAr?$AAn?$AAc?$AAp?$AAy?$AA_?$AAs?$AA?$CI?$AAc?$AAa?$AAc?$AAh?$AAe?$AAi?$AAn?$AA?0?$AA?5?$AAc?$AAa?$AAc?$AAh?$AAe?$AAi?$AAn?$AAS?$AAi?$AAz?$AAe?$AA?0?$AA?5@ 30111d00     LIBCMTD:setlocal.obj
 0003:00012d9c       ??_C@_01GFHCPBMG@C?$AA@    30111d9c     LIBCMTD:setlocal.obj
 0003:00012da0       ??_C@_1EG@MOMHKOD@?$AAs?$AAt?$AAr?$AAc?$AAp?$AAy?$AA_?$AAs?$AA?$CI?$AAo?$AAu?$AAt?$AAp?$AAu?$AAt?$AA?0?$AA?5?$AAs?$AAi?$AAz?$AAe?$AAI?$AAn?$AAC?$AAh?$AAa?$AAr?$AAs?$AA?0?$AA?5?$AA?$CC?$AAC@ 30111da0     LIBCMTD:setlocal.obj
 0003:00012df4       ??_C@_1BM@OIIBLEFG@?$AA_?$AAe?$AAx?$AAp?$AAa?$AAn?$AAd?$AAl?$AAo?$AAc?$AAa?$AAl?$AAe?$AA?$AA@ 30111df4     LIBCMTD:setlocal.obj
 0003:00012e18       ??_C@_1BGM@IJDLABMC@?$AAs?$AAt?$AAr?$AAc?$AAa?$AAt?$AA_?$AAs?$AA?$CI?$AAo?$AAu?$AAt?$AAs?$AAt?$AAr?$AA?0?$AA?5?$AAs?$AAi?$AAz?$AAe?$AAI?$AAn?$AAB?$AAy?$AAt?$AAe?$AAs?$AA?0?$AA?5?$AA?$CI?$AA?5@ 30111e18     LIBCMTD:setlocal.obj
 0003:00012fcc       ??_C@_1BC@PIABMDIP@?$AA_?$AAs?$AAt?$AAr?$AAc?$AAa?$AAt?$AAs?$AA?$AA@ 30111fcc     LIBCMTD:setlocal.obj
 0003:00012fe8       ??_C@_1MM@NOPMGFHF@?$AAs?$AAt?$AAr?$AAn?$AAc?$AAp?$AAy?$AA_?$AAs?$AA?$CI?$AAn?$AAa?$AAm?$AAe?$AAs?$AA?9?$AA?$DO?$AAs?$AAz?$AAC?$AAo?$AAd?$AAe?$AAP?$AAa?$AAg?$AAe?$AA?0?$AA?5?$AA?$CI?$AAs?$AAi@ 30111fe8     LIBCMTD:setlocal.obj
 0003:000130e0       ??_C@_1MG@PHNILIAG@?$AAs?$AAt?$AAr?$AAn?$AAc?$AAp?$AAy?$AA_?$AAs?$AA?$CI?$AAn?$AAa?$AAm?$AAe?$AAs?$AA?9?$AA?$DO?$AAs?$AAz?$AAC?$AAo?$AAu?$AAn?$AAt?$AAr?$AAy?$AA?0?$AA?5?$AA?$CI?$AAs?$AAi?$AAz@ 301120e0     LIBCMTD:setlocal.obj
 0003:000131d0       ??_C@_1MM@BFEECMAF@?$AAs?$AAt?$AAr?$AAn?$AAc?$AAp?$AAy?$AA_?$AAs?$AA?$CI?$AAn?$AAa?$AAm?$AAe?$AAs?$AA?9?$AA?$DO?$AAs?$AAz?$AAL?$AAa?$AAn?$AAg?$AAu?$AAa?$AAg?$AAe?$AA?0?$AA?5?$AA?$CI?$AAs?$AAi@ 301121d0     LIBCMTD:setlocal.obj
 0003:000132c4       ??_C@_03EGDHDPFD@_?4?0?$AA@ 301122c4     LIBCMTD:setlocal.obj
 0003:000132c8       ??_C@_1NG@FMOPGKGG@?$AAs?$AAt?$AAr?$AAn?$AAc?$AAp?$AAy?$AA_?$AAs?$AA?$CI?$AAn?$AAa?$AAm?$AAe?$AAs?$AA?9?$AA?$DO?$AAs?$AAz?$AAC?$AAo?$AAd?$AAe?$AAP?$AAa?$AAg?$AAe?$AA?0?$AA?5?$AA?$CI?$AAs?$AAi@ 301122c8     LIBCMTD:setlocal.obj
 0003:000133c8       ??_C@_1BK@CBMMLAGJ@?$AA_?$AA_?$AAl?$AAc?$AA_?$AAs?$AAt?$AAr?$AAt?$AAo?$AAl?$AAc?$AA?$AA@ 301123c8     LIBCMTD:setlocal.obj
 0003:000133e8       ??_C@_01LFCBOECM@?4?$AA@   301123e8     LIBCMTD:setlocal.obj
 0003:000133ec       ??_C@_01IDAFKMJL@_?$AA@    301123ec     LIBCMTD:setlocal.obj
 0003:000133f0       ??_C@_1HC@IBDBLKCB@?$AAs?$AAt?$AAr?$AAc?$AAp?$AAy?$AA_?$AAs?$AA?$CI?$AAl?$AAo?$AAc?$AAa?$AAl?$AAe?$AA?0?$AA?5?$AAs?$AAi?$AAz?$AAe?$AAI?$AAn?$AAB?$AAy?$AAt?$AAe?$AAs?$AA?0?$AA?5?$AA?$CI?$AAc@ 301123f0     LIBCMTD:setlocal.obj
 0003:00013478       ??_C@_1BK@FGDJDEPG@?$AA_?$AA_?$AAl?$AAc?$AA_?$AAl?$AAc?$AAt?$AAo?$AAs?$AAt?$AAr?$AA?$AA@ 30112478     LIBCMTD:setlocal.obj
 0003:00013498       ??_C@_06PJIGMIJB@Client?$AA@ 30112498     LIBCMTD:dbgheap.obj
 0003:000134a0       ??_C@_06KMEJCCGM@Ignore?$AA@ 301124a0     LIBCMTD:dbgheap.obj
 0003:000134a8       ??_C@_03OGPFLFLO@CRT?$AA@  301124a8     LIBCMTD:dbgheap.obj
 0003:000134ac       ??_C@_06EFAGIKOH@Normal?$AA@ 301124ac     LIBCMTD:dbgheap.obj
 0003:000134b4       ??_C@_04HJMOFLDF@Free?$AA@ 301124b4     LIBCMTD:dbgheap.obj
 0003:000134d4       ??_C@_0DC@JEMAGEKG@Error?3?5memory?5allocation?3?5bad?5me@ 301124d4     LIBCMTD:dbgheap.obj
 0003:00013510       ??_C@_0CF@BICKFLAF@Invalid?5allocation?5size?3?5?$CFIu?5byt@ 30112510     LIBCMTD:dbgheap.obj
 0003:0001353c       ??_C@_0CB@CCLOLAHO@Client?5hook?5allocation?5failure?4?6@ 3011253c     LIBCMTD:dbgheap.obj
 0003:00013564       ??_C@_0DF@BBEGIFEK@Client?5hook?5allocation?5failure?5a@ 30112564     LIBCMTD:dbgheap.obj
 0003:000135a8       ??_C@_1GC@DNJKKEAA@?$AAf?$AA?3?$AA?2?$AAd?$AAd?$AA?2?$AAv?$AAc?$AAt?$AAo?$AAo?$AAl?$AAs?$AA?2?$AAc?$AAr?$AAt?$AA_?$AAb?$AAl?$AAd?$AA?2?$AAs?$AAe?$AAl?$AAf?$AA_?$AAx?$AA8?$AA6?$AA?2?$AAc@ 301125a8     LIBCMTD:dbgheap.obj
 0003:00013620       ??_C@_1CE@LJFEPPMP@?$AA_?$AAC?$AAr?$AAt?$AAC?$AAh?$AAe?$AAc?$AAk?$AAM?$AAe?$AAm?$AAo?$AAr?$AAy?$AA?$CI?$AA?$CJ?$AA?$AA@ 30112620     LIBCMTD:dbgheap.obj
 0003:0001364c       ??_C@_1DE@KOOKLFBB@?$AA_?$AAp?$AAF?$AAi?$AAr?$AAs?$AAt?$AAB?$AAl?$AAo?$AAc?$AAk?$AA?5?$AA?$DN?$AA?$DN?$AA?5?$AAp?$AAO?$AAl?$AAd?$AAB?$AAl?$AAo?$AAc?$AAk?$AA?$AA@ 3011264c     LIBCMTD:dbgheap.obj
 0003:0001368c       ??_C@_1DC@GEFKNOOL@?$AA_?$AAp?$AAL?$AAa?$AAs?$AAt?$AAB?$AAl?$AAo?$AAc?$AAk?$AA?5?$AA?$DN?$AA?$DN?$AA?5?$AAp?$AAO?$AAl?$AAd?$AAB?$AAl?$AAo?$AAc?$AAk?$AA?$AA@ 3011268c     LIBCMTD:dbgheap.obj
 0003:000136c8       ??_C@_1GE@PCKLOLAO@?$AAf?$AAR?$AAe?$AAa?$AAl?$AAl?$AAo?$AAc?$AA?5?$AA?$HM?$AA?$HM?$AA?5?$AA?$CI?$AA?$CB?$AAf?$AAR?$AAe?$AAa?$AAl?$AAl?$AAo?$AAc?$AA?5?$AA?$CG?$AA?$CG?$AA?5?$AAp?$AAN?$AAe?$AAw?$AAB?$AAl@ 301126c8     LIBCMTD:dbgheap.obj
 0003:00013740       ??_C@_0DA@HFBKENN@Error?3?5possible?5heap?5corruption?5@ 30112740     LIBCMTD:dbgheap.obj
 0003:00013780       ??_C@_1IK@DCPKDGNH@?$AAp?$AAO?$AAl?$AAd?$AAB?$AAl?$AAo?$AAc?$AAk?$AA?9?$AA?$DO?$AAn?$AAL?$AAi?$AAn?$AAe?$AA?5?$AA?$DN?$AA?$DN?$AA?5?$AAI?$AAG?$AAN?$AAO?$AAR?$AAE?$AA_?$AAL?$AAI?$AAN?$AAE?$AA?5@ 30112780     LIBCMTD:dbgheap.obj
 0003:00013828       ??_C@_1EE@GFOPCECE@?$AA_?$AAC?$AAr?$AAt?$AAI?$AAs?$AAV?$AAa?$AAl?$AAi?$AAd?$AAH?$AAe?$AAa?$AAp?$AAP?$AAo?$AAi?$AAn?$AAt?$AAe?$AAr?$AA?$CI?$AAp?$AAU?$AAs?$AAe?$AAr?$AAD?$AAa?$AAt?$AAa@ 30112828     LIBCMTD:dbgheap.obj
 0003:00013880       ??_C@_0EM@LGFLMAGJ@The?5Block?5at?50x?$CFp?5was?5allocated?5@ 30112880     LIBCMTD:dbgheap.obj
 0003:000138e0       ??_C@_0FA@EFEIGJKG@Error?3?5memory?5allocation?3?5bad?5me@ 301128e0     LIBCMTD:dbgheap.obj
 0003:00013940       ??_C@_0ED@GPCPBAGP@Invalid?5allocation?5size?3?5?$CFIu?5byt@ 30112940     LIBCMTD:dbgheap.obj
 0003:00013990       ??_C@_0CE@DOFMDOL@Client?5hook?5re?9allocation?5failur@ 30112990     LIBCMTD:dbgheap.obj
 0003:000139bc       ??_C@_0DI@KKJPDPGM@Client?5hook?5re?9allocation?5failur@ 301129bc     LIBCMTD:dbgheap.obj
 0003:00013a00       ??_C@_1BI@HAPNGHDP@?$AA_?$AAe?$AAx?$AAp?$AAa?$AAn?$AAd?$AA_?$AAd?$AAb?$AAg?$AA?$AA@ 30112a00     LIBCMTD:dbgheap.obj
 0003:00013a1c       ??_C@_1CE@CJACEFBA@?$AAp?$AAU?$AAs?$AAe?$AAr?$AAD?$AAa?$AAt?$AAa?$AA?5?$AA?$CB?$AA?$DN?$AA?5?$AAN?$AAU?$AAL?$AAL?$AA?$AA@ 30112a1c     LIBCMTD:dbgheap.obj
 0003:00013a48       ??_C@_1CM@MMAADDMD@?$AA_?$AAp?$AAF?$AAi?$AAr?$AAs?$AAt?$AAB?$AAl?$AAo?$AAc?$AAk?$AA?5?$AA?$DN?$AA?$DN?$AA?5?$AAp?$AAH?$AAe?$AAa?$AAd?$AA?$AA@ 30112a48     LIBCMTD:dbgheap.obj
 0003:00013a7c       ??_C@_1CK@DMAGEMBG@?$AA_?$AAp?$AAL?$AAa?$AAs?$AAt?$AAB?$AAl?$AAo?$AAc?$AAk?$AA?5?$AA?$DN?$AA?$DN?$AA?5?$AAp?$AAH?$AAe?$AAa?$AAd?$AA?$AA@ 30112a7c     LIBCMTD:dbgheap.obj
 0003:00013ab0       ??_C@_1DM@ODCJIDCP@?$AAp?$AAH?$AAe?$AAa?$AAd?$AA?9?$AA?$DO?$AAn?$AAB?$AAl?$AAo?$AAc?$AAk?$AAU?$AAs?$AAe?$AA?5?$AA?$DN?$AA?$DN?$AA?5?$AAn?$AAB?$AAl?$AAo?$AAc?$AAk?$AAU?$AAs?$AAe?$AA?$AA@ 30112ab0     LIBCMTD:dbgheap.obj
 0003:00013af8       ??_C@_1HK@HPCBMDFG@?$AAp?$AAH?$AAe?$AAa?$AAd?$AA?9?$AA?$DO?$AAn?$AAL?$AAi?$AAn?$AAe?$AA?5?$AA?$DN?$AA?$DN?$AA?5?$AAI?$AAG?$AAN?$AAO?$AAR?$AAE?$AA_?$AAL?$AAI?$AAN?$AAE?$AA?5?$AA?$CG?$AA?$CG?$AA?5?$AAp@ 30112af8     LIBCMTD:dbgheap.obj
 0003:00013b90       ??_C@_0IG@LEMBDCJK@HEAP?5CORRUPTION?5DETECTED?3?5after?5@ 30112b90     LIBCMTD:dbgheap.obj
 0003:00013c30       ??_C@_0KE@MBMNHHHN@HEAP?5CORRUPTION?5DETECTED?3?5after?5@ 30112c30     LIBCMTD:dbgheap.obj
 0003:00013cf8       ??_C@_0IK@PJCGLBOB@HEAP?5CORRUPTION?5DETECTED?3?5before@ 30112cf8     LIBCMTD:dbgheap.obj
 0003:00013da0       ??_C@_0KI@JGFOHMEB@HEAP?5CORRUPTION?5DETECTED?3?5before@ 30112da0     LIBCMTD:dbgheap.obj
 0003:00013e70       ??_C@_1EO@LHDAJOCM@?$AA_?$AAB?$AAL?$AAO?$AAC?$AAK?$AA_?$AAT?$AAY?$AAP?$AAE?$AA_?$AAI?$AAS?$AA_?$AAV?$AAA?$AAL?$AAI?$AAD?$AA?$CI?$AAp?$AAH?$AAe?$AAa?$AAd?$AA?9?$AA?$DO?$AAn?$AAB?$AAl?$AAo@ 30112e70     LIBCMTD:dbgheap.obj
 0003:00013ed0       ??_C@_0BL@KEIPLFAC@Client?5hook?5free?5failure?4?6?$AA@ 30112ed0     LIBCMTD:dbgheap.obj
 0003:00013ef0       ??_C@_0EJ@HEIBCIMJ@The?5Block?5at?50x?$CFp?5was?5allocated?5@ 30112ef0     LIBCMTD:dbgheap.obj
 0003:00013f48       ??_C@_1BG@MBKOGDLD@?$AA_?$AAm?$AAs?$AAi?$AAz?$AAe?$AA_?$AAd?$AAb?$AAg?$AA?$AA@ 30112f48     LIBCMTD:dbgheap.obj
 0003:00013f64       ??_C@_0CI@JMLBEDHJ@?$CFhs?5located?5at?50x?$CFp?5is?5?$CFIu?5bytes@ 30112f64     LIBCMTD:dbgheap.obj
 0003:00013f98       ??_C@_0EG@DGJMPDBH@?$CFhs?5located?5at?50x?$CFp?5is?5?$CFIu?5bytes@ 30112f98     LIBCMTD:dbgheap.obj
 0003:00013ff0       ??_C@_0IC@BBJIOOJH@HEAP?5CORRUPTION?5DETECTED?3?5on?5top@ 30112ff0     LIBCMTD:dbgheap.obj
 0003:00014090       ??_C@_0KA@IHNJJKPL@HEAP?5CORRUPTION?5DETECTED?3?5on?5top@ 30113090     LIBCMTD:dbgheap.obj
 0003:00014150       ??_C@_07OHKEFPKJ@DAMAGED?$AA@ 30113150     LIBCMTD:dbgheap.obj
 0003:0001415c       ??_C@_0CL@HNNNMKMJ@_heapchk?5fails?5with?5unknown?5retu@ 3011315c     LIBCMTD:dbgheap.obj
 0003:00014190       ??_C@_0CC@MFFCHFHO@_heapchk?5fails?5with?5_HEAPBADPTR?4@ 30113190     LIBCMTD:dbgheap.obj
 0003:000141b8       ??_C@_0CC@MJGLGBDG@_heapchk?5fails?5with?5_HEAPBADEND?4@ 301131b8     LIBCMTD:dbgheap.obj
 0003:000141e0       ??_C@_0CD@CPKEAPBD@_heapchk?5fails?5with?5_HEAPBADNODE@ 301131e0     LIBCMTD:dbgheap.obj
 0003:0001420c       ??_C@_0CE@MKKHMBMK@_heapchk?5fails?5with?5_HEAPBADBEGI@ 3011320c     LIBCMTD:dbgheap.obj
 0003:00014238       ??_C@_1BO@GJFDNMNF@?$AA_?$AAC?$AAr?$AAt?$AAS?$AAe?$AAt?$AAD?$AAb?$AAg?$AAF?$AAl?$AAa?$AAg?$AA?$AA@ 30113238     LIBCMTD:dbgheap.obj
 0003:00014260       ??_C@_1BHO@NNANJNF@?$AA?$CI?$AAf?$AAN?$AAe?$AAw?$AAB?$AAi?$AAt?$AAs?$AA?$DN?$AA?$DN?$AA_?$AAC?$AAR?$AAT?$AAD?$AAB?$AAG?$AA_?$AAR?$AAE?$AAP?$AAO?$AAR?$AAT?$AA_?$AAF?$AAL?$AAA?$AAG?$AA?$CJ?$AA?5@ 30113260     LIBCMTD:dbgheap.obj
 0003:0001442c       ??_C@_1DE@GJCKCKEC@?$AA_?$AAC?$AAr?$AAt?$AAD?$AAo?$AAF?$AAo?$AAr?$AAA?$AAl?$AAl?$AAC?$AAl?$AAi?$AAe?$AAn?$AAt?$AAO?$AAb?$AAj?$AAe?$AAc?$AAt?$AAs?$AA?$AA@ 3011342c     LIBCMTD:dbgheap.obj
 0003:0001446c       ??_C@_1BI@CJGCEEDL@?$AAp?$AAf?$AAn?$AA?5?$AA?$CB?$AA?$DN?$AA?5?$AAN?$AAU?$AAL?$AAL?$AA?$AA@ 3011346c     LIBCMTD:dbgheap.obj
 0003:00014488       ??_C@_0CB@EAAIGELO@Bad?5memory?5block?5found?5at?50x?$CFp?4?6@ 30113488     LIBCMTD:dbgheap.obj
 0003:000144b0       ??_C@_0DP@LEFMFBOD@Bad?5memory?5block?5found?5at?50x?$CFp?4?6@ 301134b0     LIBCMTD:dbgheap.obj
 0003:000144fc       ??_C@_1CE@NJJKELF@?$AA_?$AAC?$AAr?$AAt?$AAM?$AAe?$AAm?$AAC?$AAh?$AAe?$AAc?$AAk?$AAp?$AAo?$AAi?$AAn?$AAt?$AA?$AA@ 301134fc     LIBCMTD:dbgheap.obj
 0003:00014528       ??_C@_1BM@MIMANDHC@?$AAs?$AAt?$AAa?$AAt?$AAe?$AA?5?$AA?$CB?$AA?$DN?$AA?5?$AAN?$AAU?$AAL?$AAL?$AA?$AA@ 30113528     LIBCMTD:dbgheap.obj
 0003:0001454c       ??_C@_1CC@DFPEDFBP@?$AAn?$AAe?$AAw?$AAS?$AAt?$AAa?$AAt?$AAe?$AA?5?$AA?$CB?$AA?$DN?$AA?5?$AAN?$AAU?$AAL?$AAL?$AA?$AA@ 3011354c     LIBCMTD:dbgheap.obj
 0003:00014574       ??_C@_1CC@DHPFEMMN@?$AAo?$AAl?$AAd?$AAS?$AAt?$AAa?$AAt?$AAe?$AA?5?$AA?$CB?$AA?$DN?$AA?5?$AAN?$AAU?$AAL?$AAL?$AA?$AA@ 30113574     LIBCMTD:dbgheap.obj
 0003:0001459c       ??_C@_1CE@PDIENACM@?$AA_?$AAC?$AAr?$AAt?$AAM?$AAe?$AAm?$AAD?$AAi?$AAf?$AAf?$AAe?$AAr?$AAe?$AAn?$AAc?$AAe?$AA?$AA@ 3011359c     LIBCMTD:dbgheap.obj
 0003:000145c8       ??_C@_0BH@GFGKJDCO@Object?5dump?5complete?4?6?$AA@ 301135c8     LIBCMTD:dbgheap.obj
 0003:000145e4       ??_C@_0DA@MDLBNIBM@crt?5block?5at?50x?$CFp?0?5subtype?5?$CFx?0?5?$CF@ 301135e4     LIBCMTD:dbgheap.obj
 0003:00014620       ??_C@_0CH@FAGDDGPN@normal?5block?5at?50x?$CFp?0?5?$CFIu?5bytes?5@ 30113620     LIBCMTD:dbgheap.obj
 0003:00014650       ??_C@_0DD@GHNAAKBB@client?5block?5at?50x?$CFp?0?5subtype?5?$CFx@ 30113650     LIBCMTD:dbgheap.obj
 0003:00014690       ??_C@_06PKLGBFGM@?$HL?$CFld?$HN?5?$AA@ 30113690     LIBCMTD:dbgheap.obj
 0003:00014698       ??_C@_0L@JMEFFCCJ@?$CFhs?$CI?$CFd?$CJ?5?3?5?$AA@ 30113698     LIBCMTD:dbgheap.obj
 0003:000146a8       ??_C@_0BE@OIEFNFL@?$CDFile?5Error?$CD?$CI?$CFd?$CJ?5?3?5?$AA@ 301136a8     LIBCMTD:dbgheap.obj
 0003:000146c0       ??_C@_0BE@KCIPKCIA@Dumping?5objects?5?9?$DO?6?$AA@ 301136c0     LIBCMTD:dbgheap.obj
 0003:000146d8       ??_C@_0BA@HJBKCELP@?5Data?3?5?$DM?$CFs?$DO?5?$CFs?6?$AA@ 301136d8     LIBCMTD:dbgheap.obj
 0003:000146ec       ??_C@_1CG@LPFIACGM@?$AA_?$AAp?$AAr?$AAi?$AAn?$AAt?$AAM?$AAe?$AAm?$AAB?$AAl?$AAo?$AAc?$AAk?$AAD?$AAa?$AAt?$AAa?$AA?$AA@ 301136ec     LIBCMTD:dbgheap.obj
 0003:0001471c       ??_C@_05MKKEDADM@?$CF?42X?5?$AA@ 3011371c     LIBCMTD:dbgheap.obj
 0003:00014724       ??_C@_0BI@JBFPOEJA@Detected?5memory?5leaks?$CB?6?$AA@ 30113724     LIBCMTD:dbgheap.obj
 0003:00014740       ??_C@_0BP@DEDHGGGI@Total?5allocations?3?5?$CFId?5bytes?4?6?$AA@ 30113740     LIBCMTD:dbgheap.obj
 0003:00014768       ??_C@_0CB@BLHDAFNE@Largest?5number?5used?3?5?$CFId?5bytes?4?6@ 30113768     LIBCMTD:dbgheap.obj
 0003:00014790       ??_C@_0BO@DACNIABB@?$CFId?5bytes?5in?5?$CFId?5?$CFhs?5Blocks?4?6?$AA@ 30113790     LIBCMTD:dbgheap.obj
 0003:000147b4       ??_C@_1CM@MPNIBKGK@?$AA_?$AAC?$AAr?$AAt?$AAM?$AAe?$AAm?$AAD?$AAu?$AAm?$AAp?$AAS?$AAt?$AAa?$AAt?$AAi?$AAs?$AAt?$AAi?$AAc?$AAs?$AA?$AA@ 301137b4     LIBCMTD:dbgheap.obj
 0003:000147e8       ??_C@_1DK@LFLKFPDA@?$AAo?$AAf?$AAf?$AAs?$AAe?$AAt?$AA?5?$AA?$DN?$AA?$DN?$AA?5?$AA0?$AA?5?$AA?$HM?$AA?$HM?$AA?5?$AAo?$AAf?$AAf?$AAs?$AAe?$AAt?$AA?5?$AA?$DM?$AA?5?$AAs?$AAi?$AAz?$AAe?$AA?$AA@ 301137e8     LIBCMTD:dbgheap.obj
 0003:00014830       ??_C@_1DG@DONCJBBJ@?$AA_?$AAa?$AAl?$AAi?$AAg?$AAn?$AAe?$AAd?$AA_?$AAo?$AAf?$AAf?$AAs?$AAe?$AAt?$AA_?$AAm?$AAa?$AAl?$AAl?$AAo?$AAc?$AA_?$AAd?$AAb?$AAg?$AA?$AA@ 30113830     LIBCMTD:dbgheap.obj
 0003:00014870       ??_C@_1CE@NPMGPNNP@?$AAI?$AAS?$AA_?$AA2?$AA_?$AAP?$AAO?$AAW?$AA_?$AAN?$AA?$CI?$AAa?$AAl?$AAi?$AAg?$AAn?$AA?$CJ?$AA?$AA@ 30113870     LIBCMTD:dbgheap.obj
 0003:0001489c       ??_C@_1DI@NINIKFFK@?$AA_?$AAa?$AAl?$AAi?$AAg?$AAn?$AAe?$AAd?$AA_?$AAo?$AAf?$AAf?$AAs?$AAe?$AAt?$AA_?$AAr?$AAe?$AAa?$AAl?$AAl?$AAo?$AAc?$AA_?$AAd?$AAb?$AAg?$AA?$AA@ 3011389c     LIBCMTD:dbgheap.obj
 0003:000148e0       ??_C@_0DL@PGHMMKNE@Damage?5before?50x?$CFp?5which?5was?5all@ 301138e0     LIBCMTD:dbgheap.obj
 0003:00014928       ??_C@_0EI@NDNJMAJK@The?5block?5at?50x?$CFp?5was?5not?5alloca@ 30113928     LIBCMTD:dbgheap.obj
 0003:00014980       ??_C@_0EF@PGELACII@The?5block?5at?50x?$CFp?5was?5not?5alloca@ 30113980     LIBCMTD:dbgheap.obj
 0003:000149d4       ??_C@_1CG@CEGMHIMN@?$AA_?$AAa?$AAl?$AAi?$AAg?$AAn?$AAe?$AAd?$AA_?$AAm?$AAs?$AAi?$AAz?$AAe?$AA_?$AAd?$AAb?$AAg?$AA?$AA@ 301139d4     LIBCMTD:dbgheap.obj
 0003:00014a04       ??_C@_1CC@MOBIKHH@?$AAm?$AAe?$AAm?$AAb?$AAl?$AAo?$AAc?$AAk?$AA?5?$AA?$CB?$AA?$DN?$AA?5?$AAN?$AAU?$AAL?$AAL?$AA?$AA@ 30113a04     LIBCMTD:dbgheap.obj
 0003:00014a2c       ??_C@_0DA@NBLAKPEL@f?3?2dd?2vctools?2crt_bld?2self_x86?2c@ 30113a2c     LIBCMTD:ioinit.obj
 0003:00014a68       ??_C@_1DE@MMOGFGHF@?$AAs?$AAt?$AAr?$AAc?$AAp?$AAy?$AA_?$AAs?$AA?$CI?$AA?$CK?$AAe?$AAn?$AAv?$AA?0?$AA?5?$AAc?$AAc?$AAh?$AAa?$AAr?$AAs?$AA?0?$AA?5?$AAp?$AA?$CJ?$AA?$AA@ 30113a68     LIBCMTD:stdenvp.obj
 0003:00014aa8       ??_C@_1BC@GHMCNHHL@?$AA_?$AAs?$AAe?$AAt?$AAe?$AAn?$AAv?$AAp?$AA?$AA@ 30113aa8     LIBCMTD:stdenvp.obj
 0003:00014ac0       ??_C@_1GC@DGBFLDBN@?$AAf?$AA?3?$AA?2?$AAd?$AAd?$AA?2?$AAv?$AAc?$AAt?$AAo?$AAo?$AAl?$AAs?$AA?2?$AAc?$AAr?$AAt?$AA_?$AAb?$AAl?$AAd?$AA?2?$AAs?$AAe?$AAl?$AAf?$AA_?$AAx?$AA8?$AA6?$AA?2?$AAc@ 30113ac0     LIBCMTD:stdenvp.obj
 0003:00014b38       ??_C@_0DB@BMEBJJKP@f?3?2dd?2vctools?2crt_bld?2self_x86?2c@ 30113b38     LIBCMTD:stdenvp.obj
 0003:00014b74       ??_C@_0DB@OEPBJOLC@f?3?2dd?2vctools?2crt_bld?2self_x86?2c@ 30113b74     LIBCMTD:stdargv.obj
 0003:00014bb0       ??_C@_0CP@PPLBCJDN@f?3?2dd?2vctools?2crt_bld?2self_x86?2c@ 30113bb0     LIBCMTD:a_env.obj
 0003:00014be8       ??_C@_1GE@JDDMFOID@?$AAf?$AA?3?$AA?2?$AAd?$AAd?$AA?2?$AAv?$AAc?$AAt?$AAo?$AAo?$AAl?$AAs?$AA?2?$AAc?$AAr?$AAt?$AA_?$AAb?$AAl?$AAd?$AA?2?$AAs?$AAe?$AAl?$AAf?$AA_?$AAx?$AA8?$AA6?$AA?2?$AAc@ 30113be8     LIBCMTD:heapinit.obj
 0003:00014c60       ??_C@_1BC@DENNNKIM@?$AA_?$AAc?$AAr?$AAt?$AAh?$AAe?$AAa?$AAp?$AA?$AA@ 30113c60     LIBCMTD:heapinit.obj
 0003:00014c78       __XcptActTab               30113c78     LIBCMTD:winxfltr.obj
 0003:00014d08       __First_FPE_Indx           30113d08     LIBCMTD:winxfltr.obj
 0003:00014d0c       __Num_FPE                  30113d0c     LIBCMTD:winxfltr.obj
 0003:00014d10       __XcptActTabSize           30113d10     LIBCMTD:winxfltr.obj
 0003:00014d14       __XcptActTabCount          30113d14     LIBCMTD:winxfltr.obj
 0003:00014d38       ??_C@_1BK@CDOALEA@?$AA_?$AAc?$AAo?$AAn?$AAt?$AAr?$AAo?$AAl?$AAf?$AAp?$AA_?$AAs?$AA?$AA@ 30113d38     LIBCMTD:_contrlfp_.obj
 0003:00014d58       ??_C@_1HI@JIOCECAH@?$AAf?$AA?3?$AA?2?$AAd?$AAd?$AA?2?$AAv?$AAc?$AAt?$AAo?$AAo?$AAl?$AAs?$AA?2?$AAc?$AAr?$AAt?$AA_?$AAb?$AAl?$AAd?$AA?2?$AAs?$AAe?$AAl?$AAf?$AA_?$AAx?$AA8?$AA6?$AA?2?$AAc@ 30113d58     LIBCMTD:_contrlfp_.obj
 0003:00014de8       ??_C@_1DG@JNDMIEJL@?$AA?$CI?$AA?$CC?$AAI?$AAn?$AAv?$AAa?$AAl?$AAi?$AAd?$AA?5?$AAi?$AAn?$AAp?$AAu?$AAt?$AA?5?$AAv?$AAa?$AAl?$AAu?$AAe?$AA?$CC?$AA?0?$AA?5?$AA0?$AA?$CJ?$AA?$AA@ 30113de8     LIBCMTD:_contrlfp_.obj
 0003:00014e28       ??_C@_1BK@CLIEHFDF@?$AAp?$AAf?$AAl?$AAt?$AA?5?$AA?$CB?$AA?$DN?$AA?5?$AAN?$AAU?$AAL?$AAL?$AA?$AA@ 30113e28     LIBCMTD:_fptostr.obj
 0003:00014e48       ??_C@_1GM@CEDLGDDI@?$AAs?$AAi?$AAz?$AAe?$AAI?$AAn?$AAB?$AAy?$AAt?$AAe?$AAs?$AA?5?$AA?$DO?$AA?5?$AA?$CI?$AAs?$AAi?$AAz?$AAe?$AA_?$AAt?$AA?$CJ?$AA?$CI?$AA?$CI?$AAd?$AAi?$AAg?$AAi?$AAt?$AAs?$AA?5?$AA?$DO@ 30113e48     LIBCMTD:_fptostr.obj
 0003:00014ecc       ??_C@_1BC@OPALLEB@?$AA_?$AAf?$AAp?$AAt?$AAo?$AAs?$AAt?$AAr?$AA?$AA@ 30113ecc     LIBCMTD:_fptostr.obj
 0003:00014ee8       ??_C@_1GE@BDKOPHIO@?$AAf?$AA?3?$AA?2?$AAd?$AAd?$AA?2?$AAv?$AAc?$AAt?$AAo?$AAo?$AAl?$AAs?$AA?2?$AAc?$AAr?$AAt?$AA_?$AAb?$AAl?$AAd?$AA?2?$AAs?$AAe?$AAl?$AAf?$AA_?$AAx?$AA8?$AA6?$AA?2?$AAc@ 30113ee8     LIBCMTD:_fptostr.obj
 0003:00014f60       ??_C@_1FK@KODCOBKF@?$AAs?$AAt?$AAr?$AAc?$AAp?$AAy?$AA_?$AAs?$AA?$CI?$AAr?$AAe?$AAs?$AAu?$AAl?$AAt?$AAs?$AAt?$AAr?$AA?0?$AA?5?$AAr?$AAe?$AAs?$AAu?$AAl?$AAt?$AAs?$AAi?$AAz?$AAe?$AA?0?$AA?5@ 30113f60     LIBCMTD:_cfout_.obj
 0003:00014fcc       ??_C@_1BC@BPMMEHLK@?$AA_?$AAf?$AAl?$AAt?$AAo?$AAu?$AAt?$AA2?$AA?$AA@ 30113fcc     LIBCMTD:_cfout_.obj
 0003:00014fe8       ??_C@_1HC@PKFDNKN@?$AAf?$AA?3?$AA?2?$AAd?$AAd?$AA?2?$AAv?$AAc?$AAt?$AAo?$AAo?$AAl?$AAs?$AA?2?$AAc?$AAr?$AAt?$AA_?$AAb?$AAl?$AAd?$AA?2?$AAs?$AAe?$AAl?$AAf?$AA_?$AAx?$AA8?$AA6?$AA?2?$AAc@ 30113fe8     LIBCMTD:_cfout_.obj
 0003:00015070       ??_C@_1CG@EBJECAJM@?$AA_?$AAs?$AAe?$AAt?$AA_?$AAo?$AAu?$AAt?$AAp?$AAu?$AAt?$AA_?$AAf?$AAo?$AAr?$AAm?$AAa?$AAt?$AA?$AA@ 30114070     LIBCMTD:outputformat.obj
 0003:000150a0       ??_C@_1GM@NFGGJJCM@?$AAf?$AA?3?$AA?2?$AAd?$AAd?$AA?2?$AAv?$AAc?$AAt?$AAo?$AAo?$AAl?$AAs?$AA?2?$AAc?$AAr?$AAt?$AA_?$AAb?$AAl?$AAd?$AA?2?$AAs?$AAe?$AAl?$AAf?$AA_?$AAx?$AA8?$AA6?$AA?2?$AAc@ 301140a0     LIBCMTD:outputformat.obj
 0003:00015128       ??_C@_1EM@EGEEBJLG@?$AA?$CI?$AAo?$AAp?$AAt?$AAi?$AAo?$AAn?$AAs?$AA?5?$AA?$CG?$AA?5?$AA?$HO?$AA_?$AAT?$AAW?$AAO?$AA_?$AAD?$AAI?$AAG?$AAI?$AAT?$AA_?$AAE?$AAX?$AAP?$AAO?$AAN?$AAE?$AAN?$AAT?$AA?$CJ@ 30114128     LIBCMTD:outputformat.obj
 0003:00015184       ??_C@_1BC@CFJEPFGF@?$AAs?$AAt?$AAr?$AAc?$AAp?$AAy?$AA_?$AAs?$AA?$AA@ 30114184     LIBCMTD:strcpy_s.obj
 0003:000151a0       ??_C@_1FC@NCPEPIBI@?$AA?$CI?$AA?$CI?$AA_?$AAD?$AAs?$AAt?$AA?$CJ?$AA?$CJ?$AA?5?$AA?$CB?$AA?$DN?$AA?5?$AAN?$AAU?$AAL?$AAL?$AA?5?$AA?$CG?$AA?$CG?$AA?5?$AA?$CI?$AA?$CI?$AA_?$AAS?$AAi?$AAz?$AAe?$AAI?$AAn?$AAB?$AAy?$AAt@ 301141a0     LIBCMTD:strcpy_s.obj
 0003:00015204       ??_C@_0CP@MKONOLCI@f?3?2dd?2vctools?2crt_bld?2self_x86?2c@ 30114204     LIBCMTD:mlock.obj
 0003:00015240       ??_C@_1NK@LOFHIHFC@?$AAf?$AAM?$AAo?$AAd?$AAe?$AA?5?$AA?$DN?$AA?$DN?$AA?5?$AA_?$AAC?$AAR?$AAT?$AAD?$AAB?$AAG?$AA_?$AAR?$AAE?$AAP?$AAO?$AAR?$AAT?$AA_?$AAM?$AAO?$AAD?$AAE?$AA?5?$AA?$HM?$AA?$HM?$AA?5@ 30114240     LIBCMTD:dbgrptt.obj
 0003:00015348       ??_C@_1CE@FIHIECNJ@?$AA_?$AAC?$AAr?$AAt?$AAS?$AAe?$AAt?$AAR?$AAe?$AAp?$AAo?$AAr?$AAt?$AAM?$AAo?$AAd?$AAe?$AA?$AA@ 30114348     LIBCMTD:dbgrptt.obj
 0003:00015378       ??_C@_1GC@FIGJJMEN@?$AAf?$AA?3?$AA?2?$AAd?$AAd?$AA?2?$AAv?$AAc?$AAt?$AAo?$AAo?$AAl?$AAs?$AA?2?$AAc?$AAr?$AAt?$AA_?$AAb?$AAl?$AAd?$AA?2?$AAs?$AAe?$AAl?$AAf?$AA_?$AAx?$AA8?$AA6?$AA?2?$AAc@ 30114378     LIBCMTD:dbgrptt.obj
 0003:000153f0       ??_C@_1FA@IFFFOLDJ@?$AAn?$AAR?$AAp?$AAt?$AAT?$AAy?$AAp?$AAe?$AA?5?$AA?$DO?$AA?$DN?$AA?5?$AA0?$AA?5?$AA?$CG?$AA?$CG?$AA?5?$AAn?$AAR?$AAp?$AAt?$AAT?$AAy?$AAp?$AAe?$AA?5?$AA?$DM?$AA?5?$AA_?$AAC?$AAR?$AAT@ 301143f0     LIBCMTD:dbgrptt.obj
 0003:00015450       ??_C@_1CE@IKKEDCME@?$AA_?$AAC?$AAr?$AAt?$AAS?$AAe?$AAt?$AAR?$AAe?$AAp?$AAo?$AAr?$AAt?$AAF?$AAi?$AAl?$AAe?$AA?$AA@ 30114450     LIBCMTD:dbgrptt.obj
 0003:00015480       ??_C@_1HO@PJOFIKFE@?$AA_?$AAC?$AAr?$AAt?$AAD?$AAb?$AAg?$AAR?$AAe?$AAp?$AAo?$AAr?$AAt?$AA?3?$AA?5?$AAS?$AAt?$AAr?$AAi?$AAn?$AAg?$AA?5?$AAt?$AAo?$AAo?$AA?5?$AAl?$AAo?$AAn?$AAg?$AA?5?$AAo@ 30114480     LIBCMTD:dbgrptt.obj
 0003:00015518       ??_C@_1MC@IGEECMDB@?$AAw?$AAc?$AAs?$AAc?$AAp?$AAy?$AA_?$AAs?$AA?$CI?$AAs?$AAz?$AAO?$AAu?$AAt?$AAM?$AAe?$AAs?$AAs?$AAa?$AAg?$AAe?$AA2?$AA?0?$AA?5?$AA4?$AA0?$AA9?$AA6?$AA?0?$AA?5?$AAL?$AA?$CC@ 30114518     LIBCMTD:dbgrptt.obj
 0003:00015600       ??_C@_1IM@OOKIFKOH@?$AAe?$AA?5?$AA?$DN?$AA?5?$AAm?$AAb?$AAs?$AAt?$AAo?$AAw?$AAc?$AAs?$AA_?$AAs?$AA?$CI?$AA?$CG?$AAr?$AAe?$AAt?$AA?0?$AA?5?$AAs?$AAz?$AAO?$AAu?$AAt?$AAM?$AAe?$AAs?$AAs?$AAa?$AAg@ 30114600     LIBCMTD:dbgrptt.obj
 0003:000156a8       ??_C@_1FI@IBIOIHEG@?$AAs?$AAt?$AAr?$AAc?$AAp?$AAy?$AA_?$AAs?$AA?$CI?$AAs?$AAz?$AAO?$AAu?$AAt?$AAM?$AAe?$AAs?$AAs?$AAa?$AAg?$AAe?$AA?0?$AA?5?$AA4?$AA0?$AA9?$AA6?$AA?0?$AA?5?$AAs?$AAz?$AAL@ 301146a8     LIBCMTD:dbgrptt.obj
 0003:00015718       ??_C@_1JG@CPKCIOEE@?$AAs?$AAt?$AAr?$AAc?$AAp?$AAy?$AA_?$AAs?$AA?$CI?$AAs?$AAz?$AAO?$AAu?$AAt?$AAM?$AAe?$AAs?$AAs?$AAa?$AAg?$AAe?$AA?0?$AA?5?$AA4?$AA0?$AA9?$AA6?$AA?0?$AA?5?$AA?$CC?$AA_?$AAC@ 30114718     LIBCMTD:dbgrptt.obj
 0003:000157cc       ??_C@_0M@IPILFDFN@?$CFs?$CI?$CFd?$CJ?5?3?5?$CFs?$AA@ 301147cc     LIBCMTD:dbgrptt.obj
 0003:000157e0       ??_C@_1EI@LDHJEDO@?$AAs?$AAt?$AAr?$AAc?$AAa?$AAt?$AA_?$AAs?$AA?$CI?$AAs?$AAz?$AAL?$AAi?$AAn?$AAe?$AAM?$AAe?$AAs?$AAs?$AAa?$AAg?$AAe?$AA?0?$AA?5?$AA4?$AA0?$AA9?$AA6?$AA?0?$AA?5?$AA?$CC?$AA?2@ 301147e0     LIBCMTD:dbgrptt.obj
 0003:00015838       ??_C@_01LIIJDEN@?$AN?$AA@  30114838     LIBCMTD:dbgrptt.obj
 0003:00015840       ??_C@_1EI@CACDLAFK@?$AAs?$AAt?$AAr?$AAc?$AAa?$AAt?$AA_?$AAs?$AA?$CI?$AAs?$AAz?$AAL?$AAi?$AAn?$AAe?$AAM?$AAe?$AAs?$AAs?$AAa?$AAg?$AAe?$AA?0?$AA?5?$AA4?$AA0?$AA9?$AA6?$AA?0?$AA?5?$AA?$CC?$AA?2@ 30114840     LIBCMTD:dbgrptt.obj
 0003:00015898       ??_C@_1FK@NPGBPOFO@?$AAs?$AAt?$AAr?$AAc?$AAa?$AAt?$AA_?$AAs?$AA?$CI?$AAs?$AAz?$AAL?$AAi?$AAn?$AAe?$AAM?$AAe?$AAs?$AAs?$AAa?$AAg?$AAe?$AA?0?$AA?5?$AA4?$AA0?$AA9?$AA6?$AA?0?$AA?5?$AAs?$AAz@ 30114898     LIBCMTD:dbgrptt.obj
 0003:00015908       ??_C@_1KK@GIGAEDMO@?$AAs?$AAt?$AAr?$AAc?$AAp?$AAy?$AA_?$AAs?$AA?$CI?$AAs?$AAz?$AAL?$AAi?$AAn?$AAe?$AAM?$AAe?$AAs?$AAs?$AAa?$AAg?$AAe?$AA?0?$AA?5?$AA4?$AA0?$AA9?$AA6?$AA?0?$AA?5?$AAs?$AAz@ 30114908     LIBCMTD:dbgrptt.obj
 0003:000159d4       ??_C@_0BC@LAIDCHCH@Assertion?5failed?$CB?$AA@ 301149d4     LIBCMTD:dbgrptt.obj
 0003:000159ec       ??_C@_0BD@CAENFOHP@Assertion?5failed?3?5?$AA@ 301149ec     LIBCMTD:dbgrptt.obj
 0003:00015a04       ??_C@_0CL@EACFGMNB@_CrtDbgReport?3?5String?5too?5long?5o@ 30114a04     LIBCMTD:dbgrptt.obj
 0003:00015a38       ??_C@_1JI@GAALPGBM@?$AAs?$AAt?$AAr?$AAc?$AAp?$AAy?$AA_?$AAs?$AA?$CI?$AAs?$AAz?$AAU?$AAs?$AAe?$AAr?$AAM?$AAe?$AAs?$AAs?$AAa?$AAg?$AAe?$AA?0?$AA?5?$AA4?$AA0?$AA9?$AA6?$AA?0?$AA?5?$AA?$CC?$AA_@ 30114a38     LIBCMTD:dbgrptt.obj
 0003:00015af0       ??_C@_01EEMJAFIK@?6?$AA@   30114af0     LIBCMTD:dbgrptt.obj
 0003:00015af4       ??_C@_07BHGABMGB@?0?5Line?5?$AA@ 30114af4     LIBCMTD:dbgrptt.obj
 0003:00015b00       ??_C@_0P@DFJNDPOP@?$DMfile?5unknown?$DO?$AA@ 30114b00     LIBCMTD:dbgrptt.obj
 0003:00015b14       ??_C@_0CG@BNGLOCEO@Second?5Chance?5Assertion?5Failed?3?5@ 30114b14     LIBCMTD:dbgrptt.obj
 0003:00015b48       ??_C@_1FA@JPHJBHEM@?$AA_?$AAi?$AAt?$AAo?$AAa?$AA_?$AAs?$AA?$CI?$AAn?$AAL?$AAi?$AAn?$AAe?$AA?0?$AA?5?$AAs?$AAz?$AAL?$AAi?$AAn?$AAe?$AAM?$AAe?$AAs?$AAs?$AAa?$AAg?$AAe?$AA?0?$AA?5?$AA4?$AA0@ 30114b48     LIBCMTD:dbgrptt.obj
 0003:00015ba8       ??_C@_1CA@KHJHLKA@?$AA_?$AAV?$AAC?$AAr?$AAt?$AAD?$AAb?$AAg?$AAR?$AAe?$AAp?$AAo?$AAr?$AAt?$AAA?$AA?$AA@ 30114ba8     LIBCMTD:dbgrptt.obj
 0003:00015bd0       ??_C@_1IE@CPGKIAGP@?$AAw?$AAc?$AAs?$AAt?$AAo?$AAm?$AAb?$AAs?$AA_?$AAs?$AA?$CI?$AA?$CG?$AAr?$AAe?$AAt?$AA?0?$AA?5?$AAs?$AAz?$AAa?$AAO?$AAu?$AAt?$AAM?$AAe?$AAs?$AAs?$AAa?$AAg?$AAe?$AA?0?$AA?5@ 30114bd0     LIBCMTD:dbgrptt.obj
 0003:00015c70       ??_C@_0DP@GNPEPHJD@_CrtDbgReport?3?5String?5too?5long?5o@ 30114c70     LIBCMTD:dbgrptt.obj
 0003:00015cc0       ??_C@_1MA@LBAMNNOB@?$AAs?$AAt?$AAr?$AAc?$AAp?$AAy?$AA_?$AAs?$AA?$CI?$AAs?$AAz?$AAO?$AAu?$AAt?$AAM?$AAe?$AAs?$AAs?$AAa?$AAg?$AAe?$AA2?$AA?0?$AA?5?$AA4?$AA0?$AA9?$AA6?$AA?0?$AA?5?$AA?$CC?$AA_@ 30114cc0     LIBCMTD:dbgrptt.obj
 0003:00015da8       ??_C@_1JC@EOAPFDLN@?$AAw?$AAc?$AAs?$AAt?$AAo?$AAm?$AAb?$AAs?$AA_?$AAs?$AA?$CI?$AA?$CI?$AA?$CI?$AAv?$AAo?$AAi?$AAd?$AA?5?$AA?$CK?$AA?$CJ?$AA0?$AA?$CJ?$AA?0?$AA?5?$AAs?$AAz?$AAO?$AAu?$AAt?$AAM?$AAe?$AAs@ 30114da8     LIBCMTD:dbgrptt.obj
 0003:00015e58       ??_C@_1FI@DBAIJPJE@?$AAw?$AAc?$AAs?$AAc?$AAp?$AAy?$AA_?$AAs?$AA?$CI?$AAs?$AAz?$AAO?$AAu?$AAt?$AAM?$AAe?$AAs?$AAs?$AAa?$AAg?$AAe?$AA?0?$AA?5?$AA4?$AA0?$AA9?$AA6?$AA?0?$AA?5?$AAs?$AAz?$AAL@ 30114e58     LIBCMTD:dbgrptt.obj
 0003:00015ec4       ??_C@_1BI@JIDBEPIG@?$AA?$CF?$AAs?$AA?$CI?$AA?$CF?$AAd?$AA?$CJ?$AA?5?$AA?3?$AA?5?$AA?$CF?$AAs?$AA?$AA@ 30114ec4     LIBCMTD:dbgrptt.obj
 0003:00015ee0       ??_C@_1EK@PHCBEDKB@?$AAw?$AAc?$AAs?$AAc?$AAa?$AAt?$AA_?$AAs?$AA?$CI?$AAs?$AAz?$AAL?$AAi?$AAn?$AAe?$AAM?$AAe?$AAs?$AAs?$AAa?$AAg?$AAe?$AA?0?$AA?5?$AA4?$AA0?$AA9?$AA6?$AA?0?$AA?5?$AAL?$AA?$CC@ 30114ee0     LIBCMTD:dbgrptt.obj
 0003:00015f38       ??_C@_13CMNBPIDO@?$AA?$AN?$AA?$AA@ 30114f38     LIBCMTD:dbgrptt.obj
 0003:00015f40       ??_C@_1EK@NMDFGHMF@?$AAw?$AAc?$AAs?$AAc?$AAa?$AAt?$AA_?$AAs?$AA?$CI?$AAs?$AAz?$AAL?$AAi?$AAn?$AAe?$AAM?$AAe?$AAs?$AAs?$AAa?$AAg?$AAe?$AA?0?$AA?5?$AA4?$AA0?$AA9?$AA6?$AA?0?$AA?5?$AAL?$AA?$CC@ 30114f40     LIBCMTD:dbgrptt.obj
 0003:00015f98       ??_C@_1FK@HPADHBBD@?$AAw?$AAc?$AAs?$AAc?$AAa?$AAt?$AA_?$AAs?$AA?$CI?$AAs?$AAz?$AAL?$AAi?$AAn?$AAe?$AAM?$AAe?$AAs?$AAs?$AAa?$AAg?$AAe?$AA?0?$AA?5?$AA4?$AA0?$AA9?$AA6?$AA?0?$AA?5?$AAs?$AAz@ 30114f98     LIBCMTD:dbgrptt.obj
 0003:00016008       ??_C@_1KO@DGAHENCH@?$AAw?$AAc?$AAs?$AAc?$AAp?$AAy?$AA_?$AAs?$AA?$CI?$AAs?$AAz?$AAL?$AAi?$AAn?$AAe?$AAM?$AAe?$AAs?$AAs?$AAa?$AAg?$AAe?$AA?0?$AA?5?$AA4?$AA0?$AA9?$AA6?$AA?0?$AA?5?$AAs?$AAz@ 30115008     LIBCMTD:dbgrptt.obj
 0003:000160d8       ??_C@_1CG@FFFGGODN@?$AAA?$AAs?$AAs?$AAe?$AAr?$AAt?$AAi?$AAo?$AAn?$AA?5?$AAf?$AAa?$AAi?$AAl?$AAe?$AAd?$AA?3?$AA?5?$AA?$AA@ 301150d8     LIBCMTD:dbgrptt.obj
 0003:00016108       ??_C@_1JK@KHFABAEO@?$AAw?$AAc?$AAs?$AAc?$AAp?$AAy?$AA_?$AAs?$AA?$CI?$AAs?$AAz?$AAU?$AAs?$AAe?$AAr?$AAM?$AAe?$AAs?$AAs?$AAa?$AAg?$AAe?$AA?0?$AA?5?$AA4?$AA0?$AA9?$AA6?$AA?0?$AA?5?$AAL?$AA?$CC@ 30115108     LIBCMTD:dbgrptt.obj
 0003:000161c0       ??_C@_1BA@ELMMDCFC@?$AA?0?$AA?5?$AAL?$AAi?$AAn?$AAe?$AA?5?$AA?$AA@ 301151c0     LIBCMTD:dbgrptt.obj
 0003:000161d4       ??_C@_1BO@OCHMLCAG@?$AA?$DM?$AAf?$AAi?$AAl?$AAe?$AA?5?$AAu?$AAn?$AAk?$AAn?$AAo?$AAw?$AAn?$AA?$DO?$AA?$AA@ 301151d4     LIBCMTD:dbgrptt.obj
 0003:000161f8       ??_C@_1EM@MJFLEDMB@?$AAS?$AAe?$AAc?$AAo?$AAn?$AAd?$AA?5?$AAC?$AAh?$AAa?$AAn?$AAc?$AAe?$AA?5?$AAA?$AAs?$AAs?$AAe?$AAr?$AAt?$AAi?$AAo?$AAn?$AA?5?$AAF?$AAa?$AAi?$AAl?$AAe?$AAd?$AA?3?$AA?5@ 301151f8     LIBCMTD:dbgrptt.obj
 0003:00016258       ??_C@_1FA@CNLLOMHI@?$AA_?$AAi?$AAt?$AAo?$AAw?$AA_?$AAs?$AA?$CI?$AAn?$AAL?$AAi?$AAn?$AAe?$AA?0?$AA?5?$AAs?$AAz?$AAL?$AAi?$AAn?$AAe?$AAM?$AAe?$AAs?$AAs?$AAa?$AAg?$AAe?$AA?0?$AA?5?$AA4?$AA0@ 30115258     LIBCMTD:dbgrptt.obj
 0003:000162b8       ??_C@_1CA@HPALHDOD@?$AA_?$AAV?$AAC?$AAr?$AAt?$AAD?$AAb?$AAg?$AAR?$AAe?$AAp?$AAo?$AAr?$AAt?$AAW?$AA?$AA@ 301152b8     LIBCMTD:dbgrptt.obj
 0003:000162e0       ??_C@_1BE@BMIJMLDD@?$AA_?$AAs?$AAw?$AAp?$AAr?$AAi?$AAn?$AAt?$AAf?$AA?$AA@ 301152e0     LIBCMTD:swprintf.obj
 0003:000162f8       ??_C@_1GE@DKGHLBLP@?$AAf?$AA?3?$AA?2?$AAd?$AAd?$AA?2?$AAv?$AAc?$AAt?$AAo?$AAo?$AAl?$AAs?$AA?2?$AAc?$AAr?$AAt?$AA_?$AAb?$AAl?$AAd?$AA?2?$AAs?$AAe?$AAl?$AAf?$AA_?$AAx?$AA8?$AA6?$AA?2?$AAc@ 301152f8     LIBCMTD:swprintf.obj
 0003:00016370       ??_C@_1CK@DDKKOLAN@?$AAs?$AAi?$AAz?$AAe?$AAI?$AAn?$AAB?$AAy?$AAt?$AAe?$AAs?$AA?5?$AA?$DO?$AA?$DN?$AA?5?$AAc?$AAo?$AAu?$AAn?$AAt?$AA?$AA@ 30115370     LIBCMTD:memcpy_s.obj
 0003:000163a4       ??_C@_1BI@DCHLDCPP@?$AAs?$AAr?$AAc?$AA?5?$AA?$CB?$AA?$DN?$AA?5?$AAN?$AAU?$AAL?$AAL?$AA?$AA@ 301153a4     LIBCMTD:memcpy_s.obj
 0003:000163c0       ??_C@_1BC@GKHDJMGB@?$AAm?$AAe?$AAm?$AAc?$AAp?$AAy?$AA_?$AAs?$AA?$AA@ 301153c0     LIBCMTD:memcpy_s.obj
 0003:000163d8       ??_C@_1GE@NEOPGGBM@?$AAf?$AA?3?$AA?2?$AAd?$AAd?$AA?2?$AAv?$AAc?$AAt?$AAo?$AAo?$AAl?$AAs?$AA?2?$AAc?$AAr?$AAt?$AA_?$AAb?$AAl?$AAd?$AA?2?$AAs?$AAe?$AAl?$AAf?$AA_?$AAx?$AA8?$AA6?$AA?2?$AAc@ 301153d8     LIBCMTD:memcpy_s.obj
 0003:00016450       ??_C@_1BI@GKKCBDMD@?$AAd?$AAs?$AAt?$AA?5?$AA?$CB?$AA?$DN?$AA?5?$AAN?$AAU?$AAL?$AAL?$AA?$AA@ 30115450     LIBCMTD:memcpy_s.obj
 0003:00016470       ??_C@_1GE@GJCMHHMH@?$AAf?$AA?3?$AA?2?$AAd?$AAd?$AA?2?$AAv?$AAc?$AAt?$AAo?$AAo?$AAl?$AAs?$AA?2?$AAc?$AAr?$AAt?$AA_?$AAb?$AAl?$AAd?$AA?2?$AAs?$AAe?$AAl?$AAf?$AA_?$AAx?$AA8?$AA6?$AA?2?$AAc@ 30115470     LIBCMTD:inittime.obj
 0003:000164e8       ??_C@_1EE@FDHCFDHN@?$AAp?$AAl?$AAo?$AAc?$AAi?$AA?9?$AA?$DO?$AAl?$AAc?$AA_?$AAt?$AAi?$AAm?$AAe?$AA_?$AAc?$AAu?$AAr?$AAr?$AA?9?$AA?$DO?$AAr?$AAe?$AAf?$AAc?$AAo?$AAu?$AAn?$AAt?$AA?5?$AA?$DO?$AA?5@ 301154e8     LIBCMTD:inittime.obj
 0003:0001653c       ??_C@_0DC@KICHHNFK@f?3?2dd?2vctools?2crt_bld?2self_x86?2c@ 3011553c     LIBCMTD:inittime.obj
 0003:00016578       ??_C@_1GC@EDJOCBCL@?$AAf?$AA?3?$AA?2?$AAd?$AAd?$AA?2?$AAv?$AAc?$AAt?$AAo?$AAo?$AAl?$AAs?$AA?2?$AAc?$AAr?$AAt?$AA_?$AAb?$AAl?$AAd?$AA?2?$AAs?$AAe?$AAl?$AAf?$AA_?$AAx?$AA8?$AA6?$AA?2?$AAc@ 30115578     LIBCMTD:initnum.obj
 0003:000165f0       ??_C@_1DM@IFKAINNE@?$AAp?$AAl?$AAo?$AAc?$AAi?$AA?9?$AA?$DO?$AAl?$AAc?$AAo?$AAn?$AAv?$AA_?$AAn?$AAu?$AAm?$AA_?$AAr?$AAe?$AAf?$AAc?$AAo?$AAu?$AAn?$AAt?$AA?5?$AA?$DO?$AA?5?$AA0?$AA?$AA@ 301155f0     LIBCMTD:initnum.obj
 0003:00016638       ??_C@_0DB@KKFMDHFI@f?3?2dd?2vctools?2crt_bld?2self_x86?2c@ 30115638     LIBCMTD:initnum.obj
 0003:00016678       ??_C@_1GC@IKADOFBJ@?$AAf?$AA?3?$AA?2?$AAd?$AAd?$AA?2?$AAv?$AAc?$AAt?$AAo?$AAo?$AAl?$AAs?$AA?2?$AAc?$AAr?$AAt?$AA_?$AAb?$AAl?$AAd?$AA?2?$AAs?$AAe?$AAl?$AAf?$AA_?$AAx?$AA8?$AA6?$AA?2?$AAc@ 30115678     LIBCMTD:initmon.obj
 0003:000166f0       ??_C@_1DM@GKAPAMDO@?$AAp?$AAl?$AAo?$AAc?$AAi?$AA?9?$AA?$DO?$AAl?$AAc?$AAo?$AAn?$AAv?$AA_?$AAm?$AAo?$AAn?$AA_?$AAr?$AAe?$AAf?$AAc?$AAo?$AAu?$AAn?$AAt?$AA?5?$AA?$DO?$AA?5?$AA0?$AA?$AA@ 301156f0     LIBCMTD:initmon.obj
 0003:00016738       ??_C@_0DB@BECNGFDL@f?3?2dd?2vctools?2crt_bld?2self_x86?2c@ 30115738     LIBCMTD:initmon.obj
 0003:00016778       ___newctype                30115778     LIBCMTD:ctype.obj
 0003:00016a78       __wctype                   30115a78     LIBCMTD:ctype.obj
 0003:00016c80       ___newclmap                30115c80     LIBCMTD:ctype.obj
 0003:00016e00       ___newcumap                30115e00     LIBCMTD:ctype.obj
 0003:00017120       ??_C@_1JE@ECKHFIFP@?$AA?$CI?$AA?$CC?$AAI?$AAn?$AAv?$AAa?$AAl?$AAi?$AAd?$AA?5?$AAf?$AAi?$AAl?$AAe?$AA?5?$AAd?$AAe?$AAs?$AAc?$AAr?$AAi?$AAp?$AAt?$AAo?$AAr?$AA?4?$AA?5?$AAF?$AAi?$AAl?$AAe?$AA?5@ 30116120     LIBCMTD:lseeki64.obj
 0003:000171d4       ??_C@_1CM@OKGMMMDH@?$AA?$CI?$AA_?$AAo?$AAs?$AAf?$AAi?$AAl?$AAe?$AA?$CI?$AAf?$AAh?$AA?$CJ?$AA?5?$AA?$CG?$AA?5?$AAF?$AAO?$AAP?$AAE?$AAN?$AA?$CJ?$AA?$AA@ 301161d4     LIBCMTD:lseeki64.obj
 0003:00017208       ??_C@_1BE@KHFBJMNM@?$AA_?$AAl?$AAs?$AAe?$AAe?$AAk?$AAi?$AA6?$AA4?$AA?$AA@ 30116208     LIBCMTD:lseeki64.obj
 0003:00017220       ??_C@_1GE@MINKPNPH@?$AAf?$AA?3?$AA?2?$AAd?$AAd?$AA?2?$AAv?$AAc?$AAt?$AAo?$AAo?$AAl?$AAs?$AA?2?$AAc?$AAr?$AAt?$AA_?$AAb?$AAl?$AAd?$AA?2?$AAs?$AAe?$AAl?$AAf?$AA_?$AAx?$AA8?$AA6?$AA?2?$AAc@ 30116220     LIBCMTD:lseeki64.obj
 0003:00017298       ??_C@_1FO@LPCLHKGE@?$AA?$CI?$AAf?$AAh?$AA?5?$AA?$DO?$AA?$DN?$AA?5?$AA0?$AA?5?$AA?$CG?$AA?$CG?$AA?5?$AA?$CI?$AAu?$AAn?$AAs?$AAi?$AAg?$AAn?$AAe?$AAd?$AA?$CJ?$AAf?$AAh?$AA?5?$AA?$DM?$AA?5?$AA?$CI?$AAu?$AAn?$AAs?$AAi@ 30116298     LIBCMTD:lseeki64.obj
 0003:00017308       ??_C@_1O@KOFKDHPL@?$AA_?$AAw?$AAr?$AAi?$AAt?$AAe?$AA?$AA@ 30116308     LIBCMTD:write.obj
 0003:00017318       ??_C@_1FO@EPLDPDDL@?$AAf?$AA?3?$AA?2?$AAd?$AAd?$AA?2?$AAv?$AAc?$AAt?$AAo?$AAo?$AAl?$AAs?$AA?2?$AAc?$AAr?$AAt?$AA_?$AAb?$AAl?$AAd?$AA?2?$AAs?$AAe?$AAl?$AAf?$AA_?$AAx?$AA8?$AA6?$AA?2?$AAc@ 30116318     LIBCMTD:write.obj
 0003:00017388       ??_C@_1DI@CNMHHHLG@?$AAi?$AAs?$AAl?$AAe?$AAa?$AAd?$AAb?$AAy?$AAt?$AAe?$AA?$CI?$AA_?$AAd?$AAb?$AAc?$AAs?$AAB?$AAu?$AAf?$AAf?$AAe?$AAr?$AA?$CI?$AAf?$AAh?$AA?$CJ?$AA?$CJ?$AA?$AA@ 30116388     LIBCMTD:write.obj
 0003:000173cc       ??_C@_1CC@EEOLPHGO@?$AA?$CI?$AA?$CI?$AAc?$AAn?$AAt?$AA?5?$AA?$CG?$AA?5?$AA1?$AA?$CJ?$AA?5?$AA?$DN?$AA?$DN?$AA?5?$AA0?$AA?$CJ?$AA?$AA@ 301163cc     LIBCMTD:write.obj
 0003:000173f4       ??_C@_1BM@NCANHCIP@?$AA_?$AAw?$AAr?$AAi?$AAt?$AAe?$AA_?$AAn?$AAo?$AAl?$AAo?$AAc?$AAk?$AA?$AA@ 301163f4     LIBCMTD:write.obj
 0003:00017418       ??_C@_1BM@KFJLMBPG@?$AA?$CI?$AAb?$AAu?$AAf?$AA?5?$AA?$CB?$AA?$DN?$AA?5?$AAN?$AAU?$AAL?$AAL?$AA?$CJ?$AA?$AA@ 30116418     LIBCMTD:write.obj
 0003:0001743c       ??_C@_0DB@JEHOCBEJ@f?3?2dd?2vctools?2crt_bld?2self_x86?2c@ 3011643c     LIBCMTD:_getbuf.obj
 0003:00017478       ??_C@_1GC@DKMGNNCC@?$AAf?$AA?3?$AA?2?$AAd?$AAd?$AA?2?$AAv?$AAc?$AAt?$AAo?$AAo?$AAl?$AAs?$AA?2?$AAc?$AAr?$AAt?$AA_?$AAb?$AAl?$AAd?$AA?2?$AAs?$AAe?$AAl?$AAf?$AA_?$AAx?$AA8?$AA6?$AA?2?$AAc@ 30116478     LIBCMTD:_getbuf.obj
 0003:000174f0       ??_C@_1BA@LEBDGIHM@?$AA_?$AAi?$AAs?$AAa?$AAt?$AAt?$AAy?$AA?$AA@ 301164f0     LIBCMTD:isatty.obj
 0003:00017508       ??_C@_1GA@LPGDJDEN@?$AAf?$AA?3?$AA?2?$AAd?$AAd?$AA?2?$AAv?$AAc?$AAt?$AAo?$AAo?$AAl?$AAs?$AA?2?$AAc?$AAr?$AAt?$AA_?$AAb?$AAl?$AAd?$AA?2?$AAs?$AAe?$AAl?$AAf?$AA_?$AAx?$AA8?$AA6?$AA?2?$AAc@ 30116508     LIBCMTD:isatty.obj
 0003:0001757c       ??_C@_1BA@JGHIEKKM@?$AA_?$AAf?$AAi?$AAl?$AAe?$AAn?$AAo?$AA?$AA@ 3011657c     LIBCMTD:fileno.obj
 0003:00017590       ??_C@_1GA@PBJHELNC@?$AAf?$AA?3?$AA?2?$AAd?$AAd?$AA?2?$AAv?$AAc?$AAt?$AAo?$AAo?$AAl?$AAs?$AA?2?$AAc?$AAr?$AAt?$AA_?$AAb?$AAl?$AAd?$AA?2?$AAs?$AAe?$AAl?$AAf?$AA_?$AAx?$AA8?$AA6?$AA?2?$AAc@ 30116590     LIBCMTD:fileno.obj
 0003:00017604       ??_C@_1O@GKDHFACN@?$AAp?$AAr?$AAi?$AAn?$AAt?$AAf?$AA?$AA@ 30116604     LIBCMTD:printf.obj
 0003:00017618       ??_C@_1GA@LHEGHOAF@?$AAf?$AA?3?$AA?2?$AAd?$AAd?$AA?2?$AAv?$AAc?$AAt?$AAo?$AAo?$AAl?$AAs?$AA?2?$AAc?$AAr?$AAt?$AA_?$AAb?$AAl?$AAd?$AA?2?$AAs?$AAe?$AAl?$AAf?$AA_?$AAx?$AA8?$AA6?$AA?2?$AAc@ 30116618     LIBCMTD:printf.obj
 0003:0001768c       ??_C@_1BI@IEADNOHF@?$AA_?$AAw?$AAc?$AAt?$AAo?$AAm?$AAb?$AA_?$AAs?$AA_?$AAl?$AA?$AA@ 3011668c     LIBCMTD:wctomb.obj
 0003:000176a8       ??_C@_1GA@LDLHPOO@?$AAf?$AA?3?$AA?2?$AAd?$AAd?$AA?2?$AAv?$AAc?$AAt?$AAo?$AAo?$AAl?$AAs?$AA?2?$AAc?$AAr?$AAt?$AA_?$AAb?$AAl?$AAd?$AA?2?$AAs?$AAe?$AAl?$AAf?$AA_?$AAx?$AA8?$AA6?$AA?2?$AAc@ 301166a8     LIBCMTD:wctomb.obj
 0003:0001771c       ??_C@_1CO@HFMIILNF@?$AAs?$AAi?$AAz?$AAe?$AAI?$AAn?$AAB?$AAy?$AAt?$AAe?$AAs?$AA?5?$AA?$DM?$AA?$DN?$AA?5?$AAI?$AAN?$AAT?$AA_?$AAM?$AAA?$AAX?$AA?$AA@ 3011671c     LIBCMTD:wctomb.obj
 0003:00017758       ___lookuptable_s           30116758     LIBCMTD:outputs.obj
 0003:000177c4       ??_C@_1BI@COFBLHCG@?$AA_?$AAo?$AAu?$AAt?$AAp?$AAu?$AAt?$AA_?$AAs?$AA_?$AAl?$AA?$AA@ 301167c4     LIBCMTD:outputs.obj
 0003:000177e0       ??_C@_0DA@HMCPFNKN@f?3?2dd?2vctools?2crt_bld?2self_x86?2c@ 301167e0     LIBCMTD:onexit.obj
 0003:0001781c       ??_C@_1BO@BKOMIGKJ@?$AAr?$AAu?$AAn?$AAt?$AAi?$AAm?$AAe?$AA?5?$AAe?$AAr?$AAr?$AAo?$AAr?$AA?5?$AA?$AA@ 3011681c     LIBCMTD:crt0msg.obj
 0003:00017840       ??_C@_15JNBOKNOG@?$AA?$AN?$AA?6?$AA?$AA@ 30116840     LIBCMTD:crt0msg.obj
 0003:00017848       ??_C@_1BM@JBBEPPHI@?$AAT?$AAL?$AAO?$AAS?$AAS?$AA?5?$AAe?$AAr?$AAr?$AAo?$AAr?$AA?$AN?$AA?6?$AA?$AA@ 30116848     LIBCMTD:crt0msg.obj
 0003:0001786c       ??_C@_1BK@KMOMNAAI@?$AAS?$AAI?$AAN?$AAG?$AA?5?$AAe?$AAr?$AAr?$AAo?$AAr?$AA?$AN?$AA?6?$AA?$AA@ 3011686c     LIBCMTD:crt0msg.obj
 0003:0001788c       ??_C@_1BO@BFCDCGC@?$AAD?$AAO?$AAM?$AAA?$AAI?$AAN?$AA?5?$AAe?$AAr?$AAr?$AAo?$AAr?$AA?$AN?$AA?6?$AA?$AA@ 3011688c     LIBCMTD:crt0msg.obj
 0003:000178b0       ??_C@_1BOO@KGEDBGAJ@?$AAR?$AA6?$AA0?$AA3?$AA3?$AA?$AN?$AA?6?$AA?9?$AA?5?$AAA?$AAt?$AAt?$AAe?$AAm?$AAp?$AAt?$AA?5?$AAt?$AAo?$AA?5?$AAu?$AAs?$AAe?$AA?5?$AAM?$AAS?$AAI?$AAL?$AA?5?$AAc?$AAo?$AAd@ 301168b0     LIBCMTD:crt0msg.obj
 0003:00017b00       ??_C@_1GG@GOPILAJP@?$AAR?$AA6?$AA0?$AA3?$AA2?$AA?$AN?$AA?6?$AA?9?$AA?5?$AAn?$AAo?$AAt?$AA?5?$AAe?$AAn?$AAo?$AAu?$AAg?$AAh?$AA?5?$AAs?$AAp?$AAa?$AAc?$AAe?$AA?5?$AAf?$AAo?$AAr?$AA?5?$AAl?$AAo@ 30116b00     LIBCMTD:crt0msg.obj
 0003:00017b80       ??_C@_1MG@ENCOOIDF@?$AAR?$AA6?$AA0?$AA3?$AA1?$AA?$AN?$AA?6?$AA?9?$AA?5?$AAA?$AAt?$AAt?$AAe?$AAm?$AAp?$AAt?$AA?5?$AAt?$AAo?$AA?5?$AAi?$AAn?$AAi?$AAt?$AAi?$AAa?$AAl?$AAi?$AAz?$AAe?$AA?5?$AAt@ 30116b80     LIBCMTD:crt0msg.obj
 0003:00017c70       ??_C@_1DO@BMFCDCD@?$AAR?$AA6?$AA0?$AA3?$AA0?$AA?$AN?$AA?6?$AA?9?$AA?5?$AAC?$AAR?$AAT?$AA?5?$AAn?$AAo?$AAt?$AA?5?$AAi?$AAn?$AAi?$AAt?$AAi?$AAa?$AAl?$AAi?$AAz?$AAe?$AAd?$AA?$AN?$AA?6?$AA?$AA@ 30116c70     LIBCMTD:crt0msg.obj
 0003:00017cc0       ??_C@_1EK@HHFLMAOL@?$AAR?$AA6?$AA0?$AA2?$AA8?$AA?$AN?$AA?6?$AA?9?$AA?5?$AAu?$AAn?$AAa?$AAb?$AAl?$AAe?$AA?5?$AAt?$AAo?$AA?5?$AAi?$AAn?$AAi?$AAt?$AAi?$AAa?$AAl?$AAi?$AAz?$AAe?$AA?5?$AAh?$AAe@ 30116cc0     LIBCMTD:crt0msg.obj
 0003:00017d18       ??_C@_1GK@MFGOKLAG@?$AAR?$AA6?$AA0?$AA2?$AA7?$AA?$AN?$AA?6?$AA?9?$AA?5?$AAn?$AAo?$AAt?$AA?5?$AAe?$AAn?$AAo?$AAu?$AAg?$AAh?$AA?5?$AAs?$AAp?$AAa?$AAc?$AAe?$AA?5?$AAf?$AAo?$AAr?$AA?5?$AAl?$AAo@ 30116d18     LIBCMTD:crt0msg.obj
 0003:00017d98       ??_C@_1GK@MCAAGJMO@?$AAR?$AA6?$AA0?$AA2?$AA6?$AA?$AN?$AA?6?$AA?9?$AA?5?$AAn?$AAo?$AAt?$AA?5?$AAe?$AAn?$AAo?$AAu?$AAg?$AAh?$AA?5?$AAs?$AAp?$AAa?$AAc?$AAe?$AA?5?$AAf?$AAo?$AAr?$AA?5?$AAs?$AAt@ 30116d98     LIBCMTD:crt0msg.obj
 0003:00017e18       ??_C@_1EM@MAADIHMB@?$AAR?$AA6?$AA0?$AA2?$AA5?$AA?$AN?$AA?6?$AA?9?$AA?5?$AAp?$AAu?$AAr?$AAe?$AA?5?$AAv?$AAi?$AAr?$AAt?$AAu?$AAa?$AAl?$AA?5?$AAf?$AAu?$AAn?$AAc?$AAt?$AAi?$AAo?$AAn?$AA?5?$AAc@ 30116e18     LIBCMTD:crt0msg.obj
 0003:00017e78       ??_C@_1GK@FHCKBEFA@?$AAR?$AA6?$AA0?$AA2?$AA4?$AA?$AN?$AA?6?$AA?9?$AA?5?$AAn?$AAo?$AAt?$AA?5?$AAe?$AAn?$AAo?$AAu?$AAg?$AAh?$AA?5?$AAs?$AAp?$AAa?$AAc?$AAe?$AA?5?$AAf?$AAo?$AAr?$AA?5?$AA_?$AAo@ 30116e78     LIBCMTD:crt0msg.obj
 0003:00017ef8       ??_C@_1FC@ECHBIFBC@?$AAR?$AA6?$AA0?$AA1?$AA9?$AA?$AN?$AA?6?$AA?9?$AA?5?$AAu?$AAn?$AAa?$AAb?$AAl?$AAe?$AA?5?$AAt?$AAo?$AA?5?$AAo?$AAp?$AAe?$AAn?$AA?5?$AAc?$AAo?$AAn?$AAs?$AAo?$AAl?$AAe?$AA?5@ 30116ef8     LIBCMTD:crt0msg.obj
 0003:00017f60       ??_C@_1EC@JIBHAOPH@?$AAR?$AA6?$AA0?$AA1?$AA8?$AA?$AN?$AA?6?$AA?9?$AA?5?$AAu?$AAn?$AAe?$AAx?$AAp?$AAe?$AAc?$AAt?$AAe?$AAd?$AA?5?$AAh?$AAe?$AAa?$AAp?$AA?5?$AAe?$AAr?$AAr?$AAo?$AAr?$AA?$AN?$AA?6@ 30116f60     LIBCMTD:crt0msg.obj
 0003:00017fb0       ??_C@_1FK@BEOGODMC@?$AAR?$AA6?$AA0?$AA1?$AA7?$AA?$AN?$AA?6?$AA?9?$AA?5?$AAu?$AAn?$AAe?$AAx?$AAp?$AAe?$AAc?$AAt?$AAe?$AAd?$AA?5?$AAm?$AAu?$AAl?$AAt?$AAi?$AAt?$AAh?$AAr?$AAe?$AAa?$AAd?$AA?5@ 30116fb0     LIBCMTD:crt0msg.obj
 0003:00018020       ??_C@_1FI@LOGNIKDM@?$AAR?$AA6?$AA0?$AA1?$AA6?$AA?$AN?$AA?6?$AA?9?$AA?5?$AAn?$AAo?$AAt?$AA?5?$AAe?$AAn?$AAo?$AAu?$AAg?$AAh?$AA?5?$AAs?$AAp?$AAa?$AAc?$AAe?$AA?5?$AAf?$AAo?$AAr?$AA?5?$AAt?$AAh@ 30117020     LIBCMTD:crt0msg.obj
 0003:00018090       ??_C@_1EG@BEHAGFJD@?$AAR?$AA6?$AA0?$AA1?$AA0?$AA?$AN?$AA?6?$AA?9?$AA?5?$AAa?$AAb?$AAo?$AAr?$AAt?$AA?$CI?$AA?$CJ?$AA?5?$AAh?$AAa?$AAs?$AA?5?$AAb?$AAe?$AAe?$AAn?$AA?5?$AAc?$AAa?$AAl?$AAl?$AAe?$AAd@ 30117090     LIBCMTD:crt0msg.obj
 0003:000180e8       ??_C@_1FI@HONFMGBI@?$AAR?$AA6?$AA0?$AA0?$AA9?$AA?$AN?$AA?6?$AA?9?$AA?5?$AAn?$AAo?$AAt?$AA?5?$AAe?$AAn?$AAo?$AAu?$AAg?$AAh?$AA?5?$AAs?$AAp?$AAa?$AAc?$AAe?$AA?5?$AAf?$AAo?$AAr?$AA?5?$AAe?$AAn@ 301170e8     LIBCMTD:crt0msg.obj
 0003:00018158       ??_C@_1FE@LLNEDJMD@?$AAR?$AA6?$AA0?$AA0?$AA8?$AA?$AN?$AA?6?$AA?9?$AA?5?$AAn?$AAo?$AAt?$AA?5?$AAe?$AAn?$AAo?$AAu?$AAg?$AAh?$AA?5?$AAs?$AAp?$AAa?$AAc?$AAe?$AA?5?$AAf?$AAo?$AAr?$AA?5?$AAa?$AAr@ 30117158     LIBCMTD:crt0msg.obj
 0003:000181c0       ??_C@_1FK@PGACCAFB@?$AAR?$AA6?$AA0?$AA0?$AA2?$AA?$AN?$AA?6?$AA?9?$AA?5?$AAf?$AAl?$AAo?$AAa?$AAt?$AAi?$AAn?$AAg?$AA?5?$AAp?$AAo?$AAi?$AAn?$AAt?$AA?5?$AAs?$AAu?$AAp?$AAp?$AAo?$AAr?$AAt?$AA?5@ 301171c0     LIBCMTD:crt0msg.obj
 0003:00018308       ??_C@_1IG@NMONDPP@?$AAw?$AAc?$AAs?$AAc?$AAa?$AAt?$AA_?$AAs?$AA?$CI?$AAo?$AAu?$AAt?$AAm?$AAs?$AAg?$AA?0?$AA?5?$AA?$CI?$AAs?$AAi?$AAz?$AAe?$AAo?$AAf?$AA?$CI?$AAo?$AAu?$AAt?$AAm?$AAs?$AAg?$AA?$CJ@ 30117308     LIBCMTD:crt0msg.obj
 0003:000183a8       ??_C@_1IA@DCJGKHFO@?$AAw?$AAc?$AAs?$AAc?$AAa?$AAt?$AA_?$AAs?$AA?$CI?$AAo?$AAu?$AAt?$AAm?$AAs?$AAg?$AA?0?$AA?5?$AA?$CI?$AAs?$AAi?$AAz?$AAe?$AAo?$AAf?$AA?$CI?$AAo?$AAu?$AAt?$AAm?$AAs?$AAg?$AA?$CJ@ 301173a8     LIBCMTD:crt0msg.obj
 0003:00018448       ??_C@_1HI@FLHKGEBE@?$AAw?$AAc?$AAs?$AAn?$AAc?$AAp?$AAy?$AA_?$AAs?$AA?$CI?$AAp?$AAc?$AAh?$AA?0?$AA?5?$AAp?$AAr?$AAo?$AAg?$AAn?$AAa?$AAm?$AAe?$AA_?$AAs?$AAi?$AAz?$AAe?$AA?5?$AA?9?$AA?5?$AA?$CI@ 30117448     LIBCMTD:crt0msg.obj
 0003:000184d8       ??_C@_1HK@FJJNAABO@?$AAw?$AAc?$AAs?$AAc?$AAp?$AAy?$AA_?$AAs?$AA?$CI?$AAp?$AAr?$AAo?$AAg?$AAn?$AAa?$AAm?$AAe?$AA?0?$AA?5?$AAp?$AAr?$AAo?$AAg?$AAn?$AAa?$AAm?$AAe?$AA_?$AAs?$AAi?$AAz?$AAe@ 301174d8     LIBCMTD:crt0msg.obj
 0003:0001856c       ??_C@_1DE@JNGNBFGO@?$AAR?$AAu?$AAn?$AAt?$AAi?$AAm?$AAe?$AA?5?$AAE?$AAr?$AAr?$AAo?$AAr?$AA?$CB?$AA?6?$AA?6?$AAP?$AAr?$AAo?$AAg?$AAr?$AAa?$AAm?$AA?3?$AA?5?$AA?$AA@ 3011756c     LIBCMTD:crt0msg.obj
 0003:000185b0       ??_C@_1KO@BKLCKNFL@?$AAw?$AAc?$AAs?$AAc?$AAp?$AAy?$AA_?$AAs?$AA?$CI?$AAo?$AAu?$AAt?$AAm?$AAs?$AAg?$AA?0?$AA?5?$AA?$CI?$AAs?$AAi?$AAz?$AAe?$AAo?$AAf?$AA?$CI?$AAo?$AAu?$AAt?$AAm?$AAs?$AAg?$AA?$CJ@ 301175b0     LIBCMTD:crt0msg.obj
 0003:00018680       ??_C@_1BI@EAHMBMEC@?$AA_?$AAN?$AAM?$AAS?$AAG?$AA_?$AAW?$AAR?$AAI?$AAT?$AAE?$AA?$AA@ 30117680     LIBCMTD:crt0msg.obj
 0003:000186a0       ??_C@_1GC@HKOJBOFF@?$AAf?$AA?3?$AA?2?$AAd?$AAd?$AA?2?$AAv?$AAc?$AAt?$AAo?$AAo?$AAl?$AAs?$AA?2?$AAc?$AAr?$AAt?$AA_?$AAb?$AAl?$AAd?$AA?2?$AAs?$AAe?$AAl?$AAf?$AA_?$AAx?$AA8?$AA6?$AA?2?$AAc@ 301176a0     LIBCMTD:crt0msg.obj
 0003:00018718       ??_C@_0BC@JEAENNKH@SystemFunction036?$AA@ 30117718     LIBCMTD:rand_s.obj
 0003:00018730       ??_C@_1GA@EBEDGGGB@?$AA?$CI?$AA?$CC?$AAr?$AAa?$AAn?$AAd?$AA_?$AAs?$AA?5?$AAi?$AAs?$AA?5?$AAn?$AAo?$AAt?$AA?5?$AAa?$AAv?$AAa?$AAi?$AAl?$AAa?$AAb?$AAl?$AAe?$AA?5?$AAo?$AAn?$AA?5?$AAt?$AAh?$AAi@ 30117730     LIBCMTD:rand_s.obj
 0003:000187a4       ??_C@_1BK@GAEMIDIL@?$AAA?$AAD?$AAV?$AAA?$AAP?$AAI?$AA3?$AA2?$AA?4?$AAD?$AAL?$AAL?$AA?$AA@ 301177a4     LIBCMTD:rand_s.obj
 0003:000187c4       ??_C@_1O@IJGPPOGF@?$AAr?$AAa?$AAn?$AAd?$AA_?$AAs?$AA?$AA@ 301177c4     LIBCMTD:rand_s.obj
 0003:000187d8       ??_C@_1GA@HBGBBKCD@?$AAf?$AA?3?$AA?2?$AAd?$AAd?$AA?2?$AAv?$AAc?$AAt?$AAo?$AAo?$AAl?$AAs?$AA?2?$AAc?$AAr?$AAt?$AA_?$AAb?$AAl?$AAd?$AA?2?$AAs?$AAe?$AAl?$AAf?$AA_?$AAx?$AA8?$AA6?$AA?2?$AAc@ 301177d8     LIBCMTD:rand_s.obj
 0003:0001884c       ??_C@_1CK@GFDNDKK@?$AA_?$AAR?$AAa?$AAn?$AAd?$AAo?$AAm?$AAV?$AAa?$AAl?$AAu?$AAe?$AA?5?$AA?$CB?$AA?$DN?$AA?5?$AAN?$AAU?$AAL?$AAL?$AA?$AA@ 3011784c     LIBCMTD:rand_s.obj
 0003:00018880       ??_C@_1GO@NGIGJNHH@?$AAs?$AAt?$AAr?$AAn?$AAc?$AAp?$AAy?$AA_?$AAs?$AA?$CI?$AA?$CK?$AAs?$AAt?$AAr?$AAa?$AAd?$AAd?$AAr?$AAe?$AAs?$AAs?$AA?0?$AA?5?$AAo?$AAu?$AAt?$AAs?$AAi?$AAz?$AAe?$AA?0?$AA?5@ 30117880     LIBCMTD:inithelp.obj
 0003:00018904       ??_C@_1CA@KHHCPEI@?$AA_?$AA_?$AAg?$AAe?$AAt?$AAl?$AAo?$AAc?$AAa?$AAl?$AAe?$AAi?$AAn?$AAf?$AAo?$AA?$AA@ 30117904     LIBCMTD:inithelp.obj
 0003:00018930       ??_C@_1GE@PLPIMDHG@?$AAf?$AA?3?$AA?2?$AAd?$AAd?$AA?2?$AAv?$AAc?$AAt?$AAo?$AAo?$AAl?$AAs?$AA?2?$AAc?$AAr?$AAt?$AA_?$AAb?$AAl?$AAd?$AA?2?$AAs?$AAe?$AAl?$AAf?$AA_?$AAx?$AA8?$AA6?$AA?2?$AAc@ 30117930     LIBCMTD:inithelp.obj
 0003:000189a8       ??_C@_0DC@CFDMMFIG@f?3?2dd?2vctools?2crt_bld?2self_x86?2c@ 301179a8     LIBCMTD:inithelp.obj
 0003:000189e8       ??_C@_1GG@CDHAPCGF@?$AAf?$AA?3?$AA?2?$AAd?$AAd?$AA?2?$AAv?$AAc?$AAt?$AAo?$AAo?$AAl?$AAs?$AA?2?$AAc?$AAr?$AAt?$AA_?$AAb?$AAl?$AAd?$AA?2?$AAs?$AAe?$AAl?$AAf?$AA_?$AAx?$AA8?$AA6?$AA?2?$AAc@ 301179e8     LIBCMTD:handler.obj
 0003:00018a64       ??_C@_1BC@JLLICHIC@?$AAp?$AAn?$AAh?$AA?5?$AA?$DN?$AA?$DN?$AA?5?$AA0?$AA?$AA@ 30117a64     LIBCMTD:handler.obj
 0003:00018a7c       ??_C@_1DG@LNNHNFHJ@?$AA?$CI?$AA_?$AAo?$AAs?$AAf?$AAi?$AAl?$AAe?$AA?$CI?$AAf?$AAi?$AAl?$AAe?$AAd?$AAe?$AAs?$AA?$CJ?$AA?5?$AA?$CG?$AA?5?$AAF?$AAO?$AAP?$AAE?$AAN?$AA?$CJ?$AA?$AA@ 30117a7c     LIBCMTD:commit.obj
 0003:00018abc       ??_C@_1BA@FLNMBBIM@?$AA_?$AAc?$AAo?$AAm?$AAm?$AAi?$AAt?$AA?$AA@ 30117abc     LIBCMTD:commit.obj
 0003:00018ad0       ??_C@_1GA@BOPCOCFN@?$AAf?$AA?3?$AA?2?$AAd?$AAd?$AA?2?$AAv?$AAc?$AAt?$AAo?$AAo?$AAl?$AAs?$AA?2?$AAc?$AAr?$AAt?$AA_?$AAb?$AAl?$AAd?$AA?2?$AAs?$AAe?$AAl?$AAf?$AA_?$AAx?$AA8?$AA6?$AA?2?$AAc@ 30117ad0     LIBCMTD:commit.obj
 0003:00018b48       ??_C@_1HC@KFLBHHBC@?$AA?$CI?$AAf?$AAi?$AAl?$AAe?$AAd?$AAe?$AAs?$AA?5?$AA?$DO?$AA?$DN?$AA?5?$AA0?$AA?5?$AA?$CG?$AA?$CG?$AA?5?$AA?$CI?$AAu?$AAn?$AAs?$AAi?$AAg?$AAn?$AAe?$AAd?$AA?$CJ?$AAf?$AAi?$AAl?$AAe?$AAd@ 30117b48     LIBCMTD:commit.obj
 0003:00018bd0       ??_C@_0DB@OLNNDFNH@f?3?2dd?2vctools?2crt_bld?2self_x86?2c@ 30117bd0     LIBCMTD:_sftbuf.obj
 0003:00018c10       ??_C@_1GC@DGAFOCMO@?$AAf?$AA?3?$AA?2?$AAd?$AAd?$AA?2?$AAv?$AAc?$AAt?$AAo?$AAo?$AAl?$AAs?$AA?2?$AAc?$AAr?$AAt?$AA_?$AAb?$AAl?$AAd?$AA?2?$AAs?$AAe?$AAl?$AAf?$AA_?$AAx?$AA8?$AA6?$AA?2?$AAc@ 30117c10     LIBCMTD:_sftbuf.obj
 0003:00018c88       ??_C@_1CO@KCKAACMI@?$AAf?$AAl?$AAa?$AAg?$AA?5?$AA?$DN?$AA?$DN?$AA?5?$AA0?$AA?5?$AA?$HM?$AA?$HM?$AA?5?$AAf?$AAl?$AAa?$AAg?$AA?5?$AA?$DN?$AA?$DN?$AA?5?$AA1?$AA?$AA@ 30117c88     LIBCMTD:_sftbuf.obj
 0003:00018cc0       ??_C@_1BG@BBCDFOMA@?$AA_?$AAw?$AAo?$AAu?$AAt?$AAp?$AAu?$AAt?$AA_?$AAl?$AA?$AA@ 30117cc0     LIBCMTD:woutput.obj
 0003:00018cdc       ??_C@_1CC@MONNFDCM@?$AAv?$AAf?$AAw?$AAp?$AAr?$AAi?$AAn?$AAt?$AAf?$AA_?$AAh?$AAe?$AAl?$AAp?$AAe?$AAr?$AA?$AA@ 30117cdc     LIBCMTD:vfwprint.obj
 0003:00018d08       ??_C@_1GE@MBMBDAGC@?$AAf?$AA?3?$AA?2?$AAd?$AAd?$AA?2?$AAv?$AAc?$AAt?$AAo?$AAo?$AAl?$AAs?$AA?2?$AAc?$AAr?$AAt?$AA_?$AAb?$AAl?$AAd?$AA?2?$AAs?$AAe?$AAl?$AAf?$AA_?$AAx?$AA8?$AA6?$AA?2?$AAc@ 30117d08     LIBCMTD:vfwprint.obj
 0003:00018d80       ??_C@_1GE@MIMBMOF@?$AAf?$AA?3?$AA?2?$AAd?$AAd?$AA?2?$AAv?$AAc?$AAt?$AAo?$AAo?$AAl?$AAs?$AA?2?$AAc?$AAr?$AAt?$AA_?$AAb?$AAl?$AAd?$AA?2?$AAs?$AAe?$AAl?$AAf?$AA_?$AAx?$AA8?$AA6?$AA?2?$AAc@ 30117d80     LIBCMTD:_freebuf.obj
 0003:00018df8       ??_C@_1BO@KIJENGPH@?$AAs?$AAt?$AAr?$AAe?$AAa?$AAm?$AA?5?$AA?$CB?$AA?$DN?$AA?5?$AAN?$AAU?$AAL?$AAL?$AA?$AA@ 30117df8     LIBCMTD:_freebuf.obj
 0003:00018e1c       ??_C@_1BK@ONMFGLDB@?$AA_?$AAw?$AAo?$AAu?$AAt?$AAp?$AAu?$AAt?$AA_?$AAs?$AA_?$AAl?$AA?$AA@ 30117e1c     LIBCMTD:woutputs.obj
 0003:00018e3c       ??_C@_1BK@GDEKGMNC@?$AA_?$AAw?$AAo?$AAu?$AAt?$AAp?$AAu?$AAt?$AA_?$AAp?$AA_?$AAl?$AA?$AA@ 30117e3c     LIBCMTD:woutputp.obj
 0003:00018e5c       ??_C@_1DG@NMBGBDM@?$AAp?$AAl?$AAo?$AAc?$AAi?$AA?9?$AA?$DO?$AAc?$AAt?$AAy?$AAp?$AAe?$AA1?$AA_?$AAr?$AAe?$AAf?$AAc?$AAo?$AAu?$AAn?$AAt?$AA?5?$AA?$DO?$AA?5?$AA0?$AA?$AA@ 30117e5c     LIBCMTD:initctyp.obj
 0003:00018ea0       ??_C@_1GE@OCPKBDKE@?$AAf?$AA?3?$AA?2?$AAd?$AAd?$AA?2?$AAv?$AAc?$AAt?$AAo?$AAo?$AAl?$AAs?$AA?2?$AAc?$AAr?$AAt?$AA_?$AAb?$AAl?$AAd?$AA?2?$AAs?$AAe?$AAl?$AAf?$AA_?$AAx?$AA8?$AA6?$AA?2?$AAc@ 30117ea0     LIBCMTD:initctyp.obj
 0003:00018f18       ??_C@_0DC@EHLBFILA@f?3?2dd?2vctools?2crt_bld?2self_x86?2c@ 30117f18     LIBCMTD:initctyp.obj
 0003:00018f54       ??_C@_1BE@NDMJHJJG@?$AAs?$AAt?$AAr?$AAn?$AAc?$AAp?$AAy?$AA_?$AAs?$AA?$AA@ 30117f54     LIBCMTD:strncpy_s.obj
 0003:00018f6c       ??_C@_1BC@HGPNAKGC@?$AAs?$AAt?$AAr?$AAc?$AAa?$AAt?$AA_?$AAs?$AA?$AA@ 30117f6c     LIBCMTD:strcat_s.obj
 0003:00018f84       ??_C@_0O@FMJNFNKE@united?9states?$AA@ 30117f84     LIBCMTD:getqloc.obj
 0003:00018f94       ??_C@_0P@NDHFFKCA@united?9kingdom?$AA@ 30117f94     LIBCMTD:getqloc.obj
 0003:00018fa8       ??_C@_0BC@HHDADLGF@trinidad?5?$CG?5tobago?$AA@ 30117fa8     LIBCMTD:getqloc.obj
 0003:00018fc0       ??_C@_0M@IOAEBDAC@south?9korea?$AA@ 30117fc0     LIBCMTD:getqloc.obj
 0003:00018fd0       ??_C@_0N@FIELFKIJ@south?9africa?$AA@ 30117fd0     LIBCMTD:getqloc.obj
 0003:00018fe0       ??_C@_0M@OPNDHCMC@south?5korea?$AA@ 30117fe0     LIBCMTD:getqloc.obj
 0003:00018ff0       ??_C@_0N@MDEOEPFI@south?5africa?$AA@ 30117ff0     LIBCMTD:getqloc.obj
 0003:00019000       ??_C@_06FKAPCJLB@slovak?$AA@ 30118000     LIBCMTD:getqloc.obj
 0003:00019008       ??_C@_0M@EFJANOAL@puerto?9rico?$AA@ 30118008     LIBCMTD:getqloc.obj
 0003:00019018       ??_C@_08PGOJKDAI@pr?9china?$AA@ 30118018     LIBCMTD:getqloc.obj
 0003:00019024       ??_C@_08JHDOMCMI@pr?5china?$AA@ 30118024     LIBCMTD:getqloc.obj
 0003:00019030       ??_C@_02JHCHFBLL@nz?$AA@   30118030     LIBCMTD:getqloc.obj
 0003:00019034       ??_C@_0M@LINHDHKP@new?9zealand?$AA@ 30118034     LIBCMTD:getqloc.obj
 0003:00019044       ??_C@_09IIIPPBDB@hong?9kong?$AA@ 30118044     LIBCMTD:getqloc.obj
 0003:00019050       ??_C@_07HJLCKBG@holland?$AA@ 30118050     LIBCMTD:getqloc.obj
 0003:0001905c       ??_C@_0O@LEHGMHAG@great?5britain?$AA@ 3011805c     LIBCMTD:getqloc.obj
 0003:0001906c       ??_C@_07FACOMELA@england?$AA@ 3011806c     LIBCMTD:getqloc.obj
 0003:00019078       ??_C@_05JIHCEICB@czech?$AA@ 30118078     LIBCMTD:getqloc.obj
 0003:00019080       ??_C@_05BBJOBLGB@china?$AA@ 30118080     LIBCMTD:getqloc.obj
 0003:00019088       ??_C@_07GPKPHICP@britain?$AA@ 30118088     LIBCMTD:getqloc.obj
 0003:00019094       ??_C@_07MHIPBHMG@america?$AA@ 30118094     LIBCMTD:getqloc.obj
 0003:000190a0       ??_C@_03KIALPMKC@usa?$AA@  301180a0     LIBCMTD:getqloc.obj
 0003:000190a4       ??_C@_02FGJGKGGD@us?$AA@   301180a4     LIBCMTD:getqloc.obj
 0003:000190a8       ??_C@_02NEINDODK@uk?$AA@   301180a8     LIBCMTD:getqloc.obj
 0003:000190ac       ??_C@_05JMPCFJFJ@swiss?$AA@ 301180ac     LIBCMTD:getqloc.obj
 0003:000190b4       ??_C@_0BA@HLOCPIOD@swedish?9finland?$AA@ 301180b4     LIBCMTD:getqloc.obj
 0003:000190c8       ??_C@_0BC@PKCNIABK@spanish?9venezuela?$AA@ 301180c8     LIBCMTD:getqloc.obj
 0003:000190e0       ??_C@_0BA@GBHHMIJI@spanish?9uruguay?$AA@ 301180e0     LIBCMTD:getqloc.obj
 0003:000190f4       ??_C@_0BE@BHDOHPMC@spanish?9puerto?5rico?$AA@ 301180f4     LIBCMTD:getqloc.obj
 0003:0001910c       ??_C@_0N@KMOIDGGN@spanish?9peru?$AA@ 3011810c     LIBCMTD:getqloc.obj
 0003:0001911c       ??_C@_0BB@HMHLPGPH@spanish?9paraguay?$AA@ 3011811c     LIBCMTD:getqloc.obj
 0003:00019130       ??_C@_0P@MCPKNGFD@spanish?9panama?$AA@ 30118130     LIBCMTD:getqloc.obj
 0003:00019144       ??_C@_0BC@IHOHGAIL@spanish?9nicaragua?$AA@ 30118144     LIBCMTD:getqloc.obj
 0003:0001915c       ??_C@_0P@KLMJDNFJ@spanish?9modern?$AA@ 3011815c     LIBCMTD:getqloc.obj
 0003:00019170       ??_C@_0BA@BPAPGBCM@spanish?9mexican?$AA@ 30118170     LIBCMTD:getqloc.obj
 0003:00019184       ??_C@_0BB@PDECHHHE@spanish?9honduras?$AA@ 30118184     LIBCMTD:getqloc.obj
 0003:00019198       ??_C@_0BC@KLHKFGDB@spanish?9guatemala?$AA@ 30118198     LIBCMTD:getqloc.obj
 0003:000191b0       ??_C@_0BE@MFOOKJAI@spanish?9el?5salvador?$AA@ 301181b0     LIBCMTD:getqloc.obj
 0003:000191c8       ??_C@_0BA@FCOKFPFC@spanish?9ecuador?$AA@ 301181c8     LIBCMTD:getqloc.obj
 0003:000191dc       ??_C@_0BL@PLMGIMOO@spanish?9dominican?5republic?$AA@ 301181dc     LIBCMTD:getqloc.obj
 0003:000191fc       ??_C@_0BD@HLGDNMHB@spanish?9costa?5rica?$AA@ 301181fc     LIBCMTD:getqloc.obj
 0003:00019214       ??_C@_0BB@PKCBKCPE@spanish?9colombia?$AA@ 30118214     LIBCMTD:getqloc.obj
 0003:00019228       ??_C@_0O@MCBIJGNE@spanish?9chile?$AA@ 30118228     LIBCMTD:getqloc.obj
 0003:00019238       ??_C@_0BA@BEFEIGJJ@spanish?9bolivia?$AA@ 30118238     LIBCMTD:getqloc.obj
 0003:0001924c       ??_C@_0BC@EMECMPD@spanish?9argentina?$AA@ 3011824c     LIBCMTD:getqloc.obj
 0003:00019264       ??_C@_0BF@EALFLENP@portuguese?9brazilian?$AA@ 30118264     LIBCMTD:getqloc.obj
 0003:00019280       ??_C@_0BC@HBLEBLNN@norwegian?9nynorsk?$AA@ 30118280     LIBCMTD:getqloc.obj
 0003:00019298       ??_C@_0BB@HMACDDCK@norwegian?9bokmal?$AA@ 30118298     LIBCMTD:getqloc.obj
 0003:000192ac       ??_C@_09BAFFPPHE@norwegian?$AA@ 301182ac     LIBCMTD:getqloc.obj
 0003:000192b8       ??_C@_0O@EAJFJDFG@italian?9swiss?$AA@ 301182b8     LIBCMTD:getqloc.obj
 0003:000192c8       ??_C@_0O@CNOMPGD@irish?9english?$AA@ 301182c8     LIBCMTD:getqloc.obj
 0003:000192d8       ??_C@_0N@EDHBGCKG@german?9swiss?$AA@ 301182d8     LIBCMTD:getqloc.obj
 0003:000192e8       ??_C@_0BC@JACMHNBP@german?9luxembourg?$AA@ 301182e8     LIBCMTD:getqloc.obj
 0003:00019300       ??_C@_0BE@HBGMGFEG@german?9lichtenstein?$AA@ 30118300     LIBCMTD:getqloc.obj
 0003:00019318       ??_C@_0BA@HKKBIBKL@german?9austrian?$AA@ 30118318     LIBCMTD:getqloc.obj
 0003:0001932c       ??_C@_0N@GCAEPEBK@french?9swiss?$AA@ 3011832c     LIBCMTD:getqloc.obj
 0003:0001933c       ??_C@_0BC@DJFJJCK@french?9luxembourg?$AA@ 3011833c     LIBCMTD:getqloc.obj
 0003:00019354       ??_C@_0BA@NNCEDFIC@french?9canadian?$AA@ 30118354     LIBCMTD:getqloc.obj
 0003:00019368       ??_C@_0P@CMPOCLM@french?9belgian?$AA@ 30118368     LIBCMTD:getqloc.obj
 0003:0001937c       ??_C@_0M@GHHDJOK@english?9usa?$AA@ 3011837c     LIBCMTD:getqloc.obj
 0003:0001938c       ??_C@_0L@PLDJKEIL@english?9us?$AA@ 3011838c     LIBCMTD:getqloc.obj
 0003:0001939c       ??_C@_0L@HJCCDMNC@english?9uk?$AA@ 3011839c     LIBCMTD:getqloc.obj
 0003:000193ac       ??_C@_0BK@CKLIAGJB@english?9trinidad?5y?5tobago?$AA@ 301183ac     LIBCMTD:getqloc.obj
 0003:000193cc       ??_C@_0BF@JMJMGNNF@english?9south?5africa?$AA@ 301183cc     LIBCMTD:getqloc.obj
 0003:000193e8       ??_C@_0L@DKIIFDFD@english?9nz?$AA@ 301183e8     LIBCMTD:getqloc.obj
 0003:000193f8       ??_C@_0BA@ONHGJCLH@english?9jamaica?$AA@ 301183f8     LIBCMTD:getqloc.obj
 0003:0001940c       ??_C@_0M@HJBGHOPO@english?9ire?$AA@ 3011840c     LIBCMTD:getqloc.obj
 0003:0001941c       ??_C@_0BC@LFEKMIFB@english?9caribbean?$AA@ 3011841c     LIBCMTD:getqloc.obj
 0003:00019434       ??_C@_0M@OLDPFKHI@english?9can?$AA@ 30118434     LIBCMTD:getqloc.obj
 0003:00019444       ??_C@_0P@OMDEHBMP@english?9belize?$AA@ 30118444     LIBCMTD:getqloc.obj
 0003:00019458       ??_C@_0M@KFHFPFED@english?9aus?$AA@ 30118458     LIBCMTD:getqloc.obj
 0003:00019468       ??_C@_0BB@MNMBKDFE@english?9american?$AA@ 30118468     LIBCMTD:getqloc.obj
 0003:0001947c       ??_C@_0O@KIDLNNBA@dutch?9belgian?$AA@ 3011847c     LIBCMTD:getqloc.obj
 0003:0001948c       ??_C@_0BE@JBKABBMH@chinese?9traditional?$AA@ 3011848c     LIBCMTD:getqloc.obj
 0003:000194a4       ??_C@_0BC@MJJMPKCG@chinese?9singapore?$AA@ 301184a4     LIBCMTD:getqloc.obj
 0003:000194bc       ??_C@_0BD@FDKADDCP@chinese?9simplified?$AA@ 301184bc     LIBCMTD:getqloc.obj
 0003:000194d4       ??_C@_0BB@DBEFDDME@chinese?9hongkong?$AA@ 301184d4     LIBCMTD:getqloc.obj
 0003:000194e8       ??_C@_07DHNMFMCI@chinese?$AA@ 301184e8     LIBCMTD:getqloc.obj
 0003:000194f4       ??_C@_03FNDDCHI@chi?$AA@   301184f4     LIBCMTD:getqloc.obj
 0003:000194f8       ??_C@_03BMMIADDJ@chh?$AA@  301184f8     LIBCMTD:getqloc.obj
 0003:000194fc       ??_C@_08OAIPJDGI@canadian?$AA@ 301184fc     LIBCMTD:getqloc.obj
 0003:00019508       ??_C@_07HBPMNPNJ@belgian?$AA@ 30118508     LIBCMTD:getqloc.obj
 0003:00019514       ??_C@_0L@OEKOPBEL@australian?$AA@ 30118514     LIBCMTD:getqloc.obj
 0003:00019524       ??_C@_0BB@MEIMBEDG@american?9english?$AA@ 30118524     LIBCMTD:getqloc.obj
 0003:00019538       ??_C@_0BB@DFMDPDGB@american?5english?$AA@ 30118538     LIBCMTD:getqloc.obj
 0003:0001954c       ??_C@_08IJLOKOLL@american?$AA@ 3011854c     LIBCMTD:getqloc.obj
 0003:00019558       ___rg_language             30118558     LIBCMTD:getqloc.obj
 0003:000197c8       ___rg_country              301187c8     LIBCMTD:getqloc.obj
 0003:000198a4       ___rglangidNotDefault      301188a4     LIBCMTD:getqloc.obj
 0003:000198bc       ??_C@_0BC@NFIEMBLL@Norwegian?9Nynorsk?$AA@ 301188bc     LIBCMTD:getqloc.obj
 0003:000198d8       ??_C@_1OM@OECHDGCF@?$AAs?$AAt?$AAr?$AAc?$AAp?$AAy?$AA_?$AAs?$AA?$CI?$AAl?$AAp?$AAO?$AAu?$AAt?$AAS?$AAt?$AAr?$AA?9?$AA?$DO?$AAs?$AAz?$AAL?$AAa?$AAn?$AAg?$AAu?$AAa?$AAg?$AAe?$AA?0?$AA?5?$AA?$CI@ 301188d8     LIBCMTD:getqloc.obj
 0003:000199f4       ??_C@_1CO@NJACLALJ@?$AA_?$AA_?$AAg?$AAe?$AAt?$AA_?$AAq?$AAu?$AAa?$AAl?$AAi?$AAf?$AAi?$AAe?$AAd?$AA_?$AAl?$AAo?$AAc?$AAa?$AAl?$AAe?$AA?$AA@ 301189f4     LIBCMTD:getqloc.obj
 0003:00019a30       ??_C@_1GC@FECJGAE@?$AAf?$AA?3?$AA?2?$AAd?$AAd?$AA?2?$AAv?$AAc?$AAt?$AAo?$AAo?$AAl?$AAs?$AA?2?$AAc?$AAr?$AAt?$AA_?$AAb?$AAl?$AAd?$AA?2?$AAs?$AAe?$AAl?$AAf?$AA_?$AAx?$AA8?$AA6?$AA?2?$AAc@ 30118a30     LIBCMTD:getqloc.obj
 0003:00019aa8       ??_C@_03NFKLAGEF@OCP?$AA@  30118aa8     LIBCMTD:getqloc.obj
 0003:00019aac       ??_C@_03DFHEHBHG@ACP?$AA@  30118aac     LIBCMTD:getqloc.obj
 0003:00019ab0       ??_C@_03KHICJKCI@?4?4?4?$AA@ 30118ab0     LIBCMTD:dbgrpt.obj
 0003:00019ab4       ??_C@_0BB@NAGLCMLI@Assertion?5Failed?$AA@ 30118ab4     LIBCMTD:dbgrpt.obj
 0003:00019ac8       ??_C@_05NAOIJFC@Error?$AA@ 30118ac8     LIBCMTD:dbgrpt.obj
 0003:00019ad0       ??_C@_07KGMMFLDN@Warning?$AA@ 30118ad0     LIBCMTD:dbgrpt.obj
 0003:00019aec       ??_C@_1CG@GNMJDMIO@?$AA_?$AAC?$AAr?$AAt?$AAS?$AAe?$AAt?$AAR?$AAe?$AAp?$AAo?$AAr?$AAt?$AAH?$AAo?$AAo?$AAk?$AA2?$AA?$AA@ 30118aec     LIBCMTD:dbgrpt.obj
 0003:00019b1c       ??_C@_0CD@EBCGLDDL@Microsoft?5Visual?5C?$CL?$CL?5Debug?5Libra@ 30118b1c     LIBCMTD:dbgrpt.obj
 0003:00019b48       ??_C@_0FF@CCONDJCB@Debug?5?$CFs?$CB?6?6Program?3?5?$CFs?$CFs?$CFs?$CFs?$CFs?$CFs@ 30118b48     LIBCMTD:dbgrpt.obj
 0003:00019bb0       ??_C@_09OFBFHMBK@?6Module?3?5?$AA@ 30118bb0     LIBCMTD:dbgrpt.obj
 0003:00019bbc       ??_C@_07OPHPPLBG@?6File?3?5?$AA@ 30118bbc     LIBCMTD:dbgrpt.obj
 0003:00019bc8       ??_C@_07DBMPPHDI@?6Line?3?5?$AA@ 30118bc8     LIBCMTD:dbgrpt.obj
 0003:00019bd4       ??_C@_02PHMGELLB@?6?6?$AA@ 30118bd4     LIBCMTD:dbgrpt.obj
 0003:00019bd8       ??_C@_0N@MEECIJGN@Expression?3?5?$AA@ 30118bd8     LIBCMTD:dbgrpt.obj
 0003:00019be8       ??_C@_0HD@GNBNFCCL@?6?6For?5information?5on?5how?5your?5pr@ 30118be8     LIBCMTD:dbgrpt.obj
 0003:00019c74       ??_C@_0BH@DNAGHKFM@?$DMprogram?5name?5unknown?$DO?$AA@ 30118c74     LIBCMTD:dbgrpt.obj
 0003:00019c90       ??_C@_1GG@DLDHOIGE@?$AAs?$AAt?$AAr?$AAc?$AAp?$AAy?$AA_?$AAs?$AA?$CI?$AAs?$AAz?$AAE?$AAx?$AAe?$AAN?$AAa?$AAm?$AAe?$AA?0?$AA?5?$AA2?$AA6?$AA0?$AA?0?$AA?5?$AA?$CC?$AA?$DM?$AAp?$AAr?$AAo?$AAg?$AAr@ 30118c90     LIBCMTD:dbgrpt.obj
 0003:00019d0c       ??_C@_1CI@IDOKFLAJ@?$AA_?$AA_?$AAc?$AAr?$AAt?$AAM?$AAe?$AAs?$AAs?$AAa?$AAg?$AAe?$AAW?$AAi?$AAn?$AAd?$AAo?$AAw?$AAA?$AA?$AA@ 30118d0c     LIBCMTD:dbgrpt.obj
 0003:00019d3c       ??_C@_1BK@JMCGJOCC@?$AA_?$AAe?$AAx?$AAp?$AAa?$AAn?$AAd?$AA_?$AAb?$AAa?$AAs?$AAe?$AA?$AA@ 30118d3c     LIBCMTD:expand.obj
 0003:00019d60       ??_C@_1GA@EBHFLDNH@?$AAf?$AA?3?$AA?2?$AAd?$AAd?$AA?2?$AAv?$AAc?$AAt?$AAo?$AAo?$AAl?$AAs?$AA?2?$AAc?$AAr?$AAt?$AA_?$AAb?$AAl?$AAd?$AA?2?$AAs?$AAe?$AAl?$AAf?$AA_?$AAx?$AA8?$AA6?$AA?2?$AAc@ 30118d60     LIBCMTD:expand.obj
 0003:00019dd4       ??_C@_1BO@KFIJIAEA@?$AAp?$AAB?$AAl?$AAo?$AAc?$AAk?$AA?5?$AA?$CB?$AA?$DN?$AA?5?$AAN?$AAU?$AAL?$AAL?$AA?$AA@ 30118dd4     LIBCMTD:expand.obj
 0003:00019df8       ??_C@_1BA@KBJJGFFE@?$AAs?$AAp?$AAr?$AAi?$AAn?$AAt?$AAf?$AA?$AA@ 30118df8     LIBCMTD:sprintf.obj
 0003:00019e10       ??_C@_1GC@BMNPEKNN@?$AAf?$AA?3?$AA?2?$AAd?$AAd?$AA?2?$AAv?$AAc?$AAt?$AAo?$AAo?$AAl?$AAs?$AA?2?$AAc?$AAr?$AAt?$AA_?$AAb?$AAl?$AAd?$AA?2?$AAs?$AAe?$AAl?$AAf?$AA_?$AAx?$AA8?$AA6?$AA?2?$AAc@ 30118e10     LIBCMTD:sprintf.obj
 0003:00019e88       ?commonFlags@?1??_control87@@9@9 30118e88     LIBCMTD:_ieee87_.obj
 0003:00019e90       ??_C@_1GO@OKJGOMCB@?$AA_?$AAc?$AAo?$AAn?$AAt?$AAr?$AAo?$AAl?$AAf?$AAp?$AA_?$AAs?$AA?$CI?$AA?$CI?$AA?$CI?$AAv?$AAo?$AAi?$AAd?$AA?5?$AA?$CK?$AA?$CJ?$AA0?$AA?$CJ?$AA?0?$AA?5?$AAn?$AAe?$AAw?$AAc?$AAt?$AAr@ 30118e90     LIBCMTD:_ieee87_.obj
 0003:00019f14       ??_C@_1BO@OFDNCLL@?$AA_?$AAs?$AAe?$AAt?$AA_?$AAc?$AAo?$AAn?$AAt?$AAr?$AAo?$AAl?$AAf?$AAp?$AA?$AA@ 30118f14     LIBCMTD:_ieee87_.obj
 0003:00019f38       ??_C@_1HO@BFDKGHOI@?$AAf?$AA?3?$AA?2?$AAd?$AAd?$AA?2?$AAv?$AAc?$AAt?$AAo?$AAo?$AAl?$AAs?$AA?2?$AAc?$AAr?$AAt?$AA_?$AAb?$AAl?$AAd?$AA?2?$AAs?$AAe?$AAl?$AAf?$AA_?$AAx?$AA8?$AA6?$AA?2?$AAc@ 30118f38     LIBCMTD:_ieee87_.obj
 0003:00019fd0       ??_C@_06IMKFLFPG@1?$CDQNAN?$AA@ 30118fd0     LIBCMTD:_x10fout_.obj
 0003:00019fd8       ??_C@_1EG@MCFPJJEM@?$AAs?$AAt?$AAr?$AAc?$AAp?$AAy?$AA_?$AAs?$AA?$CI?$AAf?$AAo?$AAs?$AA?9?$AA?$DO?$AAm?$AAa?$AAn?$AA?0?$AA?5?$AA2?$AA1?$AA?$CL?$AA1?$AA?0?$AA?5?$AA?$CC?$AA1?$AA?$CD?$AAQ?$AAN?$AAA?$AAN@ 30118fd8     LIBCMTD:_x10fout_.obj
 0003:0001a02c       ??_C@_05DNEBIAHO@1?$CDINF?$AA@ 3011902c     LIBCMTD:_x10fout_.obj
 0003:0001a038       ??_C@_1EE@ICBBBPAI@?$AAs?$AAt?$AAr?$AAc?$AAp?$AAy?$AA_?$AAs?$AA?$CI?$AAf?$AAo?$AAs?$AA?9?$AA?$DO?$AAm?$AAa?$AAn?$AA?0?$AA?5?$AA2?$AA1?$AA?$CL?$AA1?$AA?0?$AA?5?$AA?$CC?$AA1?$AA?$CD?$AAI?$AAN?$AAF?$AA?$CC@ 30119038     LIBCMTD:_x10fout_.obj
 0003:0001a08c       ??_C@_05PHHOCPM@1?$CDIND?$AA@ 3011908c     LIBCMTD:_x10fout_.obj
 0003:0001a098       ??_C@_1EE@MADEBIHF@?$AAs?$AAt?$AAr?$AAc?$AAp?$AAy?$AA_?$AAs?$AA?$CI?$AAf?$AAo?$AAs?$AA?9?$AA?$DO?$AAm?$AAa?$AAn?$AA?0?$AA?5?$AA2?$AA1?$AA?$CL?$AA1?$AA?0?$AA?5?$AA?$CC?$AA1?$AA?$CD?$AAI?$AAN?$AAD?$AA?$CC@ 30119098     LIBCMTD:_x10fout_.obj
 0003:0001a0ec       ??_C@_06PGGFOGJG@1?$CDSNAN?$AA@ 301190ec     LIBCMTD:_x10fout_.obj
 0003:0001a0f8       ??_C@_1EG@CDDBFNOB@?$AAs?$AAt?$AAr?$AAc?$AAp?$AAy?$AA_?$AAs?$AA?$CI?$AAf?$AAo?$AAs?$AA?9?$AA?$DO?$AAm?$AAa?$AAn?$AA?0?$AA?5?$AA2?$AA1?$AA?$CL?$AA1?$AA?0?$AA?5?$AA?$CC?$AA1?$AA?$CD?$AAS?$AAN?$AAA?$AAN@ 301190f8     LIBCMTD:_x10fout_.obj
 0003:0001a14c       ??_C@_1BI@ELMAAFLN@?$AA$?$AAI?$AA1?$AA0?$AA_?$AAO?$AAU?$AAT?$AAP?$AAU?$AAT?$AA?$AA@ 3011914c     LIBCMTD:_x10fout_.obj
 0003:0001a168       ??_C@_1HG@HFJMHCFK@?$AAf?$AA?3?$AA?2?$AAd?$AAd?$AA?2?$AAv?$AAc?$AAt?$AAo?$AAo?$AAl?$AAs?$AA?2?$AAc?$AAr?$AAt?$AA_?$AAb?$AAl?$AAd?$AA?2?$AAs?$AAe?$AAl?$AAf?$AA_?$AAx?$AA8?$AA6?$AA?2?$AAc@ 30119168     LIBCMTD:_x10fout_.obj
 0003:0001a1f8       ??_C@_1CG@JEHFHLNG@?$AA_?$AAm?$AAb?$AAs?$AAt?$AAo?$AAw?$AAc?$AAs?$AA_?$AAl?$AA_?$AAh?$AAe?$AAl?$AAp?$AAe?$AAr?$AA?$AA@ 301191f8     LIBCMTD:mbstowcs.obj
 0003:0001a228       ??_C@_1GE@LCCDHBMH@?$AAf?$AA?3?$AA?2?$AAd?$AAd?$AA?2?$AAv?$AAc?$AAt?$AAo?$AAo?$AAl?$AAs?$AA?2?$AAc?$AAr?$AAt?$AA_?$AAb?$AAl?$AAd?$AA?2?$AAs?$AAe?$AAl?$AAf?$AA_?$AAx?$AA8?$AA6?$AA?2?$AAc@ 30119228     LIBCMTD:mbstowcs.obj
 0003:0001a2a0       ??_C@_1BE@EEKACIGI@?$AAs?$AA?5?$AA?$CB?$AA?$DN?$AA?5?$AAN?$AAU?$AAL?$AAL?$AA?$AA@ 301192a0     LIBCMTD:mbstowcs.obj
 0003:0001a2b8       ??_C@_1CO@JNPEPJAL@?$AAr?$AAe?$AAt?$AAs?$AAi?$AAz?$AAe?$AA?5?$AA?$DM?$AA?$DN?$AA?5?$AAs?$AAi?$AAz?$AAe?$AAI?$AAn?$AAW?$AAo?$AAr?$AAd?$AAs?$AA?$AA@ 301192b8     LIBCMTD:mbstowcs.obj
 0003:0001a2f0       ??_C@_1CM@LLECFMFH@?$AAb?$AAu?$AAf?$AAf?$AAe?$AAr?$AAS?$AAi?$AAz?$AAe?$AA?5?$AA?$DM?$AA?$DN?$AA?5?$AAI?$AAN?$AAT?$AA_?$AAM?$AAA?$AAX?$AA?$AA@ 301192f0     LIBCMTD:mbstowcs.obj
 0003:0001a324       ??_C@_1BM@PHENIGHD@?$AA_?$AAm?$AAb?$AAs?$AAt?$AAo?$AAw?$AAc?$AAs?$AA_?$AAs?$AA_?$AAl?$AA?$AA@ 30119324     LIBCMTD:mbstowcs.obj
 0003:0001a348       ??_C@_1JA@JKDFMOPO@?$AA?$CI?$AAp?$AAw?$AAc?$AAs?$AA?5?$AA?$DN?$AA?$DN?$AA?5?$AAN?$AAU?$AAL?$AAL?$AA?5?$AA?$CG?$AA?$CG?$AA?5?$AAs?$AAi?$AAz?$AAe?$AAI?$AAn?$AAW?$AAo?$AAr?$AAd?$AAs?$AA?5?$AA?$DN?$AA?$DN?$AA?5@ 30119348     LIBCMTD:mbstowcs.obj
 0003:0001a3f4       ??_C@_1CE@PCFPEIFI@?$AA_?$AAv?$AAs?$AAn?$AAp?$AAr?$AAi?$AAn?$AAt?$AAf?$AA_?$AAh?$AAe?$AAl?$AAp?$AAe?$AAr?$AA?$AA@ 301193f4     LIBCMTD:vsnprnc.obj
 0003:0001a420       ??_C@_1EE@OKCKIGFK@?$AAs?$AAt?$AAr?$AAi?$AAn?$AAg?$AA?5?$AA?$CB?$AA?$DN?$AA?5?$AAN?$AAU?$AAL?$AAL?$AA?5?$AA?$CG?$AA?$CG?$AA?5?$AAs?$AAi?$AAz?$AAe?$AAI?$AAn?$AAB?$AAy?$AAt?$AAe?$AAs?$AA?5?$AA?$DO?$AA?5@ 30119420     LIBCMTD:vsnprnc.obj
 0003:0001a474       ??_C@_1BM@BLJALHEF@?$AA_?$AAv?$AAs?$AAp?$AAr?$AAi?$AAn?$AAt?$AAf?$AA_?$AAs?$AA_?$AAl?$AA?$AA@ 30119474     LIBCMTD:vsnprnc.obj
 0003:0001a498       ??_C@_1BO@MMPELNIM@?$AA_?$AAv?$AAs?$AAn?$AAp?$AAr?$AAi?$AAn?$AAt?$AAf?$AA_?$AAs?$AA_?$AAl?$AA?$AA@ 30119498     LIBCMTD:vsnprnc.obj
 0003:0001a4bc       ??_C@_1O@GIMBNLEI@?$AAx?$AAt?$AAo?$AAa?$AA_?$AAs?$AA?$AA@ 301194bc     LIBCMTD:xtoas.obj
 0003:0001a4cc       ??_C@_1BC@MJJNBNFN@?$AAx?$AA6?$AA4?$AAt?$AAo?$AAa?$AA_?$AAs?$AA?$AA@ 301194cc     LIBCMTD:xtoas.obj
 0003:0001a4e4       ??_C@_1CG@LLJCAOHF@?$AA_?$AAw?$AAc?$AAs?$AAt?$AAo?$AAm?$AAb?$AAs?$AA_?$AAl?$AA_?$AAh?$AAe?$AAl?$AAp?$AAe?$AAr?$AA?$AA@ 301194e4     LIBCMTD:wcstombs.obj
 0003:0001a518       ??_C@_1GE@OAENIBOD@?$AAf?$AA?3?$AA?2?$AAd?$AAd?$AA?2?$AAv?$AAc?$AAt?$AAo?$AAo?$AAl?$AAs?$AA?2?$AAc?$AAr?$AAt?$AA_?$AAb?$AAl?$AAd?$AA?2?$AAs?$AAe?$AAl?$AAf?$AA_?$AAx?$AA8?$AA6?$AA?2?$AAc@ 30119518     LIBCMTD:wcstombs.obj
 0003:0001a590       ??_C@_1BK@OIBENBPM@?$AAp?$AAw?$AAc?$AAs?$AA?5?$AA?$CB?$AA?$DN?$AA?5?$AAN?$AAU?$AAL?$AAL?$AA?$AA@ 30119590     LIBCMTD:wcstombs.obj
 0003:0001a5b0       ??_C@_1CM@KEOGBFLI@?$AAs?$AAi?$AAz?$AAe?$AAI?$AAn?$AAB?$AAy?$AAt?$AAe?$AAs?$AA?5?$AA?$DO?$AA?5?$AAr?$AAe?$AAt?$AAs?$AAi?$AAz?$AAe?$AA?$AA@ 301195b0     LIBCMTD:wcstombs.obj
 0003:0001a5e4       ??_C@_1BM@BDMCLLDL@?$AA_?$AAw?$AAc?$AAs?$AAt?$AAo?$AAm?$AAb?$AAs?$AA_?$AAs?$AA_?$AAl?$AA?$AA@ 301195e4     LIBCMTD:wcstombs.obj
 0003:0001a608       ??_C@_1IM@MFGKHGBP@?$AA?$CI?$AAd?$AAs?$AAt?$AA?5?$AA?$CB?$AA?$DN?$AA?5?$AAN?$AAU?$AAL?$AAL?$AA?5?$AA?$CG?$AA?$CG?$AA?5?$AAs?$AAi?$AAz?$AAe?$AAI?$AAn?$AAB?$AAy?$AAt?$AAe?$AAs?$AA?5?$AA?$DO?$AA?5?$AA0?$AA?$CJ@ 30119608     LIBCMTD:wcstombs.obj
 0003:0001a6b0       ??_C@_1BK@EPLNBKAK@?$AA_?$AAv?$AAs?$AAw?$AAp?$AAr?$AAi?$AAn?$AAt?$AAf?$AA_?$AAl?$AA?$AA@ 301196b0     LIBCMTD:vswprint.obj
 0003:0001a6d0       ??_C@_1CG@IMMIEPNA@?$AA_?$AAv?$AAs?$AAc?$AAw?$AAp?$AAr?$AAi?$AAn?$AAt?$AAf?$AA_?$AAh?$AAe?$AAl?$AAp?$AAe?$AAr?$AA?$AA@ 301196d0     LIBCMTD:vswprint.obj
 0003:0001a700       __pDestructExceptionObject 30119700     LIBCMTD:frame.obj
 0003:0001a704       ??_C@_0O@DPKOEFFH@bad?5exception?$AA@ 30119704     LIBCMTD:frame.obj
 0003:0001a718       ??_7bad_exception@std@@6B@ 30119718     LIBCMTD:frame.obj
 0003:0001a724       ??_C@_0DB@KIKNCIEC@f?3?2dd?2vctools?2crt_bld?2self_x86?2c@ 30119724     LIBCMTD:osfinfo.obj
 0003:0001a760       ??_C@_1BO@EMBOBGKE@?$AA_?$AAg?$AAe?$AAt?$AA_?$AAo?$AAs?$AAf?$AAh?$AAa?$AAn?$AAd?$AAl?$AAe?$AA?$AA@ 30119760     LIBCMTD:osfinfo.obj
 0003:0001a788       ??_C@_1GC@MLKLDJJG@?$AAf?$AA?3?$AA?2?$AAd?$AAd?$AA?2?$AAv?$AAc?$AAt?$AAo?$AAo?$AAl?$AAs?$AA?2?$AAc?$AAr?$AAt?$AA_?$AAb?$AAl?$AAd?$AA?2?$AAs?$AAe?$AAl?$AAf?$AA_?$AAx?$AA8?$AA6?$AA?2?$AAc@ 30119788     LIBCMTD:osfinfo.obj
 0003:0001a800       ??_C@_1GA@GFFDGGFH@?$AAf?$AA?3?$AA?2?$AAd?$AAd?$AA?2?$AAv?$AAc?$AAt?$AAo?$AAo?$AAl?$AAs?$AA?2?$AAc?$AAr?$AAt?$AA_?$AAb?$AAl?$AAd?$AA?2?$AAs?$AAe?$AAl?$AAf?$AA_?$AAx?$AA8?$AA6?$AA?2?$AAc@ 30119800     LIBCMTD:mbtowc.obj
 0003:0001a878       ??_C@_1NC@EINCOKCO@?$AA_?$AAl?$AAo?$AAc?$AA_?$AAu?$AAp?$AAd?$AAa?$AAt?$AAe?$AA?4?$AAG?$AAe?$AAt?$AAL?$AAo?$AAc?$AAa?$AAl?$AAe?$AAT?$AA?$CI?$AA?$CJ?$AA?9?$AA?$DO?$AAl?$AAo?$AAc?$AAi?$AAn?$AAf@ 30119878     LIBCMTD:mbtowc.obj
 0003:0001a974       ??_C@_1BO@JGFPDJCP@?$AAv?$AAp?$AAr?$AAi?$AAn?$AAt?$AAf?$AA_?$AAh?$AAe?$AAl?$AAp?$AAe?$AAr?$AA?$AA@ 30119974     LIBCMTD:vprintf.obj
 0003:0001a998       ??_C@_1GC@DHFFJKMC@?$AAf?$AA?3?$AA?2?$AAd?$AAd?$AA?2?$AAv?$AAc?$AAt?$AAo?$AAo?$AAl?$AAs?$AA?2?$AAc?$AAr?$AAt?$AA_?$AAb?$AAl?$AAd?$AA?2?$AAs?$AAe?$AAl?$AAf?$AA_?$AAx?$AA8?$AA6?$AA?2?$AAc@ 30119998     LIBCMTD:vprintf.obj
 0003:0001aa10       ??_C@_1O@HJNPHHHB@?$AAf?$AAp?$AAu?$AAt?$AAw?$AAc?$AA?$AA@ 30119a10     LIBCMTD:fputwc.obj
 0003:0001aa20       ??_C@_1GA@BJIGKGEA@?$AAf?$AA?3?$AA?2?$AAd?$AAd?$AA?2?$AAv?$AAc?$AAt?$AAo?$AAo?$AAl?$AAs?$AA?2?$AAc?$AAr?$AAt?$AA_?$AAb?$AAl?$AAd?$AA?2?$AAs?$AAe?$AAl?$AAf?$AA_?$AAx?$AA8?$AA6?$AA?2?$AAc@ 30119a20     LIBCMTD:fputwc.obj
 0003:0001aa94       ??_C@_1O@EGMJNCOI@?$AAf?$AAc?$AAl?$AAo?$AAs?$AAe?$AA?$AA@ 30119a94     LIBCMTD:fclose.obj
 0003:0001aaa8       ??_C@_1GA@KMIDAPAP@?$AAf?$AA?3?$AA?2?$AAd?$AAd?$AA?2?$AAv?$AAc?$AAt?$AAo?$AAo?$AAl?$AAs?$AA?2?$AAc?$AAr?$AAt?$AA_?$AAb?$AAl?$AAd?$AA?2?$AAs?$AAe?$AAl?$AAf?$AA_?$AAx?$AA8?$AA6?$AA?2?$AAc@ 30119aa8     LIBCMTD:fclose.obj
 0003:0001ab1c       ??_C@_1BO@JINCABEC@?$AA_?$AAf?$AAc?$AAl?$AAo?$AAs?$AAe?$AA_?$AAn?$AAo?$AAl?$AAo?$AAc?$AAk?$AA?$AA@ 30119b1c     LIBCMTD:fclose.obj
 0003:0001ab40       ??_C@_1BA@PCFLFGNC@?$AAw?$AAc?$AAs?$AAt?$AAo?$AAx?$AAl?$AA?$AA@ 30119b40     LIBCMTD:wcstol.obj
 0003:0001ab58       ??_C@_1GA@CADFOND@?$AAf?$AA?3?$AA?2?$AAd?$AAd?$AA?2?$AAv?$AAc?$AAt?$AAo?$AAo?$AAl?$AAs?$AA?2?$AAc?$AAr?$AAt?$AA_?$AAb?$AAl?$AAd?$AA?2?$AAs?$AAe?$AAl?$AAf?$AA_?$AAx?$AA8?$AA6?$AA?2?$AAc@ 30119b58     LIBCMTD:wcstol.obj
 0003:0001abcc       ??_C@_1BG@GLLONOEH@?$AA_?$AAs?$AAt?$AAr?$AAi?$AAc?$AAm?$AAp?$AA_?$AAl?$AA?$AA@ 30119bcc     LIBCMTD:stricmp.obj
 0003:0001abe8       ??_C@_1GC@OILHAOLL@?$AAf?$AA?3?$AA?2?$AAd?$AAd?$AA?2?$AAv?$AAc?$AAt?$AAo?$AAo?$AAl?$AAs?$AA?2?$AAc?$AAr?$AAt?$AA_?$AAb?$AAl?$AAd?$AA?2?$AAs?$AAe?$AAl?$AAf?$AA_?$AAx?$AA8?$AA6?$AA?2?$AAc@ 30119be8     LIBCMTD:stricmp.obj
 0003:0001ac60       ??_C@_1BC@JLGKKIIG@?$AA_?$AAs?$AAt?$AAr?$AAi?$AAc?$AAm?$AAp?$AA?$AA@ 30119c60     LIBCMTD:stricmp.obj
 0003:0001ac78       ??_C@_1CC@JLPHKJPH@?$AAc?$AAo?$AAu?$AAn?$AAt?$AA?5?$AA?$DM?$AA?$DN?$AA?5?$AAI?$AAN?$AAT?$AA_?$AAM?$AAA?$AAX?$AA?$AA@ 30119c78     LIBCMTD:strnicmp.obj
 0003:0001aca0       ??_C@_1BI@BJLEPLEF@?$AA_?$AAs?$AAt?$AAr?$AAn?$AAi?$AAc?$AAm?$AAp?$AA_?$AAl?$AA?$AA@ 30119ca0     LIBCMTD:strnicmp.obj
 0003:0001acc0       ??_C@_1GE@CONPOJMA@?$AAf?$AA?3?$AA?2?$AAd?$AAd?$AA?2?$AAv?$AAc?$AAt?$AAo?$AAo?$AAl?$AAs?$AA?2?$AAc?$AAr?$AAt?$AA_?$AAb?$AAl?$AAd?$AA?2?$AAs?$AAe?$AAl?$AAf?$AA_?$AAx?$AA8?$AA6?$AA?2?$AAc@ 30119cc0     LIBCMTD:strnicmp.obj
 0003:0001ad38       ??_C@_1BE@BHJDFFNA@?$AA_?$AAs?$AAt?$AAr?$AAn?$AAi?$AAc?$AAm?$AAp?$AA?$AA@ 30119d38     LIBCMTD:strnicmp.obj
 0003:0001ad50       ??_C@_0BK@CIDNPOGP@GetUserObjectInformationA?$AA@ 30119d50     LIBCMTD:crtmbox.obj
 0003:0001ad70       ??_C@_0M@CHKKJDAI@MessageBoxA?$AA@ 30119d70     LIBCMTD:crtmbox.obj
 0003:0001adac       ??_7type_info@@6B@         30119dac     LIBCMTD:typinfo.obj
 0003:0001adb8       ??_7exception@std@@6B@     30119db8     LIBCMTD:stdexcpt.obj
 0003:0001adc4       ??_C@_0BC@EOODALEL@Unknown?5exception?$AA@ 30119dc4     LIBCMTD:stdexcpt.obj
 0003:0001ade0       ??_7bad_cast@std@@6B@      30119de0     LIBCMTD:stdexcpt.obj
 0003:0001adf0       ??_7bad_typeid@std@@6B@    30119df0     LIBCMTD:stdexcpt.obj
 0003:0001ae00       ??_7__non_rtti_object@std@@6B@ 30119e00     LIBCMTD:stdexcpt.obj
 0003:0001ae10       ??_C@_1GE@BDAODJCD@?$AAf?$AA?3?$AA?2?$AAd?$AAd?$AA?2?$AAv?$AAc?$AAt?$AAo?$AAo?$AAl?$AAs?$AA?2?$AAc?$AAr?$AAt?$AA_?$AAb?$AAl?$AAd?$AA?2?$AAs?$AAe?$AAl?$AAf?$AA_?$AAx?$AA8?$AA6?$AA?2?$AAc@ 30119e10     LIBCMTD:dbgdel.obj
 0003:0001ae88       ??_C@_1BA@BALFACEM@?$AAC?$AAO?$AAN?$AAO?$AAU?$AAT?$AA$?$AA?$AA@ 30119e88     LIBCMTD:initcon.obj
 0003:0001ae9c       ??_C@_1O@EDEJGJBM@?$AA_?$AAc?$AAl?$AAo?$AAs?$AAe?$AA?$AA@ 30119e9c     LIBCMTD:close.obj
 0003:0001aeb0       ??_C@_1FO@NNGNFGFH@?$AAf?$AA?3?$AA?2?$AAd?$AAd?$AA?2?$AAv?$AAc?$AAt?$AAo?$AAo?$AAl?$AAs?$AA?2?$AAc?$AAr?$AAt?$AA_?$AAb?$AAl?$AAd?$AA?2?$AAs?$AAe?$AAl?$AAf?$AA_?$AAx?$AA8?$AA6?$AA?2?$AAc@ 30119eb0     LIBCMTD:close.obj
 0003:0001af20       ??_C@_1HG@KNCBMCDD@?$AAf?$AA?3?$AA?2?$AAd?$AAd?$AA?2?$AAv?$AAc?$AAt?$AAo?$AAo?$AAl?$AAs?$AA?2?$AAc?$AAr?$AAt?$AA_?$AAb?$AAl?$AAd?$AA?2?$AAs?$AAe?$AAl?$AAf?$AA_?$AAx?$AA8?$AA6?$AA?2?$AAc@ 30119f20     LIBCMTD:typname.obj
 0003:0001afb0       ??_C@_1CK@GELGGBDK@?$AAp?$AAN?$AAo?$AAd?$AAe?$AA?9?$AA?$DO?$AA_?$AAN?$AAe?$AAx?$AAt?$AA?5?$AA?$CB?$AA?$DN?$AA?5?$AAN?$AAU?$AAL?$AAL?$AA?$AA@ 30119fb0     LIBCMTD:typname.obj
 0003:0001afe8       ??_C@_1JK@NAFNEPGC@?$AAs?$AAt?$AAr?$AAc?$AAp?$AAy?$AA_?$AAs?$AA?5?$AA?$CI?$AA?$CI?$AAc?$AAh?$AAa?$AAr?$AA?5?$AA?$CK?$AA?$CJ?$AA?$CI?$AA?$CI?$AAt?$AAy?$AAp?$AAe?$AA_?$AAi?$AAn?$AAf?$AAo?$AA?5?$AA?$CK?$AA?$CJ@ 30119fe8     LIBCMTD:typname.obj
 0003:0001b0a0       ??_C@_1CM@OOICDMK@?$AAt?$AAy?$AAp?$AAe?$AA_?$AAi?$AAn?$AAf?$AAo?$AA?3?$AA?3?$AA_?$AAN?$AAa?$AAm?$AAe?$AA_?$AAb?$AAa?$AAs?$AAe?$AA?$AA@ 3011a0a0     LIBCMTD:typname.obj
 0003:0001b0d8       ??_C@_1GI@EAJKJPED@?$AAs?$AAt?$AAr?$AAc?$AAp?$AAy?$AA_?$AAs?$AA?5?$AA?$CI?$AAp?$AAT?$AAm?$AAp?$AAT?$AAy?$AAp?$AAe?$AAN?$AAa?$AAm?$AAe?$AA?0?$AA?5?$AAl?$AAe?$AAn?$AA?$CL?$AA2?$AA?0?$AA?5?$AA?$CI@ 3011a0d8     LIBCMTD:typname.obj
 0003:0001b154       ??_C@_1DO@OJJLFJPE@?$AAt?$AAy?$AAp?$AAe?$AA_?$AAi?$AAn?$AAf?$AAo?$AA?3?$AA?3?$AA_?$AAN?$AAa?$AAm?$AAe?$AA_?$AAb?$AAa?$AAs?$AAe?$AA_?$AAi?$AAn?$AAt?$AAe?$AAr?$AAn?$AAa?$AAl?$AA?$AA@ 3011a154     LIBCMTD:typname.obj
 0003:0001b1a0       ??_C@_0BK@CFCOFLF@?5Complete?5Object?5Locator?8?$AA@ 3011a1a0     LIBCMTD:undname.obj
 0003:0001b1c0       ??_C@_0BN@MECKDCOJ@?5Class?5Hierarchy?5Descriptor?8?$AA@ 3011a1c0     LIBCMTD:undname.obj
 0003:0001b1e4       ??_C@_0BD@LGICGFMM@?5Base?5Class?5Array?8?$AA@ 3011a1e4     LIBCMTD:undname.obj
 0003:0001b1fc       ??_C@_0BM@LDKODKLH@?5Base?5Class?5Descriptor?5at?5?$CI?$AA@ 3011a1fc     LIBCMTD:undname.obj
 0003:0001b220       ??_C@_0BC@DAFEJGAK@?5Type?5Descriptor?8?$AA@ 3011a220     LIBCMTD:undname.obj
 0003:0001b238       ??_C@_0BM@PMGGMLDN@?$GAlocal?5static?5thread?5guard?8?$AA@ 3011a238     LIBCMTD:undname.obj
 0003:0001b25c       ??_C@_0CL@FGIJHLCE@?$GAmanaged?5vector?5copy?5constructor@ 3011a25c     LIBCMTD:undname.obj
 0003:0001b290       ??_C@_0CJ@GJELGAMM@?$GAvector?5vbase?5copy?5constructor?5i@ 3011a290     LIBCMTD:undname.obj
 0003:0001b2c4       ??_C@_0CD@CGAJBKEJ@?$GAvector?5copy?5constructor?5iterato@ 3011a2c4     LIBCMTD:undname.obj
 0003:0001b2f0       ??_C@_0CB@PDBIFEP@?$GAdynamic?5atexit?5destructor?5for?5?8@ 3011a2f0     LIBCMTD:undname.obj
 0003:0001b318       ??_C@_0BL@CLIPGLGB@?$GAdynamic?5initializer?5for?5?8?$AA@ 3011a318     LIBCMTD:undname.obj
 0003:0001b338       ??_C@_0CM@FCBBDIGB@?$GAeh?5vector?5vbase?5copy?5constructo@ 3011a338     LIBCMTD:undname.obj
 0003:0001b36c       ??_C@_0CG@HLDDJMAG@?$GAeh?5vector?5copy?5constructor?5iter@ 3011a36c     LIBCMTD:undname.obj
 0003:0001b39c       ??_C@_0CF@IMGKMJNO@?$GAmanaged?5vector?5destructor?5itera@ 3011a39c     LIBCMTD:undname.obj
 0003:0001b3c8       ??_C@_0CG@CFDHKGGD@?$GAmanaged?5vector?5constructor?5iter@ 3011a3c8     LIBCMTD:undname.obj
 0003:0001b3f8       ??_C@_0BN@CKNJLHMB@?$GAplacement?5delete?$FL?$FN?5closure?8?$AA@ 3011a3f8     LIBCMTD:undname.obj
 0003:0001b41c       ??_C@_0BL@CNOONJFP@?$GAplacement?5delete?5closure?8?$AA@ 3011a41c     LIBCMTD:undname.obj
 0003:0001b43c       ??_C@_0P@HJKNJFNN@?$GAomni?5callsig?8?$AA@ 3011a43c     LIBCMTD:undname.obj
 0003:0001b450       ??_C@_09LBNFPBCA@?5delete?$FL?$FN?$AA@ 3011a450     LIBCMTD:undname.obj
 0003:0001b45c       ??_C@_06FHBGPFGH@?5new?$FL?$FN?$AA@ 3011a45c     LIBCMTD:undname.obj
 0003:0001b464       ??_C@_0CE@IIHCMGGL@?$GAlocal?5vftable?5constructor?5closu@ 3011a464     LIBCMTD:undname.obj
 0003:0001b490       ??_C@_0BA@KKLDJDLB@?$GAlocal?5vftable?8?$AA@ 3011a490     LIBCMTD:undname.obj
 0003:0001b4a4       ??_C@_05KHLCHHI@?$GARTTI?$AA@ 3011a4a4     LIBCMTD:undname.obj
 0003:0001b4ac       ??_C@_03KLGMFNMG@?$GAEH?$AA@ 3011a4ac     LIBCMTD:undname.obj
 0003:0001b4b0       ??_C@_0BA@KBCDOMBN@?$GAudt?5returning?8?$AA@ 3011a4b0     LIBCMTD:undname.obj
 0003:0001b4c4       ??_C@_0BL@LLKPOHJI@?$GAcopy?5constructor?5closure?8?$AA@ 3011a4c4     LIBCMTD:undname.obj
 0003:0001b4e4       ??_C@_0CH@OOJPLCPH@?$GAeh?5vector?5vbase?5constructor?5ite@ 3011a4e4     LIBCMTD:undname.obj
 0003:0001b514       ??_C@_0CA@GCEOPDGL@?$GAeh?5vector?5destructor?5iterator?8?$AA@ 3011a514     LIBCMTD:undname.obj
 0003:0001b53c       ??_C@_0CB@JONCMFFK@?$GAeh?5vector?5constructor?5iterator?8@ 3011a53c     LIBCMTD:undname.obj
 0003:0001b564       ??_C@_0BL@NILFHHPC@?$GAvirtual?5displacement?5map?8?$AA@ 3011a564     LIBCMTD:undname.obj
 0003:0001b584       ??_C@_0CE@IKBNEHA@?$GAvector?5vbase?5constructor?5iterat@ 3011a584     LIBCMTD:undname.obj
 0003:0001b5b0       ??_C@_0BN@LFPFMEDL@?$GAvector?5destructor?5iterator?8?$AA@ 3011a5b0     LIBCMTD:undname.obj
 0003:0001b5d4       ??_C@_0BO@PFGOCPJJ@?$GAvector?5constructor?5iterator?8?$AA@ 3011a5d4     LIBCMTD:undname.obj
 0003:0001b5f8       ??_C@_0BN@IMDCHIKM@?$GAscalar?5deleting?5destructor?8?$AA@ 3011a5f8     LIBCMTD:undname.obj
 0003:0001b61c       ??_C@_0BO@OBMKPJIG@?$GAdefault?5constructor?5closure?8?$AA@ 3011a61c     LIBCMTD:undname.obj
 0003:0001b640       ??_C@_0BN@DEGPLNFK@?$GAvector?5deleting?5destructor?8?$AA@ 3011a640     LIBCMTD:undname.obj
 0003:0001b664       ??_C@_0BD@JDLKDPAB@?$GAvbase?5destructor?8?$AA@ 3011a664     LIBCMTD:undname.obj
 0003:0001b67c       ??_C@_08OBABFOLI@?$GAstring?8?$AA@ 3011a67c     LIBCMTD:undname.obj
 0003:0001b688       ??_C@_0BF@KDPPACIK@?$GAlocal?5static?5guard?8?$AA@ 3011a688     LIBCMTD:undname.obj
 0003:0001b6a4       ??_C@_08LLFFHHDJ@?$GAtypeof?8?$AA@ 3011a6a4     LIBCMTD:undname.obj
 0003:0001b6b0       ??_C@_07FEEIOKP@?$GAvcall?8?$AA@ 3011a6b0     LIBCMTD:undname.obj
 0003:0001b6bc       ??_C@_09BLBHBJP@?$GAvbtable?8?$AA@ 3011a6bc     LIBCMTD:undname.obj
 0003:0001b6c8       ??_C@_09IFPLHPGF@?$GAvftable?8?$AA@ 3011a6c8     LIBCMTD:undname.obj
 0003:0001b6d4       ??_C@_02MHEGNOJ@?$FO?$DN?$AA@ 3011a6d4     LIBCMTD:undname.obj
 0003:0001b6d8       ??_C@_02DHLNPPGH@?$HM?$DN?$AA@ 3011a6d8     LIBCMTD:undname.obj
 0003:0001b6dc       ??_C@_02FGJGFEAB@?$CG?$DN?$AA@ 3011a6dc     LIBCMTD:undname.obj
 0003:0001b6e0       ??_C@_03CDNPDDLA@?$DM?$DM?$DN?$AA@ 3011a6e0     LIBCMTD:undname.obj
 0003:0001b6e4       ??_C@_03IKFCCPFF@?$DO?$DO?$DN?$AA@ 3011a6e4     LIBCMTD:undname.obj
 0003:0001b6e8       ??_C@_02FENAOKFI@?$CF?$DN?$AA@ 3011a6e8     LIBCMTD:undname.obj
 0003:0001b6ec       ??_C@_02FJEHGPIO@?1?$DN?$AA@ 3011a6ec     LIBCMTD:undname.obj
 0003:0001b6f0       ??_C@_02FKMDLLOA@?9?$DN?$AA@ 3011a6f0     LIBCMTD:undname.obj
 0003:0001b6f4       ??_C@_02FOEOMHFC@?$CL?$DN?$AA@ 3011a6f4     LIBCMTD:undname.obj
 0003:0001b6f8       ??_C@_02FPIMKNGF@?$CK?$DN?$AA@ 3011a6f8     LIBCMTD:undname.obj
 0003:0001b6fc       ??_C@_02NONPIBCD@?$HM?$HM?$AA@ 3011a6fc     LIBCMTD:undname.obj
 0003:0001b700       ??_C@_02PPKAJPJL@?$CG?$CG?$AA@ 3011a700     LIBCMTD:undname.obj
 0003:0001b704       ??_C@_01DNKMNLPK@?$HM?$AA@ 3011a704     LIBCMTD:undname.obj
 0003:0001b708       ??_C@_01JKBOJNNK@?$FO?$AA@ 3011a708     LIBCMTD:undname.obj
 0003:0001b70c       ??_C@_01PJKLJHI@?$HO?$AA@  3011a70c     LIBCMTD:undname.obj
 0003:0001b710       ??_C@_02HCKGKOFO@?$CI?$CJ?$AA@ 3011a710     LIBCMTD:undname.obj
 0003:0001b714       ??_C@_01IHBHIGKO@?0?$AA@   3011a714     LIBCMTD:undname.obj
 0003:0001b718       ??_C@_02EEKDKGMJ@?$DO?$DN?$AA@ 3011a718     LIBCMTD:undname.obj
 0003:0001b71c       ??_C@_01PPODPGHN@?$DO?$AA@ 3011a71c     LIBCMTD:undname.obj
 0003:0001b720       ??_C@_02EHCHHCKH@?$DM?$DN?$AA@ 3011a720     LIBCMTD:undname.obj
 0003:0001b724       ??_C@_01MNNFJEPP@?$DM?$AA@ 3011a724     LIBCMTD:undname.obj
 0003:0001b728       ??_C@_01KMDKNFGN@?1?$AA@   3011a728     LIBCMTD:undname.obj
 0003:0001b72c       ??_C@_03MNHNFDLC@?9?$DO?$CK?$AA@ 3011a72c     LIBCMTD:undname.obj
 0003:0001b730       ??_C@_01HNPIGOCE@?$CG?$AA@ 3011a730     LIBCMTD:undname.obj
 0003:0001b734       ??_C@_01MIFGBAGJ@?$CL?$AA@ 3011a734     LIBCMTD:undname.obj
 0003:0001b738       ??_C@_01JOAMLHOP@?9?$AA@   3011a738     LIBCMTD:undname.obj
 0003:0001b73c       ??_C@_02BAABKJLB@?9?9?$AA@ 3011a73c     LIBCMTD:undname.obj
 0003:0001b740       ??_C@_02ECNGHCIF@?$CL?$CL?$AA@ 3011a740     LIBCMTD:undname.obj
 0003:0001b744       ??_C@_01NBENCBCI@?$CK?$AA@ 3011a744     LIBCMTD:undname.obj
 0003:0001b748       ??_C@_02HBOOOICD@?9?$DO?$AA@ 3011a748     LIBCMTD:undname.obj
 0003:0001b74c       ??_C@_08LHJFAFGD@operator?$AA@ 3011a74c     LIBCMTD:undname.obj
 0003:0001b758       ??_C@_02GPECMEKF@?$FL?$FN?$AA@ 3011a758     LIBCMTD:undname.obj
 0003:0001b75c       ??_C@_02FDNJECIE@?$CB?$DN?$AA@ 3011a75c     LIBCMTD:undname.obj
 0003:0001b760       ??_C@_02EGOFBIJA@?$DN?$DN?$AA@ 3011a760     LIBCMTD:undname.obj
 0003:0001b764       ??_C@_01DCLJPIOD@?$CB?$AA@ 3011a764     LIBCMTD:undname.obj
 0003:0001b768       ??_C@_02FODMEDOG@?$DM?$DM?$AA@ 3011a768     LIBCMTD:undname.obj
 0003:0001b76c       ??_C@_02GPIOPFAK@?$DO?$DO?$AA@ 3011a76c     LIBCMTD:undname.obj
 0003:0001b770       ??_C@_07FPCDHGMM@?5delete?$AA@ 3011a770     LIBCMTD:undname.obj
 0003:0001b77c       ??_C@_04NIHEBCM@?5new?$AA@ 3011a77c     LIBCMTD:undname.obj
 0003:0001b784       ??_C@_0M@GFIIJFMG@__unaligned?$AA@ 3011a784     LIBCMTD:undname.obj
 0003:0001b794       ??_C@_0L@PILCLIHE@__restrict?$AA@ 3011a794     LIBCMTD:undname.obj
 0003:0001b7a4       ??_C@_07JOMMBBKO@__ptr64?$AA@ 3011a7a4     LIBCMTD:undname.obj
 0003:0001b7b0       ??_C@_06GHPCKEAG@__eabi?$AA@ 3011a7b0     LIBCMTD:undname.obj
 0003:0001b7b8       ??_C@_09HIJEGCPM@__clrcall?$AA@ 3011a7b8     LIBCMTD:undname.obj
 0003:0001b7c4       ??_C@_0L@JMKHOMEK@__fastcall?$AA@ 3011a7c4     LIBCMTD:undname.obj
 0003:0001b7d4       ??_C@_0L@NPHFGOKO@__thiscall?$AA@ 3011a7d4     LIBCMTD:undname.obj
 0003:0001b7e4       ??_C@_09IFJBGAPI@__stdcall?$AA@ 3011a7e4     LIBCMTD:undname.obj
 0003:0001b7f0       ??_C@_08GHMPAG@__pascal?$AA@ 3011a7f0     LIBCMTD:undname.obj
 0003:0001b7fc       ??_C@_07KOLFKCDI@__cdecl?$AA@ 3011a7fc     LIBCMTD:undname.obj
 0003:0001b808       ??_C@_08EHJDFFNH@__based?$CI?$AA@ 3011a808     LIBCMTD:undname.obj
 0003:0001b9ec       ??_C@_04HEJADOOB@CV?3?5?$AA@ 3011a9ec     LIBCMTD:undname.obj
 0003:0001b9f4       ??_C@_02MOLJINC@?3?3?$AA@  3011a9f4     LIBCMTD:undname.obj
 0003:0001b9f8       ??_C@_01GEODFPGF@?8?$AA@   3011a9f8     LIBCMTD:undname.obj
 0003:0001b9fc       ??_C@_01NLNLIGKH@?$GA?$AA@ 3011a9fc     LIBCMTD:undname.obj
 0003:0001ba00       ??_C@_0O@KHGCOMHP@generic?9type?9?$AA@ 3011aa00     LIBCMTD:undname.obj
 0003:0001ba10       ??_C@_0BE@JAEOCHPE@template?9parameter?9?$AA@ 3011aa10     LIBCMTD:undname.obj
 0003:0001ba28       ??_C@_02OHHJMEON@?8?8?$AA@ 3011aa28     LIBCMTD:undname.obj
 0003:0001ba2c       ??_C@_0BG@JNJLAMPM@?$GAanonymous?5namespace?8?$AA@ 3011aa2c     LIBCMTD:undname.obj
 0003:0001ba48       ??_C@_0BN@IBLMMFAP@?$GAnon?9type?9template?9parameter?$AA@ 3011aa48     LIBCMTD:undname.obj
 0003:0001ba6c       ??_C@_0BE@EODMJLIF@?$GAtemplate?9parameter?$AA@ 3011aa6c     LIBCMTD:undname.obj
 0003:0001ba84       ??_C@_04GKJNKENE@void?$AA@ 3011aa84     LIBCMTD:undname.obj
 0003:0001ba8c       ??_C@_04HIBGFPH@NULL?$AA@  3011aa8c     LIBCMTD:undname.obj
 0003:0001ba94       ??_C@_0M@DHNBOJMP@extern?5?$CCC?$CC?5?$AA@ 3011aa94     LIBCMTD:undname.obj
 0003:0001baa4       ??_C@_08KJLFOPNE@?$FLthunk?$FN?3?$AA@ 3011aaa4     LIBCMTD:undname.obj
 0003:0001bab0       ??_C@_08GPDDCMKI@public?3?5?$AA@ 3011aab0     LIBCMTD:undname.obj
 0003:0001babc       ??_C@_0M@GAIFPFIP@protected?3?5?$AA@ 3011aabc     LIBCMTD:undname.obj
 0003:0001bacc       ??_C@_09LAPHOOG@private?3?5?$AA@ 3011aacc     LIBCMTD:undname.obj
 0003:0001bad8       ??_C@_08NIEOINHE@virtual?5?$AA@ 3011aad8     LIBCMTD:undname.obj
 0003:0001bae4       ??_C@_07PGOEDBHP@static?5?$AA@ 3011aae4     LIBCMTD:undname.obj
 0003:0001baf0       ??_C@_0DA@HGFJFBBE@?$GAtemplate?5static?5data?5member?5des@ 3011aaf0     LIBCMTD:undname.obj
 0003:0001bb2c       ??_C@_0DB@ILEFOCIJ@?$GAtemplate?5static?5data?5member?5con@ 3011ab2c     LIBCMTD:undname.obj
 0003:0001bb68       ??_C@_0CB@KJDOOODE@?$GAlocal?5static?5destructor?5helper?8@ 3011ab68     LIBCMTD:undname.obj
 0003:0001bb90       ??_C@_0L@HNGCOGAE@?$GAadjustor?$HL?$AA@ 3011ab90     LIBCMTD:undname.obj
 0003:0001bba0       ??_C@_0L@GHPFDFH@?$GAvtordisp?$HL?$AA@ 3011aba0     LIBCMTD:undname.obj
 0003:0001bbb0       ??_C@_0N@CBHHHENL@?$GAvtordispex?$HL?$AA@ 3011abb0     LIBCMTD:undname.obj
 0003:0001bbc0       ??_C@_02IGFCGPIL@?$HN?8?$AA@ 3011abc0     LIBCMTD:undname.obj
 0003:0001bbc4       ??_C@_03OPGICMGF@?$HN?8?5?$AA@ 3011abc4     LIBCMTD:undname.obj
 0003:0001bbc8       ??_C@_02KCKGHPCA@?$CJ?5?$AA@ 3011abc8     LIBCMTD:undname.obj
 0003:0001bbcc       ??_C@_05BEFAKPML@void?5?$AA@ 3011abcc     LIBCMTD:undname.obj
 0003:0001bbd4       ??_C@_0P@GCOCNKDM@std?3?3nullptr_t?$AA@ 3011abd4     LIBCMTD:undname.obj
 0003:0001bbe8       ??_C@_08PABEKFH@volatile?$AA@ 3011abe8     LIBCMTD:undname.obj
 0003:0001bbf4       ??_C@_0M@ELJOJFFH@?0?$DMellipsis?$DO?$AA@ 3011abf4     LIBCMTD:undname.obj
 0003:0001bc04       ??_C@_04EENFHACM@?0?4?4?4?$AA@ 3011ac04     LIBCMTD:undname.obj
 0003:0001bc0c       ??_C@_0L@EGPHHEKN@?$DMellipsis?$DO?$AA@ 3011ac0c     LIBCMTD:undname.obj
 0003:0001bc1c       ??_C@_07HDJPLPEK@?5throw?$CI?$AA@ 3011ac1c     LIBCMTD:undname.obj
 0003:0001bc28       ??_C@_09EFNPDFFP@?5volatile?$AA@ 3011ac28     LIBCMTD:undname.obj
 0003:0001bc34       ??_C@_05BNCCCJPP@const?$AA@ 3011ac34     LIBCMTD:undname.obj
 0003:0001bc3c       ??_C@_07EDHNAJHC@signed?5?$AA@ 3011ac3c     LIBCMTD:undname.obj
 0003:0001bc48       ??_C@_09EBBEKKIH@unsigned?5?$AA@ 3011ac48     LIBCMTD:undname.obj
 0003:0001bc54       ??_C@_07NFANNNEC@UNKNOWN?$AA@ 3011ac54     LIBCMTD:undname.obj
 0003:0001bc60       ??_C@_06GCICPBLB@__w64?5?$AA@ 3011ac60     LIBCMTD:undname.obj
 0003:0001bc68       ??_C@_07CLGGIAMF@wchar_t?$AA@ 3011ac68     LIBCMTD:undname.obj
 0003:0001bc74       ??_C@_09EEKGDCPH@?$DMunknown?$DO?$AA@ 3011ac74     LIBCMTD:undname.obj
 0003:0001bc80       ??_C@_08GAHOLHEO@__int128?$AA@ 3011ac80     LIBCMTD:undname.obj
 0003:0001bc8c       ??_C@_07LFCOJCAC@__int64?$AA@ 3011ac8c     LIBCMTD:undname.obj
 0003:0001bc98       ??_C@_07OFLPPHGP@__int32?$AA@ 3011ac98     LIBCMTD:undname.obj
 0003:0001bca4       ??_C@_07ICFHOGAF@__int16?$AA@ 3011aca4     LIBCMTD:undname.obj
 0003:0001bcb0       ??_C@_06EBGKOKIG@__int8?$AA@ 3011acb0     LIBCMTD:undname.obj
 0003:0001bcb8       ??_C@_04DDKJGDCM@bool?$AA@ 3011acb8     LIBCMTD:undname.obj
 0003:0001bcc0       ??_C@_06BNJCAIGJ@double?$AA@ 3011acc0     LIBCMTD:undname.obj
 0003:0001bcc8       ??_C@_05CJIMAING@long?5?$AA@ 3011acc8     LIBCMTD:undname.obj
 0003:0001bcd0       ??_C@_05KNFBNCOH@float?$AA@ 3011acd0     LIBCMTD:undname.obj
 0003:0001bcd8       ??_C@_04GOKPGOLB@long?$AA@ 3011acd8     LIBCMTD:undname.obj
 0003:0001bce0       ??_C@_03JBIPMCLC@int?$AA@  3011ace0     LIBCMTD:undname.obj
 0003:0001bce4       ??_C@_05BFKKPKCG@short?$AA@ 3011ace4     LIBCMTD:undname.obj
 0003:0001bcec       ??_C@_04ENMBGAPA@char?$AA@ 3011acec     LIBCMTD:undname.obj
 0003:0001bcf4       ??_C@_05LJGMCFOG@enum?5?$AA@ 3011acf4     LIBCMTD:undname.obj
 0003:0001bcfc       ??_C@_0N@DLIEFKNA@cointerface?5?$AA@ 3011acfc     LIBCMTD:undname.obj
 0003:0001bd0c       ??_C@_08KOFANOFK@coclass?5?$AA@ 3011ad0c     LIBCMTD:undname.obj
 0003:0001bd18       ??_C@_06LJBABKPM@class?5?$AA@ 3011ad18     LIBCMTD:undname.obj
 0003:0001bd20       ??_C@_07DIBCDNGL@struct?5?$AA@ 3011ad20     LIBCMTD:undname.obj
 0003:0001bd2c       ??_C@_06MOJHIBMG@union?5?$AA@ 3011ad2c     LIBCMTD:undname.obj
 0003:0001bd34       ??_C@_0P@GCIFDJCJ@?$GAunknown?5ecsu?8?$AA@ 3011ad34     LIBCMTD:undname.obj
 0003:0001bd48       ??_C@_04LAHKHJMA@int?5?$AA@ 3011ad48     LIBCMTD:undname.obj
 0003:0001bd50       ??_C@_06EHJMALKF@short?5?$AA@ 3011ad50     LIBCMTD:undname.obj
 0003:0001bd58       ??_C@_05CIHEBHNO@char?5?$AA@ 3011ad58     LIBCMTD:undname.obj
 0003:0001bd60       ??_C@_06LIJLOJAG@const?5?$AA@ 3011ad60     LIBCMTD:undname.obj
 0003:0001bd68       ??_C@_09GAIEOBLP@volatile?5?$AA@ 3011ad68     LIBCMTD:undname.obj
 0003:0001bd74       ??_C@_0O@GKABPPIF@cli?3?3pin_ptr?$DM?$AA@ 3011ad74     LIBCMTD:undname.obj
 0003:0001bd84       ??_C@_0M@EALIELKG@cli?3?3array?$DM?$AA@ 3011ad84     LIBCMTD:undname.obj
 0003:0001bd94       ??_C@_02GOGNNPBN@?$CJ?$FL?$AA@ 3011ad94     LIBCMTD:undname.obj
 0003:0001bd98       ??_C@_06EEGAIFAK@?$HLflat?$HN?$AA@ 3011ad98     LIBCMTD:undname.obj
 0003:0001bda0       ??_C@_02MDINNEEG@s?5?$AA@  3011ada0     LIBCMTD:undname.obj
 0003:0001bda4       ??_C@_05JIBOFOHK@?$HLfor?5?$AA@ 3011ada4     LIBCMTD:undname.obj
 0003:0001bdac       ??_7DNameNode@@6B@         3011adac     LIBCMTD:undname.obj
 0003:0001bdbc       ??_7charNode@@6B@          3011adbc     LIBCMTD:undname.obj
 0003:0001bdcc       ??_7pcharNode@@6B@         3011adcc     LIBCMTD:undname.obj
 0003:0001bddc       ??_7pDNameNode@@6B@        3011addc     LIBCMTD:undname.obj
 0003:0001bdec       ??_7DNameStatusNode@@6B@   3011adec     LIBCMTD:undname.obj
 0003:0001bdfc       ??_C@_04OKOHEJBO@?5?$DP?$DP?5?$AA@ 3011adfc     LIBCMTD:undname.obj
 0003:0001be04       ??_7pairNode@@6B@          3011ae04     LIBCMTD:undname.obj
 0003:0001c88c       ??_R4bad_exception@std@@6B@ 3011b88c     LIBCMTD:frame.obj
 0003:0001c8a4       ??_R3bad_exception@std@@8  3011b8a4     LIBCMTD:frame.obj
 0003:0001c8b8       ??_R2bad_exception@std@@8  3011b8b8     LIBCMTD:frame.obj
 0003:0001c8c4       ??_R1A@?0A@EA@bad_exception@std@@8 3011b8c4     LIBCMTD:frame.obj
 0003:0001c8e8       ??_R1A@?0A@EA@exception@std@@8 3011b8e8     LIBCMTD:frame.obj
 0003:0001c90c       ??_R3exception@std@@8      3011b90c     LIBCMTD:frame.obj
 0003:0001c920       ??_R2exception@std@@8      3011b920     LIBCMTD:frame.obj
 0003:0001c928       ??_R4type_info@@6B@        3011b928     LIBCMTD:typinfo.obj
 0003:0001c940       ??_R3type_info@@8          3011b940     LIBCMTD:typinfo.obj
 0003:0001c954       ??_R2type_info@@8          3011b954     LIBCMTD:typinfo.obj
 0003:0001c95c       ??_R1A@?0A@EA@type_info@@8 3011b95c     LIBCMTD:typinfo.obj
 0003:0001c980       ??_R4exception@std@@6B@    3011b980     LIBCMTD:stdexcpt.obj
 0003:0001c998       ??_R4bad_cast@std@@6B@     3011b998     LIBCMTD:stdexcpt.obj
 0003:0001c9b0       ??_R3bad_cast@std@@8       3011b9b0     LIBCMTD:stdexcpt.obj
 0003:0001c9c4       ??_R2bad_cast@std@@8       3011b9c4     LIBCMTD:stdexcpt.obj
 0003:0001c9d0       ??_R1A@?0A@EA@bad_cast@std@@8 3011b9d0     LIBCMTD:stdexcpt.obj
 0003:0001c9f4       ??_R4bad_typeid@std@@6B@   3011b9f4     LIBCMTD:stdexcpt.obj
 0003:0001ca0c       ??_R3bad_typeid@std@@8     3011ba0c     LIBCMTD:stdexcpt.obj
 0003:0001ca20       ??_R2bad_typeid@std@@8     3011ba20     LIBCMTD:stdexcpt.obj
 0003:0001ca2c       ??_R1A@?0A@EA@bad_typeid@std@@8 3011ba2c     LIBCMTD:stdexcpt.obj
 0003:0001ca50       ??_R4__non_rtti_object@std@@6B@ 3011ba50     LIBCMTD:stdexcpt.obj
 0003:0001ca68       ??_R3__non_rtti_object@std@@8 3011ba68     LIBCMTD:stdexcpt.obj
 0003:0001ca7c       ??_R2__non_rtti_object@std@@8 3011ba7c     LIBCMTD:stdexcpt.obj
 0003:0001ca8c       ??_R1A@?0A@EA@__non_rtti_object@std@@8 3011ba8c     LIBCMTD:stdexcpt.obj
 0003:0001cbbc       ___rtc_iaa                 3011bbbc     LIBCMTD:_initsect_.obj
 0003:0001ccc0       ___rtc_izz                 3011bcc0     LIBCMTD:_initsect_.obj
 0003:0001cdc4       ___rtc_taa                 3011bdc4     LIBCMTD:_initsect_.obj
 0003:0001cec8       ___rtc_tzz                 3011bec8     LIBCMTD:_initsect_.obj
 0003:0001d700       __TI2?AVbad_exception@std@@ 3011c700     LIBCMTD:frame.obj
 0003:0001d714       __CTA2?AVbad_exception@std@@ 3011c714     LIBCMTD:frame.obj
 0003:0001d724       __CT??_R0?AVbad_exception@std@@@8??0bad_exception@std@@QAE@ABV01@@Z12 3011c724     LIBCMTD:frame.obj
 0003:0001d744       __CT??_R0?AVexception@std@@@8??0exception@std@@QAE@ABV01@@Z12 3011c744     LIBCMTD:frame.obj
 0004:00000000       _Max_Ammo                  3011d000     bg_misc.obj
 0004:00000030       _bg_itemlist               3011d030     bg_misc.obj
 0004:0000081c       _bg_numItems               3011d81c     bg_misc.obj
 0004:00000820       _eventnames                3011d820     bg_misc.obj
 0004:00000b24       _pm_stopspeed              3011db24     bg_pmove.obj
 0004:00000b28       _pm_duckScale              3011db28     bg_pmove.obj
 0004:00000b2c       _pm_swimScale              3011db2c     bg_pmove.obj
 0004:00000b30       _pm_wadeScale              3011db30     bg_pmove.obj
 0004:00000b34       _pm_ladderScale            3011db34     bg_pmove.obj
 0004:00000b38       _pm_accelerate             3011db38     bg_pmove.obj
 0004:00000b3c       _pm_airaccelerate          3011db3c     bg_pmove.obj
 0004:00000b40       _pm_ladderAccelerate       3011db40     bg_pmove.obj
 0004:00000b44       _pm_wateraccelerate        3011db44     bg_pmove.obj
 0004:00000b48       _pm_flyaccelerate          3011db48     bg_pmove.obj
 0004:00000b4c       _pm_jetpackaccelerate      3011db4c     bg_pmove.obj
 0004:00000b50       _pm_ladderfriction         3011db50     bg_pmove.obj
 0004:00000b54       _pm_friction               3011db54     bg_pmove.obj
 0004:00000b58       _pm_waterfriction          3011db58     bg_pmove.obj
 0004:00000b5c       _pm_flightfriction         3011db5c     bg_pmove.obj
 0004:00000b60       _pm_spectatorfriction      3011db60     bg_pmove.obj
 0004:00000b64       _altAmmoUsage              3011db64     bg_pmove.obj
 0004:00000c90       _drawTeamOverlayModificationCount 3011dc90     cg_draw.obj
 0004:00001610       _forceModelModificationCount 3011e610     cg_main.obj
 0004:00001f88       _cl_numparticles           3011ef88     cg_marks.obj
 0004:00001fe0       _cg_customSoundNames       3011efe0     cg_players.obj
 0004:000020d8       _axisDefault               3011f0d8     q_math.obj
 0004:000020fc       _colorBlack                3011f0fc     q_math.obj
 0004:0000210c       _colorRed                  3011f10c     q_math.obj
 0004:0000211c       _colorGreen                3011f11c     q_math.obj
 0004:0000212c       _colorBlue                 3011f12c     q_math.obj
 0004:0000213c       _colorYellow               3011f13c     q_math.obj
 0004:0000214c       _colorMagenta              3011f14c     q_math.obj
 0004:0000215c       _colorCyan                 3011f15c     q_math.obj
 0004:0000216c       _colorWhite                3011f16c     q_math.obj
 0004:0000217c       _colorLtGrey               3011f17c     q_math.obj
 0004:0000218c       _colorMdGrey               3011f18c     q_math.obj
 0004:0000219c       _colorDkGrey               3011f19c     q_math.obj
 0004:000021b0       _g_color_table             3011f1b0     q_math.obj
 0004:00002230       _bytedirs                  3011f230     q_math.obj
 0004:00002b94       ?__LINE__Var@?1??ProjectPointOnPlane@@9@9 3011fb94     q_math.obj
 0004:00002b9c       _scriptCommandCount        3011fb9c     ui_shared.obj
 0004:00002ba0       _commandList               3011fba0     ui_shared.obj
 0004:00003258       _itemParseKeywords         30120258     ui_shared.obj
 0004:00003550       _menuParseKeywords         30120550     ui_shared.obj
 0004:000038e4       ___security_cookie         301208e4     LIBCMTD:gs_cookie.obj
 0004:000038e8       ___security_cookie_complement 301208e8     LIBCMTD:gs_cookie.obj
 0004:000038ec       __fltused                  301208ec     LIBCMTD:_fpinit_.obj
 0004:000038f0       __ldused                   301208f0     LIBCMTD:_fpinit_.obj
 0004:000039c0       __cfltcvt_tab              301209c0     LIBCMTD:cmiscdat.obj
 0004:00003bb0       ___initialmbcinfo          30120bb0     LIBCMTD:mbctype.obj
 0004:00003dd0       __mbctype                  30120dd0     LIBCMTD:mbctype.obj
 0004:00003ed8       __mbcasemap                30120ed8     LIBCMTD:mbctype.obj
 0004:00003fd8       ___ptmbcinfo               30120fd8     LIBCMTD:mbctype.obj
 0004:000041d8       ___globallocalestatus      301211d8     LIBCMTD:glstatus.obj
 0004:000041dc       ___clocalestr              301211dc     LIBCMTD:nlsdata2.obj
 0004:000041e0       ___lc_time_c               301211e0     LIBCMTD:nlsdata2.obj
 0004:00004390       ___initiallocinfo          30121390     LIBCMTD:nlsdata2.obj
 0004:00004494       ___ptlocinfo               30121494     LIBCMTD:nlsdata2.obj
 0004:00004498       ___initiallocalestructinfo 30121498     LIBCMTD:nlsdata2.obj
 0004:000044a4       ___flsindex                301214a4     LIBCMTD:tidtable.obj
 0004:000044a8       ___getvalueindex           301214a8     LIBCMTD:tidtable.obj
 0004:000045c8       __d_inf                    301215c8     LIBCMTD:_util_.obj
 0004:000045d0       __d_ind                    301215d0     LIBCMTD:_util_.obj
 0004:000045d8       __d_max                    301215d8     LIBCMTD:_util_.obj
 0004:000045e0       __d_min                    301215e0     LIBCMTD:_util_.obj
 0004:000045e8       __d_mzero                  301215e8     LIBCMTD:_util_.obj
 0004:0000461c       ___nullstring              3012161c     LIBCMTD:output.obj
 0004:00004620       ___wnullstring             30121620     LIBCMTD:output.obj
 0004:00004630       __iob                      30121630     LIBCMTD:_file.obj
 0004:00004930       ___abort_behavior          30121930     LIBCMTD:abort.obj
 0004:00004938       __crtDbgFlag               30121938     LIBCMTD:dbgheap.obj
 0004:0000493c       ___crtDebugFillThreshold   3012193c     LIBCMTD:dbgheap.obj
 0004:00004944       __crtBreakAlloc            30121944     LIBCMTD:dbgheap.obj
 0004:00004950       ___badioinfo               30121950     LIBCMTD:ioinit.obj
 0004:000049a0       __pfnAllocHook             301219a0     LIBCMTD:dbghook.obj
 0004:00004b3c       __crtAssertBusy            30121b3c     LIBCMTD:dbgrptt.obj
 0004:00004b40       __CrtDbgMode               30121b40     LIBCMTD:dbgrptt.obj
 0004:00004b4c       __CrtDbgFile               30121b4c     LIBCMTD:dbgrptt.obj
 0004:00004b60       ___lconv_static_decimal    30121b60     LIBCMTD:lconv.obj
 0004:00004b64       ___lconv_static_W_decimal  30121b64     LIBCMTD:lconv.obj
 0004:00004b68       ___lconv_c                 30121b68     LIBCMTD:lconv.obj
 0004:00004bb8       ___lconv                   30121bb8     LIBCMTD:lconv.obj
 0004:00004bd0       __pctype                   30121bd0     LIBCMTD:ctype.obj
 0004:00004bd4       __pwctype                  30121bd4     LIBCMTD:ctype.obj
 0004:00004be0       __pow10pos                 30121be0     LIBCMTD:_constpow_.obj
 0004:00004d40       __pow10neg                 30121d40     LIBCMTD:_constpow_.obj
 0004:00004f28       __matherr_flag             30121f28     LIBCMTD:_matherr_.obj
 0004:00004f30       ___mb_cur_max              30121f30     LIBCMTD:nlsdata1.obj
 0004:00004f34       ___decimal_point           30121f34     LIBCMTD:nlsdata1.obj
 0004:00004f38       ___decimal_point_length    30121f38     LIBCMTD:nlsdata1.obj
 0004:00004f50       ??_R0?AVbad_exception@std@@@8 30121f50     LIBCMTD:frame.obj
 0004:00004f78       ??_R0?AVexception@std@@@8  30121f78     LIBCMTD:frame.obj
 0004:00004fa0       __NLG_Destination          30121fa0     LIBCMTD:exsup.obj
 0004:00004fb4       ??_R0?AVtype_info@@@8      30121fb4     LIBCMTD:typinfo.obj
 0004:00004fd0       ??_R0?AVbad_cast@std@@@8   30121fd0     LIBCMTD:stdexcpt.obj
 0004:00004ff0       ??_R0?AVbad_typeid@std@@@8 30121ff0     LIBCMTD:stdexcpt.obj
 0004:00005014       ??_R0?AV__non_rtti_object@std@@@8 30122014     LIBCMTD:stdexcpt.obj
 0004:00005040       __confh                    30122040     LIBCMTD:initcon.obj
 0004:000051a0       _c_pmove                   301221a0     bg_pmove.obj
 0004:000077e8       _initparticles             301247e8     cg_marks.obj
 0004:0000895c       _nonansicast               3012595c     q_math.obj
 0004:00008960       _vec3_origin               30125960     q_math.obj
 0004:001872a4       _DC                        302a42a4     ui_shared.obj
 0004:001872b8       _menuCount                 302a42b8     ui_shared.obj
 0004:001872bc       _openMenuCount             302a42bc     ui_shared.obj
 0004:001ce620       ___fastflag                302eb620     LIBCMTD:_fpinit_.obj
 0004:001ce628       __aenvptr                  302eb628     LIBCMTD:dllcrt0.obj
 0004:001ce62c       __wenvptr                  302eb62c     LIBCMTD:dllcrt0.obj
 0004:001ce630       ___error_mode              302eb630     LIBCMTD:dllcrt0.obj
 0004:001ce634       ___app_type                302eb634     LIBCMTD:dllcrt0.obj
 0004:001cea04       ___pInvalidArgHandler      302eba04     LIBCMTD:invarg.obj
 0004:001cea0c       ___mbulinfo                302eba0c     LIBCMTD:mbctype.obj
 0004:001cea18       ___mbcodepage              302eba18     LIBCMTD:mbctype.obj
 0004:001cea1c       ___ismbcodepage            302eba1c     LIBCMTD:mbctype.obj
 0004:001cea20       ___mblcid                  302eba20     LIBCMTD:mbctype.obj
 0004:001cea2c       _gpFlsAlloc                302eba2c     LIBCMTD:tidtable.obj
 0004:001cea30       _gpFlsGetValue             302eba30     LIBCMTD:tidtable.obj
 0004:001cea34       _gpFlsSetValue             302eba34     LIBCMTD:tidtable.obj
 0004:001cea38       _gpFlsFree                 302eba38     LIBCMTD:tidtable.obj
 0004:001cea44       __umaskval                 302eba44     LIBCMTD:crt0dat.obj
 0004:001cea48       ___argc                    302eba48     LIBCMTD:crt0dat.obj
 0004:001cea4c       ___argv                    302eba4c     LIBCMTD:crt0dat.obj
 0004:001cea50       ___wargv                   302eba50     LIBCMTD:crt0dat.obj
 0004:001cea54       __environ                  302eba54     LIBCMTD:crt0dat.obj
 0004:001cea58       ___initenv                 302eba58     LIBCMTD:crt0dat.obj
 0004:001cea5c       __wenviron                 302eba5c     LIBCMTD:crt0dat.obj
 0004:001cea60       ___winitenv                302eba60     LIBCMTD:crt0dat.obj
 0004:001cea64       __pgmptr                   302eba64     LIBCMTD:crt0dat.obj
 0004:001cea68       __wpgmptr                  302eba68     LIBCMTD:crt0dat.obj
 0004:001cea6c       __exitflag                 302eba6c     LIBCMTD:crt0dat.obj
 0004:001cea70       __C_Termination_Done       302eba70     LIBCMTD:crt0dat.obj
 0004:001cea74       __C_Exit_Done              302eba74     LIBCMTD:crt0dat.obj
 0004:001ceab8       __cflush                   302ebab8     LIBCMTD:_file.obj
 0004:001ceabc       ___locale_changed          302ebabc     LIBCMTD:setlocal.obj
 0004:001cead4       ?_pfnDumpClient@@3P6AXPAXI@ZA 302ebad4     LIBCMTD:dbgheap.obj
 0004:001ceadc       ___crtDebugCheckCount      302ebadc     LIBCMTD:dbgheap.obj
 0004:001cec2c       __crtheap                  302ebc2c     LIBCMTD:heapinit.obj
 0004:001cec30       __outputformat             302ebc30     LIBCMTD:outputformat.obj
 0004:001cede8       ___lconv_static_null       302ebde8     LIBCMTD:lconv.obj
 0004:001cedec       ___lconv_static_W_null     302ebdec     LIBCMTD:lconv.obj
 0004:001cf55c       ?__pInconsistency@@3P6AXXZA 302ec55c     LIBCMTD:hooks.obj
 0004:001cf564       ___pPurecall               302ec564     LIBCMTD:inithelp.obj
 0004:001cf568       ?_pnhHeap@@3P6AHI@ZA       302ec568     LIBCMTD:handler.obj
 0004:001cf56c       __stdbuf                   302ec56c     LIBCMTD:_sftbuf.obj
 0004:001cf578       __newmode                  302ec578     LIBCMTD:_newmode.obj
 0004:001cf5b4       ?pArgList@UnDecorator@@0PAVReplicator@@A 302ec5b4     LIBCMTD:undname.obj
 0004:001cf5b8       ?pZNameList@UnDecorator@@0PAVReplicator@@A 302ec5b8     LIBCMTD:undname.obj
 0004:001cf5bc       ?pTemplateArgList@UnDecorator@@0PAVReplicator@@A 302ec5bc     LIBCMTD:undname.obj
 0004:001cf5c0       ?gName@UnDecorator@@0PBDB  302ec5c0     LIBCMTD:undname.obj
 0004:001cf5c4       ?name@UnDecorator@@0PBDB   302ec5c4     LIBCMTD:undname.obj
 0004:001cf5c8       ?outputString@UnDecorator@@0PADA 302ec5c8     LIBCMTD:undname.obj
 0004:001cf5cc       ?maxStringLength@UnDecorator@@0HA 302ec5cc     LIBCMTD:undname.obj
 0004:001cf5d0       ?disableFlags@UnDecorator@@0KA 302ec5d0     LIBCMTD:undname.obj
 0004:001cf5d4       ?m_pGetParameter@UnDecorator@@0P6APADJ@ZA 302ec5d4     LIBCMTD:undname.obj
 0004:001cf5d8       ?fExplicitTemplateParams@UnDecorator@@0_NA 302ec5d8     LIBCMTD:undname.obj
 0004:001cf5d9       ?fGetTemplateArgumentList@UnDecorator@@0_NA 302ec5d9     LIBCMTD:undname.obj
 0004:001cf648       ?nodes@?1??make@DNameStatusNode@@SAPAV2@W4DNameStatus@@@Z@4PAV2@A 302ec648     LIBCMTD:undname.obj
 0004:001cf684       ??_B?1??make@DNameStatusNode@@SAPAV1@W4DNameStatus@@@Z@51 302ec684     LIBCMTD:undname.obj
 0004:001cf6a0       _itemParseKeywordHash      302ec6a0     <common>
 0004:001d2240       _Menus                     302ef240     <common>
 0004:001dc340       _g_nameBind1               302f9340     <common>
 0004:001dc360       _g_nameBind2               302f9360     <common>
 0004:001dc380       _menuParseKeywordHash      302f9380     <common>
 0004:001dcb80       _menuStack                 302f9b80     <common>
 0004:001dcbc0       _headModelVoiceChat        302f9bc0     <common>
 0004:0024d140       _voiceChatLists            3036a140     <common>
 0004:00475b80       _cg_playerOrigins          30592b80     <common>
 0004:00475f80       _voiceChatBuffer           30592f80     <common>
 0004:00478680       _cg_freeMarkPolys          30595680     <common>
 0004:004823a4       _active_particles          3059f3a4     <common>
 0004:004823c0       _cg_markPolys              3059f3c0     <common>
 0004:004943c0       _oldtime                   305b13c0     <common>
 0004:004943d0       _rup                       305b13d0     <common>
 0004:004943e0       _particles                 305b13e0     <common>
 0004:004b33e0       _rright                    305d03e0     <common>
 0004:004b33ec       _free_particles            305d03ec     <common>
 0004:004b33f0       _rforward                  305d03f0     <common>
 0004:004b3400       _pvright                   305d0400     <common>
 0004:004b3410       _pvforward                 305d0410     <common>
 0004:004b3420       _cg_activeMarkPolys        305d0420     <common>
 0004:004b3540       _pvup                      305d0540     <common>
 0004:004b3560       _cg_trueLightning          305d0560     <common>
 0004:004e9840       _cg_projectileNudge        30606840     <common>
 0004:004e9960       _cg_weapons                30606960     <common>
 0004:004ea1e0       _cg_timescaleFadeEnd       306071e0     <common>
 0004:004ea300       _cg_drawTeamOverlay        30607300     <common>
 0004:004ea420       _cg_gun_y                  30607420     <common>
 0004:004ea540       _cg_oldRail                30607540     <common>
 0004:004ea660       _cg_noTaunt                30607660     <common>
 0004:004ea780       _cg_animSpeed              30607780     <common>
 0004:004ea8a0       _cg_latentSnaps            306078a0     <common>
 0004:004ea9c0       _cg_stats                  306079c0     <common>
 0004:004eaae0       _cg_drawRewards            30607ae0     <common>
 0004:004eac00       _cg_scorePlum              30607c00     <common>
 0004:004ead20       _cgs                       30607d20     <common>
 0004:00510cc0       _cg_drawFPS                3062dcc0     <common>
 0004:00510de0       _cg_thirdPerson            3062dde0     <common>
 0004:00510f00       _cg_zoomFov                3062df00     <common>
 0004:00511020       _cg_drawCrosshair          3062e020     <common>
 0004:00511140       _cg_cameraOrbitDelay       3062e140     <common>
 0004:00511260       _cg_shadows                3062e260     <common>
 0004:00511380       _cg_debugAnim              3062e380     <common>
 0004:005114a0       _cg_timescale              3062e4a0     <common>
 0004:005115c0       _cg_addMarks               3062e5c0     <common>
 0004:005116e0       _cg_gun_z                  3062e6e0     <common>
 0004:00511800       _pmove_msec                3062e800     <common>
 0004:00511920       _cg_autoswitch             3062e920     <common>
 0004:00511a40       _cg_noVoiceText            3062ea40     <common>
 0004:00511b60       _cg_drawStatus             3062eb60     <common>
 0004:00511c80       _cg_debugDelag             3062ec80     <common>
 0004:00511da0       _cg_drawSnapshot           3062eda0     <common>
 0004:00511ec0       _cg_gun_frame              3062eec0     <common>
 0004:00511fe0       _cg_BlueMC                 3062efe0     <common>
 0004:00512100       _cg_runpitch               3062f100     <common>
 0004:00512220       _cg_railTrailTime          3062f220     <common>
 0004:00512340       _cg_drawTimer              3062f340     <common>
 0004:00512460       _cg_drawFriend             3062f460     <common>
 0004:00512580       _cg_GameMode               3062f580     <common>
 0004:005126a0       _cg_draw2D                 3062f6a0     <common>
 0004:005127c0       _cg_delag                  3062f7c0     <common>
 0004:005128e0       _cg_gun_x                  3062f8e0     <common>
 0004:00512a00       _cg_drawAmmoWarning        3062fa00     <common>
 0004:00512b20       _cg_debugPosition          3062fb20     <common>
 0004:00512c40       _cg_cameraMode             3062fc40     <common>
 0004:00512d60       _cg_bigFont                3062fd60     <common>
 0004:00512e80       _cg_drawGun                3062fe80     <common>
 0004:00512fa0       _cg_swingSpeed             3062ffa0     <common>
 0004:005130c0       _cg_centertime             306300c0     <common>
 0004:005131e0       _cg_forceModel             306301e0     <common>
 0004:00513300       _cg_items                  30630300     <common>
 0004:00514b00       _cg_crosshairHealth        30631b00     <common>
 0004:00514c20       _cg_noProjectileTrail      30631c20     <common>
 0004:00514d40       _cg_crosshairY             30631d40     <common>
 0004:00514e60       _cg_optimizePrediction     30631e60     <common>
 0004:00514f80       _cg_draw3dIcons            30631f80     <common>
 0004:005150a0       _cg_simpleItems            306320a0     <common>
 0004:005151c0       _cg_hudFiles               306321c0     <common>
 0004:005152e0       _cg_cmdTimeNudge           306322e0     <common>
 0004:00515400       _cg_tracerChance           30632400     <common>
 0004:00515520       _cg_thirdPersonRange       30632520     <common>
 0004:00515640       _cg_oldPlasma              30632640     <common>
 0004:00515760       _cg_debugEvents            30632760     <common>
 0004:00515880       _cg_stereoSeparation       30632880     <common>
 0004:005159a0       _cg_latentCmds             306329a0     <common>
 0004:00515ac0       _cg_bobroll                30632ac0     <common>
 0004:00515be0       _cg_ignore                 30632be0     <common>
 0004:00515d00       _cg_smallFont              30632d00     <common>
 0004:00515e20       _cg_drawCrosshairNames     30632e20     <common>
 0004:00515f40       _cg_crosshairX             30632f40     <common>
 0004:00516060       _cg_footsteps              30633060     <common>
 0004:00516180       _cg_noVoiceChats           30633180     <common>
 0004:005162a0       _cg_teamChatTime           306332a0     <common>
 0004:005163c0       _cg_nopredict              306333c0     <common>
 0004:005164e0       _cg_buildScript            306334e0     <common>
 0004:00516600       _cg_synchronousClients     30633600     <common>
 0004:00516720       _cl_timeNudge              30633720     <common>
 0004:00516840       _cg_drawAttacker           30633840     <common>
 0004:00516960       _cg_bobpitch               30633960     <common>
 0004:00516a80       _cg_lagometer              30633a80     <common>
 0004:00516ba0       _cg_errorDecay             30633ba0     <common>
 0004:00516cc0       _cg_teamChatHeight         30633cc0     <common>
 0004:00516de0       _cg_pmove_msec             30633de0     <common>
 0004:00516f00       _cg_runroll                30633f00     <common>
 0004:00517020       _cg                        30634020     <common>
 0004:0053d940       _cg_gibs                   3065a940     <common>
 0004:0053da60       _cg_cameraOrbit            3065aa60     <common>
 0004:0053db80       _cg_bobup                  3065ab80     <common>
 0004:0053dca0       _cg_tracerWidth            3065aca0     <common>
 0004:0053ddc0       _cg_RedMC                  3065adc0     <common>
 0004:0053dee0       _cg_drawBBox               3065aee0     <common>
 0004:0053e000       _cg_timescaleFadeSpeed     3065b000     <common>
 0004:0053e120       _sv_fps                    3065b120     <common>
 0004:0053e240       _cg_entities               3065b240     <common>
 0004:005f7240       _pmove_fixed               30714240     <common>
 0004:005f7360       _cg_teamOverlayUserinfo    30714360     <common>
 0004:005f7480       _cg_plOut                  30714480     <common>
 0004:005f75a0       _cg_brassTime              307145a0     <common>
 0004:005f76c0       _cg_blood                  307146c0     <common>
 0004:005f77e0       _cg_teamChatsOnly          307147e0     <common>
 0004:005f7900       _cg_viewsize               30714900     <common>
 0004:005f7a20       _cg_deferPlayers           30714a20     <common>
 0004:005f7b40       _cg_showmiss               30714b40     <common>
 0004:005f7c60       _cg_noPlayerAnims          30714c60     <common>
 0004:005f7d80       _cg_crosshairSize          30714d80     <common>
 0004:005f7ea0       _cg_drawIcons              30714ea0     <common>
 0004:005f7fc0       _cg_oldRocket              30714fc0     <common>
 0004:005f80e0       _cg_predictItems           307150e0     <common>
 0004:005f8200       _cg_fov                    30715200     <common>
 0004:005f8320       _cg_paused                 30715320     <common>
 0004:005f8440       _cg_thirdPersonAngle       30715440     <common>
 0004:005f8560       _cg_tracerLength           30715560     <common>
 0004:005f8680       _cg_localEntities          30715680     <common>
 0004:00624390       _cg_freeLocalEntities      30741390     <common>
 0004:006243a0       _cg_activeLocalEntities    307413a0     <common>
 0004:006244e0       _lagometer                 307414e0     <common>
 0004:00624ce0       _sortedTeamPlayers         30741ce0     <common>
 0004:00624d60       _teamChat1                 30741d60     <common>
 0004:00624e60       _numSortedTeamPlayers      30741e60     <common>
 0004:00624e80       _systemChat                30741e80     <common>
 0004:00624f80       _teamChat2                 30741f80     <common>
 0004:00625080       _pml                       30742080     <common>
 0004:00625138       _pm                        30742138     <common>
 0004:0062513c       __pfnReportHook            3074213c     <common>
 0004:0062514c       __pReportHookListW         3074214c     <common>
 0004:00625150       __pReportHookList          30742150     <common>
 0004:00625154       __debugger_hook_dummy      30742154     <common>
 0004:00625160       __nhandle                  30742160     <common>
 0004:006251a0       ___pioinfo                 307421a0     <common>
 0004:006252a0       ___setlc_active            307422a0     <common>
 0004:006252b0       ___unguarded_readlc_active 307422b0     <common>
 0004:006252b4       ___piob                    307422b4     <common>
 0004:00625600       __bufin                    30742600     <common>
 0004:00626600       __nstream                  30743600     <common>
 0004:00626604       ___env_initialized         30743604     <common>
 0004:00626614       ___onexitend               30743614     <common>
 0004:00626618       ___onexitbegin             30743618     <common>
 0004:0062661c       ___mbctype_initialized     3074361c     <common>
 0004:00626620       ___dyn_tls_init_callback   30743620     <common>
 0004:00626624       __pmatherr                 30743624     <common>
 0004:00626630       ___sse2_available          30743630     <common>
 0004:0062663c       ___use_sse2_mathfcns       3074363c     <common>
 0004:00626648       __acmdln                   30743648     <common>
 0005:00000000       __IMPORT_DESCRIPTOR_KERNEL32 30744000     kernel32:KERNEL32.dll
 0005:00000014       __NULL_IMPORT_DESCRIPTOR   30744014     kernel32:KERNEL32.dll
 0005:000001c8       __imp__GetModuleFileNameW@12 307441c8     kernel32:KERNEL32.dll
 0005:000001cc       __imp__WriteConsoleW@20    307441cc     kernel32:KERNEL32.dll
 0005:000001d0       __imp__GetFileType@4       307441d0     kernel32:KERNEL32.dll
 0005:000001d4       __imp__GetStdHandle@4      307441d4     kernel32:KERNEL32.dll
 0005:000001d8       __imp__GetCurrentThreadId@0 307441d8     kernel32:KERNEL32.dll
 0005:000001dc       __imp__DecodePointer@4     307441dc     kernel32:KERNEL32.dll
 0005:000001e0       __imp__GetCommandLineA@0   307441e0     kernel32:KERNEL32.dll
 0005:000001e4       __imp__EncodePointer@4     307441e4     kernel32:KERNEL32.dll
 0005:000001e8       __imp__TerminateProcess@8  307441e8     kernel32:KERNEL32.dll
 0005:000001ec       __imp__GetCurrentProcess@0 307441ec     kernel32:KERNEL32.dll
 0005:000001f0       __imp__UnhandledExceptionFilter@4 307441f0     kernel32:KERNEL32.dll
 0005:000001f4       __imp__SetUnhandledExceptionFilter@4 307441f4     kernel32:KERNEL32.dll
 0005:000001f8       __imp__IsDebuggerPresent@0 307441f8     kernel32:KERNEL32.dll
 0005:000001fc       __imp__IsProcessorFeaturePresent@4 307441fc     kernel32:KERNEL32.dll
 0005:00000200       __imp__InterlockedIncrement@4 30744200     kernel32:KERNEL32.dll
 0005:00000204       __imp__InterlockedDecrement@4 30744204     kernel32:KERNEL32.dll
 0005:00000208       __imp__GetACP@0            30744208     kernel32:KERNEL32.dll
 0005:0000020c       __imp__GetOEMCP@0          3074420c     kernel32:KERNEL32.dll
 0005:00000210       __imp__GetCPInfo@8         30744210     kernel32:KERNEL32.dll
 0005:00000214       __imp__IsValidCodePage@4   30744214     kernel32:KERNEL32.dll
 0005:00000218       __imp__TlsAlloc@0          30744218     kernel32:KERNEL32.dll
 0005:0000021c       __imp__TlsGetValue@4       3074421c     kernel32:KERNEL32.dll
 0005:00000220       __imp__TlsSetValue@8       30744220     kernel32:KERNEL32.dll
 0005:00000224       __imp__TlsFree@4           30744224     kernel32:KERNEL32.dll
 0005:00000228       __imp__GetProcAddress@8    30744228     kernel32:KERNEL32.dll
 0005:0000022c       __imp__GetModuleHandleW@4  3074422c     kernel32:KERNEL32.dll
 0005:00000230       __imp__SetLastError@4      30744230     kernel32:KERNEL32.dll
 0005:00000234       __imp__GetLastError@0      30744234     kernel32:KERNEL32.dll
 0005:00000238       __imp__GetCurrentThread@0  30744238     kernel32:KERNEL32.dll
 0005:0000023c       __imp__RaiseException@16   3074423c     kernel32:KERNEL32.dll
 0005:00000240       __imp__ExitProcess@4       30744240     kernel32:KERNEL32.dll
 0005:00000244       __imp__SetConsoleCtrlHandler@8 30744244     kernel32:KERNEL32.dll
 0005:00000248       __imp__LoadLibraryW@4      30744248     kernel32:KERNEL32.dll
 0005:0000024c       __imp__EnterCriticalSection@4 3074424c     kernel32:KERNEL32.dll
 0005:00000250       __imp__LeaveCriticalSection@4 30744250     kernel32:KERNEL32.dll
 0005:00000254       __imp__WideCharToMultiByte@32 30744254     kernel32:KERNEL32.dll
 0005:00000258       __imp__LCMapStringW@24     30744258     kernel32:KERNEL32.dll
 0005:0000025c       __imp__MultiByteToWideChar@24 3074425c     kernel32:KERNEL32.dll
 0005:00000260       __imp__HeapValidate@12     30744260     kernel32:KERNEL32.dll
 0005:00000264       __imp__IsBadReadPtr@8      30744264     kernel32:KERNEL32.dll
 0005:00000268       __imp__SetHandleCount@4    30744268     kernel32:KERNEL32.dll
 0005:0000026c       __imp__InitializeCriticalSectionAndSpinCount@8 3074426c     kernel32:KERNEL32.dll
 0005:00000270       __imp__GetStartupInfoW@4   30744270     kernel32:KERNEL32.dll
 0005:00000274       __imp__DeleteCriticalSection@4 30744274     kernel32:KERNEL32.dll
 0005:00000278       __imp__GetModuleFileNameA@12 30744278     kernel32:KERNEL32.dll
 0005:0000027c       __imp__FreeEnvironmentStringsW@4 3074427c     kernel32:KERNEL32.dll
 0005:00000280       __imp__GetEnvironmentStringsW@0 30744280     kernel32:KERNEL32.dll
 0005:00000284       __imp__HeapCreate@12       30744284     kernel32:KERNEL32.dll
 0005:00000288       __imp__HeapDestroy@4       30744288     kernel32:KERNEL32.dll
 0005:0000028c       __imp__QueryPerformanceCounter@4 3074428c     kernel32:KERNEL32.dll
 0005:00000290       __imp__GetTickCount@0      30744290     kernel32:KERNEL32.dll
 0005:00000294       __imp__GetCurrentProcessId@0 30744294     kernel32:KERNEL32.dll
 0005:00000298       __imp__GetSystemTimeAsFileTime@4 30744298     kernel32:KERNEL32.dll
 0005:0000029c       __imp__GetStringTypeW@16   3074429c     kernel32:KERNEL32.dll
 0005:000002a0       __imp__FatalAppExitA@8     307442a0     kernel32:KERNEL32.dll
 0005:000002a4       __imp__WriteFile@20        307442a4     kernel32:KERNEL32.dll
 0005:000002a8       __imp__OutputDebugStringA@4 307442a8     kernel32:KERNEL32.dll
 0005:000002ac       __imp__OutputDebugStringW@4 307442ac     kernel32:KERNEL32.dll
 0005:000002b0       __imp__RtlUnwind@16        307442b0     kernel32:KERNEL32.dll
 0005:000002b4       __imp__SetFilePointer@16   307442b4     kernel32:KERNEL32.dll
 0005:000002b8       __imp__GetConsoleCP@0      307442b8     kernel32:KERNEL32.dll
 0005:000002bc       __imp__GetConsoleMode@8    307442bc     kernel32:KERNEL32.dll
 0005:000002c0       __imp__FreeLibrary@4       307442c0     kernel32:KERNEL32.dll
 0005:000002c4       __imp__InterlockedExchange@8 307442c4     kernel32:KERNEL32.dll
 0005:000002c8       __imp__GetLocaleInfoW@16   307442c8     kernel32:KERNEL32.dll
 0005:000002cc       __imp__FlushFileBuffers@4  307442cc     kernel32:KERNEL32.dll
 0005:000002d0       __imp__GetLocaleInfoA@16   307442d0     kernel32:KERNEL32.dll
 0005:000002d4       __imp__IsValidLocale@8     307442d4     kernel32:KERNEL32.dll
 0005:000002d8       __imp__EnumSystemLocalesA@8 307442d8     kernel32:KERNEL32.dll
 0005:000002dc       __imp__GetUserDefaultLCID@0 307442dc     kernel32:KERNEL32.dll
 0005:000002e0       __imp__HeapAlloc@12        307442e0     kernel32:KERNEL32.dll
 0005:000002e4       __imp__HeapReAlloc@16      307442e4     kernel32:KERNEL32.dll
 0005:000002e8       __imp__HeapSize@12         307442e8     kernel32:KERNEL32.dll
 0005:000002ec       __imp__HeapQueryInformation@20 307442ec     kernel32:KERNEL32.dll
 0005:000002f0       __imp__HeapFree@12         307442f0     kernel32:KERNEL32.dll
 0005:000002f4       __imp__SetStdHandle@8      307442f4     kernel32:KERNEL32.dll
 0005:000002f8       __imp__CreateFileW@28      307442f8     kernel32:KERNEL32.dll
 0005:000002fc       __imp__CloseHandle@4       307442fc     kernel32:KERNEL32.dll
 0005:00000300       \177KERNEL32_NULL_THUNK_DATA 30744300     kernel32:KERNEL32.dll

 entry point at        0002:0000095b

