 ioquake3

 Timestamp is 58173999 (Mon Oct 31 08:31:21 2016)

 Preferred load address is 00400000

 Start         Length     Name                   Class
 0001:00000000 000a7258H .textbss                DATA
 0002:00000000 00155495H .text                   CODE
 0003:00000000 00000104H .CRT$XCA                DATA
 0003:00000104 00000104H .CRT$XCAA               DATA
 0003:00000208 00000104H .CRT$XCZ                DATA
 0003:0000030c 00000104H .CRT$XIA                DATA
 0003:00000410 00000104H .CRT$XIAA               DATA
 0003:00000514 00000104H .CRT$XIC                DATA
 0003:00000618 00000104H .CRT$XIY                DATA
 0003:0000071c 00000104H .CRT$XIZ                DATA
 0003:00000820 00026740H .rdata                  DATA
 0003:00026f60 0000016fH .rdata$debug            DATA
 0003:000270d0 00000104H .rtc$IAA                DATA
 0003:000271d4 00000104H .rtc$IZZ                DATA
 0003:000272d8 00000104H .rtc$TAA                DATA
 0003:000273dc 00000104H .rtc$TZZ                DATA
 0003:000274e0 00000169H .xdata$x                DATA
 0003:00027649 00000000H .edata                  DATA
 0004:00000000 000049e6H .data                   DATA
 0004:00004a00 01e87a68H .bss                    DATA
 0005:00000000 000000b4H .idata$2                DATA
 0005:000000b4 00000014H .idata$3                DATA
 0005:000000c8 00000748H .idata$4                DATA
 0005:00000810 00000748H .idata$5                DATA
 0005:00000f58 00001467H .idata$6                DATA
 0006:00000000 000002a6H .rsrc$01                DATA
 0006:000002b0 00001253H .rsrc$02                DATA

  Address         Publics by Value              Rva+Base       Lib:Object

 0000:00000000       ___safe_se_handler_table   00000000     <absolute>
 0000:00000000       ___safe_se_handler_count   00000000     <absolute>
 0000:00000000       __except_list              00000000     <absolute>
 0000:00009876       __ldused                   00009876     <absolute>
 0000:00009876       __fltused                  00009876     <absolute>
 0000:00000000       ___ImageBase               00400000     <linker-defined>
 0001:00000000       __enc$textbss$begin        00401000     <linker-defined>
 0001:000a7258       __enc$textbss$end          004a8258     <linker-defined>
 0002:000068e0       _CL_WriteAVIHeader         004af8e0 f   cl_avi.obj
 0002:00007150       _CL_OpenAVIForWriting      004b0150 f   cl_avi.obj
 0002:00007580       _CL_WriteAVIVideoFrame     004b0580 f   cl_avi.obj
 0002:000077c0       _CL_WriteAVIAudioFrame     004b07c0 f   cl_avi.obj
 0002:00007a70       _CL_TakeVideoFrame         004b0a70 f   cl_avi.obj
 0002:00007ad0       _CL_CloseAVI               004b0ad0 f   cl_avi.obj
 0002:00007d90       _CL_VideoRecording         004b0d90 f   cl_avi.obj
 0002:00007db0       _CL_GetGameState           004b0db0 f   cl_cgame.obj
 0002:00007de0       _CL_GetGlconfig            004b0de0 f   cl_cgame.obj
 0002:00007e10       _CL_GetUserCmd             004b0e10 f   cl_cgame.obj
 0002:00007eb0       _CL_GetCurrentCmdNumber    004b0eb0 f   cl_cgame.obj
 0002:00007ed0       _CL_GetParseEntityState    004b0ed0 f   cl_cgame.obj
 0002:00007f60       _CL_GetCurrentSnapshotNumber 004b0f60 f   cl_cgame.obj
 0002:00007f90       _CL_GetSnapshot            004b0f90 f   cl_cgame.obj
 0002:00008170       _CL_SetUserCmdValue        004b1170 f   cl_cgame.obj
 0002:000081a0       _CL_AddCgameCommand        004b11a0 f   cl_cgame.obj
 0002:000081d0       _CL_CgameError             004b11d0 f   cl_cgame.obj
 0002:00008200       _CL_ConfigstringModified   004b1200 f   cl_cgame.obj
 0002:00008420       _CL_GetServerCommand       004b1420 f   cl_cgame.obj
 0002:000087d0       _CL_CM_LoadMap             004b17d0 f   cl_cgame.obj
 0002:00008800       _CL_ShutdownCGame          004b1800 f   cl_cgame.obj
 0002:00008880       _CL_CgameSystemCalls       004b1880 f   cl_cgame.obj
 0002:0000a110       _CL_InitCGame              004b3110 f   cl_cgame.obj
 0002:0000a2b0       _CL_GameCommand            004b32b0 f   cl_cgame.obj
 0002:0000a2f0       _CL_CGameRendering         004b32f0 f   cl_cgame.obj
 0002:0000a340       _CL_AdjustTimeDelta        004b3340 f   cl_cgame.obj
 0002:0000a4e0       _CL_FirstSnapshot          004b34e0 f   cl_cgame.obj
 0002:0000a760       _CL_SetCGameTime           004b3760 f   cl_cgame.obj
 0002:0000aa80       _CIN_CloseAllVideos        004b3a80 f   cl_cin.obj
 0002:0000aae0       _RllDecodeMonoToMono       004b3ae0 f   cl_cin.obj
 0002:0000ab80       _RllDecodeMonoToStereo     004b3b80 f   cl_cin.obj
 0002:0000ac30       _RllDecodeStereoToStereo   004b3c30 f   cl_cin.obj
 0002:0000ad50       _RllDecodeStereoToMono     004b3d50 f   cl_cin.obj
 0002:0000ae40       _CIN_StopCinematic         004b3e40 f   cl_cin.obj
 0002:0000b0c0       _CIN_RunCinematic          004b40c0 f   cl_cin.obj
 0002:0000f960       _CIN_PlayCinematic         004b8960 f   cl_cin.obj
 0002:00010710       _CIN_SetExtents            004b9710 f   cl_cin.obj
 0002:000107c0       _CIN_SetLooping            004b97c0 f   cl_cin.obj
 0002:00010820       _CIN_DrawCinematic         004b9820 f   cl_cin.obj
 0002:00010db0       _CL_PlayCinematic_f        004b9db0 f   cl_cin.obj
 0002:00010f10       _SCR_DrawCinematic         004b9f10 f   cl_cin.obj
 0002:00010f50       _SCR_RunCinematic          004b9f50 f   cl_cin.obj
 0002:00010f90       _SCR_StopCinematic         004b9f90 f   cl_cin.obj
 0002:00010fe0       _CIN_UploadCinematic       004b9fe0 f   cl_cin.obj
 0002:000111b0       _Con_ToggleConsole_f       004ba1b0 f   cl_console.obj
 0002:00011220       _Con_MessageMode_f         004ba220 f   cl_console.obj
 0002:00011280       _Con_MessageMode2_f        004ba280 f   cl_console.obj
 0002:000112e0       _Con_MessageMode3_f        004ba2e0 f   cl_console.obj
 0002:00011380       _Con_MessageMode4_f        004ba380 f   cl_console.obj
 0002:00011420       _Con_Clear_f               004ba420 f   cl_console.obj
 0002:00011480       _Con_Dump_f                004ba480 f   cl_console.obj
 0002:00011720       _Con_ClearNotify           004ba720 f   cl_console.obj
 0002:00011770       _Con_CheckResize           004ba770 f   cl_console.obj
 0002:000119b0       _Cmd_CompleteTxtName       004ba9b0 f   cl_console.obj
 0002:000119f0       _Con_Init                  004ba9f0 f   cl_console.obj
 0002:00011b80       _Con_Linefeed              004bab80 f   cl_console.obj
 0002:00011c90       _CL_ConsolePrint           004bac90 f   cl_console.obj
 0002:00011f80       _Con_DrawInput             004baf80 f   cl_console.obj
 0002:00012030       _Con_DrawNotify            004bb030 f   cl_console.obj
 0002:00012320       _Con_DrawSolidConsole      004bb320 f   cl_console.obj
 0002:00012760       _Con_DrawConsole           004bb760 f   cl_console.obj
 0002:000127f0       _Con_RunConsole            004bb7f0 f   cl_console.obj
 0002:00012910       _Con_PageUp                004bb910 f   cl_console.obj
 0002:00012970       _Con_PageDown              004bb970 f   cl_console.obj
 0002:000129c0       _Con_Top                   004bb9c0 f   cl_console.obj
 0002:00012a10       _Con_Bottom                004bba10 f   cl_console.obj
 0002:00012a30       _Con_Close                 004bba30 f   cl_console.obj
 0002:00012aa0       _CL_cURL_Init              004bbaa0 f   cl_curl.obj
 0002:00012d60       _CL_cURL_Shutdown          004bbd60 f   cl_curl.obj
 0002:00012e60       _CL_cURL_Cleanup           004bbe60 f   cl_curl.obj
 0002:00012f20       _CL_cURL_BeginDownload     004bbf20 f   cl_curl.obj
 0002:00013400       _CL_cURL_PerformDownload   004bc400 f   cl_curl.obj
 0002:00013550       _IN_MLookDown              004bc550 f   cl_input.obj
 0002:00013570       _IN_MLookUp                004bc570 f   cl_input.obj
 0002:000135b0       _IN_KeyDown                004bc5b0 f   cl_input.obj
 0002:000136b0       _IN_KeyUp                  004bc6b0 f   cl_input.obj
 0002:000137f0       _CL_KeyState               004bc7f0 f   cl_input.obj
 0002:000138c0       _IN_UpDown                 004bc8c0 f   cl_input.obj
 0002:000138f0       _IN_UpUp                   004bc8f0 f   cl_input.obj
 0002:00013920       _IN_DownDown               004bc920 f   cl_input.obj
 0002:00013950       _IN_DownUp                 004bc950 f   cl_input.obj
 0002:00013980       _IN_LeftDown               004bc980 f   cl_input.obj
 0002:000139b0       _IN_LeftUp                 004bc9b0 f   cl_input.obj
 0002:000139e0       _IN_RightDown              004bc9e0 f   cl_input.obj
 0002:00013a10       _IN_RightUp                004bca10 f   cl_input.obj
 0002:00013a40       _IN_ForwardDown            004bca40 f   cl_input.obj
 0002:00013a70       _IN_ForwardUp              004bca70 f   cl_input.obj
 0002:00013aa0       _IN_BackDown               004bcaa0 f   cl_input.obj
 0002:00013ad0       _IN_BackUp                 004bcad0 f   cl_input.obj
 0002:00013b00       _IN_LookupDown             004bcb00 f   cl_input.obj
 0002:00013b30       _IN_LookupUp               004bcb30 f   cl_input.obj
 0002:00013b60       _IN_LookdownDown           004bcb60 f   cl_input.obj
 0002:00013b90       _IN_LookdownUp             004bcb90 f   cl_input.obj
 0002:00013bc0       _IN_MoveleftDown           004bcbc0 f   cl_input.obj
 0002:00013bf0       _IN_MoveleftUp             004bcbf0 f   cl_input.obj
 0002:00013c20       _IN_MoverightDown          004bcc20 f   cl_input.obj
 0002:00013c50       _IN_MoverightUp            004bcc50 f   cl_input.obj
 0002:00013c80       _IN_SpeedDown              004bcc80 f   cl_input.obj
 0002:00013cb0       _IN_SpeedUp                004bccb0 f   cl_input.obj
 0002:00013ce0       _IN_StrafeDown             004bcce0 f   cl_input.obj
 0002:00013d10       _IN_StrafeUp               004bcd10 f   cl_input.obj
 0002:00013d40       _IN_VoipRecordDown         004bcd40 f   cl_input.obj
 0002:00013d80       _IN_VoipRecordUp           004bcd80 f   cl_input.obj
 0002:00013dc0       _IN_Button0Down            004bcdc0 f   cl_input.obj
 0002:00013df0       _IN_Button0Up              004bcdf0 f   cl_input.obj
 0002:00013e20       _IN_Button1Down            004bce20 f   cl_input.obj
 0002:00013e50       _IN_Button1Up              004bce50 f   cl_input.obj
 0002:00013e80       _IN_Button2Down            004bce80 f   cl_input.obj
 0002:00013eb0       _IN_Button2Up              004bceb0 f   cl_input.obj
 0002:00013ee0       _IN_Button3Down            004bcee0 f   cl_input.obj
 0002:00013f10       _IN_Button3Up              004bcf10 f   cl_input.obj
 0002:00013f40       _IN_Button4Down            004bcf40 f   cl_input.obj
 0002:00013f70       _IN_Button4Up              004bcf70 f   cl_input.obj
 0002:00013fa0       _IN_Button5Down            004bcfa0 f   cl_input.obj
 0002:00013fd0       _IN_Button5Up              004bcfd0 f   cl_input.obj
 0002:00014000       _IN_Button6Down            004bd000 f   cl_input.obj
 0002:00014030       _IN_Button6Up              004bd030 f   cl_input.obj
 0002:00014060       _IN_Button7Down            004bd060 f   cl_input.obj
 0002:00014090       _IN_Button7Up              004bd090 f   cl_input.obj
 0002:000140c0       _IN_Button8Down            004bd0c0 f   cl_input.obj
 0002:000140f0       _IN_Button8Up              004bd0f0 f   cl_input.obj
 0002:00014120       _IN_Button9Down            004bd120 f   cl_input.obj
 0002:00014150       _IN_Button9Up              004bd150 f   cl_input.obj
 0002:00014180       _IN_Button10Down           004bd180 f   cl_input.obj
 0002:000141b0       _IN_Button10Up             004bd1b0 f   cl_input.obj
 0002:000141e0       _IN_Button11Down           004bd1e0 f   cl_input.obj
 0002:00014210       _IN_Button11Up             004bd210 f   cl_input.obj
 0002:00014240       _IN_Button12Down           004bd240 f   cl_input.obj
 0002:00014270       _IN_Button12Up             004bd270 f   cl_input.obj
 0002:000142a0       _IN_Button13Down           004bd2a0 f   cl_input.obj
 0002:000142d0       _IN_Button13Up             004bd2d0 f   cl_input.obj
 0002:00014300       _IN_Button14Down           004bd300 f   cl_input.obj
 0002:00014330       _IN_Button14Up             004bd330 f   cl_input.obj
 0002:00014360       _IN_Button15Down           004bd360 f   cl_input.obj
 0002:00014390       _IN_Button15Up             004bd390 f   cl_input.obj
 0002:000143c0       _IN_ButtonDown             004bd3c0 f   cl_input.obj
 0002:000143f0       _IN_ButtonUp               004bd3f0 f   cl_input.obj
 0002:00014420       _IN_CenterView             004bd420 f   cl_input.obj
 0002:00014450       _CL_AdjustAngles           004bd450 f   cl_input.obj
 0002:00014580       _CL_KeyMove                004bd580 f   cl_input.obj
 0002:000147a0       _CL_MouseEvent             004bd7a0 f   cl_input.obj
 0002:00014860       _CL_JoystickEvent          004bd860 f   cl_input.obj
 0002:000148b0       _CL_JoystickMove           004bd8b0 f   cl_input.obj
 0002:00014a10       _CL_MouseMove              004bda10 f   cl_input.obj
 0002:00014ec0       _CL_CmdButtons             004bdec0 f   cl_input.obj
 0002:00014fa0       _CL_FinishMove             004bdfa0 f   cl_input.obj
 0002:00015030       _CL_CreateCmd              004be030 f   cl_input.obj
 0002:00015210       _CL_CreateNewCommands      004be210 f   cl_input.obj
 0002:000152f0       _CL_ReadyToSendPacket      004be2f0 f   cl_input.obj
 0002:00015480       _CL_WritePacket            004be480 f   cl_input.obj
 0002:00015f20       _CL_SendCmd                004bef20 f   cl_input.obj
 0002:00015fb0       _CL_InitInput              004befb0 f   cl_input.obj
 0002:00016560       _Field_VariableSizeDraw    004bf560 f   cl_keys.obj
 0002:00016800       _Field_Draw                004bf800 f   cl_keys.obj
 0002:00016840       _Field_BigDraw             004bf840 f   cl_keys.obj
 0002:00016880       _Field_Paste               004bf880 f   cl_keys.obj
 0002:00016910       _Field_KeyDownEvent        004bf910 f   cl_keys.obj
 0002:00016b00       _Field_CharEvent           004bfb00 f   cl_keys.obj
 0002:00016d50       _Console_Key               004bfd50 f   cl_keys.obj
 0002:00017210       _Message_Key               004c0210 f   cl_keys.obj
 0002:000173a0       _Key_GetOverstrikeMode     004c03a0 f   cl_keys.obj
 0002:000173c0       _Key_SetOverstrikeMode     004c03c0 f   cl_keys.obj
 0002:000173e0       _Key_IsDown                004c03e0 f   cl_keys.obj
 0002:00017420       _Key_StringToKeynum        004c0420 f   cl_keys.obj
 0002:000174f0       _Key_KeynumToString        004c04f0 f   cl_keys.obj
 0002:00017640       _Key_SetBinding            004c0640 f   cl_keys.obj
 0002:000176d0       _Key_GetBinding            004c06d0 f   cl_keys.obj
 0002:00017710       _Key_GetKey                004c0710 f   cl_keys.obj
 0002:00017790       _Key_Unbind_f              004c0790 f   cl_keys.obj
 0002:00017820       _Key_Unbindall_f           004c0820 f   cl_keys.obj
 0002:00017880       _Key_Bind_f                004c0880 f   cl_keys.obj
 0002:00017a20       _Key_WriteBindings         004c0a20 f   cl_keys.obj
 0002:00017ad0       _Key_Bindlist_f            004c0ad0 f   cl_keys.obj
 0002:00017b70       _Key_KeynameCompletion     004c0b70 f   cl_keys.obj
 0002:00017bd0       _CL_InitKeyCommands        004c0bd0 f   cl_keys.obj
 0002:00017d50       _CL_ParseBinding           004c0d50 f   cl_keys.obj
 0002:00017f20       _CL_KeyDownEvent           004c0f20 f   cl_keys.obj
 0002:00018270       _CL_KeyUpEvent             004c1270 f   cl_keys.obj
 0002:00018380       _CL_KeyEvent               004c1380 f   cl_keys.obj
 0002:000183d0       _CL_CharEvent              004c13d0 f   cl_keys.obj
 0002:00018490       _Key_ClearStates           004c1490 f   cl_keys.obj
 0002:00018530       _Key_GetCatcher            004c1530 f   cl_keys.obj
 0002:00018550       _Key_SetCatcher            004c1550 f   cl_keys.obj
 0002:00018590       _CL_LoadConsoleHistory     004c1590 f   cl_keys.obj
 0002:00018880       _CL_SaveConsoleHistory     004c1880 f   cl_keys.obj
 0002:00018a80       _CL_CDDialog               004c1a80 f   cl_main.obj
 0002:00018aa0       _CL_Voip_f                 004c1aa0 f   cl_main.obj
 0002:00018f50       _CL_AddReliableCommand     004c1f50 f   cl_main.obj
 0002:00019000       _CL_ChangeReliableCommand  004c2000 f   cl_main.obj
 0002:000190c0       _CL_WriteDemoMessage       004c20c0 f   cl_main.obj
 0002:00019160       _CL_StopRecord_f           004c2160 f   cl_main.obj
 0002:00019220       _CL_DemoFilename           004c2220 f   cl_main.obj
 0002:00019300       _CL_Record_f               004c2300 f   cl_main.obj
 0002:00019880       _CL_DemoCompleted          004c2880 f   cl_main.obj
 0002:00019c40       _CL_ReadDemoMessage        004c2c40 f   cl_main.obj
 0002:00019dc0       _CL_PlayDemo_f             004c2dc0 f   cl_main.obj
 0002:0001a210       _CL_StartDemoLoop          004c3210 f   cl_main.obj
 0002:0001a240       _CL_NextDemo               004c3240 f   cl_main.obj
 0002:0001a310       _CL_ShutdownAll            004c3310 f   cl_main.obj
 0002:0001a390       _CL_FlushMemory            004c3390 f   cl_main.obj
 0002:0001a3e0       _CL_MapLoading             004c33e0 f   cl_main.obj
 0002:0001a570       _CL_ClearState             004c3570 f   cl_main.obj
 0002:0001a5a0       _CL_Disconnect             004c35a0 f   cl_main.obj
 0002:0001aee0       _CL_ForwardCommandToServer 004c3ee0 f   cl_main.obj
 0002:0001af90       _CL_RequestMotd            004c3f90 f   cl_main.obj
 0002:0001b170       _CL_RequestAuthorization   004c4170 f   cl_main.obj
 0002:0001b3c0       _CL_ForwardToServer_f      004c43c0 f   cl_main.obj
 0002:0001b420       _CL_Disconnect_f           004c4420 f   cl_main.obj
 0002:0001b480       _CL_Reconnect_f            004c4480 f   cl_main.obj
 0002:0001b510       _CL_Connect_f              004c4510 f   cl_main.obj
 0002:0001b830       _CL_Rcon_f                 004c4830 f   cl_main.obj
 0002:0001ba20       _CL_SendPureChecksums      004c4a20 f   cl_main.obj
 0002:0001baa0       _CL_ResetPureClientAtServer 004c4aa0 f   cl_main.obj
 0002:0001bad0       _CL_Vid_Restart_f          004c4ad0 f   cl_main.obj
 0002:0001bbf0       _CL_Snd_Restart            004c4bf0 f   cl_main.obj
 0002:0001bc10       _CL_Snd_Restart_f          004c4c10 f   cl_main.obj
 0002:0001bc30       _CL_OpenedPK3List_f        004c4c30 f   cl_main.obj
 0002:0001bc60       _CL_ReferencedPK3List_f    004c4c60 f   cl_main.obj
 0002:0001bc90       _CL_Configstrings_f        004c4c90 f   cl_main.obj
 0002:0001bd30       _CL_Clientinfo_f           004c4d30 f   cl_main.obj
 0002:0001bdc0       _CL_DownloadsComplete      004c4dc0 f   cl_main.obj
 0002:0001bef0       _CL_BeginDownload          004c4ef0 f   cl_main.obj
 0002:0001c000       _CL_NextDownload           004c5000 f   cl_main.obj
 0002:0001c300       _CL_InitDownloads          004c5300 f   cl_main.obj
 0002:0001c410       _CL_CheckForResend         004c5410 f   cl_main.obj
 0002:0001c740       _CL_DisconnectPacket       004c5740 f   cl_main.obj
 0002:0001c7f0       _CL_MotdPacket             004c57f0 f   cl_main.obj
 0002:0001c8d0       _CL_InitServerInfo         004c58d0 f   cl_main.obj
 0002:0001c980       _CL_ServersResponsePacket  004c5980 f   cl_main.obj
 0002:0001ce80       _CL_ConnectionlessPacket   004c5e80 f   cl_main.obj
 0002:0001d3b0       _CL_PacketEvent            004c63b0 f   cl_main.obj
 0002:0001d550       _CL_CheckTimeout           004c6550 f   cl_main.obj
 0002:0001d610       _CL_CheckPaused            004c6610 f   cl_main.obj
 0002:0001d650       _CL_CheckUserinfo          004c6650 f   cl_main.obj
 0002:0001d6d0       _CL_Frame                  004c66d0 f   cl_main.obj
 0002:0001dab0       _CL_RefPrintf              004c6ab0 f   cl_main.obj
 0002:0001db80       _CL_ShutdownRef            004c6b80 f   cl_main.obj
 0002:0001dbd0       _CL_InitRenderer           004c6bd0 f   cl_main.obj
 0002:0001dc70       _CL_StartHunkUsers         004c6c70 f   cl_main.obj
 0002:0001dd40       _CL_RefMalloc              004c6d40 f   cl_main.obj
 0002:0001dd80       _CL_ScaledMilliseconds     004c6d80 f   cl_main.obj
 0002:0001ddc0       _CL_InitRef                004c6dc0 f   cl_main.obj
 0002:0001df50       _CL_SetModel_f             004c6f50 f   cl_main.obj
 0002:0001e010       _CL_Video_f                004c7010 f   cl_main.obj
 0002:0001e240       _CL_StopVideo_f            004c7240 f   cl_main.obj
 0002:0001e260       _CL_Init                   004c7260 f   cl_main.obj
 0002:0001f070       _CL_Shutdown               004c8070 f   cl_main.obj
 0002:0001f2b0       _CL_ServerInfoPacket       004c82b0 f   cl_main.obj
 0002:0001fbd0       _CL_GetServerStatus        004c8bd0 f   cl_main.obj
 0002:0001fd70       _CL_ServerStatus           004c8d70 f   cl_main.obj
 0002:00020050       _CL_ServerStatusResponse   004c9050 f   cl_main.obj
 0002:000205b0       _CL_LocalServers_f         004c95b0 f   cl_main.obj
 0002:00020780       _CL_GlobalServers_f        004c9780 f   cl_main.obj
 0002:00020a00       _CL_GetPing                004c9a00 f   cl_main.obj
 0002:00020b70       _CL_GetPingInfo            004c9b70 f   cl_main.obj
 0002:00020bf0       _CL_ClearPing              004c9bf0 f   cl_main.obj
 0002:00020c30       _CL_GetPingQueueCount      004c9c30 f   cl_main.obj
 0002:00020cb0       _CL_GetFreePing            004c9cb0 f   cl_main.obj
 0002:00020dd0       _CL_Ping_f                 004c9dd0 f   cl_main.obj
 0002:00020f90       _CL_UpdateVisiblePings_f   004c9f90 f   cl_main.obj
 0002:00021430       _CL_ServerStatus_f         004ca430 f   cl_main.obj
 0002:00021630       _CL_ShowIP_f               004ca630 f   cl_main.obj
 0002:00021650       _CL_CDKeyValidate          004ca650 f   cl_main.obj
 0002:000217f0       _CL_Netchan_TransmitNextFragment 004ca7f0 f   cl_net_chan.obj
 0002:00021820       _CL_Netchan_Transmit       004ca820 f   cl_net_chan.obj
 0002:00021a60       _CL_Netchan_Process        004caa60 f   cl_net_chan.obj
 0002:00021c60       _SHOWNET                   004cac60 f   cl_parse.obj
 0002:00021cb0       _CL_DeltaEntity            004cacb0 f   cl_parse.obj
 0002:00021d60       _CL_ParsePacketEntities    004cad60 f   cl_parse.obj
 0002:00022110       _CL_ParseSnapshot          004cb110 f   cl_parse.obj
 0002:00022560       _CL_SystemInfoChanged      004cb560 f   cl_parse.obj
 0002:000228f0       _CL_ParseGamestate         004cb8f0 f   cl_parse.obj
 0002:00022c60       _CL_ParseDownload          004cbc60 f   cl_parse.obj
 0002:00022f40       _CL_ParseCommandString     004cbf40 f   cl_parse.obj
 0002:00022fd0       _CL_ParseServerMessage     004cbfd0 f   cl_parse.obj
 0002:000239a0       _SCR_DrawNamedPic          004cc9a0 f   cl_scrn.obj
 0002:00023a70       _SCR_AdjustFrom640         004cca70 f   cl_scrn.obj
 0002:00023b10       _SCR_FillRect              004ccb10 f   cl_scrn.obj
 0002:00023bc0       _SCR_DrawPic               004ccbc0 f   cl_scrn.obj
 0002:00023c50       _SCR_DrawSmallChar         004ccc50 f   cl_scrn.obj
 0002:00023d50       _SCR_DrawStringExt         004ccd50 f   cl_scrn.obj
 0002:000240f0       _SCR_DrawBigString         004cd0f0 f   cl_scrn.obj
 0002:00024170       _SCR_DrawBigStringColor    004cd170 f   cl_scrn.obj
 0002:000241c0       _SCR_DrawSmallStringExt    004cd1c0 f   cl_scrn.obj
 0002:00024320       _SCR_GetBigStringWidth     004cd320 f   cl_scrn.obj
 0002:000243f0       _SCR_DrawDemoRecording     004cd3f0 f   cl_scrn.obj
 0002:000244e0       _SCR_DrawVoipMeter         004cd4e0 f   cl_scrn.obj
 0002:000246b0       _SCR_DebugGraph            004cd6b0 f   cl_scrn.obj
 0002:00024710       _SCR_DrawDebugGraph        004cd710 f   cl_scrn.obj
 0002:00024930       _SCR_Init                  004cd930 f   cl_scrn.obj
 0002:00024a00       _SCR_DrawScreenField       004cda00 f   cl_scrn.obj
 0002:00024cb0       _SCR_UpdateScreen          004cdcb0 f   cl_scrn.obj
 0002:00024db0       _LAN_LoadCachedServers     004cddb0 f   cl_ui.obj
 0002:00024ed0       _LAN_SaveServersToCache    004cded0 f   cl_ui.obj
 0002:00024f90       _LAN_UpdateVisiblePings    004cdf90 f   cl_ui.obj
 0002:00024fc0       _LAN_GetServerStatus       004cdfc0 f   cl_ui.obj
 0002:00024ff0       _CL_UISystemCalls          004cdff0 f   cl_ui.obj
 0002:00027ab0       _CL_ShutdownUI             004d0ab0 f   cl_ui.obj
 0002:00027b30       _CL_InitUI                 004d0b30 f   cl_ui.obj
 0002:00027cb0       _UI_usesUniqueCDKey        004d0cb0 f   cl_ui.obj
 0002:00027d00       _UI_GameCommand            004d0d00 f   cl_ui.obj
 0002:00027d50       _CMod_LoadShaders          004d0d50 f   cm_load.obj
 0002:00027e90       _CMod_LoadSubmodels        004d0e90 f   cm_load.obj
 0002:00028160       _CMod_LoadNodes            004d1160 f   cm_load.obj
 0002:000282c0       _CM_BoundBrush             004d12c0 f   cm_load.obj
 0002:00028370       _CMod_LoadBrushes          004d1370 f   cm_load.obj
 0002:00028500       _CMod_LoadLeafs            004d1500 f   cm_load.obj
 0002:00028730       _CMod_LoadPlanes           004d1730 f   cm_load.obj
 0002:00028950       _CMod_LoadLeafBrushes      004d1950 f   cm_load.obj
 0002:00028a50       _CMod_LoadLeafSurfaces     004d1a50 f   cm_load.obj
 0002:00028b40       _CMod_LoadBrushSides       004d1b40 f   cm_load.obj
 0002:00028cb0       _CMod_LoadEntityString     004d1cb0 f   cm_load.obj
 0002:00028d30       _CMod_LoadVisibility       004d1d30 f   cm_load.obj
 0002:00028e50       _CMod_LoadPatches          004d1e50 f   cm_load.obj
 0002:00029130       _CM_LumpChecksum           004d2130 f   cm_load.obj
 0002:00029170       _CM_Checksum               004d2170 f   cm_load.obj
 0002:000292b0       _CM_LoadMap                004d22b0 f   cm_load.obj
 0002:00029640       _CM_ClearMap               004d2640 f   cm_load.obj
 0002:00029680       _CM_ClipHandleToModel      004d2680 f   cm_load.obj
 0002:00029740       _CM_InlineModel            004d2740 f   cm_load.obj
 0002:00029780       _CM_NumClusters            004d2780 f   cm_load.obj
 0002:000297a0       _CM_NumInlineModels        004d27a0 f   cm_load.obj
 0002:000297c0       _CM_EntityString           004d27c0 f   cm_load.obj
 0002:000297e0       _CM_LeafCluster            004d27e0 f   cm_load.obj
 0002:00029830       _CM_LeafArea               004d2830 f   cm_load.obj
 0002:00029880       _CM_InitBoxHull            004d2880 f   cm_load.obj
 0002:00029a80       _CM_TempBoxModel           004d2a80 f   cm_load.obj
 0002:00029c70       _CM_ModelBounds            004d2c70 f   cm_load.obj
 0002:00029cf0       _CM_ClearLevelPatches      004d2cf0 f   cm_patch.obj
 0002:00029d20       _CM_PlaneEqual             004d2d20 f   cm_patch.obj
 0002:00029f30       _CM_SnapVector             004d2f30 f   cm_patch.obj
 0002:0002a040       _CM_FindPlane2             004d3040 f   cm_patch.obj
 0002:0002a1f0       _CM_AddFacetBevels         004d31f0 f   cm_patch.obj
 0002:0002ac10       _CM_GeneratePatchCollide   004d3c10 f   cm_patch.obj
 0002:0002e2b0       _CM_TracePointThroughPatchCollide 004d72b0 f   cm_patch.obj
 0002:0002e960       _CM_CheckFacetPlane        004d7960 f   cm_patch.obj
 0002:0002eb40       _CM_TraceThroughPatchCollide 004d7b40 f   cm_patch.obj
 0002:0002f3b0       _CM_PositionTestInPatchCollide 004d83b0 f   cm_patch.obj
 0002:0002f8d0       _CM_DrawDebugSurface       004d88d0 f   cm_patch.obj
 0002:0002ffc0       _pw                        004d8fc0 f   cm_polylib.obj
 0002:00030060       _AllocWinding              004d9060 f   cm_polylib.obj
 0002:00030120       _FreeWinding               004d9120 f   cm_polylib.obj
 0002:00030180       _RemoveColinearPoints      004d9180 f   cm_polylib.obj
 0002:00030410       _WindingPlane              004d9410 f   cm_polylib.obj
 0002:000305b0       _WindingArea               004d95b0 f   cm_polylib.obj
 0002:00030760       _WindingBounds             004d9760 f   cm_polylib.obj
 0002:00030890       _WindingCenter             004d9890 f   cm_polylib.obj
 0002:000309b0       _BaseWindingForPlane       004d99b0 f   cm_polylib.obj
 0002:00030dd0       _CopyWinding               004d9dd0 f   cm_polylib.obj
 0002:00030e30       _ReverseWinding            004d9e30 f   cm_polylib.obj
 0002:00030f10       _ClipWindingEpsilon        004d9f10 f   cm_polylib.obj
 0002:00031790       _ChopWindingInPlace        004da790 f   cm_polylib.obj
 0002:00031e10       _ChopWinding               004dae10 f   cm_polylib.obj
 0002:00031e80       _CheckWinding              004dae80 f   cm_polylib.obj
 0002:00032220       _WindingOnPlaneSide        004db220 f   cm_polylib.obj
 0002:00032350       _AddWindingToConvexHull    004db350 f   cm_polylib.obj
 0002:00032850       _CM_PointLeafnum_r         004db850 f   cm_test.obj
 0002:00032940       _CM_PointLeafnum           004db940 f   cm_test.obj
 0002:00032980       _CM_StoreLeafs             004db980 f   cm_test.obj
 0002:00032a10       _CM_StoreBrushes           004dba10 f   cm_test.obj
 0002:00032b80       _CM_BoxLeafnums_r          004dbb80 f   cm_test.obj
 0002:00032c60       _CM_BoxLeafnums            004dbc60 f   cm_test.obj
 0002:00032d30       _CM_BoxBrushes             004dbd30 f   cm_test.obj
 0002:00032e00       _CM_PointContents          004dbe00 f   cm_test.obj
 0002:00032fe0       _CM_TransformedPointContents 004dbfe0 f   cm_test.obj
 0002:00033140       _CM_ClusterPVS             004dc140 f   cm_test.obj
 0002:000331a0       _CM_FloodArea_r            004dc1a0 f   cm_test.obj
 0002:00033280       _CM_FloodAreaConnections   004dc280 f   cm_test.obj
 0002:00033320       _CM_AdjustAreaPortalState  004dc320 f   cm_test.obj
 0002:000334b0       _CM_AreasConnected         004dc4b0 f   cm_test.obj
 0002:00033550       _CM_WriteAreaBits          004dc550 f   cm_test.obj
 0002:00033640       _CM_BoundsIntersect        004dc640 f   cm_test.obj
 0002:00033730       _CM_BoundsIntersectPoint   004dc730 f   cm_test.obj
 0002:00033820       _RotatePoint               004dc820 f   cm_trace.obj
 0002:00033900       _TransposeMatrix           004dc900 f   cm_trace.obj
 0002:00033980       _CreateRotationMatrix      004dc980 f   cm_trace.obj
 0002:00033a20       _CM_ProjectPointOntoVector 004dca20 f   cm_trace.obj
 0002:00033b40       _CM_DistanceFromLineSquared 004dcb40 f   cm_trace.obj
 0002:00033da0       _CM_VectorDistanceSquared  004dcda0 f   cm_trace.obj
 0002:00033e20       _SquareRootFloat           004dce20 f   cm_trace.obj
 0002:00033eb0       _CM_TestBoxInBrush         004dceb0 f   cm_trace.obj
 0002:00034290       _CM_TestInLeaf             004dd290 f   cm_trace.obj
 0002:00034470       _CM_TestCapsuleInCapsule   004dd470 f   cm_trace.obj
 0002:00034940       _CM_TestBoundingBoxInCapsule 004dd940 f   cm_trace.obj
 0002:00034b40       _CM_PositionTest           004ddb40 f   cm_trace.obj
 0002:00034d70       _CM_TraceThroughPatch      004ddd70 f   cm_trace.obj
 0002:00034e00       _CM_TraceThroughBrush      004dde00 f   cm_trace.obj
 0002:000355d0       _CM_TraceThroughLeaf       004de5d0 f   cm_trace.obj
 0002:000357d0       _CM_TraceThroughSphere     004de7d0 f   cm_trace.obj
 0002:00035cd0       _CM_TraceThroughVerticalCylinder 004decd0 f   cm_trace.obj
 0002:00036250       _CM_TraceCapsuleThroughCapsule 004df250 f   cm_trace.obj
 0002:000366d0       _CM_TraceBoundingBoxThroughCapsule 004df6d0 f   cm_trace.obj
 0002:000368d0       _CM_TraceThroughTree       004df8d0 f   cm_trace.obj
 0002:00036dd0       _CM_Trace                  004dfdd0 f   cm_trace.obj
 0002:00037750       _CM_BoxTrace               004e0750 f   cm_trace.obj
 0002:000377a0       _CM_TransformedBoxTrace    004e07a0 f   cm_trace.obj
 0002:00037bf0       _Cmd_Wait_f                004e0bf0 f   cmd.obj
 0002:00037c60       _Cbuf_Init                 004e0c60 f   cmd.obj
 0002:00037ca0       _Cbuf_AddText              004e0ca0 f   cmd.obj
 0002:00037d30       _Cbuf_InsertText           004e0d30 f   cmd.obj
 0002:00037e10       _Cbuf_ExecuteText          004e0e10 f   cmd.obj
 0002:00037ee0       _Cbuf_Execute              004e0ee0 f   cmd.obj
 0002:000380a0       _Cmd_Exec_f                004e10a0 f   cmd.obj
 0002:000381b0       _Cmd_Vstr_f                004e11b0 f   cmd.obj
 0002:00038220       _Cmd_Echo_f                004e1220 f   cmd.obj
 0002:00038250       _Cmd_Argc                  004e1250 f   cmd.obj
 0002:00038270       _Cmd_Argv                  004e1270 f   cmd.obj
 0002:000382b0       _Cmd_ArgvBuffer            004e12b0 f   cmd.obj
 0002:000382f0       _Cmd_Args                  004e12f0 f   cmd.obj
 0002:00038380       _Cmd_ArgsFrom              004e1380 f   cmd.obj
 0002:00038420       _Cmd_ArgsBuffer            004e1420 f   cmd.obj
 0002:00038450       _Cmd_Cmd                   004e1450 f   cmd.obj
 0002:00038470       _Cmd_Args_Sanitize         004e1470 f   cmd.obj
 0002:00038500       _Cmd_TokenizeString        004e1500 f   cmd.obj
 0002:00038840       _Cmd_TokenizeStringIgnoreQuotes 004e1840 f   cmd.obj
 0002:00038870       _Cmd_AddCommand            004e1870 f   cmd.obj
 0002:00038950       _Cmd_SetCommandCompletionFunc 004e1950 f   cmd.obj
 0002:000389b0       _Cmd_RemoveCommand         004e19b0 f   cmd.obj
 0002:00038a50       _Cmd_CommandCompletion     004e1a50 f   cmd.obj
 0002:00038aa0       _Cmd_CompleteArgument      004e1aa0 f   cmd.obj
 0002:00038b20       _Cmd_ExecuteString         004e1b20 f   cmd.obj
 0002:00038c70       _Cmd_List_f                004e1c70 f   cmd.obj
 0002:00038d40       _Cmd_CompleteCfgName       004e1d40 f   cmd.obj
 0002:00038d80       _Cmd_Init                  004e1d80 f   cmd.obj
 0002:00038e40       _Com_BeginRedirect         004e1e40 f   common.obj
 0002:00038ea0       _Com_EndRedirect           004e1ea0 f   common.obj
 0002:00038f00       _Com_Printf                004e1f00 f   common.obj
 0002:000391f0       _Com_DPrintf               004e21f0 f   common.obj
 0002:00039290       _Com_Error                 004e2290 f   common.obj
 0002:00039610       _Com_Quit_f                004e2610 f   common.obj
 0002:000396b0       _Com_ParseCommandLine      004e26b0 f   common.obj
 0002:00039790       _Com_SafeMode              004e2790 f   common.obj
 0002:00039850       _Com_StartupVariable       004e2850 f   common.obj
 0002:00039950       _Com_AddStartupCommands    004e2950 f   common.obj
 0002:00039a20       _Info_Print                004e2a20 f   common.obj
 0002:00039c20       _Com_StringContains        004e2c20 f   common.obj
 0002:00039d40       _Com_Filter                004e2d40 f   common.obj
 0002:0003a1c0       _Com_FilterPath            004e31c0 f   common.obj
 0002:0003a320       _Com_RealTime              004e3320 f   common.obj
 0002:0003a400       _Z_ClearZone               004e3400 f   common.obj
 0002:0003a4d0       _Z_AvailableZoneMemory     004e34d0 f   common.obj
 0002:0003a500       _Z_AvailableMemory         004e3500 f   common.obj
 0002:0003a530       _Z_Free                    004e3530 f   common.obj
 0002:0003a720       _Z_FreeTags                004e3720 f   common.obj
 0002:0003a7d0       _Z_TagMallocDebug          004e37d0 f   common.obj
 0002:0003aa10       _Z_MallocDebug             004e3a10 f   common.obj
 0002:0003aa70       _S_MallocDebug             004e3a70 f   common.obj
 0002:0003aab0       _Z_CheckHeap               004e3ab0 f   common.obj
 0002:0003ab70       _Z_LogZoneHeap             004e3b70 f   common.obj
 0002:0003aed0       _Z_LogHeap                 004e3ed0 f   common.obj
 0002:0003af20       _CopyString                004e3f20 f   common.obj
 0002:0003afe0       _Com_Meminfo_f             004e3fe0 f   common.obj
 0002:0003b410       _Com_TouchMemory           004e4410 f   common.obj
 0002:0003b580       _Com_InitSmallZoneMemory   004e4580 f   common.obj
 0002:0003b610       _Com_InitZoneMemory        004e4610 f   common.obj
 0002:0003b6e0       _Hunk_Log                  004e46e0 f   common.obj
 0002:0003b910       _Hunk_SmallLog             004e4910 f   common.obj
 0002:0003bc10       _Com_InitHunkMemory        004e4c10 f   common.obj
 0002:0003bdd0       _Hunk_MemoryRemaining      004e4dd0 f   common.obj
 0002:0003be60       _Hunk_SetMark              004e4e60 f   common.obj
 0002:0003be90       _Hunk_ClearToMark          004e4e90 f   common.obj
 0002:0003bee0       _Hunk_CheckMark            004e4ee0 f   common.obj
 0002:0003bf20       _Hunk_Clear                004e4f20 f   common.obj
 0002:0003bff0       _Hunk_AllocDebug           004e4ff0 f   common.obj
 0002:0003c260       _Hunk_AllocateTempMemory   004e5260 f   common.obj
 0002:0003c3d0       _Hunk_FreeTempMemory       004e53d0 f   common.obj
 0002:0003c4f0       _Hunk_ClearTempMemory      004e54f0 f   common.obj
 0002:0003c530       _Hunk_Trash                004e5530 f   common.obj
 0002:0003c690       _Com_InitJournaling        004e5690 f   common.obj
 0002:0003c7e0       _Com_QueueEvent            004e57e0 f   common.obj
 0002:0003c8d0       _Com_GetSystemEvent        004e58d0 f   common.obj
 0002:0003cb70       _Com_GetRealEvent          004e5b70 f   common.obj
 0002:0003cd40       _Com_InitPushEvent         004e5d40 f   common.obj
 0002:0003cd90       _Com_PushEvent             004e5d90 f   common.obj
 0002:0003ce80       _Com_GetEvent              004e5e80 f   common.obj
 0002:0003cf50       _Com_RunAndTimeServerPacket 004e5f50 f   common.obj
 0002:0003cff0       _Com_EventLoop             004e5ff0 f   common.obj
 0002:0003d370       _Com_Milliseconds          004e6370 f   common.obj
 0002:0003d3e0       _Com_Setenv_f              004e63e0 f   common.obj
 0002:0003d4a0       _Com_ExecuteCfg            004e64a0 f   common.obj
 0002:0003d510       _Com_GameRestart           004e6510 f   common.obj
 0002:0003d5d0       _Com_GameRestart_f         004e65d0 f   common.obj
 0002:0003d620       _Com_ReadCDKey             004e6620 f   common.obj
 0002:0003d740       _Com_AppendCDKey           004e6740 f   common.obj
 0002:0003d850       _Com_Init                  004e6850 f   common.obj
 0002:0003e1a0       _Com_WriteConfigToFile     004e71a0 f   common.obj
 0002:0003e230       _Com_WriteConfiguration    004e7230 f   common.obj
 0002:0003e450       _Com_WriteConfig_f         004e7450 f   common.obj
 0002:0003e500       _Com_ModifyMsec            004e7500 f   common.obj
 0002:0003e630       _Com_Frame                 004e7630 f   common.obj
 0002:0003ea70       _Com_Shutdown              004e7a70 f   common.obj
 0002:0003eae0       _Q_acos                    004e7ae0 f   common.obj
 0002:0003eb50       _Field_Clear               004e7b50 f   common.obj
 0002:0003eba0       _Field_CompleteKeyname     004e7ba0 f   common.obj
 0002:0003eea0       _Field_CompleteFilename    004e7ea0 f   common.obj
 0002:0003ef20       _Field_CompleteCommand     004e7f20 f   common.obj
 0002:0003f2e0       _Field_AutoComplete        004e82e0 f   common.obj
 0002:0003f320       _Com_RandomBytes           004e8320 f   common.obj
 0002:0003f3a0       _CON_LogSize               004e83a0 f   con_log.obj
 0002:0003f3f0       _CON_LogWrite              004e83f0 f   con_log.obj
 0002:0003f580       _CON_LogRead               004e8580 f   con_log.obj
 0002:0003f650       _CON_Shutdown              004e8650 f   con_passive.obj
 0002:0003f670       _CON_Init                  004e8670 f   con_passive.obj
 0002:0003f690       _CON_Input                 004e8690 f   con_passive.obj
 0002:0003f6b0       _CON_Print                 004e86b0 f   con_passive.obj
 0002:0003f710       _Cvar_VariableValue        004e8710 f   cvar.obj
 0002:0003f860       _Cvar_VariableIntegerValue 004e8860 f   cvar.obj
 0002:0003f8a0       _Cvar_VariableString       004e88a0 f   cvar.obj
 0002:0003f8e0       _Cvar_VariableStringBuffer 004e88e0 f   cvar.obj
 0002:0003f940       _Cvar_Flags                004e8940 f   cvar.obj
 0002:0003f980       _Cvar_CommandCompletion    004e8980 f   cvar.obj
 0002:0003f9d0       _Cvar_Get                  004e89d0 f   cvar.obj
 0002:00040250       _Cvar_Print                004e9250 f   cvar.obj
 0002:00040320       _Cvar_Set2                 004e9320 f   cvar.obj
 0002:00040720       _Cvar_Set                  004e9720 f   cvar.obj
 0002:00040750       _Cvar_SetLatched           004e9750 f   cvar.obj
 0002:00040780       _Cvar_SetValue             004e9780 f   cvar.obj
 0002:00040830       _Cvar_Reset                004e9830 f   cvar.obj
 0002:00040860       _Cvar_ForceReset           004e9860 f   cvar.obj
 0002:00040890       _Cvar_SetCheatState        004e9890 f   cvar.obj
 0002:00040940       _Cvar_Command              004e9940 f   cvar.obj
 0002:000409d0       _Cvar_Print_f              004e99d0 f   cvar.obj
 0002:00040a60       _Cvar_Toggle_f             004e9a60 f   cvar.obj
 0002:00040c00       _Cvar_Set_f                004e9c00 f   cvar.obj
 0002:00040d60       _Cvar_Reset_f              004e9d60 f   cvar.obj
 0002:00040db0       _Cvar_WriteVariables       004e9db0 f   cvar.obj
 0002:00040f90       _Cvar_List_f               004e9f90 f   cvar.obj
 0002:00041250       _Cvar_Unset                004ea250 f   cvar.obj
 0002:000413a0       _Cvar_Unset_f              004ea3a0 f   cvar.obj
 0002:00041450       _Cvar_Restart              004ea450 f   cvar.obj
 0002:00041500       _Cvar_Restart_f            004ea500 f   cvar.obj
 0002:00041520       _Cvar_InfoString           004ea520 f   cvar.obj
 0002:000415a0       _Cvar_InfoString_Big       004ea5a0 f   cvar.obj
 0002:00041620       _Cvar_InfoStringBuffer     004ea620 f   cvar.obj
 0002:00041660       _Cvar_CheckRange           004ea660 f   cvar.obj
 0002:000416c0       _Cvar_Register             004ea6c0 f   cvar.obj
 0002:00041770       _Cvar_Update               004ea770 f   cvar.obj
 0002:000418c0       _Cvar_CompleteCvarName     004ea8c0 f   cvar.obj
 0002:00041920       _Cvar_Init                 004ea920 f   cvar.obj
 0002:00041b10       _FS_Initialized            004eab10 f   files.obj
 0002:00041b40       _FS_PakIsPure              004eab40 f   files.obj
 0002:00041bc0       _FS_LoadStack              004eabc0 f   files.obj
 0002:00041be0       _FS_ForceFlush             004eabe0 f   files.obj
 0002:00041cc0       _FS_filelength             004eacc0 f   files.obj
 0002:00041d40       _FS_BuildOSPath            004ead40 f   files.obj
 0002:00041ee0       _FS_CreatePath             004eaee0 f   files.obj
 0002:00042040       _FS_Remove                 004eb040 f   files.obj
 0002:000420e0       _FS_HomeRemove             004eb0e0 f   files.obj
 0002:00042140       _FS_FileExists             004eb140 f   files.obj
 0002:000421c0       _FS_SV_FileExists          004eb1c0 f   files.obj
 0002:00042250       _FS_SV_FOpenFileWrite      004eb250 f   files.obj
 0002:00042450       _FS_SV_FOpenFileRead       004eb450 f   files.obj
 0002:000426b0       _FS_SV_Rename              004eb6b0 f   files.obj
 0002:000429d0       _FS_Rename                 004eb9d0 f   files.obj
 0002:00042ad0       _FS_FCloseFile             004ebad0 f   files.obj
 0002:00042bf0       _FS_FOpenFileWrite         004ebbf0 f   files.obj
 0002:00042d50       _FS_FOpenFileAppend        004ebd50 f   files.obj
 0002:00042eb0       _FS_FilenameCompare        004ebeb0 f   files.obj
 0002:00042f80       _FS_FOpenFileRead          004ebf80 f   files.obj
 0002:000439d0       _FS_Read2                  004ec9d0 f   files.obj
 0002:00043aa0       _FS_Read                   004ecaa0 f   files.obj
 0002:00043bf0       _FS_Write                  004ecbf0 f   files.obj
 0002:00043d20       _FS_Printf                 004ecd20 f   files.obj
 0002:00043dc0       _FS_Seek                   004ecdc0 f   files.obj
 0002:00044080       _FS_FileIsInPAK            004ed080 f   files.obj
 0002:00044250       _FS_ReadFile               004ed250 f   files.obj
 0002:00044650       _FS_FreeFile               004ed650 f   files.obj
 0002:000446d0       _FS_WriteFile              004ed6d0 f   files.obj
 0002:00044780       _FS_CompareZipChecksum     004ed780 f   files.obj
 0002:00044ed0       _FS_ListFilteredFiles      004eded0 f   files.obj
 0002:000455a0       _FS_ListFiles              004ee5a0 f   files.obj
 0002:000455d0       _FS_FreeFileList           004ee5d0 f   files.obj
 0002:00045660       _FS_GetFileList            004ee660 f   files.obj
 0002:00045790       _FS_GetModList             004ee790 f   files.obj
 0002:00045dd0       _FS_Dir_f                  004eedd0 f   files.obj
 0002:00045f00       _FS_ConvertPath            004eef00 f   files.obj
 0002:00045f60       _FS_PathCmp                004eef60 f   files.obj
 0002:00046040       _FS_SortFileList           004ef040 f   files.obj
 0002:000461a0       _FS_NewDir_f               004ef1a0 f   files.obj
 0002:000462c0       _FS_Path_f                 004ef2c0 f   files.obj
 0002:00046430       _FS_TouchFile_f            004ef430 f   files.obj
 0002:000464a0       _FS_AddGameDirectory       004ef4a0 f   files.obj
 0002:000467c0       _FS_idPak                  004ef7c0 f   files.obj
 0002:00046840       _FS_CheckDirTraversal      004ef840 f   files.obj
 0002:000468a0       _FS_ComparePaks            004ef8a0 f   files.obj
 0002:00046ca0       _FS_Shutdown               004efca0 f   files.obj
 0002:00046dc0       _FS_GamePureChecksum       004efdc0 f   files.obj
 0002:00046e60       _FS_LoadedPakChecksums     004efe60 f   files.obj
 0002:00046ef0       _FS_LoadedPakNames         004efef0 f   files.obj
 0002:00046fa0       _FS_LoadedPakPureChecksums 004effa0 f   files.obj
 0002:00047030       _FS_ReferencedPakChecksums 004f0030 f   files.obj
 0002:00047110       _FS_ReferencedPakPureChecksums 004f0110 f   files.obj
 0002:000472c0       _FS_ReferencedPakNames     004f02c0 f   files.obj
 0002:00047400       _FS_ClearPakReferences     004f0400 f   files.obj
 0002:00047480       _FS_PureServerSetLoadedPaks 004f0480 f   files.obj
 0002:00047650       _FS_PureServerSetReferencedPaks 004f0650 f   files.obj
 0002:000477f0       _FS_InitFilesystem         004f07f0 f   files.obj
 0002:00047e20       _FS_Restart                004f0e20 f   files.obj
 0002:00047fa0       _FS_ConditionalRestart     004f0fa0 f   files.obj
 0002:00048010       _FS_FOpenFileByMode        004f1010 f   files.obj
 0002:00048230       _FS_FTell                  004f1230 f   files.obj
 0002:000482b0       _FS_Flush                  004f12b0 f   files.obj
 0002:000482f0       _FS_FilenameCompletion     004f12f0 f   files.obj
 0002:00048400       _Huff_putBit               004f1400 f   huffman.obj
 0002:000484a0       _Huff_getBloc              004f14a0 f   huffman.obj
 0002:000484c0       _Huff_setBloc              004f14c0 f   huffman.obj
 0002:000484e0       _Huff_getBit               004f14e0 f   huffman.obj
 0002:00048550       _Huff_addRef               004f1550 f   huffman.obj
 0002:00048ce0       _Huff_Receive              004f1ce0 f   huffman.obj
 0002:00048db0       _Huff_offsetReceive        004f1db0 f   huffman.obj
 0002:00048e50       _Huff_transmit             004f1e50 f   huffman.obj
 0002:00048ff0       _Huff_offsetTransmit       004f1ff0 f   huffman.obj
 0002:00049040       _Huff_Decompress           004f2040 f   huffman.obj
 0002:00049310       _Huff_Compress             004f2310 f   huffman.obj
 0002:00049550       _Huff_Init                 004f2550 f   huffman.obj
 0002:00049770       _mdfour_begin              004f2770 f   md4.obj
 0002:000497d0       _Com_BlockChecksum         004f27d0 f   md4.obj
 0002:0004aca0       _Com_MD5File               004f3ca0 f   md5.obj
 0002:0004c450       _MSG_Init                  004f5450 f   msg.obj
 0002:0004c4a0       _MSG_InitOOB               004f54a0 f   msg.obj
 0002:0004c500       _MSG_Clear                 004f5500 f   msg.obj
 0002:0004c540       _MSG_Bitstream             004f5540 f   msg.obj
 0002:0004c560       _MSG_BeginReading          004f5560 f   msg.obj
 0002:0004c5a0       _MSG_BeginReadingOOB       004f55a0 f   msg.obj
 0002:0004c5e0       _MSG_Copy                  004f55e0 f   msg.obj
 0002:0004c660       _MSG_WriteBits             004f5660 f   msg.obj
 0002:0004c980       _MSG_ReadBits              004f5980 f   msg.obj
 0002:0004cc10       _MSG_WriteChar             004f5c10 f   msg.obj
 0002:0004cc40       _MSG_WriteByte             004f5c40 f   msg.obj
 0002:0004cc70       _MSG_WriteData             004f5c70 f   msg.obj
 0002:0004ccd0       _MSG_WriteShort            004f5cd0 f   msg.obj
 0002:0004cd00       _MSG_WriteLong             004f5d00 f   msg.obj
 0002:0004cd30       _MSG_WriteFloat            004f5d30 f   msg.obj
 0002:0004cd70       _MSG_WriteString           004f5d70 f   msg.obj
 0002:0004ceb0       _MSG_WriteBigString        004f5eb0 f   msg.obj
 0002:0004cff0       _MSG_WriteAngle            004f5ff0 f   msg.obj
 0002:0004d040       _MSG_WriteAngle16          004f6040 f   msg.obj
 0002:0004d090       _MSG_ReadChar              004f6090 f   msg.obj
 0002:0004d0e0       _MSG_ReadByte              004f60e0 f   msg.obj
 0002:0004d130       _MSG_LookaheadByte         004f6130 f   msg.obj
 0002:0004d1a0       _MSG_ReadShort             004f61a0 f   msg.obj
 0002:0004d1f0       _MSG_ReadLong              004f61f0 f   msg.obj
 0002:0004d240       _MSG_ReadFloat             004f6240 f   msg.obj
 0002:0004d290       _MSG_ReadString            004f6290 f   msg.obj
 0002:0004d330       _MSG_ReadBigString         004f6330 f   msg.obj
 0002:0004d3d0       _MSG_ReadStringLine        004f63d0 f   msg.obj
 0002:0004d480       _MSG_ReadAngle16           004f6480 f   msg.obj
 0002:0004d4c0       _MSG_ReadData              004f64c0 f   msg.obj
 0002:0004d510       _MSG_HashKey               004f6510 f   msg.obj
 0002:0004d5e0       _MSG_WriteDelta            004f65e0 f   msg.obj
 0002:0004d650       _MSG_ReadDelta             004f6650 f   msg.obj
 0002:0004d6a0       _MSG_WriteDeltaFloat       004f66a0 f   msg.obj
 0002:0004d710       _MSG_ReadDeltaFloat        004f6710 f   msg.obj
 0002:0004d760       _MSG_WriteDeltaKey         004f6760 f   msg.obj
 0002:0004d7d0       _MSG_ReadDeltaKey          004f67d0 f   msg.obj
 0002:0004d830       _MSG_WriteDeltaKeyFloat    004f6830 f   msg.obj
 0002:0004d8b0       _MSG_ReadDeltaKeyFloat     004f68b0 f   msg.obj
 0002:0004d900       _MSG_WriteDeltaUsercmd     004f6900 f   msg.obj
 0002:0004dab0       _MSG_ReadDeltaUsercmd      004f6ab0 f   msg.obj
 0002:0004dc30       _MSG_WriteDeltaUsercmdKey  004f6c30 f   msg.obj
 0002:0004df00       _MSG_ReadDeltaUsercmdKey   004f6f00 f   msg.obj
 0002:0004e150       _MSG_ReportChangeVectors_f 004f7150 f   msg.obj
 0002:0004e1c0       _MSG_WriteDeltaEntity      004f71c0 f   msg.obj
 0002:0004e5c0       _MSG_ReadDeltaEntity       004f75c0 f   msg.obj
 0002:0004ea20       _MSG_WriteDeltaPlayerstate 004f7a20 f   msg.obj
 0002:0004f210       _MSG_ReadDeltaPlayerstate  004f8210 f   msg.obj
 0002:0004f840       _MSG_initHuffman           004f8840 f   msg.obj
 0002:0004f8f0       _Netchan_Init              004f88f0 f   net_chan.obj
 0002:0004f990       _Netchan_Setup             004f8990 f   net_chan.obj
 0002:0004fa00       _Netchan_TransmitNextFragment 004f8a00 f   net_chan.obj
 0002:0004fc30       _Netchan_Transmit          004f8c30 f   net_chan.obj
 0002:0004fe00       _Netchan_Process           004f8e00 f   net_chan.obj
 0002:00050290       _NET_GetLoopPacket         004f9290 f   net_chan.obj
 0002:000503c0       _NET_SendLoopPacket        004f93c0 f   net_chan.obj
 0002:00050460       _NET_FlushPacketQueue      004f9460 f   net_chan.obj
 0002:00050520       _NET_SendPacket            004f9520 f   net_chan.obj
 0002:000507b0       _NET_OutOfBandPrint        004f97b0 f   net_chan.obj
 0002:00050880       _NET_OutOfBandData         004f9880 f   net_chan.obj
 0002:00050990       _NET_StringToAdr           004f9990 f   net_chan.obj
 0002:00050be0       _NET_ErrorString           004f9be0 f   net_ip.obj
 0002:00050fc0       _Sys_StringToAdr           004f9fc0 f   net_ip.obj
 0002:00051380       _gai_strerrorA             004fa380 f i net_ip.obj
 0002:00051420       _NET_CompareBaseAdrMask    004fa420 f   net_ip.obj
 0002:000515b0       _NET_CompareBaseAdr        004fa5b0 f   net_ip.obj
 0002:00051600       _NET_AdrToString           004fa600 f   net_ip.obj
 0002:000518a0       _NET_AdrToStringwPort      004fa8a0 f   net_ip.obj
 0002:000519b0       _NET_CompareAdr            004fa9b0 f   net_ip.obj
 0002:00051a40       _NET_IsLocalAddress        004faa40 f   net_ip.obj
 0002:00051a60       _Sys_GetPacket             004faa60 f   net_ip.obj
 0002:00051f50       _Sys_SendPacket            004faf50 f   net_ip.obj
 0002:000521c0       _Sys_IsLANAddress          004fb1c0 f   net_ip.obj
 0002:00052420       _Sys_ShowIP                004fb420 f   net_ip.obj
 0002:00052500       _NET_IPSocket              004fb500 f   net_ip.obj
 0002:00052740       _NET_IP6Socket             004fb740 f   net_ip.obj
 0002:000529e0       _NET_SetMulticast6         004fb9e0 f   net_ip.obj
 0002:00052ae0       _NET_JoinMulticast6        004fbae0 f   net_ip.obj
 0002:00052c90       _IN6_IS_ADDR_UNSPECIFIED   004fbc90 f i net_ip.obj
 0002:00052d30       _IN6_IS_ADDR_MULTICAST     004fbd30 f i net_ip.obj
 0002:00052d60       _NET_LeaveMulticast6       004fbd60 f   net_ip.obj
 0002:00052dd0       _NET_OpenSocks             004fbdd0 f   net_ip.obj
 0002:000533f0       _NET_OpenIP                004fc3f0 f   net_ip.obj
 0002:00053960       _NET_Config                004fc960 f   net_ip.obj
 0002:00053e40       _NET_Init                  004fce40 f   net_ip.obj
 0002:00053ed0       _NET_Shutdown              004fced0 f   net_ip.obj
 0002:00053f20       _NET_Sleep                 004fcf20 f   net_ip.obj
 0002:00054190       _NET_Restart_f             004fd190 f   net_ip.obj
 0002:000541c0       _puff                      004fd1c0 f   puff.obj
 0002:000551a0       _Q_rand                    004fe1a0 f   q_math.obj
 0002:000551e0       _Q_random                  004fe1e0 f   q_math.obj
 0002:00055220       _Q_crandom                 004fe220 f   q_math.obj
 0002:00055260       _ClampChar                 004fe260 f   q_math.obj
 0002:00055290       _ClampShort                004fe290 f   q_math.obj
 0002:000552e0       _DirToByte                 004fe2e0 f   q_math.obj
 0002:000553b0       _ByteToDir                 004fe3b0 f   q_math.obj
 0002:00055450       _ColorBytes3               004fe450 f   q_math.obj
 0002:00055500       _ColorBytes4               004fe500 f   q_math.obj
 0002:000555e0       _NormalizeColor            004fe5e0 f   q_math.obj
 0002:000556b0       _PlaneFromPoints           004fe6b0 f   q_math.obj
 0002:00055850       _RotatePointAroundVector   004fe850 f   q_math.obj
 0002:00055b20       _RotateAroundDirection     004feb20 f   q_math.obj
 0002:00055be0       _vectoangles               004febe0 f   q_math.obj
 0002:00055db0       _AnglesToAxis              004fedb0 f   q_math.obj
 0002:00055e40       _AxisClear                 004fee40 f   q_math.obj
 0002:00055eb0       _AxisCopy                  004feeb0 f   q_math.obj
 0002:00055f50       _ProjectPointOnPlane       004fef50 f   q_math.obj
 0002:000560b0       _MakeNormalVectors         004ff0b0 f   q_math.obj
 0002:000561b0       _VectorRotate              004ff1b0 f   q_math.obj
 0002:00056270       _Q_rsqrt                   004ff270 f   q_math.obj
 0002:000562e0       _Q_fabs                    004ff2e0 f   q_math.obj
 0002:00056310       _LerpAngle                 004ff310 f   q_math.obj
 0002:00056390       _AngleSubtract             004ff390 f   q_math.obj
 0002:00056400       _AnglesSubtract            004ff400 f   q_math.obj
 0002:00056490       _AngleMod                  004ff490 f   q_math.obj
 0002:000564e0       _AngleNormalize360         004ff4e0 f   q_math.obj
 0002:00056530       _AngleNormalize180         004ff530 f   q_math.obj
 0002:00056590       _AngleDelta                004ff590 f   q_math.obj
 0002:000565d0       _SetPlaneSignbits          004ff5d0 f   q_math.obj
 0002:00056650       _BoxOnPlaneSide            004ff650 f   q_math.obj
 0002:000567e0       _RadiusFromBounds          004ff7e0 f   q_math.obj
 0002:00056910       _ClearBounds               004ff910 f   q_math.obj
 0002:00056980       _AddPointToBounds          004ff980 f   q_math.obj
 0002:00056a90       _BoundsIntersect           004ffa90 f   q_math.obj
 0002:00056b50       _BoundsIntersectSphere     004ffb50 f   q_math.obj
 0002:00056c20       _BoundsIntersectPoint      004ffc20 f   q_math.obj
 0002:00056ce0       _VectorNormalize           004ffce0 f   q_math.obj
 0002:00056da0       _VectorNormalize2          004ffda0 f   q_math.obj
 0002:00056e80       __VectorMA                 004ffe80 f   q_math.obj
 0002:00056ee0       __DotProduct               004ffee0 f   q_math.obj
 0002:00056f30       __VectorSubtract           004fff30 f   q_math.obj
 0002:00056f90       __VectorAdd                004fff90 f   q_math.obj
 0002:00056ff0       __VectorCopy               004ffff0 f   q_math.obj
 0002:00057030       __VectorScale              00500030 f   q_math.obj
 0002:00057080       _Vector4Scale              00500080 f   q_math.obj
 0002:000570e0       _Q_log2                    005000e0 f   q_math.obj
 0002:00057120       _MatrixMultiply            00500120 f   q_math.obj
 0002:00057330       _AngleVectors              00500330 f   q_math.obj
 0002:000575a0       _PerpendicularVector       005005a0 f   q_math.obj
 0002:000576a0       _Q_isnan                   005006a0 f   q_math.obj
 0002:000576e0       _Com_Clamp                 005006e0 f   q_shared.obj
 0002:00057730       _COM_SkipPath              00500730 f   q_shared.obj
 0002:00057790       _COM_GetExtension          00500790 f   q_shared.obj
 0002:00057810       _COM_StripExtension        00500810 f   q_shared.obj
 0002:000578b0       _COM_DefaultExtension      005008b0 f   q_shared.obj
 0002:00057970       _ShortSwap                 00500970 f   q_shared.obj
 0002:000579c0       _ShortNoSwap               005009c0 f   q_shared.obj
 0002:000579e0       _LongSwap                  005009e0 f   q_shared.obj
 0002:00057a60       _LongNoSwap                00500a60 f   q_shared.obj
 0002:00057a80       _Long64Swap                00500a80 f   q_shared.obj
 0002:00057ae0       _Long64NoSwap              00500ae0 f   q_shared.obj
 0002:00057b00       _FloatSwap                 00500b00 f   q_shared.obj
 0002:00057b40       _FloatNoSwap               00500b40 f   q_shared.obj
 0002:00057b60       _COM_BeginParseSession     00500b60 f   q_shared.obj
 0002:00057bb0       _COM_GetCurrentParseLine   00500bb0 f   q_shared.obj
 0002:00057bd0       _COM_Parse                 00500bd0 f   q_shared.obj
 0002:00057c00       _COM_ParseError            00500c00 f   q_shared.obj
 0002:00057c70       _COM_ParseWarning          00500c70 f   q_shared.obj
 0002:00057ce0       _COM_Compress              00500ce0 f   q_shared.obj
 0002:00057f60       _COM_ParseExt              00500f60 f   q_shared.obj
 0002:00058280       _COM_MatchToken            00501280 f   q_shared.obj
 0002:000582e0       _SkipBracedSection         005012e0 f   q_shared.obj
 0002:00058370       _SkipRestOfLine            00501370 f   q_shared.obj
 0002:000583e0       _Parse1DMatrix             005013e0 f   q_shared.obj
 0002:00058470       _Parse2DMatrix             00501470 f   q_shared.obj
 0002:00058500       _Parse3DMatrix             00501500 f   q_shared.obj
 0002:000585a0       _Com_HexStrToInt           005015a0 f   q_shared.obj
 0002:000586d0       _Q_isprint                 005016d0 f   q_shared.obj
 0002:00058700       _Q_islower                 00501700 f   q_shared.obj
 0002:00058730       _Q_isupper                 00501730 f   q_shared.obj
 0002:00058760       _Q_isalpha                 00501760 f   q_shared.obj
 0002:000587a0       _Q_strrchr                 005017a0 f   q_shared.obj
 0002:00058820       _Q_isanumber               00501820 f   q_shared.obj
 0002:00058870       _Q_isintegral              00501870 f   q_shared.obj
 0002:000588c0       _Q_strncpyz                005018c0 f   q_shared.obj
 0002:00058950       _Q_stricmpn                00501950 f   q_shared.obj
 0002:00058a60       _Q_strncmp                 00501a60 f   q_shared.obj
 0002:00058af0       _Q_stricmp                 00501af0 f   q_shared.obj
 0002:00058b40       _Q_strlwr                  00501b40 f   q_shared.obj
 0002:00058ba0       _Q_strupr                  00501ba0 f   q_shared.obj
 0002:00058c00       _Q_strcat                  00501c00 f   q_shared.obj
 0002:00058c70       _Q_stristr                 00501c70 f   q_shared.obj
 0002:00058d70       _Q_PrintStrlen             00501d70 f   q_shared.obj
 0002:00058e20       _Q_CleanStr                00501e20 f   q_shared.obj
 0002:00058ee0       _Q_CountChar               00501ee0 f   q_shared.obj
 0002:00058f40       _Com_sprintf               00501f40 f   q_shared.obj
 0002:00059010       _va                        00502010 f   q_shared.obj
 0002:00059090       _Com_TruncateLongString    00502090 f   q_shared.obj
 0002:00059130       _Info_ValueForKey          00502130 f   q_shared.obj
 0002:00059330       _Info_NextPair             00502330 f   q_shared.obj
 0002:00059440       _Info_RemoveKey            00502440 f   q_shared.obj
 0002:00059640       _Info_RemoveKey_Big        00502640 f   q_shared.obj
 0002:00059830       _Info_Validate             00502830 f   q_shared.obj
 0002:00059890       _Info_SetValueForKey       00502890 f   q_shared.obj
 0002:00059a60       _Info_SetValueForKey_Big   00502a60 f   q_shared.obj
 0002:00059c20       _Com_SkipCharset           00502c20 f   q_shared.obj
 0002:00059cf0       _Com_SkipTokens            00502cf0 f   q_shared.obj
 0002:00059db0       _QAL_Init                  00502db0 f   qal.obj
 0002:0005a560       _QAL_Shutdown              00503560 f   qal.obj
 0002:0005a940       _GLimp_SetGamma            00503940 f   sdl_gamma.obj
 0002:0005acf0       _GLimp_Shutdown            00503cf0 f   sdl_glimp.obj
 0002:0005ad60       _GLimp_LogComment          00503d60 f   sdl_glimp.obj
 0002:0005ad80       _GLimp_Init                00503d80 f   sdl_glimp.obj
 0002:0005c320       _GLimp_EndFrame            00505320 f   sdl_glimp.obj
 0002:0005c480       _GLimp_RenderThreadWrapper 00505480 f   sdl_glimp.obj
 0002:0005c4a0       _GLimp_SpawnRenderThread   005054a0 f   sdl_glimp.obj
 0002:0005c4d0       _GLimp_RendererSleep       005054d0 f   sdl_glimp.obj
 0002:0005c4f0       _GLimp_FrontEndSleep       005054f0 f   sdl_glimp.obj
 0002:0005c510       _GLimp_WakeRenderer        00505510 f   sdl_glimp.obj
 0002:0005c530       _IN_Frame                  00505530 f   sdl_input.obj
 0002:0005e300       _IN_Init                   00507300 f   sdl_input.obj
 0002:0005e7d0       _IN_Shutdown               005077d0 f   sdl_input.obj
 0002:0005e850       _IN_Restart                00507850 f   sdl_input.obj
 0002:0005e870       _SNDDMA_Init               00507870 f   sdl_snd.obj
 0002:0005f020       _SNDDMA_GetDMAPos          00508020 f   sdl_snd.obj
 0002:0005f040       _SNDDMA_Shutdown           00508040 f   sdl_snd.obj
 0002:0005f0e0       _SNDDMA_Submit             005080e0 f   sdl_snd.obj
 0002:0005f100       _SNDDMA_BeginPainting      00508100 f   sdl_snd.obj
 0002:0005f120       _S_AdpcmEncode             00508120 f   snd_adpcm.obj
 0002:0005f3a0       _S_AdpcmDecode             005083a0 f   snd_adpcm.obj
 0002:0005f590       _S_AdpcmMemoryNeeded       00508590 f   snd_adpcm.obj
 0002:0005f630       _S_AdpcmGetSamples         00508630 f   snd_adpcm.obj
 0002:0005f690       _S_AdpcmEncodeSound        00508690 f   snd_adpcm.obj
 0002:0005f7a0       _S_CodecInit               005087a0 f   snd_codec.obj
 0002:0005f7d0       _S_CodecShutdown           005087d0 f   snd_codec.obj
 0002:0005f7f0       _S_CodecRegister           005087f0 f   snd_codec.obj
 0002:0005f820       _S_CodecLoad               00508820 f   snd_codec.obj
 0002:0005fa50       _S_CodecOpenStream         00508a50 f   snd_codec.obj
 0002:0005fb00       _S_CodecCloseStream        00508b00 f   snd_codec.obj
 0002:0005fb30       _S_CodecReadStream         00508b30 f   snd_codec.obj
 0002:0005fb70       _S_CodecUtilOpen           00508b70 f   snd_codec.obj
 0002:0005fc30       _S_CodecUtilClose          00508c30 f   snd_codec.obj
 0002:0005fc80       _S_WAV_CodecLoad           00508c80 f   snd_codec_wav.obj
 0002:000601b0       _S_WAV_CodecOpenStream     005091b0 f   snd_codec_wav.obj
 0002:00060230       _S_WAV_CodecCloseStream    00509230 f   snd_codec_wav.obj
 0002:00060260       _S_WAV_CodecReadStream     00509260 f   snd_codec_wav.obj
 0002:00060320       _S_Base_SoundInfo          00509320 f   snd_dma.obj
 0002:00060440       _S_Base_SoundList          00509440 f   snd_dma.obj
 0002:000605b0       _S_ChannelFree             005095b0 f   snd_dma.obj
 0002:000605f0       _S_ChannelMalloc           005095f0 f   snd_dma.obj
 0002:00060640       _S_ChannelSetup            00509640 f   snd_dma.obj
 0002:000606e0       _S_DefaultSound            005096e0 f   snd_dma.obj
 0002:00060760       _S_Base_DisableSounds      00509760 f   snd_dma.obj
 0002:00060790       _S_Base_RegisterSound      00509790 f   snd_dma.obj
 0002:00060b20       _S_Base_BeginRegistration  00509b20 f   snd_dma.obj
 0002:00060bb0       _S_memoryLoad              00509bb0 f   snd_dma.obj
 0002:00060c00       _S_SpatializeOrigin        00509c00 f   snd_dma.obj
 0002:00060dd0       _S_Base_StartSound         00509dd0 f   snd_dma.obj
 0002:00061200       _S_Base_StartLocalSound    0050a200 f   snd_dma.obj
 0002:00061280       _S_Base_ClearSoundBuffer   0050a280 f   snd_dma.obj
 0002:00061370       _S_Base_StopAllSounds      0050a370 f   snd_dma.obj
 0002:000613a0       _S_Base_StopLoopingSound   0050a3a0 f   snd_dma.obj
 0002:000613e0       _S_Base_ClearLoopingSounds 0050a3e0 f   snd_dma.obj
 0002:00061490       _S_Base_AddLoopingSound    0050a490 f   snd_dma.obj
 0002:00061930       _S_Base_AddRealLoopingSound 0050a930 f   snd_dma.obj
 0002:00061ac0       _S_AddLoopSounds           0050aac0 f   snd_dma.obj
 0002:00061d60       _S_ByteSwapRawSamples      0050ad60 f   snd_dma.obj
 0002:00061de0       _S_Base_RawSamples         0050ade0 f   snd_dma.obj
 0002:00062310       _S_Base_UpdateEntityPosition 0050b310 f   snd_dma.obj
 0002:00062390       _S_Base_Respatialize       0050b390 f   snd_dma.obj
 0002:000625c0       _S_ScanChannelStarts       0050b5c0 f   snd_dma.obj
 0002:00062680       _S_Base_Update             0050b680 f   snd_dma.obj
 0002:00062790       _S_GetSoundtime            0050b790 f   snd_dma.obj
 0002:000628d0       _S_Update_                 0050b8d0 f   snd_dma.obj
 0002:00062a80       _S_Base_StopBackgroundTrack 0050ba80 f   snd_dma.obj
 0002:00062ad0       _S_Base_StartBackgroundTrack 0050bad0 f   snd_dma.obj
 0002:00062c10       _S_UpdateBackgroundTrack   0050bc10 f   snd_dma.obj
 0002:00062e90       _S_FreeOldestSound         0050be90 f   snd_dma.obj
 0002:00062fa0       _S_Base_Shutdown           0050bfa0 f   snd_dma.obj
 0002:00062ff0       _S_Base_Init               0050bff0 f   snd_dma.obj
 0002:00063310       _S_StartSound              0050c310 f   snd_main.obj
 0002:00063350       _S_StartLocalSound         0050c350 f   snd_main.obj
 0002:00063390       _S_StartBackgroundTrack    0050c390 f   snd_main.obj
 0002:000633d0       _S_StopBackgroundTrack     0050c3d0 f   snd_main.obj
 0002:00063400       _S_RawSamples              0050c400 f   snd_main.obj
 0002:00063460       _S_StopAllSounds           0050c460 f   snd_main.obj
 0002:00063490       _S_ClearLoopingSounds      0050c490 f   snd_main.obj
 0002:000634c0       _S_AddLoopingSound         0050c4c0 f   snd_main.obj
 0002:00063500       _S_AddRealLoopingSound     0050c500 f   snd_main.obj
 0002:00063540       _S_StopLoopingSound        0050c540 f   snd_main.obj
 0002:00063570       _S_Respatialize            0050c570 f   snd_main.obj
 0002:000635b0       _S_UpdateEntityPosition    0050c5b0 f   snd_main.obj
 0002:000635f0       _S_Update                  0050c5f0 f   snd_main.obj
 0002:000636e0       _S_DisableSounds           0050c6e0 f   snd_main.obj
 0002:00063710       _S_BeginRegistration       0050c710 f   snd_main.obj
 0002:00063740       _S_RegisterSound           0050c740 f   snd_main.obj
 0002:00063780       _S_ClearSoundBuffer        0050c780 f   snd_main.obj
 0002:000637b0       _S_SoundInfo               0050c7b0 f   snd_main.obj
 0002:000637e0       _S_SoundList               0050c7e0 f   snd_main.obj
 0002:00063810       _S_StartCapture            0050c810 f   snd_main.obj
 0002:00063840       _S_AvailableCaptureSamples 0050c840 f   snd_main.obj
 0002:00063870       _S_Capture                 0050c870 f   snd_main.obj
 0002:000638b0       _S_StopCapture             0050c8b0 f   snd_main.obj
 0002:000638e0       _S_MasterGain              0050c8e0 f   snd_main.obj
 0002:00063920       _S_Play_f                  0050c920 f   snd_main.obj
 0002:00063a50       _S_Music_f                 0050ca50 f   snd_main.obj
 0002:00063af0       _S_StopMusic_f             0050caf0 f   snd_main.obj
 0002:00063b20       _S_Init                    0050cb20 f   snd_main.obj
 0002:00063fe0       _S_Shutdown                0050cfe0 f   snd_main.obj
 0002:00064090       _SND_free                  0050d090 f   snd_mem.obj
 0002:000640d0       _SND_malloc                0050d0d0 f   snd_mem.obj
 0002:00064150       _SND_setup                 0050d150 f   snd_mem.obj
 0002:00064270       _S_LoadSound               0050d270 f   snd_mem.obj
 0002:00064650       _S_DisplayFreeMemory       0050d650 f   snd_mem.obj
 0002:00064690       _S_WriteLinearBlastStereo16 0050d690 f   snd_mix.obj
 0002:00064730       _S_TransferStereo16        0050d730 f   snd_mix.obj
 0002:00064840       _S_TransferPaintBuffer     0050d840 f   snd_mix.obj
 0002:00064ac0       _S_PaintChannelFromWavelet 0050dac0 f   snd_mix.obj
 0002:00064c80       _S_PaintChannelFromADPCM   0050dc80 f   snd_mix.obj
 0002:00064e60       _S_PaintChannelFromMuLaw   0050de60 f   snd_mix.obj
 0002:000650c0       _S_PaintChannels           0050e0c0 f   snd_mix.obj
 0002:000659a0       _S_AL_StopCapture          0050e9a0 f   snd_openal.obj
 0002:000659e0       _S_AL_MasterGain           0050e9e0 f   snd_openal.obj
 0002:00065a10       _S_AL_Init                 0050ea10 f   snd_openal.obj
 0002:0006a130       _daub4                     00513130 f   snd_wavelet.obj
 0002:0006a6d0       _wt1                       005136d0 f   snd_wavelet.obj
 0002:0006a780       _MuLawEncode               00513780 f   snd_wavelet.obj
 0002:0006a840       _MuLawDecode               00513840 f   snd_wavelet.obj
 0002:0006a8c0       _NXPutc                    005138c0 f   snd_wavelet.obj
 0002:0006a900       _encodeWavelet             00513900 f   snd_wavelet.obj
 0002:0006ac20       _decodeWavelet             00513c20 f   snd_wavelet.obj
 0002:0006ad70       _encodeMuLaw               00513d70 f   snd_wavelet.obj
 0002:0006af40       _decodeMuLaw               00513f40 f   snd_wavelet.obj
 0002:0006afb0       _SV_BotAllocateClient      00513fb0 f   sv_bot.obj
 0002:0006b0a0       _SV_BotFreeClient          005140a0 f   sv_bot.obj
 0002:0006b150       _BotDrawDebugPolygons      00514150 f   sv_bot.obj
 0002:0006b380       _BotImport_DebugPolygonCreate 00514380 f   sv_bot.obj
 0002:0006b460       _BotImport_DebugPolygonDelete 00514460 f   sv_bot.obj
 0002:0006b4a0       _SV_BotFrame               005144a0 f   sv_bot.obj
 0002:0006b4f0       _SV_BotLibSetup            005144f0 f   sv_bot.obj
 0002:0006b550       _SV_BotLibShutdown         00514550 f   sv_bot.obj
 0002:0006b590       _SV_BotInitCvars           00514590 f   sv_bot.obj
 0002:0006b8c0       _SV_BotInitBotLib          005148c0 f   sv_bot.obj
 0002:0006c510       _SV_BotGetConsoleMessage   00515510 f   sv_bot.obj
 0002:0006c5f0       _SV_BotGetSnapshotEntity   005155f0 f   sv_bot.obj
 0002:0006c690       _SV_Heartbeat_f            00515690 f   sv_ccmds.obj
 0002:0006c6b0       _SV_AddOperatorCommands    005156b0 f   sv_ccmds.obj
 0002:0006f250       _SV_RemoveOperatorCommands 00518250 f   sv_ccmds.obj
 0002:0006f270       _SV_GetChallenge           00518270 f   sv_client.obj
 0002:0006f6f0       _SV_AuthorizeIpPacket      005186f0 f   sv_client.obj
 0002:0006f9c0       _SV_DirectConnect          005189c0 f   sv_client.obj
 0002:00070810       _SV_DropClient             00519810 f   sv_client.obj
 0002:00070a80       _SV_ClientEnterWorld       00519a80 f   sv_client.obj
 0002:00071160       _SV_WriteDownloadToClient  0051a160 f   sv_client.obj
 0002:00071bf0       _SV_WriteVoipToClient      0051abf0 f   sv_client.obj
 0002:00072450       _SV_UserinfoChanged        0051b450 f   sv_client.obj
 0002:00072a30       _SV_ExecuteClientCommand   0051ba30 f   sv_client.obj
 0002:00072b50       _SV_ClientThink            0051bb50 f   sv_client.obj
 0002:00072be0       _SV_ExecuteClientMessage   0051bbe0 f   sv_client.obj
 0002:00073930       _SV_GameError              0051c930 f   sv_game.obj
 0002:00073960       _SV_GamePrint              0051c960 f   sv_game.obj
 0002:00073990       _SV_NumForGentity          0051c990 f   sv_game.obj
 0002:000739c0       _SV_GentityNum             0051c9c0 f   sv_game.obj
 0002:000739f0       _SV_GameClientNum          0051c9f0 f   sv_game.obj
 0002:00073a20       _SV_SvEntityForGentity     0051ca20 f   sv_game.obj
 0002:00073a80       _SV_GEntityForSvEntity     0051ca80 f   sv_game.obj
 0002:00073ac0       _SV_GameSendServerCommand  0051cac0 f   sv_game.obj
 0002:00073b40       _SV_GameDropClient         0051cb40 f   sv_game.obj
 0002:00073ba0       _SV_SetBrushModel          0051cba0 f   sv_game.obj
 0002:00073cf0       _SV_inPVS                  0051ccf0 f   sv_game.obj
 0002:00073de0       _SV_inPVSIgnorePortals     0051cde0 f   sv_game.obj
 0002:00073e90       _SV_AdjustAreaPortalState  0051ce90 f   sv_game.obj
 0002:00073ef0       _SV_EntityContact          0051cef0 f   sv_game.obj
 0002:00073f90       _SV_GetServerinfo          0051cf90 f   sv_game.obj
 0002:00073ff0       _SV_LocateGameData         0051cff0 f   sv_game.obj
 0002:00074040       _SV_GetUsercmd             0051d040 f   sv_game.obj
 0002:000740d0       _SV_GameSystemCalls        0051d0d0 f   sv_game.obj
 0002:000774f0       _SV_ShutdownGameProgs      005204f0 f   sv_game.obj
 0002:00077550       _SV_RestartGameProgs       00520550 f   sv_game.obj
 0002:00077670       _SV_InitGameProgs          00520670 f   sv_game.obj
 0002:00077730       _SV_GameCommand            00520730 f   sv_game.obj
 0002:00077770       _SV_UpdateConfigstrings    00520770 f   sv_init.obj
 0002:00077980       _SV_SetConfigstring        00520980 f   sv_init.obj
 0002:00077b10       _SV_GetConfigstring        00520b10 f   sv_init.obj
 0002:00077bb0       _SV_SetUserinfo            00520bb0 f   sv_init.obj
 0002:00077c80       _SV_GetUserinfo            00520c80 f   sv_init.obj
 0002:00077d10       _SV_ChangeMaxClients       00520d10 f   sv_init.obj
 0002:00078060       _SV_SpawnServer            00521060 f   sv_init.obj
 0002:00078a90       _SV_Init                   00521a90 f   sv_init.obj
 0002:00079000       _SV_FinalMessage           00522000 f   sv_init.obj
 0002:000790f0       _SV_Shutdown               005220f0 f   sv_init.obj
 0002:00079210       _SV_AddServerCommand       00522210 f   sv_main.obj
 0002:00079360       _SV_SendServerCommand      00522360 f   sv_main.obj
 0002:000795a0       _SV_MasterHeartbeat        005225a0 f   sv_main.obj
 0002:00079a00       _SV_MasterShutdown         00522a00 f   sv_main.obj
 0002:00079a40       _SVC_Info                  00522a40 f   sv_main.obj
 0002:00079e00       _SV_PacketEvent            00522e00 f   sv_main.obj
 0002:0007ad40       _SV_Frame                  00523d40 f   sv_main.obj
 0002:0007b560       _SV_Netchan_TransmitNextFragment 00524560 f   sv_net_chan.obj
 0002:0007b860       _SV_Netchan_Transmit       00524860 f   sv_net_chan.obj
 0002:0007b990       _SV_Netchan_Process        00524990 f   sv_net_chan.obj
 0002:0007bbb0       _SV_UpdateServerCommandsToClient 00524bb0 f   sv_snapshot.obj
 0002:0007bc60       _SV_SendMessageToClient    00524c60 f   sv_snapshot.obj
 0002:0007bfd0       _SV_SendClientSnapshot     00524fd0 f   sv_snapshot.obj
 0002:0007cf40       _SV_SendClientMessages     00525f40 f   sv_snapshot.obj
 0002:0007d030       _SV_ClipHandleForEntity    00526030 f   sv_world.obj
 0002:0007d0d0       _SV_SectorList_f           005260d0 f   sv_world.obj
 0002:0007d170       _SV_ClearWorld             00526170 f   sv_world.obj
 0002:0007d420       _SV_UnlinkEntity           00526420 f   sv_world.obj
 0002:0007d4f0       _SV_LinkEntity             005264f0 f   sv_world.obj
 0002:0007dd90       _SV_AreaEntities           00526d90 f   sv_world.obj
 0002:0007e010       _SV_ClipToEntity           00527010 f   sv_world.obj
 0002:0007e120       _SV_Trace                  00527120 f   sv_world.obj
 0002:0007e690       _SV_PointContents          00527690 f   sv_world.obj
 0002:0007e830       _Sys_SetBinaryPath         00527830 f   sys_main.obj
 0002:0007e860       _Sys_BinaryPath            00527860 f   sys_main.obj
 0002:0007e880       _Sys_SetDefaultInstallPath 00527880 f   sys_main.obj
 0002:0007e8b0       _Sys_DefaultInstallPath    005278b0 f   sys_main.obj
 0002:0007e8f0       _Sys_DefaultAppPath        005278f0 f   sys_main.obj
 0002:0007e910       _Sys_In_Restart_f          00527910 f   sys_main.obj
 0002:0007e930       _Sys_ConsoleInput          00527930 f   sys_main.obj
 0002:0007e950       _Sys_WritePIDFile          00527950 f   sys_main.obj
 0002:0007eaf0       _Sys_Quit                  00527af0 f   sys_main.obj
 0002:0007eb60       _Sys_GetProcessorFeatures  00527b60 f   sys_main.obj
 0002:0007ec40       _Sys_Init                  00527c40 f   sys_main.obj
 0002:0007eca0       _Sys_AnsiColorPrint        00527ca0 f   sys_main.obj
 0002:0007ee70       _Sys_Print                 00527e70 f   sys_main.obj
 0002:0007eeb0       _Sys_Error                 00527eb0 f   sys_main.obj
 0002:0007ef50       _Sys_Warn                  00527f50 f   sys_main.obj
 0002:0007efe0       _Sys_FileTime              00527fe0 f   sys_main.obj
 0002:0007f070       _Sys_UnloadDll             00528070 f   sys_main.obj
 0002:0007f0b0       _Sys_LoadDll               005280b0 f   sys_main.obj
 0002:0007f370       _Sys_ParseArgs             00528370 f   sys_main.obj
 0002:0007f400       _Sys_SigHandler            00528400 f   sys_main.obj
 0002:0007f4c0       _SDL_main                  005284c0 f   sys_main.obj
 0002:0007f790       _Sys_DefaultHomePath       00528790 f   sys_win32.obj
 0002:0007f900       _Sys_TempPath              00528900 f   sys_win32.obj
 0002:0007f950       _Sys_Milliseconds          00528950 f   sys_win32.obj
 0002:0007f9a0       _Sys_SnapVector            005289a0 f   sys_win32.obj
 0002:0007fa20       _Sys_RandomBytes           00528a20 f   sys_win32.obj
 0002:0007faa0       _Sys_GetCurrentUser        00528aa0 f   sys_win32.obj
 0002:0007fb20       _Sys_GetClipboardData      00528b20 f   sys_win32.obj
 0002:0007fc10       _Sys_LowPhysicalMemory     00528c10 f   sys_win32.obj
 0002:0007fc60       _Sys_Basename              00528c60 f   sys_win32.obj
 0002:0007fd50       _Sys_Dirname               00528d50 f   sys_win32.obj
 0002:0007fde0       _Sys_Mkdir                 00528de0 f   sys_win32.obj
 0002:0007fe30       _Sys_Cwd                   00528e30 f   sys_win32.obj
 0002:0007fe70       _Sys_ListFilteredFiles     00528e70 f   sys_win32.obj
 0002:00080110       _Sys_ListFiles             00529110 f   sys_win32.obj
 0002:000806a0       _Sys_FreeFileList          005296a0 f   sys_win32.obj
 0002:00080710       _Sys_Sleep                 00529710 f   sys_win32.obj
 0002:00080750       _Sys_ErrorDialog           00529750 f   sys_win32.obj
 0002:000808a0       _Sys_Dialog                005298a0 f   sys_win32.obj
 0002:00080980       _Sys_GLimpSafeInit         00529980 f   sys_win32.obj
 0002:000809b0       _Sys_GLimpInit             005299b0 f   sys_win32.obj
 0002:00080a10       _Sys_PlatformInit          00529a10 f   sys_win32.obj
 0002:00080ad0       _Sys_PlatformExit          00529ad0 f   sys_win32.obj
 0002:00080b00       _Sys_SetEnv                00529b00 f   sys_win32.obj
 0002:00080b40       _Sys_PID                   00529b40 f   sys_win32.obj
 0002:00080b60       _Sys_PIDIsRunning          00529b60 f   sys_win32.obj
 0002:00080c00       _unzStringFileNameCompare  00529c00 f   unzip.obj
 0002:00080d50       _unzOpen2                  00529d50 f   unzip.obj
 0002:00081580       _unzOpen                   0052a580 f   unzip.obj
 0002:000815b0       _unzClose                  0052a5b0 f   unzip.obj
 0002:00081640       _unzGetGlobalInfo          0052a640 f   unzip.obj
 0002:00081690       _unzGetCurrentFileInfo     0052a690 f   unzip.obj
 0002:00081da0       _unzGoToFirstFile          0052ada0 f   unzip.obj
 0002:00081e40       _unzGoToNextFile           0052ae40 f   unzip.obj
 0002:00081f40       _unzLocateFile             0052af40 f   unzip.obj
 0002:000820d0       _unzGetFilePos             0052b0d0 f   unzip.obj
 0002:00082140       _unzGoToFilePos            0052b140 f   unzip.obj
 0002:000821e0       _unzOpenCurrentFile3       0052b1e0 f   unzip.obj
 0002:000828d0       _unzOpenCurrentFile        0052b8d0 f   unzip.obj
 0002:00082900       _unzOpenCurrentFilePassword 0052b900 f   unzip.obj
 0002:00082930       _unzOpenCurrentFile2       0052b930 f   unzip.obj
 0002:00082970       _unzReadCurrentFile        0052b970 f   unzip.obj
 0002:00082df0       _unztell                   0052bdf0 f   unzip.obj
 0002:00082e50       _unzeof                    0052be50 f   unzip.obj
 0002:00082ec0       _unzGetLocalExtrafield     0052bec0 f   unzip.obj
 0002:00082fe0       _unzCloseCurrentFile       0052bfe0 f   unzip.obj
 0002:000830f0       _unzGetGlobalComment       0052c0f0 f   unzip.obj
 0002:000831f0       _unzGetOffset              0052c1f0 f   unzip.obj
 0002:00083270       _unzSetOffset              0052c270 f   unzip.obj
 0002:00083310       _fopen_file_func           0052c310 f   ioapi.obj
 0002:000833b0       _fread_file_func           0052c3b0 f   ioapi.obj
 0002:000833f0       _fwrite_file_func          0052c3f0 f   ioapi.obj
 0002:00083430       _ftell_file_func           0052c430 f   ioapi.obj
 0002:00083460       _fseek_file_func           0052c460 f   ioapi.obj
 0002:000834f0       _fclose_file_func          0052c4f0 f   ioapi.obj
 0002:00083520       _ferror_file_func          0052c520 f   ioapi.obj
 0002:00083550       _fill_fopen_filefunc       0052c550 f   ioapi.obj
 0002:000835d0       _VM_Debug                  0052c5d0 f   vm.obj
 0002:000835f0       _VM_Init                   0052c5f0 f   vm.obj
 0002:000836a0       _VM_ValueToSymbol          0052c6a0 f   vm.obj
 0002:00083750       _VM_ValueToFunctionSymbol  0052c750 f   vm.obj
 0002:000837b0       _VM_SymbolToValue          0052c7b0 f   vm.obj
 0002:00083810       _ParseHex                  0052c810 f   vm.obj
 0002:000838d0       _VM_LoadSymbols            0052c8d0 f   vm.obj
 0002:00083c10       _VM_DllSyscall             0052cc10 f   vm.obj
 0002:00083c40       _VM_LoadQVM                0052cc40 f   vm.obj
 0002:000840e0       _VM_Restart                0052d0e0 f   vm.obj
 0002:000841d0       _VM_Create                 0052d1d0 f   vm.obj
 0002:000844d0       _VM_Free                   0052d4d0 f   vm.obj
 0002:000845d0       _VM_Clear                  0052d5d0 f   vm.obj
 0002:00084630       _VM_Forced_Unload_Start    0052d630 f   vm.obj
 0002:00084650       _VM_Forced_Unload_Done     0052d650 f   vm.obj
 0002:00084670       _VM_ArgPtr                 0052d670 f   vm.obj
 0002:000846e0       _VM_ExplicitArgPtr         0052d6e0 f   vm.obj
 0002:00084750       _VM_Call                   0052d750 f   vm.obj
 0002:00084900       _VM_VmProfile_f            0052d900 f   vm.obj
 0002:00084b20       _VM_VmInfo_f               0052db20 f   vm.obj
 0002:00084c50       _VM_LogSyscalls            0052dc50 f   vm.obj
 0002:00084d00       _VM_Indent                 0052dd00 f   vm_interpreted.obj
 0002:00084d50       _VM_StackTrace             0052dd50 f   vm_interpreted.obj
 0002:00084de0       _VM_PrepareInterpreter     0052dde0 f   vm_interpreted.obj
 0002:000850e0       _VM_CallInterpreted        0052e0e0 f   vm_interpreted.obj
 0002:00086770       _AsmCall                   0052f770 f   vm_x86.obj
 0002:00086830       _EmitMovEBXEDI             0052f830 f   vm_x86.obj
 0002:00086bb0       _VM_Compile                0052fbb0 f   vm_x86.obj
 0002:000895b0       _VM_CallCompiled           005325b0 f   vm_x86.obj
 0002:00089860       _jpeg_CreateCompress       00532860 f   jcapimin.obj
 0002:00089a30       _jpeg_destroy_compress     00532a30 f   jcapimin.obj
 0002:00089a60       _jpeg_abort_compress       00532a60 f   jcapimin.obj
 0002:00089a90       _jpeg_suppress_tables      00532a90 f   jcapimin.obj
 0002:00089b60       _jpeg_finish_compress      00532b60 f   jcapimin.obj
 0002:00089d70       _jpeg_write_marker         00532d70 f   jcapimin.obj
 0002:00089e60       _jpeg_write_m_header       00532e60 f   jcapimin.obj
 0002:00089f00       _jpeg_write_m_byte         00532f00 f   jcapimin.obj
 0002:00089f40       _jpeg_write_tables         00532f40 f   jcapimin.obj
 0002:0008a000       _jpeg_start_compress       00533000 f   jcapistd.obj
 0002:0008a100       _jpeg_write_scanlines      00533100 f   jcapistd.obj
 0002:0008a290       _jpeg_write_raw_data       00533290 f   jcapistd.obj
 0002:0008a430       _jinit_c_coef_controller   00533430 f   jccoefct.obj
 0002:0008b100       _jinit_color_converter     00534100 f   jccolor.obj
 0002:0008bdd0       _jinit_forward_dct         00534dd0 f   jcdctmgr.obj
 0002:0008c510       _jpeg_make_c_derived_tbl   00535510 f   jchuff.obj
 0002:0008c8c0       _jpeg_gen_optimal_table    005358c0 f   jchuff.obj
 0002:0008cf00       _jinit_huff_encoder        00535f00 f   jchuff.obj
 0002:0008e180       _jinit_compress_master     00537180 f   jcinit.obj
 0002:0008e2f0       _jinit_c_main_controller   005372f0 f   jcmainct.obj
 0002:0008e5f0       _jinit_marker_writer       005375f0 f   jcmarker.obj
 0002:0008f710       _jinit_c_master_control    00538710 f   jcmaster.obj
 0002:00090df0       _jpeg_abort                00539df0 f   jcomapi.obj
 0002:00090e90       _jpeg_destroy              00539e90 f   jcomapi.obj
 0002:00090ee0       _jpeg_alloc_quant_table    00539ee0 f   jcomapi.obj
 0002:00090f30       _jpeg_alloc_huff_table     00539f30 f   jcomapi.obj
 0002:00090f80       _jpeg_add_quant_table      00539f80 f   jcparam.obj
 0002:000910f0       _jpeg_set_linear_quality   0053a0f0 f   jcparam.obj
 0002:00091150       _jpeg_quality_scaling      0053a150 f   jcparam.obj
 0002:000911c0       _jpeg_set_quality          0053a1c0 f   jcparam.obj
 0002:00091210       _jpeg_set_defaults         0053a210 f   jcparam.obj
 0002:000915c0       _jpeg_default_colorspace   0053a5c0 f   jcparam.obj
 0002:000916b0       _jpeg_set_colorspace       0053a6b0 f   jcparam.obj
 0002:00091e50       _jpeg_simple_progression   0053ae50 f   jcparam.obj
 0002:00092380       _jinit_phuff_encoder       0053b380 f   jcphuff.obj
 0002:000939e0       _jinit_c_prep_controller   0053c9e0 f   jcprepct.obj
 0002:00094380       _jinit_downsampler         0053d380 f   jcsample.obj
 0002:000953c0       _jpeg_CreateDecompress     0053e3c0 f   jdapimin.obj
 0002:000955b0       _jpeg_destroy_decompress   0053e5b0 f   jdapimin.obj
 0002:000955e0       _jpeg_abort_decompress     0053e5e0 f   jdapimin.obj
 0002:00095610       _jpeg_read_header          0053e610 f   jdapimin.obj
 0002:00095700       _jpeg_consume_input        0053e700 f   jdapimin.obj
 0002:00095c10       _jpeg_input_complete       0053ec10 f   jdapimin.obj
 0002:00095c90       _jpeg_has_multiple_scans   0053ec90 f   jdapimin.obj
 0002:00095d10       _jpeg_finish_decompress    0053ed10 f   jdapimin.obj
 0002:00095e80       _jpeg_start_decompress     0053ee80 f   jdapistd.obj
 0002:00096050       _jpeg_read_scanlines       0053f050 f   jdapistd.obj
 0002:00096180       _jpeg_read_raw_data        0053f180 f   jdapistd.obj
 0002:000962f0       _jpeg_mem_src              0053f2f0 f   jdatasrc.obj
 0002:000965c0       _jinit_d_coef_controller   0053f5c0 f   jdcoefct.obj
 0002:00096b80       _jinit_color_deconverter   0053fb80 f   jdcolor.obj
 0002:00097660       _jinit_inverse_dct         00540660 f   jddctmgr.obj
 0002:00097990       _jpeg_make_d_derived_tbl   00540990 f   jdhuff.obj
 0002:00097e90       _jpeg_fill_bit_buffer      00540e90 f   jdhuff.obj
 0002:000980c0       _jpeg_huff_decode          005410c0 f   jdhuff.obj
 0002:00098270       _jinit_huff_decoder        00541270 f   jdhuff.obj
 0002:00098e50       _jinit_input_controller    00541e50 f   jdinput.obj
 0002:000999f0       _jinit_d_main_controller   005429f0 f   jdmainct.obj
 0002:0009a5b0       _jpeg_resync_to_restart    005435b0 f   jdmarker.obj
 0002:0009aa40       _jinit_marker_reader       00543a40 f   jdmarker.obj
 0002:0009dde0       _jpeg_set_marker_processor 00546de0 f   jdmarker.obj
 0002:0009de80       _jpeg_calc_output_dimensions 00546e80 f   jdmaster.obj
 0002:0009e010       _jinit_master_decompress   00547010 f   jdmaster.obj
 0002:0009e870       _jinit_d_post_controller   00547870 f   jdpostct.obj
 0002:0009eb30       _jinit_upsampler           00547b30 f   jdsample.obj
 0002:0009f860       _jpeg_read_coefficients    00548860 f   jdtrans.obj
 0002:0009fb90       _jpeg_std_error            00548b90 f   jerror.obj
 0002:0009ffb0       _jpeg_fdct_float           00548fb0 f   jfdctflt.obj
 0002:000a0400       _jpeg_idct_float           00549400 f   jidctflt.obj
 0002:000a0bb0       _jinit_memory_mgr          00549bb0 f   jmemmgr.obj
 0002:000a2510       _jpeg_get_small            0054b510 f   jmemnobs.obj
 0002:000a2540       _jpeg_free_small           0054b540 f   jmemnobs.obj
 0002:000a2570       _jpeg_get_large            0054b570 f   jmemnobs.obj
 0002:000a25a0       _jpeg_free_large           0054b5a0 f   jmemnobs.obj
 0002:000a25d0       _jpeg_mem_available        0054b5d0 f   jmemnobs.obj
 0002:000a25f0       _jpeg_open_backing_store   0054b5f0 f   jmemnobs.obj
 0002:000a2630       _jpeg_mem_init             0054b630 f   jmemnobs.obj
 0002:000a2650       _jpeg_mem_term             0054b650 f   jmemnobs.obj
 0002:000a2670       _jdiv_round_up             0054b670 f   jutils.obj
 0002:000a26a0       _jround_up                 0054b6a0 f   jutils.obj
 0002:000a26e0       _jcopy_sample_rows         0054b6e0 f   jutils.obj
 0002:000a2780       _jcopy_block_row           0054b780 f   jutils.obj
 0002:000a27b0       _jzero_far                 0054b7b0 f   jutils.obj
 0002:000a27e0       _AAS_Trace                 0054b7e0 f   be_aas_bspq3.obj
 0002:000a2860       _AAS_PointContents         0054b860 f   be_aas_bspq3.obj
 0002:000a2890       _AAS_EntityCollision       0054b890 f   be_aas_bspq3.obj
 0002:000a2930       _AAS_inPVS                 0054b930 f   be_aas_bspq3.obj
 0002:000a2960       _AAS_inPHS                 0054b960 f   be_aas_bspq3.obj
 0002:000a2980       _AAS_BSPModelMinsMaxsOrigin 0054b980 f   be_aas_bspq3.obj
 0002:000a29c0       _AAS_UnlinkFromBSPLeaves   0054b9c0 f   be_aas_bspq3.obj
 0002:000a29e0       _AAS_BSPLinkEntity         0054b9e0 f   be_aas_bspq3.obj
 0002:000a2a00       _AAS_BoxEntities           0054ba00 f   be_aas_bspq3.obj
 0002:000a2a20       _AAS_NextBSPEntity         0054ba20 f   be_aas_bspq3.obj
 0002:000a2a60       _AAS_BSPEntityInRange      0054ba60 f   be_aas_bspq3.obj
 0002:000a2ab0       _AAS_ValueForBSPEpairKey   0054bab0 f   be_aas_bspq3.obj
 0002:000a2b70       _AAS_VectorForBSPEpairKey  0054bb70 f   be_aas_bspq3.obj
 0002:000a2c80       _AAS_FloatForBSPEpairKey   0054bc80 f   be_aas_bspq3.obj
 0002:000a2d10       _AAS_IntForBSPEpairKey     0054bd10 f   be_aas_bspq3.obj
 0002:000a2da0       _AAS_FreeBSPEntities       0054bda0 f   be_aas_bspq3.obj
 0002:000a2e70       _AAS_ParseBSPEntities      0054be70 f   be_aas_bspq3.obj
 0002:000a31e0       _AAS_BSPTraceLight         0054c1e0 f   be_aas_bspq3.obj
 0002:000a3200       _AAS_DumpBSPData           0054c200 f   be_aas_bspq3.obj
 0002:000a3280       _AAS_LoadBSPFile           0054c280 f   be_aas_bspq3.obj
 0002:000a3310       _AAS_RemoveClusterAreas    0054c310 f   be_aas_cluster.obj
 0002:000a3370       _AAS_ClearCluster          0054c370 f   be_aas_cluster.obj
 0002:000a33e0       _AAS_RemovePortalsClusterReference 0054c3e0 f   be_aas_cluster.obj
 0002:000a3490       _AAS_UpdatePortal          0054c490 f   be_aas_cluster.obj
 0002:000a3670       _AAS_FloodClusterAreas_r   0054c670 f   be_aas_cluster.obj
 0002:000a3970       _AAS_FloodClusterAreasUsingReachabilities 0054c970 f   be_aas_cluster.obj
 0002:000a3ab0       _AAS_NumberClusterPortals  0054cab0 f   be_aas_cluster.obj
 0002:000a3b80       _AAS_NumberClusterAreas    0054cb80 f   be_aas_cluster.obj
 0002:000a3f50       _AAS_FindClusters          0054cf50 f   be_aas_cluster.obj
 0002:000a40d0       _AAS_CreatePortals         0054d0d0 f   be_aas_cluster.obj
 0002:000a4190       _AAS_ConnectedAreas_r      0054d190 f   be_aas_cluster.obj
 0002:000a42f0       _AAS_ConnectedAreas        0054d2f0 f   be_aas_cluster.obj
 0002:000a43d0       _AAS_GetAdjacentAreasWithLessPresenceTypes_r 0054d3d0 f   be_aas_cluster.obj
 0002:000a4580       _AAS_CheckAreaForPossiblePortals 0054d580 f   be_aas_cluster.obj
 0002:000a4d80       _AAS_FindPossiblePortals   0054dd80 f   be_aas_cluster.obj
 0002:000a4e00       _AAS_RemoveAllPortals      0054de00 f   be_aas_cluster.obj
 0002:000a4e70       _AAS_TestPortals           0054de70 f   be_aas_cluster.obj
 0002:000a4f80       _AAS_CountForcedClusterPortals 0054df80 f   be_aas_cluster.obj
 0002:000a5020       _AAS_CreateViewPortals     0054e020 f   be_aas_cluster.obj
 0002:000a50a0       _AAS_SetViewPortalsAsClusterPortals 0054e0a0 f   be_aas_cluster.obj
 0002:000a5120       _AAS_InitClustering        0054e120 f   be_aas_cluster.obj
 0002:000a54a0       _AAS_ClearShownPolygons    0054e4a0 f   be_aas_debug.obj
 0002:000a5520       _AAS_ShowPolygon           0054e520 f   be_aas_debug.obj
 0002:000a55a0       _AAS_ClearShownDebugLines  0054e5a0 f   be_aas_debug.obj
 0002:000a5630       _AAS_DebugLine             0054e630 f   be_aas_debug.obj
 0002:000a5700       _AAS_PermanentLine         0054e700 f   be_aas_debug.obj
 0002:000a5740       _AAS_DrawPermanentCross    0054e740 f   be_aas_debug.obj
 0002:000a5850       _AAS_DrawPlaneCross        0054e850 f   be_aas_debug.obj
 0002:000a5c40       _AAS_ShowBoundingBox       0054ec40 f   be_aas_debug.obj
 0002:000a5f60       _AAS_ShowFace              0054ef60 f   be_aas_debug.obj
 0002:000a61d0       _AAS_ShowFacePolygon       0054f1d0 f   be_aas_debug.obj
 0002:000a64c0       _AAS_ShowArea              0054f4c0 f   be_aas_debug.obj
 0002:000a6950       _AAS_ShowAreaPolygons      0054f950 f   be_aas_debug.obj
 0002:000a6a80       _AAS_DrawCross             0054fa80 f   be_aas_debug.obj
 0002:000a6b60       _AAS_PrintTravelType       0054fb60 f   be_aas_debug.obj
 0002:000a6b80       _AAS_DrawArrow             0054fb80 f   be_aas_debug.obj
 0002:000a6e30       _AAS_ShowReachability      0054fe30 f   be_aas_debug.obj
 0002:000a7260       _AAS_ShowReachableAreas    00550260 f   be_aas_debug.obj
 0002:000a7380       _AAS_FloodAreas_r          00550380 f   be_aas_debug.obj
 0002:000a75c0       _AAS_FloodAreas            005505c0 f   be_aas_debug.obj
 0002:000a7630       _AAS_UpdateEntity          00550630 f   be_aas_entity.obj
 0002:000a7bd0       _AAS_EntityInfo            00550bd0 f   be_aas_entity.obj
 0002:000a7c90       _AAS_EntityOrigin          00550c90 f   be_aas_entity.obj
 0002:000a7d50       _AAS_EntityModelindex      00550d50 f   be_aas_entity.obj
 0002:000a7db0       _AAS_EntityType            00550db0 f   be_aas_entity.obj
 0002:000a7e20       _AAS_EntityModelNum        00550e20 f   be_aas_entity.obj
 0002:000a7e90       _AAS_OriginOfMoverWithModelNum 00550e90 f   be_aas_entity.obj
 0002:000a7f40       _AAS_EntitySize            00550f40 f   be_aas_entity.obj
 0002:000a8000       _AAS_EntityBSPData         00551000 f   be_aas_entity.obj
 0002:000a8140       _AAS_ResetEntityLinks      00551140 f   be_aas_entity.obj
 0002:000a81c0       _AAS_InvalidateEntities    005511c0 f   be_aas_entity.obj
 0002:000a8240       _AAS_UnlinkInvalidEntities 00551240 f   be_aas_entity.obj
 0002:000a82f0       _AAS_NearestEntity         005512f0 f   be_aas_entity.obj
 0002:000a8490       _AAS_BestReachableEntityArea 00551490 f   be_aas_entity.obj
 0002:000a84e0       _AAS_NextEntity            005514e0 f   be_aas_entity.obj
 0002:000a8560       _AAS_SwapAASData           00551560 f   be_aas_file.obj
 0002:000a9080       _AAS_DumpAASData           00552080 f   be_aas_file.obj
 0002:000a93c0       _AAS_LoadAASLump           005523c0 f   be_aas_file.obj
 0002:000a94b0       _AAS_DData                 005524b0 f   be_aas_file.obj
 0002:000a9510       _AAS_LoadAASFile           00552510 f   be_aas_file.obj
 0002:000a9e20       _AAS_WriteAASLump          00552e20 f   be_aas_file.obj
 0002:000a9ea0       _AAS_WriteAASFile          00552ea0 f   be_aas_file.obj
 0002:000aa330       _AAS_Error                 00553330 f   be_aas_main.obj
 0002:000aa3c0       _AAS_StringFromIndex       005533c0 f   be_aas_main.obj
 0002:000aa490       _AAS_IndexFromString       00553490 f   be_aas_main.obj
 0002:000aa530       _AAS_ModelFromIndex        00553530 f   be_aas_main.obj
 0002:000aa570       _AAS_IndexFromModel        00553570 f   be_aas_main.obj
 0002:000aa5b0       _AAS_UpdateStringIndexes   005535b0 f   be_aas_main.obj
 0002:000aa660       _AAS_Loaded                00553660 f   be_aas_main.obj
 0002:000aa680       _AAS_Initialized           00553680 f   be_aas_main.obj
 0002:000aa6a0       _AAS_SetInitialized        005536a0 f   be_aas_main.obj
 0002:000aa6e0       _AAS_ContinueInit          005536e0 f   be_aas_main.obj
 0002:000aa7f0       _AAS_StartFrame            005537f0 f   be_aas_main.obj
 0002:000aa950       _AAS_Time                  00553950 f   be_aas_main.obj
 0002:000aa970       _AAS_ProjectPointOntoVector 00553970 f   be_aas_main.obj
 0002:000aaab0       _AAS_LoadFiles             00553ab0 f   be_aas_main.obj
 0002:000aab80       _AAS_LoadMap               00553b80 f   be_aas_main.obj
 0002:000aac10       _AAS_Setup                 00553c10 f   be_aas_main.obj
 0002:000aace0       _AAS_Shutdown              00553ce0 f   be_aas_main.obj
 0002:000aad70       _AAS_DropToFloor           00553d70 f   be_aas_move.obj
 0002:000aae40       _AAS_InitSettings          00553e40 f   be_aas_move.obj
 0002:000ab2b0       _AAS_AgainstLadder         005542b0 f   be_aas_move.obj
 0002:000ab550       _AAS_OnGround              00554550 f   be_aas_move.obj
 0002:000ab6a0       _AAS_Swimming              005546a0 f   be_aas_move.obj
 0002:000ab720       _AAS_SetMovedir            00554720 f   be_aas_move.obj
 0002:000ab850       _AAS_JumpReachRunStart     00554850 f   be_aas_move.obj
 0002:000ab9b0       _AAS_WeaponJumpZVelocity   005549b0 f   be_aas_move.obj
 0002:000abda0       _AAS_RocketJumpZVelocity   00554da0 f   be_aas_move.obj
 0002:000abdd0       _AAS_BFGJumpZVelocity      00554dd0 f   be_aas_move.obj
 0002:000abe00       _AAS_Accelerate            00554e00 f   be_aas_move.obj
 0002:000abee0       _AAS_AirControl            00554ee0 f   be_aas_move.obj
 0002:000abf50       _AAS_ApplyFriction         00554f50 f   be_aas_move.obj
 0002:000ac030       _AAS_ClipToBBox            00555030 f   be_aas_move.obj
 0002:000ac430       _AAS_ClientMovementPrediction 00555430 f   be_aas_move.obj
 0002:000ae280       _AAS_PredictClientMovement 00557280 f   be_aas_move.obj
 0002:000ae310       _AAS_ClientMovementHitBBox 00557310 f   be_aas_move.obj
 0002:000ae380       _AAS_TestMovementPrediction 00557380 f   be_aas_move.obj
 0002:000ae4a0       _AAS_HorizontalVelocityForJump 005574a0 f   be_aas_move.obj
 0002:000ae640       _AAS_KeepEdge              00557640 f   be_aas_optimize.obj
 0002:000ae660       _AAS_OptimizeEdge          00557660 f   be_aas_optimize.obj
 0002:000ae8a0       _AAS_KeepFace              005578a0 f   be_aas_optimize.obj
 0002:000ae8d0       _AAS_OptimizeFace          005578d0 f   be_aas_optimize.obj
 0002:000aeab0       _AAS_OptimizeArea          00557ab0 f   be_aas_optimize.obj
 0002:000aebc0       _AAS_OptimizeAlloc         00557bc0 f   be_aas_optimize.obj
 0002:000aed30       _AAS_OptimizeStore         00557d30 f   be_aas_optimize.obj
 0002:000aeee0       _AAS_Optimize              00557ee0 f   be_aas_optimize.obj
 0002:000af110       _AAS_FaceArea              00558110 f   be_aas_reach.obj
 0002:000af450       _AAS_AreaVolume            00558450 f   be_aas_reach.obj
 0002:000af650       _AAS_BestReachableLinkArea 00558650 f   be_aas_reach.obj
 0002:000af720       _AAS_GetJumpPadInfo        00558720 f   be_aas_reach.obj
 0002:000afbf0       _AAS_BestReachableFromJumpPadArea 00558bf0 f   be_aas_reach.obj
 0002:000aff60       _AAS_BestReachableArea     00558f60 f   be_aas_reach.obj
 0002:000b02f0       _AAS_SetupReachabilityHeap 005592f0 f   be_aas_reach.obj
 0002:000b03a0       _AAS_ShutDownReachabilityHeap 005593a0 f   be_aas_reach.obj
 0002:000b03e0       _AAS_AllocReachability     005593e0 f   be_aas_reach.obj
 0002:000b0460       _AAS_FreeReachability      00559460 f   be_aas_reach.obj
 0002:000b04c0       _AAS_AreaReachability      005594c0 f   be_aas_reach.obj
 0002:000b0520       _AAS_AreaGroundFaceArea    00559520 f   be_aas_reach.obj
 0002:000b05d0       _AAS_FaceCenter            005595d0 f   be_aas_reach.obj
 0002:000b07b0       _AAS_FallDamageDistance    005597b0 f   be_aas_reach.obj
 0002:000b0810       _AAS_FallDelta             00559810 f   be_aas_reach.obj
 0002:000b0890       _AAS_MaxJumpHeight         00559890 f   be_aas_reach.obj
 0002:000b08e0       _AAS_MaxJumpDistance       005598e0 f   be_aas_reach.obj
 0002:000b0950       _AAS_AreaCrouch            00559950 f   be_aas_reach.obj
 0002:000b0990       _AAS_AreaSwim              00559990 f   be_aas_reach.obj
 0002:000b09d0       _AAS_AreaLiquid            005599d0 f   be_aas_reach.obj
 0002:000b0a10       _AAS_AreaLava              00559a10 f   be_aas_reach.obj
 0002:000b0a40       _AAS_AreaSlime             00559a40 f   be_aas_reach.obj
 0002:000b0a70       _AAS_AreaGrounded          00559a70 f   be_aas_reach.obj
 0002:000b0aa0       _AAS_AreaLadder            00559aa0 f   be_aas_reach.obj
 0002:000b0ad0       _AAS_AreaJumpPad           00559ad0 f   be_aas_reach.obj
 0002:000b0b00       _AAS_AreaTeleporter        00559b00 f   be_aas_reach.obj
 0002:000b0b30       _AAS_AreaClusterPortal     00559b30 f   be_aas_reach.obj
 0002:000b0b60       _AAS_AreaDoNotEnter        00559b60 f   be_aas_reach.obj
 0002:000b0b90       _AAS_BarrierJumpTravelTime 00559b90 f   be_aas_reach.obj
 0002:000b0be0       _AAS_ReachabilityExists    00559be0 f   be_aas_reach.obj
 0002:000b0c40       _AAS_NearbySolidOrGap      00559c40 f   be_aas_reach.obj
 0002:000b0de0       _AAS_Reachability_Swim     00559de0 f   be_aas_reach.obj
 0002:000b11b0       _AAS_Reachability_EqualFloorHeight 0055a1b0 f   be_aas_reach.obj
 0002:000b1c00       _AAS_Reachability_Step_Barrier_WaterJump_WalkOffLedge 0055ac00 f   be_aas_reach.obj
 0002:000b4290       _VectorDistance            0055d290 f   be_aas_reach.obj
 0002:000b4310       _VectorBetweenVectors      0055d310 f   be_aas_reach.obj
 0002:000b43f0       _VectorMiddle              0055d3f0 f   be_aas_reach.obj
 0002:000b44a0       _AAS_ClosestEdgePoints     0055d4a0 f   be_aas_reach.obj
 0002:000b5780       _AAS_Reachability_Jump     0055e780 f   be_aas_reach.obj
 0002:000b6a50       _AAS_Reachability_Ladder   0055fa50 f   be_aas_reach.obj
 0002:000b80a0       _AAS_TravelFlagsForTeam    005610a0 f   be_aas_reach.obj
 0002:000b8100       _AAS_Reachability_Teleport 00561100 f   be_aas_reach.obj
 0002:000b8cd0       _AAS_Reachability_Elevator 00561cd0 f   be_aas_reach.obj
 0002:000b9ba0       _AAS_FindFaceReachabilities 00562ba0 f   be_aas_reach.obj
 0002:000ba260       _AAS_Reachability_FuncBobbing 00563260 f   be_aas_reach.obj
 0002:000bb320       _AAS_Reachability_JumpPad  00564320 f   be_aas_reach.obj
 0002:000bbe20       _AAS_Reachability_Grapple  00564e20 f   be_aas_reach.obj
 0002:000bcab0       _AAS_SetWeaponJumpAreaFlags 00565ab0 f   be_aas_reach.obj
 0002:000bcec0       _AAS_Reachability_WeaponJump 00565ec0 f   be_aas_reach.obj
 0002:000bd4b0       _AAS_Reachability_WalkOffLedge 005664b0 f   be_aas_reach.obj
 0002:000bdff0       _AAS_StoreReachability     00566ff0 f   be_aas_reach.obj
 0002:000be1d0       _AAS_ContinueInitReachability 005671d0 f   be_aas_reach.obj
 0002:000be680       _AAS_InitReachability      00567680 f   be_aas_reach.obj
 0002:000be740       _AAS_RoutingInfo           00567740 f   be_aas_route.obj
 0002:000be7b0       _AAS_InitTravelFlagFromType 005677b0 f   be_aas_route.obj
 0002:000be8f0       _AAS_TravelFlagForType     005678f0 f   be_aas_route.obj
 0002:000be920       _AAS_TravelFlagForType_inline 00567920 f i be_aas_route.obj
 0002:000be9b0       _AAS_UnlinkCache           005679b0 f   be_aas_route.obj
 0002:000bea40       _AAS_LinkCache             00567a40 f   be_aas_route.obj
 0002:000beab0       _AAS_FreeRoutingCache      00567ab0 f   be_aas_route.obj
 0002:000beb00       _AAS_RemoveRoutingCacheInCluster 00567b00 f   be_aas_route.obj
 0002:000bebc0       _AAS_RemoveRoutingCacheUsingArea 00567bc0 f   be_aas_route.obj
 0002:000becd0       _AAS_EnableRoutingArea     00567cd0 f   be_aas_route.obj
 0002:000bee00       _AAS_GetAreaContentsTravelFlags 00567e00 f   be_aas_route.obj
 0002:000bef10       _AAS_AreaContentsTravelFlags 00567f10 f   be_aas_route.obj
 0002:000bef40       _AAS_InitAreaContentsTravelFlags 00567f40 f   be_aas_route.obj
 0002:000befe0       _AAS_CreateReversedReachability 00567fe0 f   be_aas_route.obj
 0002:000bf1a0       _AAS_AreaTravelTime        005681a0 f   be_aas_route.obj
 0002:000bf300       _AAS_CalculateAreaTravelTimes 00568300 f   be_aas_route.obj
 0002:000bf5d0       _AAS_PortalMaxTravelTime   005685d0 f   be_aas_route.obj
 0002:000bf6d0       _AAS_InitPortalMaxTravelTimes 005686d0 f   be_aas_route.obj
 0002:000bf770       _AAS_FreeOldestCache       00568770 f   be_aas_route.obj
 0002:000bf8f0       _AAS_ClusterAreaNum        005688f0 f i be_aas_route.obj
 0002:000bf980       _AAS_AllocRoutingCache     00568980 f   be_aas_route.obj
 0002:000bf9f0       _AAS_FreeAllClusterAreaCache 005689f0 f   be_aas_route.obj
 0002:000bfb00       _AAS_InitClusterAreaCache  00568b00 f   be_aas_route.obj
 0002:000bfc00       _AAS_FreeAllPortalCache    00568c00 f   be_aas_route.obj
 0002:000bfcc0       _AAS_InitPortalCache       00568cc0 f   be_aas_route.obj
 0002:000bfcf0       _AAS_InitRoutingUpdate     00568cf0 f   be_aas_route.obj
 0002:000bfde0       _AAS_CreateAllRoutingCache 00568de0 f   be_aas_route.obj
 0002:000bfee0       _AAS_WriteRouteCache       00568ee0 f   be_aas_route.obj
 0002:000c02a0       _AAS_ReadCache             005692a0 f   be_aas_route.obj
 0002:000c0340       _AAS_ReadRouteCache        00569340 f   be_aas_route.obj
 0002:000c0650       _AAS_InitReachabilityAreas 00569650 f   be_aas_route.obj
 0002:000c0980       _AAS_InitRouting           00569980 f   be_aas_route.obj
 0002:000c0a20       _AAS_FreeRoutingCaches     00569a20 f   be_aas_route.obj
 0002:000c0b90       _AAS_UpdateAreaRoutingCache 00569b90 f   be_aas_route.obj
 0002:000c10f0       _AAS_AreaContentsTravelFlags_inline 0056a0f0 f i be_aas_route.obj
 0002:000c1120       _AAS_GetAreaRoutingCache   0056a120 f   be_aas_route.obj
 0002:000c12d0       _AAS_RoutingTime           0056a2d0 f i be_aas_route.obj
 0002:000c12f0       _AAS_UpdatePortalRoutingCache 0056a2f0 f   be_aas_route.obj
 0002:000c1670       _AAS_GetPortalRoutingCache 0056a670 f   be_aas_route.obj
 0002:000c1810       _AAS_AreaRouteToGoalArea   0056a810 f   be_aas_route.obj
 0002:000c1e20       _AAS_AreaTravelTimeToGoalArea 0056ae20 f   be_aas_route.obj
 0002:000c1e70       _AAS_AreaReachabilityToGoalArea 0056ae70 f   be_aas_route.obj
 0002:000c1ec0       _AAS_PredictRoute          0056aec0 f   be_aas_route.obj
 0002:000c24a0       _AAS_BridgeWalkable        0056b4a0 f   be_aas_route.obj
 0002:000c24c0       _AAS_ReachabilityFromNum   0056b4c0 f   be_aas_route.obj
 0002:000c2550       _AAS_NextAreaReachability  0056b550 f   be_aas_route.obj
 0002:000c2620       _AAS_NextModelReachability 0056b620 f   be_aas_route.obj
 0002:000c2730       _AAS_RandomGoalArea        0056b730 f   be_aas_route.obj
 0002:000c2a70       _AAS_AreaVisible           0056ba70 f   be_aas_route.obj
 0002:000c2a90       _DistancePointToLine       0056ba90 f   be_aas_route.obj
 0002:000c2b20       _AAS_NearestHideArea       0056bb20 f   be_aas_route.obj
 0002:000c3150       _AAS_AltRoutingFloodCluster_r 0056c150 f   be_aas_routealt.obj
 0002:000c3260       _AAS_AlternativeRouteGoals 0056c260 f   be_aas_routealt.obj
 0002:000c3860       _AAS_InitAlternativeRouting 0056c860 f   be_aas_routealt.obj
 0002:000c38f0       _AAS_ShutdownAlternativeRouting 0056c8f0 f   be_aas_routealt.obj
 0002:000c3970       _AAS_PresenceTypeBoundingBox 0056c970 f   be_aas_sample.obj
 0002:000c3b10       _AAS_InitAASLinkHeap       0056cb10 f   be_aas_sample.obj
 0002:000c3c90       _AAS_FreeAASLinkHeap       0056cc90 f   be_aas_sample.obj
 0002:000c3ce0       _AAS_AllocAASLink          0056cce0 f   be_aas_sample.obj
 0002:000c3d80       _AAS_DeAllocAASLink        0056cd80 f   be_aas_sample.obj
 0002:000c3e00       _AAS_InitAASLinkedEntities 0056ce00 f   be_aas_sample.obj
 0002:000c3e60       _AAS_FreeAASLinkedEntities 0056ce60 f   be_aas_sample.obj
 0002:000c3ea0       _AAS_PointAreaNum          0056cea0 f   be_aas_sample.obj
 0002:000c3fa0       _AAS_PointReachabilityAreaIndex 0056cfa0 f   be_aas_sample.obj
 0002:000c4120       _AAS_AreaCluster           0056d120 f   be_aas_sample.obj
 0002:000c4180       _AAS_AreaPresenceType      0056d180 f   be_aas_sample.obj
 0002:000c41f0       _AAS_PointPresenceType     0056d1f0 f   be_aas_sample.obj
 0002:000c4250       _AAS_BoxOriginDistanceFromPlane 0056d250 f   be_aas_sample.obj
 0002:000c4450       _AAS_AreaEntityCollision   0056d450 f   be_aas_sample.obj
 0002:000c45a0       _AAS_TraceClientBBox       0056d5a0 f   be_aas_sample.obj
 0002:000c53e0       _AAS_TraceAreas            0056e3e0 f   be_aas_sample.obj
 0002:000c5a60       _AAS_InsideFace            0056ea60 f   be_aas_sample.obj
 0002:000c5cb0       _AAS_PointInsideFace       0056ecb0 f   be_aas_sample.obj
 0002:000c5f20       _AAS_AreaGroundFace        0056ef20 f   be_aas_sample.obj
 0002:000c6090       _AAS_FacePlane             0056f090 f   be_aas_sample.obj
 0002:000c6100       _AAS_TraceEndFace          0056f100 f   be_aas_sample.obj
 0002:000c6220       _AAS_BoxOnPlaneSide2       0056f220 f   be_aas_sample.obj
 0002:000c6390       _AAS_UnlinkFromAreas       0056f390 f   be_aas_sample.obj
 0002:000c6440       _AAS_AASLinkEntity         0056f440 f   be_aas_sample.obj
 0002:000c67c0       _AAS_LinkEntityClientBBox  0056f7c0 f   be_aas_sample.obj
 0002:000c6880       _AAS_BBoxAreas             0056f880 f   be_aas_sample.obj
 0002:000c6920       _AAS_AreaInfo              0056f920 f   be_aas_sample.obj
 0002:000c6ad0       _AAS_PlaneFromNum          0056fad0 f   be_aas_sample.obj
 0002:000c6b10       _BotCharacterFromHandle    0056fb10 f   be_ai_char.obj
 0002:000c6b90       _BotDumpCharacter          0056fb90 f   be_ai_char.obj
 0002:000c6cc0       _BotFreeCharacterStrings   0056fcc0 f   be_ai_char.obj
 0002:000c6d20       _BotFreeCharacter2         0056fd20 f   be_ai_char.obj
 0002:000c6dd0       _BotFreeCharacter          0056fdd0 f   be_ai_char.obj
 0002:000c6e20       _BotDefaultCharacteristics 0056fe20 f   be_ai_char.obj
 0002:000c6f70       _BotLoadCharacterFromFile  0056ff70 f   be_ai_char.obj
 0002:000c75b0       _BotFindCachedCharacter    005705b0 f   be_ai_char.obj
 0002:000c7670       _BotLoadCachedCharacter    00570670 f   be_ai_char.obj
 0002:000c7a10       _BotLoadCharacterSkill     00570a10 f   be_ai_char.obj
 0002:000c7ab0       _BotInterpolateCharacters  00570ab0 f   be_ai_char.obj
 0002:000c7d00       _BotLoadCharacter          00570d00 f   be_ai_char.obj
 0002:000c7f10       _CheckCharacteristicIndex  00570f10 f   be_ai_char.obj
 0002:000c7fb0       _Characteristic_Float      00570fb0 f   be_ai_char.obj
 0002:000c8070       _Characteristic_BFloat     00571070 f   be_ai_char.obj
 0002:000c8140       _Characteristic_Integer    00571140 f   be_ai_char.obj
 0002:000c8200       _Characteristic_BInteger   00571200 f   be_ai_char.obj
 0002:000c82b0       _Characteristic_String     005712b0 f   be_ai_char.obj
 0002:000c8370       _BotShutdownCharacters     00571370 f   be_ai_char.obj
 0002:000c83d0       _BotChatStateFromHandle    005713d0 f   be_ai_chat.obj
 0002:000c8450       _InitConsoleMessageHeap    00571450 f   be_ai_chat.obj
 0002:000c85e0       _AllocConsoleMessage       005715e0 f   be_ai_chat.obj
 0002:000c8640       _FreeConsoleMessage        00571640 f   be_ai_chat.obj
 0002:000c86a0       _BotRemoveConsoleMessage   005716a0 f   be_ai_chat.obj
 0002:000c87e0       _BotQueueConsoleMessage    005717e0 f   be_ai_chat.obj
 0002:000c8980       _BotNextConsoleMessage     00571980 f   be_ai_chat.obj
 0002:000c8a30       _BotNumConsoleMessages     00571a30 f   be_ai_chat.obj
 0002:000c8a70       _IsWhiteSpace              00571a70 f   be_ai_chat.obj
 0002:000c8b80       _BotRemoveTildes           00571b80 f   be_ai_chat.obj
 0002:000c8c10       _UnifyWhiteSpaces          00571c10 f   be_ai_chat.obj
 0002:000c8d20       _StringContains            00571d20 f   be_ai_chat.obj
 0002:000c8e70       _StringContainsWord        00571e70 f   be_ai_chat.obj
 0002:000c9060       _StringReplaceWords        00572060 f   be_ai_chat.obj
 0002:000c91c0       _BotDumpSynonymList        005721c0 f   be_ai_chat.obj
 0002:000c92c0       _BotLoadSynonyms           005722c0 f   be_ai_chat.obj
 0002:000c9a10       _BotReplaceSynonyms        00572a10 f   be_ai_chat.obj
 0002:000c9aa0       _BotReplaceWeightedSynonyms 00572aa0 f   be_ai_chat.obj
 0002:000c9be0       _BotReplaceReplySynonyms   00572be0 f   be_ai_chat.obj
 0002:000c9df0       _BotLoadChatMessage        00572df0 f   be_ai_chat.obj
 0002:000ca050       _BotDumpRandomStringList   00573050 f   be_ai_chat.obj
 0002:000ca140       _BotLoadRandomStrings      00573140 f   be_ai_chat.obj
 0002:000ca5b0       _RandomString              005735b0 f   be_ai_chat.obj
 0002:000ca680       _BotDumpMatchTemplates     00573680 f   be_ai_chat.obj
 0002:000ca800       _BotFreeMatchPieces        00573800 f   be_ai_chat.obj
 0002:000ca890       _BotLoadMatchPieces        00573890 f   be_ai_chat.obj
 0002:000cad20       _BotFreeMatchTemplates     00573d20 f   be_ai_chat.obj
 0002:000cad80       _BotLoadMatchTemplates     00573d80 f   be_ai_chat.obj
 0002:000cb190       _StringsMatch              00574190 f   be_ai_chat.obj
 0002:000cb3c0       _BotFindMatch              005743c0 f   be_ai_chat.obj
 0002:000cb500       _BotMatchVariable          00574500 f   be_ai_chat.obj
 0002:000cb630       _BotFindStringInList       00574630 f   be_ai_chat.obj
 0002:000cb690       _BotCheckChatMessageIntegrety 00574690 f   be_ai_chat.obj
 0002:000cb900       _BotCheckInitialChatIntegrety 00574900 f   be_ai_chat.obj
 0002:000cb9c0       _BotCheckReplyChatIntegrety 005749c0 f   be_ai_chat.obj
 0002:000cba70       _BotDumpReplyChat          00574a70 f   be_ai_chat.obj
 0002:000cbdd0       _BotFreeReplyChat          00574dd0 f   be_ai_chat.obj
 0002:000cbed0       _BotCheckValidReplyChatKeySet 00574ed0 f   be_ai_chat.obj
 0002:000cc270       _BotLoadReplyChat          00575270 f   be_ai_chat.obj
 0002:000ccbb0       _BotDumpInitialChat        00575bb0 f   be_ai_chat.obj
 0002:000ccc90       _BotLoadInitialChat        00575c90 f   be_ai_chat.obj
 0002:000cd360       _BotFreeChatFile           00576360 f   be_ai_chat.obj
 0002:000cd3d0       _BotLoadChatFile           005763d0 f   be_ai_chat.obj
 0002:000cd630       _BotExpandChatMessage      00576630 f   be_ai_chat.obj
 0002:000cdac0       _BotConstructChatMessage   00576ac0 f   be_ai_chat.obj
 0002:000cdbc0       _BotChooseInitialChatMessage 00576bc0 f   be_ai_chat.obj
 0002:000cddb0       _BotNumInitialChats        00576db0 f   be_ai_chat.obj
 0002:000cde90       _BotInitialChat            00576e90 f   be_ai_chat.obj
 0002:000ce200       _BotPrintReplyChatKeys     00577200 f   be_ai_chat.obj
 0002:000ce490       _BotReplyChat              00577490 f   be_ai_chat.obj
 0002:000ced30       _BotChatLength             00577d30 f   be_ai_chat.obj
 0002:000ced80       _BotEnterChat              00577d80 f   be_ai_chat.obj
 0002:000ceef0       _BotGetChatMessage         00577ef0 f   be_ai_chat.obj
 0002:000cef80       _BotSetChatGender          00577f80 f   be_ai_chat.obj
 0002:000ceff0       _BotSetChatName            00577ff0 f   be_ai_chat.obj
 0002:000cf070       _BotResetChatAI            00578070 f   be_ai_chat.obj
 0002:000cf0e0       _BotAllocChatState         005780e0 f   be_ai_chat.obj
 0002:000cf150       _BotFreeChatState          00578150 f   be_ai_chat.obj
 0002:000cf2b0       _BotSetupChatAI            005782b0 f   be_ai_chat.obj
 0002:000cf3b0       _BotShutdownChatAI         005783b0 f   be_ai_chat.obj
 0002:000cf550       _GeneticSelection          00578550 f   be_ai_gen.obj
 0002:000cf6f0       _GeneticParentsAndChildSelection 005786f0 f   be_ai_gen.obj
 0002:000cfa00       _BotGoalStateFromHandle    00578a00 f   be_ai_goal.obj
 0002:000cfa80       _BotInterbreedGoalFuzzyLogic 00578a80 f   be_ai_goal.obj
 0002:000cfaf0       _BotSaveGoalFuzzyLogic     00578af0 f   be_ai_goal.obj
 0002:000cfb20       _BotMutateGoalFuzzyLogic   00578b20 f   be_ai_goal.obj
 0002:000cfb60       _LoadItemConfig            00578b60 f   be_ai_goal.obj
 0002:000cff50       _ItemWeightIndex           00578f50 f   be_ai_goal.obj
 0002:000d0010       _InitLevelItemHeap         00579010 f   be_ai_goal.obj
 0002:000d0100       _AllocLevelItem            00579100 f   be_ai_goal.obj
 0002:000d0170       _FreeLevelItem             00579170 f   be_ai_goal.obj
 0002:000d01a0       _AddLevelItemToList        005791a0 f   be_ai_goal.obj
 0002:000d0200       _RemoveLevelItemFromList   00579200 f   be_ai_goal.obj
 0002:000d0270       _BotFreeInfoEntities       00579270 f   be_ai_goal.obj
 0002:000d0320       _BotInitInfoEntities       00579320 f   be_ai_goal.obj
 0002:000d0700       _BotInitLevelItems         00579700 f   be_ai_goal.obj
 0002:000d0f40       _BotGoalName               00579f40 f   be_ai_goal.obj
 0002:000d0ff0       _BotResetAvoidGoals        00579ff0 f   be_ai_goal.obj
 0002:000d1060       _BotDumpAvoidGoals         0057a060 f   be_ai_goal.obj
 0002:000d1160       _BotAddToAvoidGoals        0057a160 f   be_ai_goal.obj
 0002:000d1260       _BotRemoveFromAvoidGoals   0057a260 f   be_ai_goal.obj
 0002:000d1310       _BotAvoidGoalTime          0057a310 f   be_ai_goal.obj
 0002:000d13d0       _BotSetAvoidGoalTime       0057a3d0 f   be_ai_goal.obj
 0002:000d1510       _BotGetLevelItemGoal       0057a510 f   be_ai_goal.obj
 0002:000d17d0       _BotGetMapLocationGoal     0057a7d0 f   be_ai_goal.obj
 0002:000d1920       _BotGetNextCampSpotGoal    0057a920 f   be_ai_goal.obj
 0002:000d1a80       _BotFindEntityForLevelItem 0057aa80 f   be_ai_goal.obj
 0002:000d1c70       _BotUpdateEntityItems      0057ac70 f   be_ai_goal.obj
 0002:000d2340       _BotDumpGoalStack          0057b340 f   be_ai_goal.obj
 0002:000d2400       _BotPushGoal               0057b400 f   be_ai_goal.obj
 0002:000d24b0       _BotPopGoal                0057b4b0 f   be_ai_goal.obj
 0002:000d2510       _BotEmptyGoalStack         0057b510 f   be_ai_goal.obj
 0002:000d2560       _BotGetTopGoal             0057b560 f   be_ai_goal.obj
 0002:000d25e0       _BotGetSecondGoal          0057b5e0 f   be_ai_goal.obj
 0002:000d2660       _BotChooseLTGItem          0057b660 f   be_ai_goal.obj
 0002:000d2b40       _BotChooseNBGItem          0057bb40 f   be_ai_goal.obj
 0002:000d30d0       _BotTouchingGoal           0057c0d0 f   be_ai_goal.obj
 0002:000d32a0       _BotItemGoalInVisButNotVisible 0057c2a0 f   be_ai_goal.obj
 0002:000d3470       _BotResetGoalState         0057c470 f   be_ai_goal.obj
 0002:000d34e0       _BotLoadItemWeights        0057c4e0 f   be_ai_goal.obj
 0002:000d3590       _BotFreeItemWeights        0057c590 f   be_ai_goal.obj
 0002:000d3600       _BotAllocGoalState         0057c600 f   be_ai_goal.obj
 0002:000d3680       _BotFreeGoalState          0057c680 f   be_ai_goal.obj
 0002:000d3730       _BotSetupGoalAI            0057c730 f   be_ai_goal.obj
 0002:000d37e0       _BotShutdownGoalAI         0057c7e0 f   be_ai_goal.obj
 0002:000d38c0       _BotAllocMoveState         0057c8c0 f   be_ai_move.obj
 0002:000d3930       _BotFreeMoveState          0057c930 f   be_ai_move.obj
 0002:000d39d0       _BotMoveStateFromHandle    0057c9d0 f   be_ai_move.obj
 0002:000d3a50       _BotInitMoveState          0057ca50 f   be_ai_move.obj
 0002:000d3c80       _AngleDiff                 0057cc80 f   be_ai_move.obj
 0002:000d3d00       _BotFuzzyPointReachabilityArea 0057cd00 f   be_ai_move.obj
 0002:000d40f0       _BotReachabilityArea       0057d0f0 f   be_ai_move.obj
 0002:000d43d0       _BotOnMover                0057d3d0 f   be_ai_move.obj
 0002:000d4640       _MoverDown                 0057d640 f   be_ai_move.obj
 0002:000d4720       _BotSetBrushModelTypes     0057d720 f   be_ai_move.obj
 0002:000d4930       _BotOnTopOfEntity          0057d930 f   be_ai_move.obj
 0002:000d4a50       _BotValidTravel            0057da50 f   be_ai_move.obj
 0002:000d4ab0       _BotAddToAvoidReach        0057dab0 f   be_ai_move.obj
 0002:000d4be0       _DistanceFromLineSquared   0057dbe0 f   be_ai_move.obj
 0002:000d4e40       _VectorDistanceSquared     0057de40 f   be_ai_move.obj
 0002:000d4ec0       _BotAvoidSpots             0057dec0 f   be_ai_move.obj
 0002:000d5210       _BotAddAvoidSpot           0057e210 f   be_ai_move.obj
 0002:000d5340       _BotGetReachabilityToGoal  0057e340 f   be_ai_move.obj
 0002:000d5590       _BotAddToTarget            0057e590 f   be_ai_move.obj
 0002:000d56d0       _BotMovementViewTarget     0057e6d0 f   be_ai_move.obj
 0002:000d5970       _BotVisible                0057e970 f   be_ai_move.obj
 0002:000d5a00       _BotPredictVisiblePosition 0057ea00 f   be_ai_move.obj
 0002:000d5c50       _MoverBottomCenter         0057ec50 f   be_ai_move.obj
 0002:000d5d90       _BotGapDistance            0057ed90 f   be_ai_move.obj
 0002:000d5ff0       _BotCheckBarrierJump       0057eff0 f   be_ai_move.obj
 0002:000d62e0       _BotSwimInDirection        0057f2e0 f   be_ai_move.obj
 0002:000d6370       _BotWalkInDirection        0057f370 f   be_ai_move.obj
 0002:000d67e0       _BotMoveInDirection        0057f7e0 f   be_ai_move.obj
 0002:000d6870       _Intersection              0057f870 f   be_ai_move.obj
 0002:000d6990       _BotCheckBlocked           0057f990 f   be_ai_move.obj
 0002:000d6c50       _BotTravel_Walk            0057fc50 f   be_ai_move.obj
 0002:000d6ee0       _BotFinishTravel_Walk      0057fee0 f   be_ai_move.obj
 0002:000d7040       _BotTravel_Crouch          00580040 f   be_ai_move.obj
 0002:000d71a0       _BotTravel_BarrierJump     005801a0 f   be_ai_move.obj
 0002:000d7340       _BotFinishTravel_BarrierJump 00580340 f   be_ai_move.obj
 0002:000d74a0       _BotTravel_Swim            005804a0 f   be_ai_move.obj
 0002:000d7610       _BotTravel_WaterJump       00580610 f   be_ai_move.obj
 0002:000d77f0       _BotFinishTravel_WaterJump 005807f0 f   be_ai_move.obj
 0002:000d7a90       _BotTravel_WalkOffLedge    00580a90 f   be_ai_move.obj
 0002:000d7d90       _BotAirControl             00580d90 f   be_ai_move.obj
 0002:000d7fe0       _BotFinishTravel_WalkOffLedge 00580fe0 f   be_ai_move.obj
 0002:000d8250       _BotTravel_Jump            00581250 f   be_ai_move.obj
 0002:000d8700       _BotFinishTravel_Jump      00581700 f   be_ai_move.obj
 0002:000d88e0       _BotTravel_Ladder          005818e0 f   be_ai_move.obj
 0002:000d8a70       _BotTravel_Teleport        00581a70 f   be_ai_move.obj
 0002:000d8c50       _BotTravel_Elevator        00581c50 f   be_ai_move.obj
 0002:000d9400       _BotFinishTravel_Elevator  00582400 f   be_ai_move.obj
 0002:000d95d0       _BotFuncBobStartEnd        005825d0 f   be_ai_move.obj
 0002:000d9880       _BotTravel_FuncBobbing     00582880 f   be_ai_move.obj
 0002:000da0f0       _BotFinishTravel_FuncBobbing 005830f0 f   be_ai_move.obj
 0002:000da440       _GrappleState              00583440 f   be_ai_move.obj
 0002:000da520       _BotResetGrapple           00583520 f   be_ai_move.obj
 0002:000da600       _BotTravel_Grapple         00583600 f   be_ai_move.obj
 0002:000dad90       _BotTravel_RocketJump      00583d90 f   be_ai_move.obj
 0002:000db0c0       _BotTravel_BFGJump         005840c0 f   be_ai_move.obj
 0002:000db3d0       _BotFinishTravel_WeaponJump 005843d0 f   be_ai_move.obj
 0002:000db560       _BotTravel_JumpPad         00584560 f   be_ai_move.obj
 0002:000db6b0       _BotFinishTravel_JumpPad   005846b0 f   be_ai_move.obj
 0002:000db820       _BotReachabilityTime       00584820 f   be_ai_move.obj
 0002:000db970       _BotMoveInGoalArea         00584970 f   be_ai_move.obj
 0002:000dbbc0       _BotMoveToGoal             00584bc0 f   be_ai_move.obj
 0002:000dce90       _BotResetAvoidReach        00585e90 f   be_ai_move.obj
 0002:000dcf10       _BotResetLastAvoidReach    00585f10 f   be_ai_move.obj
 0002:000dd000       _BotResetMoveState         00586000 f   be_ai_move.obj
 0002:000dd050       _BotSetupMoveAI            00586050 f   be_ai_move.obj
 0002:000dd190       _BotShutdownMoveAI         00586190 f   be_ai_move.obj
 0002:000dd200       _BotValidWeaponNumber      00586200 f   be_ai_weap.obj
 0002:000dd240       _BotWeaponStateFromHandle  00586240 f   be_ai_weap.obj
 0002:000dd2c0       _LoadWeaponConfig          005862c0 f   be_ai_weap.obj
 0002:000ddac0       _WeaponWeightIndex         00586ac0 f   be_ai_weap.obj
 0002:000ddb50       _BotFreeWeaponWeights      00586b50 f   be_ai_weap.obj
 0002:000ddbc0       _BotLoadWeaponWeights      00586bc0 f   be_ai_weap.obj
 0002:000ddc80       _BotGetWeaponInfo          00586c80 f   be_ai_weap.obj
 0002:000ddd10       _BotChooseBestFightWeapon  00586d10 f   be_ai_weap.obj
 0002:000dde30       _BotResetWeaponState       00586e30 f   be_ai_weap.obj
 0002:000dde90       _BotAllocWeaponState       00586e90 f   be_ai_weap.obj
 0002:000ddf00       _BotFreeWeaponState        00586f00 f   be_ai_weap.obj
 0002:000ddfb0       _BotSetupWeaponAI          00586fb0 f   be_ai_weap.obj
 0002:000de020       _BotShutdownWeaponAI       00587020 f   be_ai_weap.obj
 0002:000de0a0       _ReadValue                 005870a0 f   be_ai_weight.obj
 0002:000de1a0       _ReadFuzzyWeight           005871a0 f   be_ai_weight.obj
 0002:000de350       _FreeFuzzySeperators_r     00587350 f   be_ai_weight.obj
 0002:000de3c0       _FreeWeightConfig2         005873c0 f   be_ai_weight.obj
 0002:000de450       _FreeWeightConfig          00587450 f   be_ai_weight.obj
 0002:000de4a0       _ReadFuzzySeperators_r     005874a0 f   be_ai_weight.obj
 0002:000dea50       _ReadWeightConfig          00587a50 f   be_ai_weight.obj
 0002:000df130       _FindFuzzyWeight           00588130 f   be_ai_weight.obj
 0002:000df1a0       _FuzzyWeight_r             005881a0 f   be_ai_weight.obj
 0002:000df350       _FuzzyWeightUndecided_r    00588350 f   be_ai_weight.obj
 0002:000df5a0       _FuzzyWeight               005885a0 f   be_ai_weight.obj
 0002:000df5d0       _FuzzyWeightUndecided      005885d0 f   be_ai_weight.obj
 0002:000df600       _EvolveFuzzySeperator_r    00588600 f   be_ai_weight.obj
 0002:000df790       _EvolveWeightConfig        00588790 f   be_ai_weight.obj
 0002:000df7f0       _ScaleFuzzySeperator_r     005887f0 f   be_ai_weight.obj
 0002:000df8d0       _ScaleWeight               005888d0 f   be_ai_weight.obj
 0002:000df990       _ScaleFuzzySeperatorBalanceRange_r 00588990 f   be_ai_weight.obj
 0002:000dfa80       _ScaleFuzzyBalanceRange    00588a80 f   be_ai_weight.obj
 0002:000dfb20       _InterbreedFuzzySeperator_r 00588b20 f   be_ai_weight.obj
 0002:000dfcd0       _InterbreedWeightConfigs   00588cd0 f   be_ai_weight.obj
 0002:000dfd80       _BotShutdownWeights        00588d80 f   be_ai_weight.obj
 0002:000dfe00       _EA_Say                    00588e00 f   be_ea.obj
 0002:000dfe40       _EA_SayTeam                00588e40 f   be_ea.obj
 0002:000dfe80       _EA_Tell                   00588e80 f   be_ea.obj
 0002:000dfec0       _EA_UseItem                00588ec0 f   be_ea.obj
 0002:000dff00       _EA_DropItem               00588f00 f   be_ea.obj
 0002:000dff40       _EA_UseInv                 00588f40 f   be_ea.obj
 0002:000dff80       _EA_DropInv                00588f80 f   be_ea.obj
 0002:000dffc0       _EA_Gesture                00588fc0 f   be_ea.obj
 0002:000e0000       _EA_Command                00589000 f   be_ea.obj
 0002:000e0030       _EA_SelectWeapon           00589030 f   be_ea.obj
 0002:000e0070       _EA_Attack                 00589070 f   be_ea.obj
 0002:000e00b0       _EA_Talk                   005890b0 f   be_ea.obj
 0002:000e00f0       _EA_Use                    005890f0 f   be_ea.obj
 0002:000e0130       _EA_Respawn                00589130 f   be_ea.obj
 0002:000e0170       _EA_Jump                   00589170 f   be_ea.obj
 0002:000e01d0       _EA_DelayedJump            005891d0 f   be_ea.obj
 0002:000e0240       _EA_Crouch                 00589240 f   be_ea.obj
 0002:000e0280       _EA_Walk                   00589280 f   be_ea.obj
 0002:000e02c0       _EA_Action                 005892c0 f   be_ea.obj
 0002:000e0300       _EA_MoveUp                 00589300 f   be_ea.obj
 0002:000e0340       _EA_MoveDown               00589340 f   be_ea.obj
 0002:000e0380       _EA_MoveForward            00589380 f   be_ea.obj
 0002:000e03c0       _EA_MoveBack               005893c0 f   be_ea.obj
 0002:000e0400       _EA_MoveLeft               00589400 f   be_ea.obj
 0002:000e0440       _EA_MoveRight              00589440 f   be_ea.obj
 0002:000e0480       _EA_Move                   00589480 f   be_ea.obj
 0002:000e0520       _EA_View                   00589520 f   be_ea.obj
 0002:000e0580       _EA_EndRegular             00589580 f   be_ea.obj
 0002:000e05a0       _EA_GetInput               005895a0 f   be_ea.obj
 0002:000e05f0       _EA_ResetInput             005895f0 f   be_ea.obj
 0002:000e06a0       _EA_Setup                  005896a0 f   be_ea.obj
 0002:000e06e0       _EA_Shutdown               005896e0 f   be_ea.obj
 0002:000e0720       _Sys_MilliSeconds          00589720 f   be_interface.obj
 0002:000e0750       _ValidClientNumber         00589750 f   be_interface.obj
 0002:000e07b0       _ValidEntityNumber         005897b0 f   be_interface.obj
 0002:000e0810       _BotLibSetup               00589810 f   be_interface.obj
 0002:000e0860       _Export_BotLibSetup        00589860 f   be_interface.obj
 0002:000e0ab0       _Export_BotLibShutdown     00589ab0 f   be_interface.obj
 0002:000e0b50       _Export_BotLibVarSet       00589b50 f   be_interface.obj
 0002:000e0b80       _Export_BotLibVarGet       00589b80 f   be_interface.obj
 0002:000e0be0       _Export_BotLibStartFrame   00589be0 f   be_interface.obj
 0002:000e0c30       _Export_BotLibLoadMap      00589c30 f   be_interface.obj
 0002:000e0cc0       _Export_BotLibUpdateEntity 00589cc0 f   be_interface.obj
 0002:000e0d30       _BotExportTest             00589d30 f   be_interface.obj
 0002:000e0d50       _GetBotLibAPI              00589d50 f   be_interface.obj
 0002:000e15c0       _CRC_Init                  0058a5c0 f   l_crc.obj
 0002:000e15f0       _CRC_ProcessByte           0058a5f0 f   l_crc.obj
 0002:000e1640       _CRC_Value                 0058a640 f   l_crc.obj
 0002:000e1660       _CRC_ProcessString         0058a660 f   l_crc.obj
 0002:000e1710       _CRC_ContinueProcessString 0058a710 f   l_crc.obj
 0002:000e1780       _LibVarStringValue         0058a780 f   l_libvar.obj
 0002:000e1870       _LibVarAlloc               0058a870 f   l_libvar.obj
 0002:000e1900       _LibVarDeAlloc             0058a900 f   l_libvar.obj
 0002:000e1960       _LibVarDeAllocAll          0058a960 f   l_libvar.obj
 0002:000e19d0       _LibVarGet                 0058a9d0 f   l_libvar.obj
 0002:000e1a30       _LibVarGetString           0058aa30 f   l_libvar.obj
 0002:000e1a80       _LibVarGetValue            0058aa80 f   l_libvar.obj
 0002:000e1ac0       _LibVar                    0058aac0 f   l_libvar.obj
 0002:000e1b70       _LibVarString              0058ab70 f   l_libvar.obj
 0002:000e1bb0       _LibVarValue               0058abb0 f   l_libvar.obj
 0002:000e1bf0       _LibVarSet                 0058abf0 f   l_libvar.obj
 0002:000e1cb0       _LibVarChanged             0058acb0 f   l_libvar.obj
 0002:000e1cf0       _LibVarSetNotModified      0058acf0 f   l_libvar.obj
 0002:000e1d30       _Log_Open                  0058ad30 f   l_log.obj
 0002:000e1e50       _Log_Close                 0058ae50 f   l_log.obj
 0002:000e1ed0       _Log_Shutdown              0058aed0 f   l_log.obj
 0002:000e1f00       _Log_Write                 0058af00 f   l_log.obj
 0002:000e1f70       _Log_WriteTimeStamped      0058af70 f   l_log.obj
 0002:000e20a0       _Log_FilePointer           0058b0a0 f   l_log.obj
 0002:000e20c0       _Log_Flush                 0058b0c0 f   l_log.obj
 0002:000e2100       _GetMemory                 0058b100 f   l_memory.obj
 0002:000e2160       _GetClearedMemory          0058b160 f   l_memory.obj
 0002:000e21b0       _GetHunkMemory             0058b1b0 f   l_memory.obj
 0002:000e2210       _GetClearedHunkMemory      0058b210 f   l_memory.obj
 0002:000e2260       _FreeMemory                0058b260 f   l_memory.obj
 0002:000e22a0       _AvailableMemory           0058b2a0 f   l_memory.obj
 0002:000e22c0       _PrintUsedMemorySize       0058b2c0 f   l_memory.obj
 0002:000e22e0       _PrintMemoryLabels         0058b2e0 f   l_memory.obj
 0002:000e2300       _SourceError               0058b300 f   l_precomp.obj
 0002:000e23b0       _SourceWarning             0058b3b0 f   l_precomp.obj
 0002:000e2460       _PC_PushIndent             0058b460 f   l_precomp.obj
 0002:000e2500       _PC_PopIndent              0058b500 f   l_precomp.obj
 0002:000e25d0       _PC_PushScript             0058b5d0 f   l_precomp.obj
 0002:000e2670       _PC_InitTokenHeap          0058b670 f   l_precomp.obj
 0002:000e2690       _PC_CopyToken              0058b690 f   l_precomp.obj
 0002:000e2720       _PC_FreeToken              0058b720 f   l_precomp.obj
 0002:000e2760       _PC_ReadSourceToken        0058b760 f   l_precomp.obj
 0002:000e2900       _PC_UnreadSourceToken      0058b900 f   l_precomp.obj
 0002:000e2960       _PC_ReadDefineParms        0058b960 f   l_precomp.obj
 0002:000e2d90       _PC_StringizeTokens        0058bd90 f   l_precomp.obj
 0002:000e2e80       _PC_MergeTokens            0058be80 f   l_precomp.obj
 0002:000e2f40       _PC_PrintDefineHashTable   0058bf40 f   l_precomp.obj
 0002:000e2fe0       _PC_NameHash               0058bfe0 f   l_precomp.obj
 0002:000e3070       _PC_AddDefineToHash        0058c070 f   l_precomp.obj
 0002:000e30c0       _PC_FindHashedDefine       0058c0c0 f   l_precomp.obj
 0002:000e3140       _PC_FindDefine             0058c140 f   l_precomp.obj
 0002:000e31a0       _PC_FindDefineParm         0058c1a0 f   l_precomp.obj
 0002:000e3220       _PC_FreeDefine             0058c220 f   l_precomp.obj
 0002:000e32d0       _PC_AddBuiltinDefines      0058c2d0 f   l_precomp.obj
 0002:000e3430       _PC_ExpandBuiltinDefine    0058c430 f   l_precomp.obj
 0002:000e37b0       _PC_ExpandDefine           0058c7b0 f   l_precomp.obj
 0002:000e3d80       _PC_ExpandDefineIntoSource 0058cd80 f   l_precomp.obj
 0002:000e3e00       _PC_ConvertPath            0058ce00 f   l_precomp.obj
 0002:000e3ee0       _PC_Directive_include      0058cee0 f   l_precomp.obj
 0002:000e41d0       _PC_ReadLine               0058d1d0 f   l_precomp.obj
 0002:000e4260       _PC_WhiteSpaceBeforeToken  0058d260 f   l_precomp.obj
 0002:000e42a0       _PC_ClearTokenWhiteSpace   0058d2a0 f   l_precomp.obj
 0002:000e42f0       _PC_Directive_undef        0058d2f0 f   l_precomp.obj
 0002:000e4500       _PC_Directive_define       0058d500 f   l_precomp.obj
 0002:000e4b70       _PC_DefineFromString       0058db70 f   l_precomp.obj
 0002:000e4d70       _PC_AddDefine              0058dd70 f   l_precomp.obj
 0002:000e4dd0       _PC_AddGlobalDefine        0058ddd0 f   l_precomp.obj
 0002:000e4e30       _PC_RemoveGlobalDefine     0058de30 f   l_precomp.obj
 0002:000e4e90       _PC_RemoveAllGlobalDefines 0058de90 f   l_precomp.obj
 0002:000e4ef0       _PC_CopyDefine             0058def0 f   l_precomp.obj
 0002:000e50c0       _PC_AddGlobalDefinesToSource 0058e0c0 f   l_precomp.obj
 0002:000e5130       _PC_Directive_if_def       0058e130 f   l_precomp.obj
 0002:000e5260       _PC_Directive_ifdef        0058e260 f   l_precomp.obj
 0002:000e5290       _PC_Directive_ifndef       0058e290 f   l_precomp.obj
 0002:000e52c0       _PC_Directive_else         0058e2c0 f   l_precomp.obj
 0002:000e5360       _PC_Directive_endif        0058e360 f   l_precomp.obj
 0002:000e53c0       _PC_OperatorPriority       0058e3c0 f   l_precomp.obj
 0002:000e5580       _PC_EvaluateTokens         0058e580 f   l_precomp.obj
 0002:000e6870       _PC_Evaluate               0058f870 f   l_precomp.obj
 0002:000e6c50       _PC_DollarEvaluate         0058fc50 f   l_precomp.obj
 0002:000e70b0       _PC_Directive_elif         005900b0 f   l_precomp.obj
 0002:000e7160       _PC_Directive_if           00590160 f   l_precomp.obj
 0002:000e71d0       _PC_Directive_line         005901d0 f   l_precomp.obj
 0002:000e7200       _PC_Directive_error        00590200 f   l_precomp.obj
 0002:000e7290       _PC_Directive_pragma       00590290 f   l_precomp.obj
 0002:000e7300       _UnreadSignToken           00590300 f   l_precomp.obj
 0002:000e73c0       _PC_Directive_eval         005903c0 f   l_precomp.obj
 0002:000e74e0       _PC_Directive_evalfloat    005904e0 f   l_precomp.obj
 0002:000e7610       _PC_ReadDirective          00590610 f   l_precomp.obj
 0002:000e7760       _PC_DollarDirective_evalint 00590760 f   l_precomp.obj
 0002:000e78b0       _PC_DollarDirective_evalfloat 005908b0 f   l_precomp.obj
 0002:000e7a40       _PC_ReadDollarDirective    00590a40 f   l_precomp.obj
 0002:000e7bb0       _PC_ReadToken              00590bb0 f   l_precomp.obj
 0002:000e7e20       _PC_ExpectTokenString      00590e20 f   l_precomp.obj
 0002:000e7ee0       _PC_ExpectTokenType        00590ee0 f   l_precomp.obj
 0002:000e8210       _PC_ExpectAnyToken         00591210 f   l_precomp.obj
 0002:000e8260       _PC_CheckTokenString       00591260 f   l_precomp.obj
 0002:000e8300       _PC_CheckTokenType         00591300 f   l_precomp.obj
 0002:000e83b0       _PC_SkipUntilString        005913b0 f   l_precomp.obj
 0002:000e8430       _PC_UnreadLastToken        00591430 f   l_precomp.obj
 0002:000e8460       _PC_UnreadToken            00591460 f   l_precomp.obj
 0002:000e8490       _PC_SetIncludePath         00591490 f   l_precomp.obj
 0002:000e8540       _PC_SetPunctuations        00591540 f   l_precomp.obj
 0002:000e8570       _LoadSourceFile            00591570 f   l_precomp.obj
 0002:000e8680       _LoadSourceMemory          00591680 f   l_precomp.obj
 0002:000e87a0       _FreeSource                005917a0 f   l_precomp.obj
 0002:000e8960       _PC_LoadSourceHandle       00591960 f   l_precomp.obj
 0002:000e8a00       _PC_FreeSourceHandle       00591a00 f   l_precomp.obj
 0002:000e8a70       _PC_ReadTokenHandle        00591a70 f   l_precomp.obj
 0002:000e8b70       _PC_SourceFileAndLine      00591b70 f   l_precomp.obj
 0002:000e8c20       _PC_SetBaseFolder          00591c20 f   l_precomp.obj
 0002:000e8c50       _PC_CheckOpenSourceHandles 00591c50 f   l_precomp.obj
 0002:000e8cc0       _PS_CreatePunctuationTable 00591cc0 f   l_script.obj
 0002:000e8e60       _PunctuationFromNum        00591e60 f   l_script.obj
 0002:000e8ef0       _ScriptError               00591ef0 f   l_script.obj
 0002:000e8fb0       _ScriptWarning             00591fb0 f   l_script.obj
 0002:000e9070       _SetScriptPunctuations     00592070 f   l_script.obj
 0002:000e90e0       _PS_ReadWhiteSpace         005920e0 f   l_script.obj
 0002:000e93c0       _PS_ReadEscapeCharacter    005923c0 f   l_script.obj
 0002:000e97e0       _PS_ReadString             005927e0 f   l_script.obj
 0002:000e9b10       _PS_ReadName               00592b10 f   l_script.obj
 0002:000e9c40       _NumberValue               00592c40 f   l_script.obj
 0002:000e9fb0       _PS_ReadNumber             00592fb0 f   l_script.obj
 0002:000ea630       _PS_ReadLiteral            00593630 f   l_script.obj
 0002:000ea830       _PS_ReadPunctuation        00593830 f   l_script.obj
 0002:000ea950       _PS_ReadPrimitive          00593950 f   l_script.obj
 0002:000eaa40       _PS_ReadToken              00593a40 f   l_script.obj
 0002:000eadc0       _PS_ExpectTokenString      00593dc0 f   l_script.obj
 0002:000eae80       _PS_ExpectTokenType        00593e80 f   l_script.obj
 0002:000eb1f0       _PS_ExpectAnyToken         005941f0 f   l_script.obj
 0002:000eb240       _PS_CheckTokenString       00594240 f   l_script.obj
 0002:000eb2e0       _PS_CheckTokenType         005942e0 f   l_script.obj
 0002:000eb390       _PS_SkipUntilString        00594390 f   l_script.obj
 0002:000eb410       _PS_UnreadLastToken        00594410 f   l_script.obj
 0002:000eb440       _PS_UnreadToken            00594440 f   l_script.obj
 0002:000eb490       _PS_NextWhiteSpaceChar     00594490 f   l_script.obj
 0002:000eb500       _StripDoubleQuotes         00594500 f   l_script.obj
 0002:000eb590       _StripSingleQuotes         00594590 f   l_script.obj
 0002:000eb620       _ReadSignedFloat           00594620 f   l_script.obj
 0002:000eb730       _ReadSignedInt             00594730 f   l_script.obj
 0002:000eb840       _SetScriptFlags            00594840 f   l_script.obj
 0002:000eb870       _GetScriptFlags            00594870 f   l_script.obj
 0002:000eb890       _ResetScript               00594890 f   l_script.obj
 0002:000eb940       _EndOfScript               00594940 f   l_script.obj
 0002:000eb970       _NumLinesCrossed           00594970 f   l_script.obj
 0002:000eb9a0       _ScriptSkipTo              005949a0 f   l_script.obj
 0002:000eba60       _LoadScriptFile            00594a60 f   l_script.obj
 0002:000ebc60       _LoadScriptMemory          00594c60 f   l_script.obj
 0002:000ebdb0       _FreeScript                00594db0 f   l_script.obj
 0002:000ebe00       _PS_SetBaseFolder          00594e00 f   l_script.obj
 0002:000ebe40       _FindField                 00594e40 f   l_struct.obj
 0002:000ebec0       _ReadNumber                00594ec0 f   l_struct.obj
 0002:000ec4b0       _ReadChar                  005954b0 f   l_struct.obj
 0002:000ec570       _ReadString                00595570 f   l_struct.obj
 0002:000ec610       _ReadStructure             00595610 f   l_struct.obj
 0002:000eca80       _WriteIndent               00595a80 f   l_struct.obj
 0002:000ecae0       _WriteFloat                00595ae0 f   l_struct.obj
 0002:000ecc20       _WriteStructWithIndent     00595c20 f   l_struct.obj
 0002:000ecff0       _WriteStructure            00595ff0 f   l_struct.obj
 0002:000ed020       _R_AddAnimSurfaces         00596020 f   tr_animation.obj
 0002:000ed0d0       _RB_SurfaceAnim            005960d0 f   tr_animation.obj
 0002:000ed790       _GL_Bind                   00596790 f   tr_backend.obj
 0002:000ed850       _GL_SelectTexture          00596850 f   tr_backend.obj
 0002:000ed930       _GL_BindMultitexture       00596930 f   tr_backend.obj
 0002:000eda20       _GL_Cull                   00596a20 f   tr_backend.obj
 0002:000edad0       _GL_TexEnv                 00596ad0 f   tr_backend.obj
 0002:000edc00       _GL_State                  00596c00 f   tr_backend.obj
 0002:000ee0c0       _RB_BeginDrawingView       005970c0 f   tr_backend.obj
 0002:000ee480       _RB_RenderDrawSurfList     00597480 f   tr_backend.obj
 0002:000ee9a0       _RB_SetGL2D                005979a0 f   tr_backend.obj
 0002:000eead0       _RE_StretchRaw             00597ad0 f   tr_backend.obj
 0002:000eef60       _RE_UploadCinematic        00597f60 f   tr_backend.obj
 0002:000ef100       _RB_SetColor               00598100 f   tr_backend.obj
 0002:000ef210       _RB_StretchPic             00598210 f   tr_backend.obj
 0002:000ef5c0       _RB_DrawSurfs              005985c0 f   tr_backend.obj
 0002:000ef650       _RB_DrawBuffer             00598650 f   tr_backend.obj
 0002:000ef6d0       _RB_ShowImages             005986d0 f   tr_backend.obj
 0002:000ef940       _RB_ColorMask              00598940 f   tr_backend.obj
 0002:000ef9a0       _RB_ClearDepth             005989a0 f   tr_backend.obj
 0002:000efa00       _RB_SwapBuffers            00598a00 f   tr_backend.obj
 0002:000efb50       _RB_ExecuteRenderCommands  00598b50 f   tr_backend.obj
 0002:000efd10       _RB_RenderThread           00598d10 f   tr_backend.obj
 0002:000efd70       _RE_SetWorldVisData        00598d70 f   tr_bsp.obj
 0002:000efd90       _R_MergedWidthPoints       00598d90 f   tr_bsp.obj
 0002:000eff10       _R_MergedHeightPoints      00598f10 f   tr_bsp.obj
 0002:000f00c0       _R_FixSharedVertexLodError_r 005990c0 f   tr_bsp.obj
 0002:000f0a50       _R_FixSharedVertexLodError 00599a50 f   tr_bsp.obj
 0002:000f0af0       _R_StitchPatches           00599af0 f   tr_bsp.obj
 0002:000f2bf0       _R_TryStitchingPatch       0059bbf0 f   tr_bsp.obj
 0002:000f2d20       _R_StitchAllPatches        0059bd20 f   tr_bsp.obj
 0002:000f2df0       _R_MovePatchSurfacesToHunk 0059bdf0 f   tr_bsp.obj
 0002:000f2fb0       _R_LoadLightGrid           0059bfb0 f   tr_bsp.obj
 0002:000f3400       _R_LoadEntities            0059c400 f   tr_bsp.obj
 0002:000f37f0       _R_GetEntityToken          0059c7f0 f   tr_bsp.obj
 0002:000f3870       _RE_LoadWorldMap           0059c870 f   tr_bsp.obj
 0002:000f6370       _R_PerformanceCounters     0059f370 f   tr_cmds.obj
 0002:000f6640       _R_InitCommandBuffers      0059f640 f   tr_cmds.obj
 0002:000f66d0       _R_ShutdownCommandBuffers  0059f6d0 f   tr_cmds.obj
 0002:000f6710       _R_IssueRenderCommands     0059f710 f   tr_cmds.obj
 0002:000f6860       _R_SyncRenderThread        0059f860 f   tr_cmds.obj
 0002:000f68b0       _R_GetCommandBuffer        0059f8b0 f   tr_cmds.obj
 0002:000f6960       _R_AddDrawSurfCmd          0059f960 f   tr_cmds.obj
 0002:000f69f0       _RE_SetColor               0059f9f0 f   tr_cmds.obj
 0002:000f6a90       _RE_StretchPic             0059fa90 f   tr_cmds.obj
 0002:000f6b50       _R_SetColorMode            0059fb50 f   tr_cmds.obj
 0002:000f6c10       _RE_BeginFrame             0059fc10 f   tr_cmds.obj
 0002:000f7120       _RE_EndFrame               005a0120 f   tr_cmds.obj
 0002:000f71c0       _RE_TakeVideoFrame         005a01c0 f   tr_cmds.obj
 0002:000f7240       _R_CreateSurfaceGridMesh   005a0240 f   tr_curve.obj
 0002:000f75a0       _R_FreeSurfaceGridMesh     005a05a0 f   tr_curve.obj
 0002:000f75f0       _R_SubdividePatchToGrid    005a05f0 f   tr_curve.obj
 0002:000f91f0       _R_GridInsertColumn        005a21f0 f   tr_curve.obj
 0002:000f9570       _R_GridInsertRow           005a2570 f   tr_curve.obj
 0002:000f98f0       _R_ClearFlares             005a28f0 f   tr_flares.obj
 0002:000f9990       _RB_AddFlare               005a2990 f   tr_flares.obj
 0002:000f9e50       _RB_AddDlightFlares        005a2e50 f   tr_flares.obj
 0002:000fa000       _RB_TestFlare              005a3000 f   tr_flares.obj
 0002:000fa1d0       _RB_RenderFlare            005a31d0 f   tr_flares.obj
 0002:000fa800       _RB_RenderFlares           005a3800 f   tr_flares.obj
 0002:000fab10       _readInt                   005a3b10 f   tr_font.obj
 0002:000faba0       _readFloat                 005a3ba0 f   tr_font.obj
 0002:000fac20       _RE_RegisterFont           005a3c20 f   tr_font.obj
 0002:000fb080       _R_InitFreeType            005a4080 f   tr_font.obj
 0002:000fb0a0       _R_DoneFreeType            005a40a0 f   tr_font.obj
 0002:000fb0c0       _R_GammaCorrect            005a40c0 f   tr_image.obj
 0002:000fb120       _GL_TextureMode            005a4120 f   tr_image.obj
 0002:000fb290       _R_SumOfUsedImages         005a4290 f   tr_image.obj
 0002:000fb320       _R_ImageList_f             005a4320 f   tr_image.obj
 0002:000fb680       _R_LightScaleTexture       005a4680 f   tr_image.obj
 0002:000fb860       _R_CreateImage             005a4860 f   tr_image.obj
 0002:000fcf90       _R_LoadImage               005a5f90 f   tr_image.obj
 0002:000fd180       _R_FindImageFile           005a6180 f   tr_image.obj
 0002:000fd310       _R_InitFogTable            005a6310 f   tr_image.obj
 0002:000fd390       _R_FogFactor               005a6390 f   tr_image.obj
 0002:000fd460       _R_CreateBuiltinImages     005a6460 f   tr_image.obj
 0002:000fdb80       _R_SetColorMappings        005a6b80 f   tr_image.obj
 0002:000fde70       _R_InitImages              005a6e70 f   tr_image.obj
 0002:000fdeb0       _R_DeleteTextures          005a6eb0 f   tr_image.obj
 0002:000fdfa0       _RE_RegisterSkin           005a6fa0 f   tr_image.obj
 0002:000fe5f0       _R_InitSkins               005a75f0 f   tr_image.obj
 0002:000fe6c0       _R_GetSkinByHandle         005a76c0 f   tr_image.obj
 0002:000fe700       _R_SkinList_f              005a7700 f   tr_image.obj
 0002:000fe7f0       _R_LoadBMP                 005a77f0 f   tr_image_bmp.obj
 0002:000ff0f0       _R_LoadJPG                 005a80f0 f   tr_image_jpg.obj
 0002:000ff530       _SaveJPG                   005a8530 f   tr_image_jpg.obj
 0002:000ff880       _SaveJPGToBuffer           005a8880 f   tr_image_jpg.obj
 0002:000ffa50       _R_LoadPCX                 005a8a50 f   tr_image_pcx.obj
 0002:000ffe90       _R_LoadPNG                 005a8e90 f   tr_image_png.obj
 0002:00102930       _R_LoadTGA                 005ab930 f   tr_image_tga.obj
 0002:001034b0       _GL_CheckErrors            005ac4b0 f   tr_init.obj
 0002:00103640       _R_GetModeInfo             005ac640 f   tr_init.obj
 0002:00103710       _RB_TakeScreenshot         005ac710 f   tr_init.obj
 0002:001038b0       _RB_TakeScreenshotJPEG     005ac8b0 f   tr_init.obj
 0002:001039a0       _RB_TakeScreenshotCmd      005ac9a0 f   tr_init.obj
 0002:00103a40       _R_TakeScreenshot          005aca40 f   tr_init.obj
 0002:00103ae0       _R_ScreenshotFilename      005acae0 f   tr_init.obj
 0002:00103bd0       _R_ScreenshotFilenameJPEG  005acbd0 f   tr_init.obj
 0002:00103cc0       _R_LevelShot               005accc0 f   tr_init.obj
 0002:00104100       _R_ScreenShot_f            005ad100 f   tr_init.obj
 0002:001042f0       _R_ScreenShotJPEG_f        005ad2f0 f   tr_init.obj
 0002:001044e0       _RB_TakeVideoFrameCmd      005ad4e0 f   tr_init.obj
 0002:00104690       _GL_SetDefaultState        005ad690 f   tr_init.obj
 0002:00104800       _R_Register                005ad800 f   tr_init.obj
 0002:00105b90       _R_Init                    005aeb90 f   tr_init.obj
 0002:00106080       _RE_Shutdown               005af080 f   tr_init.obj
 0002:00106190       _RE_EndRegistration        005af190 f   tr_init.obj
 0002:001061c0       _GetRefAPI                 005af1c0 f   tr_init.obj
 0002:001063b0       _R_TransformDlights        005af3b0 f   tr_light.obj
 0002:001064e0       _R_DlightBmodel            005af4e0 f   tr_light.obj
 0002:001066d0       _R_SetupEntityLighting     005af6d0 f   tr_light.obj
 0002:00107570       _R_LightForPoint           005b0570 f   tr_light.obj
 0002:00107680       _R_CullLocalBox            005b0680 f   tr_main.obj
 0002:00107aa0       _R_CullLocalPointAndRadius 005b0aa0 f   tr_main.obj
 0002:00107b00       _R_CullPointAndRadius      005b0b00 f   tr_main.obj
 0002:00107c00       _R_LocalNormalToWorld      005b0c00 f   tr_main.obj
 0002:00107cc0       _R_LocalPointToWorld       005b0cc0 f   tr_main.obj
 0002:00107da0       _R_WorldToLocal            005b0da0 f   tr_main.obj
 0002:00107e60       _R_TransformModelToClip    005b0e60 f   tr_main.obj
 0002:00107f80       _R_TransformClipToWindow   005b0f80 f   tr_main.obj
 0002:00108090       _myGlMultMatrix            005b1090 f   tr_main.obj
 0002:00108180       _R_RotateForEntity         005b1180 f   tr_main.obj
 0002:001084d0       _R_RotateForViewer         005b14d0 f   tr_main.obj
 0002:001086b0       _R_SetupFrustum            005b16b0 f   tr_main.obj
 0002:00108db0       _R_SetupProjection         005b1db0 f   tr_main.obj
 0002:00109000       _R_SetupProjectionZ        005b2000 f   tr_main.obj
 0002:00109090       _R_MirrorPoint             005b2090 f   tr_main.obj
 0002:00109200       _R_MirrorVector            005b2200 f   tr_main.obj
 0002:00109320       _R_PlaneForSurface         005b2320 f   tr_main.obj
 0002:00109500       _R_GetPortalOrientations   005b2500 f   tr_main.obj
 0002:00109d00       _R_MirrorViewBySurface     005b2d00 f   tr_main.obj
 0002:0010a5f0       _R_SpriteFogNum            005b35f0 f   tr_main.obj
 0002:0010a700       _R_AddDrawSurf             005b3700 f   tr_main.obj
 0002:0010a780       _R_DecomposeSort           005b3780 f   tr_main.obj
 0002:0010a7f0       _R_SortDrawSurfs           005b37f0 f   tr_main.obj
 0002:0010abe0       _R_AddEntitySurfaces       005b3be0 f   tr_main.obj
 0002:0010aeb0       _R_GenerateDrawSurfs       005b3eb0 f   tr_main.obj
 0002:0010b060       _R_DebugPolygon            005b4060 f   tr_main.obj
 0002:0010b1d0       _R_DebugGraphics           005b41d0 f   tr_main.obj
 0002:0010b230       _R_RenderView              005b4230 f   tr_main.obj
 0002:0010b320       _R_BoxSurfaces_r           005b4320 f   tr_marks.obj
 0002:0010b580       _R_AddMarkFragments        005b4580 f   tr_marks.obj
 0002:0010bbf0       _R_MarkFragments           005b4bf0 f   tr_marks.obj
 0002:0010d100       _R_ComputeLOD              005b6100 f   tr_mesh.obj
 0002:0010d480       _R_ComputeFogNum           005b6480 f   tr_mesh.obj
 0002:0010d5f0       _R_AddMD3Surfaces          005b65f0 f   tr_mesh.obj
 0002:0010dd90       _R_GetModelByHandle        005b6d90 f   tr_model.obj
 0002:0010dde0       _R_AllocModel              005b6de0 f   tr_model.obj
 0002:0010de70       _RE_RegisterModel          005b6e70 f   tr_model.obj
 0002:0010f0c0       _RE_BeginRegistration      005b80c0 f   tr_model.obj
 0002:0010f130       _R_ModelInit               005b8130 f   tr_model.obj
 0002:0010f170       _R_Modellist_f             005b8170 f   tr_model.obj
 0002:0010f280       _R_LerpTag                 005b8280 f   tr_model.obj
 0002:0010f570       _R_ModelBounds             005b8570 f   tr_model.obj
 0002:0010f6d0       _R_NoiseInit               005b86d0 f   tr_noise.obj
 0002:0010f790       _R_NoiseGet4f              005b8790 f   tr_noise.obj
 0002:0010fb40       _R_ToggleSmpFrame          005b8b40 f   tr_scene.obj
 0002:0010fc00       _RE_ClearScene             005b8c00 f   tr_scene.obj
 0002:0010fc40       _R_AddPolygonSurfaces      005b8c40 f   tr_scene.obj
 0002:0010fcf0       _RE_AddPolyToScene         005b8cf0 f   tr_scene.obj
 0002:001100a0       _RE_AddRefEntityToScene    005b90a0 f   tr_scene.obj
 0002:00110200       _RE_AddDynamicLightToScene 005b9200 f   tr_scene.obj
 0002:00110310       _RE_AddLightToScene        005b9310 f   tr_scene.obj
 0002:00110360       _RE_AddAdditiveLightToScene 005b9360 f   tr_scene.obj
 0002:001103b0       _RE_RenderScene            005b93b0 f   tr_scene.obj
 0002:00110990       _RB_BeginSurface           005b9990 f   tr_shade.obj
 0002:00110ab0       _RB_StageIteratorGeneric   005b9ab0 f   tr_shade.obj
 0002:00112ec0       _RB_StageIteratorVertexLitTexture 005bbec0 f   tr_shade.obj
 0002:001130b0       _RB_StageIteratorLightmappedMultitexture 005bc0b0 f   tr_shade.obj
 0002:00113330       _RB_EndSurface             005bc330 f   tr_shade.obj
 0002:001137a0       _RB_CalcStretchTexCoords   005bc7a0 f   tr_shade_calc.obj
 0002:00113990       _RB_CalcDeformVertexes     005bc990 f   tr_shade_calc.obj
 0002:00113bf0       _RB_CalcDeformNormals      005bcbf0 f   tr_shade_calc.obj
 0002:00113ee0       _RB_CalcBulgeVertexes      005bcee0 f   tr_shade_calc.obj
 0002:00114000       _RB_CalcMoveVertexes       005bd000 f   tr_shade_calc.obj
 0002:00114150       _DeformText                005bd150 f   tr_shade_calc.obj
 0002:001145b0       _RB_DeformTessGeometry     005bd5b0 f   tr_shade_calc.obj
 0002:001151b0       _RB_CalcColorFromEntity    005be1b0 f   tr_shade_calc.obj
 0002:00115230       _RB_CalcColorFromOneMinusEntity 005be230 f   tr_shade_calc.obj
 0002:00115300       _RB_CalcAlphaFromEntity    005be300 f   tr_shade_calc.obj
 0002:00115370       _RB_CalcAlphaFromOneMinusEntity 005be370 f   tr_shade_calc.obj
 0002:001153f0       _RB_CalcWaveColor          005be3f0 f   tr_shade_calc.obj
 0002:00115550       _RB_CalcWaveAlpha          005be550 f   tr_shade_calc.obj
 0002:00115630       _RB_CalcModulateColorsByFog 005be630 f   tr_shade_calc.obj
 0002:00115820       _RB_CalcModulateAlphasByFog 005be820 f   tr_shade_calc.obj
 0002:00115940       _RB_CalcModulateRGBAsByFog 005be940 f   tr_shade_calc.obj
 0002:00115b90       _RB_CalcFogTexCoords       005beb90 f   tr_shade_calc.obj
 0002:00115f60       _RB_CalcEnvironmentTexCoords 005bef60 f   tr_shade_calc.obj
 0002:001160d0       _RB_CalcTurbulentTexCoords 005bf0d0 f   tr_shade_calc.obj
 0002:00116210       _RB_CalcScaleTexCoords     005bf210 f   tr_shade_calc.obj
 0002:00116280       _RB_CalcScrollTexCoords    005bf280 f   tr_shade_calc.obj
 0002:00116360       _RB_CalcTransformTexCoords 005bf360 f   tr_shade_calc.obj
 0002:00116410       _RB_CalcRotateTexCoords    005bf410 f   tr_shade_calc.obj
 0002:00116520       _myftol                    005bf520 f   tr_shade_calc.obj
 0002:00116550       _RB_CalcSpecularAlpha      005bf550 f   tr_shade_calc.obj
 0002:001167b0       _RB_CalcDiffuseColor       005bf7b0 f   tr_shade_calc.obj
 0002:00116a60       _R_RemapShader             005bfa60 f   tr_shader.obj
 0002:00116d30       _ParseSort                 005bfd30 f   tr_shader.obj
 0002:00116f40       _R_FindShaderByName        005bff40 f   tr_shader.obj
 0002:00117010       _R_FindShader              005c0010 f   tr_shader.obj
 0002:0011bd60       _RE_RegisterShaderFromImage 005c4d60 f   tr_shader.obj
 0002:0011c0d0       _RE_RegisterShaderLightMap 005c50d0 f   tr_shader.obj
 0002:0011c140       _RE_RegisterShader         005c5140 f   tr_shader.obj
 0002:0011c1b0       _RE_RegisterShaderNoMip    005c51b0 f   tr_shader.obj
 0002:0011c220       _R_GetShaderByHandle       005c5220 f   tr_shader.obj
 0002:0011c2a0       _R_ShaderList_f            005c52a0 f   tr_shader.obj
 0002:0011c580       _R_InitShaders             005c5580 f   tr_shader.obj
 0002:0011ce90       _R_AddEdgeDef              005c5e90 f   tr_shadows.obj
 0002:0011cf10       _R_RenderShadowEdges       005c5f10 f   tr_shadows.obj
 0002:0011d110       _RB_ShadowTessEnd          005c6110 f   tr_shadows.obj
 0002:0011d6a0       _RB_ShadowFinish           005c66a0 f   tr_shadows.obj
 0002:0011d870       _RB_ProjectionShadowDeform 005c6870 f   tr_shadows.obj
 0002:0011da90       _RB_ClipSkyPolygons        005c6a90 f   tr_sky.obj
 0002:0011e650       _R_BuildCloudData          005c7650 f   tr_sky.obj
 0002:0011f130       _R_InitSkyTexCoords        005c8130 f   tr_sky.obj
 0002:0011f450       _RB_DrawSun                005c8450 f   tr_sky.obj
 0002:0011fb90       _RB_StageIteratorSky       005c8b90 f   tr_sky.obj
 0002:001201e0       _RB_CheckOverflow          005c91e0 f   tr_surface.obj
 0002:001202a0       _RB_AddQuadStampExt        005c92a0 f   tr_surface.obj
 0002:00120880       _RB_AddQuadStamp           005c9880 f   tr_surface.obj
 0002:00123ae0       _R_AddBrushModelSurfaces   005ccae0 f   tr_world.obj
 0002:001242c0       _R_inPVS                   005cd2c0 f   tr_world.obj
 0002:00124430       _R_AddWorldSurfaces        005cd430 f   tr_world.obj
 0002:00124c60       _speex_bits_init           005cdc60 f   bits.obj
 0002:00124cf0       _speex_bits_init_buffer    005cdcf0 f   bits.obj
 0002:00124d40       _speex_bits_set_bit_buffer 005cdd40 f   bits.obj
 0002:00124db0       _speex_bits_destroy        005cddb0 f   bits.obj
 0002:00124e10       _speex_bits_reset          005cde10 f   bits.obj
 0002:00124e60       _speex_bits_rewind         005cde60 f   bits.obj
 0002:00124ea0       _speex_bits_read_from      005cdea0 f   bits.obj
 0002:00125080       _speex_bits_read_whole_bytes 005ce080 f   bits.obj
 0002:00125290       _speex_bits_write          005ce290 f   bits.obj
 0002:00125370       _speex_bits_write_whole_bytes 005ce370 f   bits.obj
 0002:00125440       _speex_bits_pack           005ce440 f   bits.obj
 0002:001255f0       _speex_bits_unpack_signed  005ce5f0 f   bits.obj
 0002:00125650       _speex_bits_unpack_unsigned 005ce650 f   bits.obj
 0002:00125740       _speex_bits_peek_unsigned  005ce740 f   bits.obj
 0002:00125830       _speex_bits_peek           005ce830 f   bits.obj
 0002:001258b0       _speex_bits_advance        005ce8b0 f   bits.obj
 0002:00125940       _speex_bits_remaining      005ce940 f   bits.obj
 0002:00125990       _speex_bits_nbytes         005ce990 f   bits.obj
 0002:001259c0       _speex_bits_insert_terminator 005ce9c0 f   bits.obj
 0002:00125a20       _speex_buffer_init         005cea20 f   buffer.obj
 0002:00125ac0       _speex_buffer_destroy      005ceac0 f   buffer.obj
 0002:00125b30       _speex_buffer_write        005ceb30 f   buffer.obj
 0002:00125cd0       _speex_buffer_writezeros   005cecd0 f   buffer.obj
 0002:00125e10       _speex_buffer_read         005cee10 f   buffer.obj
 0002:00125f90       _speex_buffer_get_available 005cef90 f   buffer.obj
 0002:00125fb0       _speex_buffer_resize       005cefb0 f   buffer.obj
 0002:00126050       _split_cb_search_shape_sign 005cf050 f   cb_search.obj
 0002:00127600       _split_cb_shape_sign_unquant 005d0600 f   cb_search.obj
 0002:001277f0       _noise_codebook_quant      005d07f0 f   cb_search.obj
 0002:001278d0       _noise_codebook_unquant    005d08d0 f   cb_search.obj
 0002:001279b0       _spx_fft_init              005d09b0 f   fftwrap.obj
 0002:00127a20       _spx_fft_destroy           005d0a20 f   fftwrap.obj
 0002:00127a90       _spx_fft                   005d0a90 f   fftwrap.obj
 0002:00127bc0       _spx_ifft                  005d0bc0 f   fftwrap.obj
 0002:00127c40       _spx_fft_float             005d0c40 f   fftwrap.obj
 0002:00127c70       _spx_ifft_float            005d0c70 f   fftwrap.obj
 0002:00127ca0       _filterbank_new            005d0ca0 f   filterbank.obj
 0002:001280d0       _filterbank_destroy        005d10d0 f   filterbank.obj
 0002:00128180       _filterbank_compute_bank32 005d1180 f   filterbank.obj
 0002:00128280       _filterbank_compute_psd16  005d1280 f   filterbank.obj
 0002:00128330       _filterbank_compute_bank   005d1330 f   filterbank.obj
 0002:00128480       _filterbank_compute_psd    005d1480 f   filterbank.obj
 0002:00128540       _filterbank_psy_smooth     005d1540 f   filterbank.obj
 0002:001286b0       _bw_lpc                    005d16b0 f   filters.obj
 0002:00128720       _sanitize_values32         005d1720 f   filters.obj
 0002:00128800       _highpass                  005d1800 f   filters.obj
 0002:00128a90       _signal_mul                005d1a90 f   filters.obj
 0002:00128af0       _signal_div                005d1af0 f   filters.obj
 0002:00128b50       _compute_rms               005d1b50 f   filters.obj
 0002:00128be0       _compute_rms16             005d1be0 f   filters.obj
 0002:00128c10       _filter_mem16              005d1c10 f   filters.obj
 0002:00128d20       _iir_mem16                 005d1d20 f   filters.obj
 0002:00128e00       _fir_mem16                 005d1e00 f   filters.obj
 0002:00128ee0       _syn_percep_zero16         005d1ee0 f   filters.obj
 0002:00128ff0       _residue_percep_zero16     005d1ff0 f   filters.obj
 0002:00129100       _compute_impulse_response  005d2100 f   filters.obj
 0002:00129350       _qmf_decomp                005d2350 f   filters.obj
 0002:00129650       _qmf_synth                 005d2650 f   filters.obj
 0002:00129ab0       _interp_pitch              005d2ab0 f   filters.obj
 0002:00129e10       _multicomb                 005d2e10 f   filters.obj
 0002:0012a2d0       _jitter_buffer_init        005d32d0 f   jitter.obj
 0002:0012a410       _jitter_buffer_reset       005d3410 f   jitter.obj
 0002:0012a5e0       _jitter_buffer_destroy     005d35e0 f   jitter.obj
 0002:0012a620       _jitter_buffer_put         005d3620 f   jitter.obj
 0002:0012ad90       _jitter_buffer_get         005d3d90 f   jitter.obj
 0002:0012ba90       _jitter_buffer_get_another 005d4a90 f   jitter.obj
 0002:0012bc60       _jitter_buffer_update_delay 005d4c60 f   jitter.obj
 0002:0012bd50       _jitter_buffer_get_pointer_timestamp 005d4d50 f   jitter.obj
 0002:0012bd70       _jitter_buffer_tick        005d4d70 f   jitter.obj
 0002:0012be00       _jitter_buffer_remaining_span 005d4e00 f   jitter.obj
 0002:0012be70       _jitter_buffer_ctl         005d4e70 f   jitter.obj
 0002:0012c0d0       _kiss_fft_alloc            005d50d0 f   kiss_fft.obj
 0002:0012c330       _kiss_fft_stride           005d5330 f   kiss_fft.obj
 0002:0012dbe0       _kiss_fft                  005d6be0 f   kiss_fft.obj
 0002:0012dc10       _kiss_fftr_alloc           005d6c10 f   kiss_fftr.obj
 0002:0012de60       _kiss_fftr                 005d6e60 f   kiss_fftr.obj
 0002:0012e100       _kiss_fftri                005d7100 f   kiss_fftr.obj
 0002:0012e350       _kiss_fftr2                005d7350 f   kiss_fftr.obj
 0002:0012e5b0       _kiss_fftri2               005d75b0 f   kiss_fftr.obj
 0002:0012e820       __spx_lpc                  005d7820 f   lpc.obj
 0002:0012ea20       __spx_autocorr             005d7a20 f   lpc.obj
 0002:0012eac0       _lpc_to_lsp                005d7ac0 f   lsp.obj
 0002:0012f070       _lsp_to_lpc                005d8070 f   lsp.obj
 0002:0012f400       _lsp_enforce_margin        005d8400 f   lsp.obj
 0002:0012f560       _lsp_interpolate           005d8560 f   lsp.obj
 0002:0012f5e0       _inner_prod                005d85e0 f   ltp.obj
 0002:0012f6f0       _pitch_xcorr               005d86f0 f   ltp.obj
 0002:0012f760       _open_loop_nbest_pitch     005d8760 f   ltp.obj
 0002:0012fca0       _pitch_search_3tap         005d8ca0 f   ltp.obj
 0002:00130bf0       _pitch_unquant_3tap        005d9bf0 f   ltp.obj
 0002:00131030       _forced_pitch_quant        005da030 f   ltp.obj
 0002:001311d0       _forced_pitch_unquant      005da1d0 f   ltp.obj
 0002:00131290       _speex_echo_state_init     005da290 f   mdf.obj
 0002:001319a0       _speex_echo_state_reset    005da9a0 f   mdf.obj
 0002:00131ca0       _speex_echo_state_destroy  005daca0 f   mdf.obj
 0002:00131ec0       _speex_echo_capture        005daec0 f   mdf.obj
 0002:00132060       _speex_echo_playback       005db060 f   mdf.obj
 0002:001321d0       _speex_echo_cancel         005db1d0 f   mdf.obj
 0002:00132210       _speex_echo_cancellation   005db210 f   mdf.obj
 0002:00134220       _speex_echo_get_residual   005dd220 f   mdf.obj
 0002:00134360       _speex_echo_ctl            005dd360 f   mdf.obj
 0002:001344e0       _speex_mode_query          005dd4e0 f   modes.obj
 0002:00134520       _wb_mode_query             005dd520 f   modes_wb.obj
 0002:00134620       _speex_lib_get_mode        005dd620 f   modes_wb.obj
 0002:00134660       _nb_encoder_init           005dd660 f   nb_celp.obj
 0002:00134b60       _nb_encoder_destroy        005ddb60 f   nb_celp.obj
 0002:00134cd0       _nb_encode                 005ddcd0 f   nb_celp.obj
 0002:001375b0       _nb_decoder_init           005e05b0 f   nb_celp.obj
 0002:001378f0       _nb_decoder_destroy        005e08f0 f   nb_celp.obj
 0002:00137980       _nb_decode                 005e0980 f   nb_celp.obj
 0002:00139b00       _nb_encoder_ctl            005e2b00 f   nb_celp.obj
 0002:0013a470       _nb_decoder_ctl            005e3470 f   nb_celp.obj
 0002:0013aa20       _speex_preprocess_state_init 005e3a20 f   preprocess.obj
 0002:0013b3e0       _speex_preprocess_state_destroy 005e43e0 f   preprocess.obj
 0002:0013b610       _speex_preprocess          005e4610 f   preprocess.obj
 0002:0013b640       _speex_preprocess_run      005e4640 f   preprocess.obj
 0002:0013d6a0       _speex_preprocess_estimate_update 005e66a0 f   preprocess.obj
 0002:0013d8c0       _speex_preprocess_ctl      005e68c0 f   preprocess.obj
 0002:0013e010       _lsp_quant_nb              005e7010 f   quant_lsp.obj
 0002:0013e6f0       _lsp_unquant_nb            005e76f0 f   quant_lsp.obj
 0002:0013e990       _lsp_quant_lbr             005e7990 f   quant_lsp.obj
 0002:0013ec10       _lsp_unquant_lbr           005e7c10 f   quant_lsp.obj
 0002:0013edc0       _lsp_quant_high            005e7dc0 f   quant_lsp.obj
 0002:0013f010       _lsp_unquant_high          005e8010 f   quant_lsp.obj
 0002:0013f150       _speex_resampler_init      005e8150 f   resample.obj
 0002:0013f1a0       _speex_resampler_init_frac 005e81a0 f   resample.obj
 0002:00141030       _speex_resampler_destroy   005ea030 f   resample.obj
 0002:001410e0       _speex_resampler_process_float 005ea0e0 f   resample.obj
 0002:00141430       _speex_resampler_process_int 005ea430 f   resample.obj
 0002:001417a0       _speex_resampler_process_interleaved_float 005ea7a0 f   resample.obj
 0002:001418b0       _speex_resampler_process_interleaved_int 005ea8b0 f   resample.obj
 0002:001419c0       _speex_resampler_set_rate  005ea9c0 f   resample.obj
 0002:00141a00       _speex_resampler_get_rate  005eaa00 f   resample.obj
 0002:00141a30       _speex_resampler_set_rate_frac 005eaa30 f   resample.obj
 0002:00141c10       _speex_resampler_get_ratio 005eac10 f   resample.obj
 0002:00141c40       _speex_resampler_set_quality 005eac40 f   resample.obj
 0002:00141cb0       _speex_resampler_get_quality 005eacb0 f   resample.obj
 0002:00141ce0       _speex_resampler_set_input_stride 005eace0 f   resample.obj
 0002:00141d00       _speex_resampler_get_input_stride 005ead00 f   resample.obj
 0002:00141d30       _speex_resampler_set_output_stride 005ead30 f   resample.obj
 0002:00141d50       _speex_resampler_get_output_stride 005ead50 f   resample.obj
 0002:00141d80       _speex_resampler_get_input_latency 005ead80 f   resample.obj
 0002:00141da0       _speex_resampler_get_output_latency 005eada0 f   resample.obj
 0002:00141de0       _speex_resampler_skip_zeros 005eade0 f   resample.obj
 0002:00141e40       _speex_resampler_reset_mem 005eae40 f   resample.obj
 0002:00141ea0       _speex_resampler_strerror  005eaea0 f   resample.obj
 0002:00141f20       _sb_encoder_init           005eaf20 f   sb_celp.obj
 0002:00142370       _sb_encoder_destroy        005eb370 f   sb_celp.obj
 0002:001424b0       _sb_encode                 005eb4b0 f   sb_celp.obj
 0002:00143f90       _sb_decoder_init           005ecf90 f   sb_celp.obj
 0002:001441f0       _sb_decoder_destroy        005ed1f0 f   sb_celp.obj
 0002:001442d0       _sb_decode                 005ed2d0 f   sb_celp.obj
 0002:00145120       _sb_encoder_ctl            005ee120 f   sb_celp.obj
 0002:00145d00       _sb_decoder_ctl            005eed00 f   sb_celp.obj
 0002:00146310       _spx_drft_forward          005ef310 f   smallft.obj
 0002:00148210       _spx_drft_backward         005f1210 f   smallft.obj
 0002:0014a630       _spx_drft_init             005f3630 f   smallft.obj
 0002:0014aa00       _spx_drft_clear            005f3a00 f   smallft.obj
 0002:0014aa90       _speex_encoder_init        005f3a90 f   speex.obj
 0002:0014aac0       _speex_decoder_init        005f3ac0 f   speex.obj
 0002:0014aaf0       _speex_encoder_destroy     005f3af0 f   speex.obj
 0002:0014ab20       _speex_decoder_destroy     005f3b20 f   speex.obj
 0002:0014ab50       _speex_encode_native       005f3b50 f   speex.obj
 0002:0014ab90       _speex_decode_native       005f3b90 f   speex.obj
 0002:0014abd0       _speex_encode              005f3bd0 f   speex.obj
 0002:0014ac10       _speex_encode_int          005f3c10 f   speex.obj
 0002:0014acd0       _speex_decode              005f3cd0 f   speex.obj
 0002:0014ad10       _speex_decode_int          005f3d10 f   speex.obj
 0002:0014ae60       _speex_encoder_ctl         005f3e60 f   speex.obj
 0002:0014aea0       _speex_decoder_ctl         005f3ea0 f   speex.obj
 0002:0014aee0       _nb_mode_query             005f3ee0 f   speex.obj
 0002:0014afe0       _speex_lib_ctl             005f3fe0 f   speex.obj
 0002:0014b0b0       _speex_inband_handler      005f40b0 f   speex_callbacks.obj
 0002:0014b1a0       _speex_std_mode_request_handler 005f41a0 f   speex_callbacks.obj
 0002:0014b1f0       _speex_std_low_mode_request_handler 005f41f0 f   speex_callbacks.obj
 0002:0014b240       _speex_std_high_mode_request_handler 005f4240 f   speex_callbacks.obj
 0002:0014b290       _speex_std_vbr_request_handler 005f4290 f   speex_callbacks.obj
 0002:0014b2e0       _speex_std_enh_request_handler 005f42e0 f   speex_callbacks.obj
 0002:0014b330       _speex_std_vbr_quality_request_handler 005f4330 f   speex_callbacks.obj
 0002:0014b390       _speex_std_char_handler    005f4390 f   speex_callbacks.obj
 0002:0014b420       _speex_default_user_handler 005f4420 f   speex_callbacks.obj
 0002:0014b470       _speex_init_header         005f4470 f   speex_header.obj
 0002:0014b640       _speex_header_to_packet    005f4640 f   speex_header.obj
 0002:0014b820       _speex_packet_to_header    005f4820 f   speex_header.obj
 0002:0014ba60       _speex_header_free         005f4a60 f   speex_header.obj
 0002:0014bac0       _speex_stereo_state_init   005f4ac0 f   stereo.obj
 0002:0014bb30       _speex_stereo_state_reset  005f4b30 f   stereo.obj
 0002:0014bb90       _speex_stereo_state_destroy 005f4b90 f   stereo.obj
 0002:0014bbf0       _speex_encode_stereo       005f4bf0 f   stereo.obj
 0002:0014be40       _speex_encode_stereo_int   005f4e40 f   stereo.obj
 0002:0014c0f0       _speex_decode_stereo       005f50f0 f   stereo.obj
 0002:0014c230       _speex_decode_stereo_int   005f5230 f   stereo.obj
 0002:0014c390       _speex_std_stereo_request_handler 005f5390 f   stereo.obj
 0002:0014c450       _vbr_init                  005f5450 f   vbr.obj
 0002:0014c560       _vbr_analysis              005f5560 f   vbr.obj
 0002:0014ce90       _vbr_destroy               005f5e90 f   vbr.obj
 0002:0014ceb0       _scal_quant                005f5eb0 f   vq.obj
 0002:0014cf10       _scal_quant32              005f5f10 f   vq.obj
 0002:0014cf70       _vq_nbest                  005f5f70 f   vq.obj
 0002:0014d0f0       _vq_nbest_sign             005f60f0 f   vq.obj
 0002:0014d2c0       _adler32                   005f62c0 f   adler32.obj
 0002:0014d870       _adler32_combine           005f6870 f   adler32.obj
 0002:0014d980       _get_crc_table             005f6980 f   crc32.obj
 0002:0014d9a0       _crc32                     005f69a0 f   crc32.obj
 0002:0014e690       _crc32_combine             005f7690 f   crc32.obj
 0002:0014e8d0       _inflate_fast              005f78d0 f   inffast.obj
 0002:0014f230       _inflateReset              005f8230 f   inflate.obj
 0002:0014f360       _inflatePrime              005f8360 f   inflate.obj
 0002:0014f410       _inflateInit2_             005f8410 f   inflate.obj
 0002:0014f5a0       _inflateInit_              005f85a0 f   inflate.obj
 0002:0014f5d0       _inflate                   005f85d0 f   inflate.obj
 0002:00151f90       _inflateEnd                005faf90 f   inflate.obj
 0002:00152030       _inflateSetDictionary      005fb030 f   inflate.obj
 0002:001521b0       _inflateGetHeader          005fb1b0 f   inflate.obj
 0002:00152220       _inflateSync               005fb220 f   inflate.obj
 0002:001524d0       _inflateSyncPoint          005fb4d0 f   inflate.obj
 0002:00152540       _inflateCopy               005fb540 f   inflate.obj
 0002:00152780       _inflate_table             005fb780 f   inftrees.obj
 0002:00152f40       _zlibVersion               005fbf40 f   zutil.obj
 0002:00152f60       _zlibCompileFlags          005fbf60 f   zutil.obj
 0002:001530c0       _zError                    005fc0c0 f   zutil.obj
 0002:001530f0       _zcalloc                   005fc0f0 f   zutil.obj
 0002:00153130       _zcfree                    005fc130 f   zutil.obj
 0002:00153154       _CloseClipboard@0          005fc154 f   user32:USER32.dll
 0002:0015315a       _GetClipboardData@4        005fc15a f   user32:USER32.dll
 0002:00153160       _OpenClipboard@4           005fc160 f   user32:USER32.dll
 0002:00153166       _SetClipboardData@8        005fc166 f   user32:USER32.dll
 0002:0015316c       _EmptyClipboard@0          005fc16c f   user32:USER32.dll
 0002:00153172       _MessageBoxA@16            005fc172 f   user32:USER32.dll
 0002:00153178       _CryptReleaseContext@8     005fc178 f   advapi32:ADVAPI32.dll
 0002:0015317e       _CryptGenRandom@12         005fc17e f   advapi32:ADVAPI32.dll
 0002:00153184       _CryptAcquireContextA@20   005fc184 f   advapi32:ADVAPI32.dll
 0002:0015318a       _GetUserNameA@8            005fc18a f   advapi32:ADVAPI32.dll
 0002:00153190       _timeGetTime@0             005fc190 f   winmm:WINMM.dll
 0002:00153196       _timeBeginPeriod@4         005fc196 f   winmm:WINMM.dll
 0002:0015319c       _timeGetDevCaps@8          005fc19c f   winmm:WINMM.dll
 0002:001531a2       _timeEndPeriod@4           005fc1a2 f   winmm:WINMM.dll
 0002:001531a8       _WSAGetLastError@0         005fc1a8 f   wsock32:WSOCK32.dll
 0002:001531ae       _ntohs@4                   005fc1ae f   wsock32:WSOCK32.dll
 0002:001531b4       _recvfrom@24               005fc1b4 f   wsock32:WSOCK32.dll
 0002:001531ba       _sendto@24                 005fc1ba f   wsock32:WSOCK32.dll
 0002:001531c0       _bind@12                   005fc1c0 f   wsock32:WSOCK32.dll
 0002:001531c6       _htons@4                   005fc1c6 f   wsock32:WSOCK32.dll
 0002:001531cc       _setsockopt@20             005fc1cc f   wsock32:WSOCK32.dll
 0002:001531d2       _closesocket@4             005fc1d2 f   wsock32:WSOCK32.dll
 0002:001531d8       _ioctlsocket@12            005fc1d8 f   wsock32:WSOCK32.dll
 0002:001531de       _socket@12                 005fc1de f   wsock32:WSOCK32.dll
 0002:001531e4       _recv@16                   005fc1e4 f   wsock32:WSOCK32.dll
 0002:001531ea       _send@16                   005fc1ea f   wsock32:WSOCK32.dll
 0002:001531f0       _connect@12                005fc1f0 f   wsock32:WSOCK32.dll
 0002:001531f6       _gethostbyname@4           005fc1f6 f   wsock32:WSOCK32.dll
 0002:001531fc       _gethostname@8             005fc1fc f   wsock32:WSOCK32.dll
 0002:00153202       _WSAStartup@8              005fc202 f   wsock32:WSOCK32.dll
 0002:00153208       _WSACleanup@0              005fc208 f   wsock32:WSOCK32.dll
 0002:0015320e       _select@20                 005fc20e f   wsock32:WSOCK32.dll
 0002:00153214       _freeaddrinfo@4            005fc214 f   ws2_32:WS2_32.dll
 0002:0015321a       _getaddrinfo@16            005fc21a f   ws2_32:WS2_32.dll
 0002:00153220       _getnameinfo@28            005fc220 f   ws2_32:WS2_32.dll
 0002:00153226       _SDL_LoadObject            005fc226 f   SDL:SDL.dll
 0002:0015322c       _SDL_LoadFunction          005fc22c f   SDL:SDL.dll
 0002:00153232       _SDL_UnloadObject          005fc232 f   SDL:SDL.dll
 0002:00153238       _SDL_SetGammaRamp          005fc238 f   SDL:SDL.dll
 0002:0015323e       _SDL_QuitSubSystem         005fc23e f   SDL:SDL.dll
 0002:00153244       _SDL_SetGamma              005fc244 f   SDL:SDL.dll
 0002:0015324a       _SDL_VideoDriverName       005fc24a f   SDL:SDL.dll
 0002:00153250       _SDL_GetError              005fc250 f   SDL:SDL.dll
 0002:00153256       _SDL_Init                  005fc256 f   SDL:SDL.dll
 0002:0015325c       _SDL_WasInit               005fc25c f   SDL:SDL.dll
 0002:00153262       _SDL_SetVideoMode          005fc262 f   SDL:SDL.dll
 0002:00153268       _SDL_ShowCursor            005fc268 f   SDL:SDL.dll
 0002:0015326e       _SDL_WM_SetCaption         005fc26e f   SDL:SDL.dll
 0002:00153274       _SDL_FreeSurface           005fc274 f   SDL:SDL.dll
 0002:0015327a       _SDL_WM_SetIcon            005fc27a f   SDL:SDL.dll
 0002:00153280       _SDL_CreateRGBSurfaceFrom  005fc280 f   SDL:SDL.dll
 0002:00153286       _SDL_GL_SetAttribute       005fc286 f   SDL:SDL.dll
 0002:0015328c       _SDL_GetVideoInfo          005fc28c f   SDL:SDL.dll
 0002:00153292       _SDL_ListModes             005fc292 f   SDL:SDL.dll
 0002:00153298       _SDL_GL_GetProcAddress     005fc298 f   SDL:SDL.dll
 0002:0015329e       _SDL_WM_ToggleFullScreen   005fc29e f   SDL:SDL.dll
 0002:001532a4       _SDL_GetVideoSurface       005fc2a4 f   SDL:SDL.dll
 0002:001532aa       _SDL_GL_SwapBuffers        005fc2aa f   SDL:SDL.dll
 0002:001532b0       _SDL_GetAppState           005fc2b0 f   SDL:SDL.dll
 0002:001532b6       _SDL_WM_GrabInput          005fc2b6 f   SDL:SDL.dll
 0002:001532bc       _SDL_PeepEvents            005fc2bc f   SDL:SDL.dll
 0002:001532c2       _SDL_PumpEvents            005fc2c2 f   SDL:SDL.dll
 0002:001532c8       _SDL_WarpMouse             005fc2c8 f   SDL:SDL.dll
 0002:001532ce       _SDL_JoystickGetAxis       005fc2ce f   SDL:SDL.dll
 0002:001532d4       _SDL_JoystickNumAxes       005fc2d4 f   SDL:SDL.dll
 0002:001532da       _SDL_JoystickGetHat        005fc2da f   SDL:SDL.dll
 0002:001532e0       _SDL_JoystickNumHats       005fc2e0 f   SDL:SDL.dll
 0002:001532e6       _SDL_JoystickGetButton     005fc2e6 f   SDL:SDL.dll
 0002:001532ec       _SDL_JoystickNumButtons    005fc2ec f   SDL:SDL.dll
 0002:001532f2       _SDL_JoystickGetBall       005fc2f2 f   SDL:SDL.dll
 0002:001532f8       _SDL_JoystickNumBalls      005fc2f8 f   SDL:SDL.dll
 0002:001532fe       _SDL_JoystickUpdate        005fc2fe f   SDL:SDL.dll
 0002:00153304       _SDL_PollEvent             005fc304 f   SDL:SDL.dll
 0002:0015330a       _SDL_EnableKeyRepeat       005fc30a f   SDL:SDL.dll
 0002:00153310       _SDL_GetKeyName            005fc310 f   SDL:SDL.dll
 0002:00153316       _SDL_EnableUNICODE         005fc316 f   SDL:SDL.dll
 0002:0015331c       _SDL_JoystickEventState    005fc31c f   SDL:SDL.dll
 0002:00153322       _SDL_JoystickOpen          005fc322 f   SDL:SDL.dll
 0002:00153328       _SDL_JoystickName          005fc328 f   SDL:SDL.dll
 0002:0015332e       _SDL_NumJoysticks          005fc32e f   SDL:SDL.dll
 0002:00153334       _SDL_JoystickClose         005fc334 f   SDL:SDL.dll
 0002:0015333a       _SDL_PauseAudio            005fc33a f   SDL:SDL.dll
 0002:00153340       _SDL_OpenAudio             005fc340 f   SDL:SDL.dll
 0002:00153346       _SDL_AudioDriverName       005fc346 f   SDL:SDL.dll
 0002:0015334c       _SDL_CloseAudio            005fc34c f   SDL:SDL.dll
 0002:00153352       _SDL_UnlockAudio           005fc352 f   SDL:SDL.dll
 0002:00153358       _SDL_LockAudio             005fc358 f   SDL:SDL.dll
 0002:0015335e       _SDL_Quit                  005fc35e f   SDL:SDL.dll
 0002:00153364       _SDL_HasAltiVec            005fc364 f   SDL:SDL.dll
 0002:0015336a       _SDL_HasSSE2               005fc36a f   SDL:SDL.dll
 0002:00153370       _SDL_HasSSE                005fc370 f   SDL:SDL.dll
 0002:00153376       _SDL_Has3DNowExt           005fc376 f   SDL:SDL.dll
 0002:0015337c       _SDL_Has3DNow              005fc37c f   SDL:SDL.dll
 0002:00153382       _SDL_HasMMXExt             005fc382 f   SDL:SDL.dll
 0002:00153388       _SDL_HasMMX                005fc388 f   SDL:SDL.dll
 0002:0015338e       _SDL_HasRDTSC              005fc38e f   SDL:SDL.dll
 0002:00153394       _SDL_Linked_Version        005fc394 f   SDL:SDL.dll
 0002:0015339a       _glGetString@4             005fc39a f   OpenGL32:OPENGL32.dll
 0002:001533a0       _glGetIntegerv@8           005fc3a0 f   OpenGL32:OPENGL32.dll
 0002:001533a6       _glBindTexture@8           005fc3a6 f   OpenGL32:OPENGL32.dll
 0002:001533ac       _glCullFace@4              005fc3ac f   OpenGL32:OPENGL32.dll
 0002:001533b2       _glEnable@4                005fc3b2 f   OpenGL32:OPENGL32.dll
 0002:001533b8       _glDisable@4               005fc3b8 f   OpenGL32:OPENGL32.dll
 0002:001533be       _glTexEnvf@12              005fc3be f   OpenGL32:OPENGL32.dll
 0002:001533c4       _glAlphaFunc@8             005fc3c4 f   OpenGL32:OPENGL32.dll
 0002:001533ca       _glPolygonMode@8           005fc3ca f   OpenGL32:OPENGL32.dll
 0002:001533d0       _glDepthMask@4             005fc3d0 f   OpenGL32:OPENGL32.dll
 0002:001533d6       _glBlendFunc@8             005fc3d6 f   OpenGL32:OPENGL32.dll
 0002:001533dc       _glDepthFunc@4             005fc3dc f   OpenGL32:OPENGL32.dll
 0002:001533e2       _glClipPlane@8             005fc3e2 f   OpenGL32:OPENGL32.dll
 0002:001533e8       _glLoadMatrixf@4           005fc3e8 f   OpenGL32:OPENGL32.dll
 0002:001533ee       _glClear@4                 005fc3ee f   OpenGL32:OPENGL32.dll
 0002:001533f4       _glClearColor@16           005fc3f4 f   OpenGL32:OPENGL32.dll
 0002:001533fa       _glFinish@0                005fc3fa f   OpenGL32:OPENGL32.dll
 0002:00153400       _glScissor@16              005fc400 f   OpenGL32:OPENGL32.dll
 0002:00153406       _glViewport@16             005fc406 f   OpenGL32:OPENGL32.dll
 0002:0015340c       _glMatrixMode@4            005fc40c f   OpenGL32:OPENGL32.dll
 0002:00153412       _glDepthRange@16           005fc412 f   OpenGL32:OPENGL32.dll
 0002:00153418       _glOrtho@48                005fc418 f   OpenGL32:OPENGL32.dll
 0002:0015341e       _glLoadIdentity@0          005fc41e f   OpenGL32:OPENGL32.dll
 0002:00153424       _glEnd@0                   005fc424 f   OpenGL32:OPENGL32.dll
 0002:0015342a       _glVertex2f@8              005fc42a f   OpenGL32:OPENGL32.dll
 0002:00153430       _glTexCoord2f@8            005fc430 f   OpenGL32:OPENGL32.dll
 0002:00153436       _glBegin@4                 005fc436 f   OpenGL32:OPENGL32.dll
 0002:0015343c       _glColor3f@12              005fc43c f   OpenGL32:OPENGL32.dll
 0002:00153442       _glTexSubImage2D@36        005fc442 f   OpenGL32:OPENGL32.dll
 0002:00153448       _glTexParameterf@12        005fc448 f   OpenGL32:OPENGL32.dll
 0002:0015344e       _glTexImage2D@36           005fc44e f   OpenGL32:OPENGL32.dll
 0002:00153454       _glDrawBuffer@4            005fc454 f   OpenGL32:OPENGL32.dll
 0002:0015345a       _glColorMask@16            005fc45a f   OpenGL32:OPENGL32.dll
 0002:00153460       _glReadPixels@28           005fc460 f   OpenGL32:OPENGL32.dll
 0002:00153466       _glGetError@0              005fc466 f   OpenGL32:OPENGL32.dll
 0002:0015346c       _glStencilOp@12            005fc46c f   OpenGL32:OPENGL32.dll
 0002:00153472       _glStencilFunc@12          005fc472 f   OpenGL32:OPENGL32.dll
 0002:00153478       _glClearStencil@4          005fc478 f   OpenGL32:OPENGL32.dll
 0002:0015347e       _glStencilMask@4           005fc47e f   OpenGL32:OPENGL32.dll
 0002:00153484       _glPopMatrix@0             005fc484 f   OpenGL32:OPENGL32.dll
 0002:0015348a       _glPushMatrix@0            005fc48a f   OpenGL32:OPENGL32.dll
 0002:00153490       _glTexParameteri@12        005fc490 f   OpenGL32:OPENGL32.dll
 0002:00153496       _glTexParameterfv@12       005fc496 f   OpenGL32:OPENGL32.dll
 0002:0015349c       _glDeleteTextures@8        005fc49c f   OpenGL32:OPENGL32.dll
 0002:001534a2       _glEnableClientState@4     005fc4a2 f   OpenGL32:OPENGL32.dll
 0002:001534a8       _glShadeModel@4            005fc4a8 f   OpenGL32:OPENGL32.dll
 0002:001534ae       _glColor4f@16              005fc4ae f   OpenGL32:OPENGL32.dll
 0002:001534b4       _glClearDepth@8            005fc4b4 f   OpenGL32:OPENGL32.dll
 0002:001534ba       _glVertex3fv@4             005fc4ba f   OpenGL32:OPENGL32.dll
 0002:001534c0       _glVertexPointer@16        005fc4c0 f   OpenGL32:OPENGL32.dll
 0002:001534c6       _glTexCoordPointer@16      005fc4c6 f   OpenGL32:OPENGL32.dll
 0002:001534cc       _glColorPointer@16         005fc4cc f   OpenGL32:OPENGL32.dll
 0002:001534d2       _glDisableClientState@4    005fc4d2 f   OpenGL32:OPENGL32.dll
 0002:001534d8       _glPolygonOffset@8         005fc4d8 f   OpenGL32:OPENGL32.dll
 0002:001534de       _glArrayElement@4          005fc4de f   OpenGL32:OPENGL32.dll
 0002:001534e4       _glDrawElements@16         005fc4e4 f   OpenGL32:OPENGL32.dll
 0002:001534ea       _glTexCoord2fv@4           005fc4ea f   OpenGL32:OPENGL32.dll
 0002:001534f0       _glColor4ubv@4             005fc4f0 f   OpenGL32:OPENGL32.dll
 0002:001534f6       _glGetBooleanv@8           005fc4f6 f   OpenGL32:OPENGL32.dll
 0002:001534fc       _glVertex3f@12             005fc4fc f   OpenGL32:OPENGL32.dll
 0002:00153502       _glTranslatef@12           005fc502 f   OpenGL32:OPENGL32.dll
 0002:00153508       _glLineWidth@4             005fc508 f   OpenGL32:OPENGL32.dll
 0002:0015350e       _glCallList@4              005fc50e f   OpenGL32:OPENGL32.dll
 0002:00153514       _memcpy                    005fc514 f   msvcrt:MSVCR100.dll
 0002:0015351a       _strlen                    005fc51a f   msvcrt:MSVCR100.dll
 0002:00153520       _memset                    005fc520 f   msvcrt:MSVCR100.dll
 0002:00153530       __ftol2_sse                005fc530 f   msvcrt:ftol2.obj
 0002:00153539       __ftol2_pentium4           005fc539 f   msvcrt:ftol2.obj
 0002:0015354c       __ftol2_sse_excpt          005fc54c f   msvcrt:ftol2.obj
 0002:00153566       __ftol2                    005fc566 f   msvcrt:ftol2.obj
 0002:00153606       _ceil                      005fc606 f   msvcrt:MSVCR100.dll
 0002:0015360c       _strcmp                    005fc60c f   msvcrt:MSVCR100.dll
 0002:00153612       _atoi                      005fc612 f   msvcrt:MSVCR100.dll
 0002:00153618       @__security_check_cookie@4 005fc618 f   msvcrt:secchk.obj
 0002:00153630       __alloca_probe             005fc630     msvcrt:chkstk.obj
 0002:00153630       __chkstk                   005fc630 f   msvcrt:chkstk.obj
 0002:00153666       _strcat                    005fc666 f   msvcrt:MSVCR100.dll
 0002:0015366c       __wassert                  005fc66c f   msvcrt:MSVCR100.dll
 0002:00153672       _floor                     005fc672 f   msvcrt:MSVCR100.dll
 0002:00153678       _sqrt                      005fc678 f   msvcrt:MSVCR100.dll
 0002:0015367e       _atan2                     005fc67e f   msvcrt:MSVCR100.dll
 0002:00153684       _cos                       005fc684 f   msvcrt:MSVCR100.dll
 0002:0015368a       _sin                       005fc68a f   msvcrt:MSVCR100.dll
 0002:00153690       _strncpy                   005fc690 f   msvcrt:MSVCR100.dll
 0002:00153696       _abs                       005fc696 f   msvcrt:MSVCR100.dll
 0002:0015369c       _strcpy                    005fc69c f   msvcrt:MSVCR100.dll
 0002:001536a2       _strstr                    005fc6a2 f   msvcrt:MSVCR100.dll
 0002:001536a8       _memmove                   005fc6a8 f   msvcrt:MSVCR100.dll
 0002:001536ae       _isalnum                   005fc6ae f   msvcrt:MSVCR100.dll
 0002:001536b4       _pow                       005fc6b4 f   msvcrt:MSVCR100.dll
 0002:001536ba       _fabs                      005fc6ba f   msvcrt:MSVCR100.dll
 0002:001536c0       _tolower                   005fc6c0 f   msvcrt:MSVCR100.dll
 0002:001536c6       _strchr                    005fc6c6 f   msvcrt:MSVCR100.dll
 0002:001536cc       _isspace                   005fc6cc f   msvcrt:MSVCR100.dll
 0002:001536d2       _atof                      005fc6d2 f   msvcrt:MSVCR100.dll
 0002:001536d8       _rand                      005fc6d8 f   msvcrt:MSVCR100.dll
 0002:001536de       __vsnprintf                005fc6de f   msvcrt:MSVCR100.dll
 0002:001536e4       _strncat                   005fc6e4 f   msvcrt:MSVCR100.dll
 0002:001536ea       _sscanf                    005fc6ea f   msvcrt:MSVCR100.dll
 0002:001536f0       _sprintf                   005fc6f0 f   msvcrt:MSVCR100.dll
 0002:001536f6       _strncmp                   005fc6f6 f   msvcrt:MSVCR100.dll
 0002:001536fc       _printf                    005fc6fc f   msvcrt:MSVCR100.dll
 0002:00153702       _strpbrk                   005fc702 f   msvcrt:MSVCR100.dll
 0002:00153708       _asctime                   005fc708 f   msvcrt:MSVCR100.dll
 0002:0015370e       __localtime64              005fc70e f   msvcrt:MSVCR100.dll
 0002:00153714       __time64                   005fc714 f   msvcrt:MSVCR100.dll
 0002:0015371a       _longjmp                   005fc71a f   msvcrt:MSVCR100.dll
 0002:00153720       _toupper                   005fc720 f   msvcrt:MSVCR100.dll
 0002:00153726       _calloc                    005fc726 f   msvcrt:MSVCR100.dll
 0002:0015372c       _getenv                    005fc72c f   msvcrt:MSVCR100.dll
 0002:00153732       __setjmp3                  005fc732 f   msvcrt:MSVCR100.dll
 0002:00153738       _srand                     005fc738 f   msvcrt:MSVCR100.dll
 0002:0015373e       _acos                      005fc73e f   msvcrt:MSVCR100.dll
 0002:00153744       _fputs                     005fc744 f   msvcrt:MSVCR100.dll
 0002:0015374a       ___iob_func                005fc74a f   msvcrt:MSVCR100.dll
 0002:00153750       _setvbuf                   005fc750 f   msvcrt:MSVCR100.dll
 0002:00153756       _fseek                     005fc756 f   msvcrt:MSVCR100.dll
 0002:0015375c       _ftell                     005fc75c f   msvcrt:MSVCR100.dll
 0002:00153762       _remove                    005fc762 f   msvcrt:MSVCR100.dll
 0002:00153768       _fclose                    005fc768 f   msvcrt:MSVCR100.dll
 0002:0015376e       _fopen                     005fc76e f   msvcrt:MSVCR100.dll
 0002:00153774       _rename                    005fc774 f   msvcrt:MSVCR100.dll
 0002:0015377a       _free                      005fc77a f   msvcrt:MSVCR100.dll
 0002:00153780       _fwrite                    005fc780 f   msvcrt:MSVCR100.dll
 0002:00153786       _fread                     005fc786 f   msvcrt:MSVCR100.dll
 0002:0015378c       _malloc                    005fc78c f   msvcrt:MSVCR100.dll
 0002:00153792       _fflush                    005fc792 f   msvcrt:MSVCR100.dll
 0002:00153798       _qsort                     005fc798 f   msvcrt:MSVCR100.dll
 0002:0015379e       _memcmp                    005fc79e f   msvcrt:MSVCR100.dll
 0002:001537a4       _strtod                    005fc7a4 f   msvcrt:MSVCR100.dll
 0002:001537aa       _fmod                      005fc7aa f   msvcrt:MSVCR100.dll
 0002:001537b0       _fprintf                   005fc7b0 f   msvcrt:MSVCR100.dll
 0002:001537b6       _exit                      005fc7b6 f   msvcrt:MSVCR100.dll
 0002:001537bc       __stat64i32                005fc7bc f   msvcrt:MSVCR100.dll
 0002:001537c2       __snprintf                 005fc7c2 f   msvcrt:MSVCR100.dll
 0002:001537c8       _signal                    005fc7c8 f   msvcrt:MSVCR100.dll
 0002:001537ce       _strtok                    005fc7ce f   msvcrt:MSVCR100.dll
 0002:001537d4       __getcwd                   005fc7d4 f   msvcrt:MSVCR100.dll
 0002:001537da       __findclose                005fc7da f   msvcrt:MSVCR100.dll
 0002:001537e0       __findnext64i32            005fc7e0 f   msvcrt:MSVCR100.dll
 0002:001537e6       __findfirst64i32           005fc7e6 f   msvcrt:MSVCR100.dll
 0002:001537ec       __putenv                   005fc7ec f   msvcrt:MSVCR100.dll
 0002:001537f2       _ferror                    005fc7f2 f   msvcrt:MSVCR100.dll
 0002:001537f8       __ftol                     005fc7f8 f   msvcrt:MSVCR100.dll
 0002:001537fe       _tan                       005fc7fe f   msvcrt:MSVCR100.dll
 0002:00153804       _clock                     005fc804 f   msvcrt:MSVCR100.dll
 0002:0015380a       _vfprintf                  005fc80a f   msvcrt:MSVCR100.dll
 0002:00153810       __ctime64                  005fc810 f   msvcrt:MSVCR100.dll
 0002:00153816       _realloc                   005fc816 f   msvcrt:MSVCR100.dll
 0002:00153820       __alloca_probe_16          005fc820 f   msvcrt:alloca16.obj
 0002:00153836       __alloca_probe_8           005fc836     msvcrt:alloca16.obj
 0002:00153858       _atan                      005fc858 f   msvcrt:MSVCR100.dll
 0002:0015385e       _exp                       005fc85e f   msvcrt:MSVCR100.dll
 0002:00153864       _log                       005fc864 f   msvcrt:MSVCR100.dll
 0002:0015386a       _NtCurrentTeb              005fc86a f i msvcrt:crtexew.obj
 0002:00153c5d       _WinMainCRTStartup         005fcc5d f   msvcrt:crtexew.obj
 0002:00153c69       ___sse2_available_init     005fcc69 f   msvcrt:cpu_disp.obj
 0002:00153c7d       ___report_gsfailure        005fcc7d f   msvcrt:gs_report.obj
 0002:00153dc4       ?__CxxUnhandledExceptionFilter@@YGJPAU_EXCEPTION_POINTERS@@@Z 005fcdc4 f   msvcrt:unhandld.obj
 0002:00153e16       ___CxxSetUnhandledExceptionFilter 005fce16 f   msvcrt:unhandld.obj
 0002:00153e28       __amsg_exit                005fce28 f   msvcrt:MSVCR100.dll
 0002:00153e2e       ___getmainargs             005fce2e f   msvcrt:MSVCR100.dll
 0002:00153e34       __onexit                   005fce34 f   msvcrt:atonexit.obj
 0002:00153efd       _atexit                    005fcefd f   msvcrt:atonexit.obj
 0002:00153f19       __RTC_Initialize           005fcf19 f   msvcrt:_initsect_.obj
 0002:00153f48       __RTC_Terminate            005fcf48 f   msvcrt:_initsect_.obj
 0002:00153f78       __cexit                    005fcf78 f   msvcrt:MSVCR100.dll
 0002:00153f7e       __exit                     005fcf7e f   msvcrt:MSVCR100.dll
 0002:00153f84       __XcptFilter               005fcf84 f   msvcrt:MSVCR100.dll
 0002:00153f8a       __ismbblead                005fcf8a f   msvcrt:MSVCR100.dll
 0002:00153f90       __ValidateImageBase        005fcf90 f   msvcrt:pesect.obj
 0002:00153fe0       __FindPESection            005fcfe0 f   msvcrt:pesect.obj
 0002:00154040       __IsNonwritableInCurrentImage 005fd040 f   msvcrt:pesect.obj
 0002:0015412c       __initterm                 005fd12c f   msvcrt:MSVCR100.dll
 0002:00154132       __initterm_e               005fd132 f   msvcrt:MSVCR100.dll
 0002:00154140       __SEH_prolog4              005fd140 f   msvcrt:sehprolg4.obj
 0002:00154185       __SEH_epilog4              005fd185 f   msvcrt:sehprolg4.obj
 0002:001541af       __except_handler4          005fd1af f   msvcrt:chandler4gs.obj
 0002:001541de       __configthreadlocale       005fd1de f   msvcrt:MSVCR100.dll
 0002:001541e4       __invoke_watson_if_error   005fd1e4 f i msvcrt:fp8.obj
 0002:0015420d       __setdefaultprecision      005fd20d f   msvcrt:fp8.obj
 0002:00154240       ___setusermatherr          005fd240 f   msvcrt:MSVCR100.dll
 0002:00154246       __matherr                  005fd246 f   msvcrt:merr.obj
 0002:00154249       __setargv                  005fd249 f   msvcrt:dllargv.obj
 0002:0015424c       ___set_app_type            005fd24c f   msvcrt:MSVCR100.dll
 0002:00154252       ___security_init_cookie    005fd252 f   msvcrt:gs_support.obj
 0002:00154314       __crt_debugger_hook        005fd314 f   msvcrt:MSVCR100.dll
 0002:0015431a       ?terminate@@YAXXZ          005fd31a f   msvcrt:MSVCR100.dll
 0002:00154320       __unlock                   005fd320 f   msvcrt:MSVCR100.dll
 0002:00154326       ___dllonexit               005fd326 f   msvcrt:MSVCR100.dll
 0002:0015432c       __lock                     005fd32c f   msvcrt:MSVCR100.dll
 0002:00154332       __except_handler4_common   005fd332 f   msvcrt:MSVCR100.dll
 0002:00154338       __invoke_watson            005fd338 f   msvcrt:MSVCR100.dll
 0002:0015433e       __controlfp_s              005fd33e f   msvcrt:MSVCR100.dll
 0002:00154344       _FormatMessageA@28         005fd344 f   kernel32:KERNEL32.dll
 0002:0015434a       _GetVersionExA@4           005fd34a f   kernel32:KERNEL32.dll
 0002:00154350       _FreeLibrary@4             005fd350 f   kernel32:KERNEL32.dll
 0002:00154356       _GetProcAddress@8          005fd356 f   kernel32:KERNEL32.dll
 0002:0015435c       _LoadLibraryA@4            005fd35c f   kernel32:KERNEL32.dll
 0002:00154362       _GetTempPathA@8            005fd362 f   kernel32:KERNEL32.dll
 0002:00154368       _GlobalUnlock@4            005fd368 f   kernel32:KERNEL32.dll
 0002:0015436e       _GlobalSize@4              005fd36e f   kernel32:KERNEL32.dll
 0002:00154374       _GlobalLock@4              005fd374 f   kernel32:KERNEL32.dll
 0002:0015437a       _GlobalMemoryStatus@4      005fd37a f   kernel32:KERNEL32.dll
 0002:00154380       _GetLastError@0            005fd380 f   kernel32:KERNEL32.dll
 0002:00154386       _CreateDirectoryA@8        005fd386 f   kernel32:KERNEL32.dll
 0002:0015438c       _Sleep@4                   005fd38c f   kernel32:KERNEL32.dll
 0002:00154392       _GlobalAlloc@8             005fd392 f   kernel32:KERNEL32.dll
 0002:00154398       _GetCurrentProcessId@0     005fd398 f   kernel32:KERNEL32.dll
 0002:0015439e       _VirtualProtect@16         005fd39e f   kernel32:KERNEL32.dll
 0002:001543a4       _VirtualAlloc@16           005fd3a4 f   kernel32:KERNEL32.dll
 0002:001543aa       _VirtualFree@12            005fd3aa f   kernel32:KERNEL32.dll
 0002:001543b0       _InterlockedExchange@8     005fd3b0 f   kernel32:KERNEL32.dll
 0002:001543b6       _InterlockedCompareExchange@12 005fd3b6 f   kernel32:KERNEL32.dll
 0002:001543bc       _HeapSetInformation@16     005fd3bc f   kernel32:KERNEL32.dll
 0002:001543c2       _GetStartupInfoW@4         005fd3c2 f   kernel32:KERNEL32.dll
 0002:001543c8       _EncodePointer@4           005fd3c8 f   kernel32:KERNEL32.dll
 0002:001543ce       _IsProcessorFeaturePresent@4 005fd3ce f   kernel32:KERNEL32.dll
 0002:001543d4       _TerminateProcess@8        005fd3d4 f   kernel32:KERNEL32.dll
 0002:001543da       _GetCurrentProcess@0       005fd3da f   kernel32:KERNEL32.dll
 0002:001543e0       _UnhandledExceptionFilter@4 005fd3e0 f   kernel32:KERNEL32.dll
 0002:001543e6       _SetUnhandledExceptionFilter@4 005fd3e6 f   kernel32:KERNEL32.dll
 0002:001543ec       _IsDebuggerPresent@0       005fd3ec f   kernel32:KERNEL32.dll
 0002:001543f2       _DecodePointer@4           005fd3f2 f   kernel32:KERNEL32.dll
 0002:001543f8       _QueryPerformanceCounter@4 005fd3f8 f   kernel32:KERNEL32.dll
 0002:001543fe       _GetTickCount@0            005fd3fe f   kernel32:KERNEL32.dll
 0002:00154404       _GetCurrentThreadId@0      005fd404 f   kernel32:KERNEL32.dll
 0002:0015440a       _GetSystemTimeAsFileTime@4 005fd40a f   kernel32:KERNEL32.dll
 0002:00154410       _main                      005fd410 f   SDLmain:SDL_win32_main.obj
 0002:00154760       _WinMain@16                005fd760 f   SDLmain:SDL_win32_main.obj
 0002:00154d4e       _SDL_SetModuleHandle       005fdd4e f   SDL:SDL.dll
 0002:00154d54       _SDL_strlcpy               005fdd54 f   SDL:SDL.dll
 0002:00154d5a       _SDL_getenv                005fdd5a f   SDL:SDL.dll
 0002:00154d60       _SDL_strlcat               005fdd60 f   SDL:SDL.dll
 0002:00154d66       _strrchr                   005fdd66 f   msvcrt:MSVCR100.dll
 0002:00154d6c       _fgetc                     005fdd6c f   msvcrt:MSVCR100.dll
 0002:00154d72       _setbuf                    005fdd72 f   msvcrt:MSVCR100.dll
 0002:00154d78       _freopen                   005fdd78 f   msvcrt:MSVCR100.dll
 0002:00154d7e       _GetModuleHandleA@4        005fdd7e f   kernel32:KERNEL32.dll
 0002:00154d84       _GetCommandLineA@0         005fdd84 f   kernel32:KERNEL32.dll
 0002:00154d8a       _GetModuleFileNameA@12     005fdd8a f   kernel32:KERNEL32.dll
 0003:00000000       ___xc_a                    005ff000     msvcrt:cinitexe.obj
 0003:00000208       ___xc_z                    005ff208     msvcrt:cinitexe.obj
 0003:0000030c       ___xi_a                    005ff30c     msvcrt:cinitexe.obj
 0003:0000071c       ___xi_z                    005ff71c     msvcrt:cinitexe.obj
 0003:0000083c       ??_C@_04NPHJJIEH@movi?$AA@ 005ff83c     cl_avi.obj
 0003:00000844       ??_C@_04IKKCEPHI@auds?$AA@ 005ff844     cl_avi.obj
 0003:0000084c       ??_C@_04HCANFCJ@strf?$AA@  005ff84c     cl_avi.obj
 0003:00000854       ??_C@_04LOJDNLDB@MJPG?$AA@ 005ff854     cl_avi.obj
 0003:0000085c       ??_C@_04ECKNOMMN@vids?$AA@ 005ff85c     cl_avi.obj
 0003:00000864       ??_C@_04JJKDPIKH@strh?$AA@ 005ff864     cl_avi.obj
 0003:0000086c       ??_C@_04PNMPDNKD@strl?$AA@ 005ff86c     cl_avi.obj
 0003:00000874       ??_C@_04DJPJLIFP@avih?$AA@ 005ff874     cl_avi.obj
 0003:0000087c       ??_C@_04LKOGMMKP@hdrl?$AA@ 005ff87c     cl_avi.obj
 0003:00000884       ??_C@_04PCOPKCKE@LIST?$AA@ 005ff884     cl_avi.obj
 0003:0000088c       ??_C@_04FIOHLLII@AVI?5?$AA@ 005ff88c     cl_avi.obj
 0003:00000894       ??_C@_04EPCGJKAP@RIFF?$AA@ 005ff894     cl_avi.obj
 0003:0000089c       ??_C@_0CD@JKLJANBM@ERROR?3?5Top?5of?5chunkstack?5breache@ 005ff89c     cl_avi.obj
 0003:000008c8       ??_C@_0CG@JLLBIHM@ERROR?3?5Bottom?5of?5chunkstack?5brea@ 005ff8c8     cl_avi.obj
 0003:000008f8       ??_C@_04IFAEEDNA@idx1?$AA@ 005ff8f8     cl_avi.obj
 0003:00000900       ??_C@_0FP@JNLIBJIF@?$FO3WARNING?3?5Audio?5capture?5is?5not?5@ 005ff900     cl_avi.obj
 0003:00000974       ??_C@_0DM@CMHDENGO@?$FO3WARNING?3?5Audio?5format?5of?5?$CFd?5bi@ 005ff974     cl_avi.obj
 0003:000009bc       ??_C@_09DMENLDDC@s_backend?$AA@ 005ff9bc     cl_avi.obj
 0003:000009c8       ??_C@_06HMENLHCD@OpenAL?$AA@ 005ff9c8     cl_avi.obj
 0003:000009d0       ??_C@_0M@NLIFPOIG@s_initsound?$AA@ 005ff9d0     cl_avi.obj
 0003:000009e0       ??_C@_0EL@OKFIPMAO@?$FO3WARNING?3?5cl_aviFrameRate?5is?5no@ 005ff9e0     cl_avi.obj
 0003:00000a3c       ??_C@_0BL@DHNEJPED@afd?4width?5?$CK?5afd?4height?5?$CK?54?$AA@ 005ffa3c     cl_avi.obj
 0003:00000a5c       ??_C@_0DM@PIMHMKEB@c?3?2web?2trepdev?2trepidation?2trep?9@ 005ffa5c     cl_avi.obj
 0003:00000aa8       __real@412e848000000000    005ffaa8     cl_avi.obj
 0003:00000ab4       ??_C@_0N@MCBKGNLJ@?$CFs?4index?4dat?$AA@ 005ffab4     cl_avi.obj
 0003:00000ac4       ??_C@_0CA@JOCHJJCB@?$FO1cl_aviFrameRate?5must?5be?5?$DO?$DN?51?6?$AA@ 005ffac4     cl_avi.obj
 0003:00000aec       ??_C@_0BK@JFFFEJAN@Failed?5to?5write?5avi?5file?6?$AA@ 005ffaec     cl_avi.obj
 0003:00000b0c       ??_C@_04GJNJBDFN@00dc?$AA@ 005ffb0c     cl_avi.obj
 0003:00000b14       ??_C@_03CCMDOIHN@?$CFs_?$AA@ 005ffb14     cl_avi.obj
 0003:00000b18       ??_C@_04NGBOFIFA@01wb?$AA@ 005ffb18     cl_avi.obj
 0003:00000b20       ??_C@_0DI@HIKCIPDJ@?$FO3WARNING?3?5Audio?5capture?5buffer?5@ 005ffb20     cl_avi.obj
 0003:00000b64       ??_C@_0BK@HBIIDIAI@Wrote?5?$CFd?3?$CFd?5frames?5to?5?$CFs?6?$AA@ 005ffb64     cl_avi.obj
 0003:00000b84       ??_C@_0BI@GFBIMDFO@CL_GetUserCmd?3?5?$CFi?5?$DO?$DN?5?$CFi?$AA@ 005ffb84     cl_cgame.obj
 0003:00000ba0       ??_C@_0CB@KNGFLOML@CL_GetParseEntityState?3?5?$CFi?5?$DO?$DN?5?$CFi@ 005ffba0     cl_cgame.obj
 0003:00000bc8       ??_C@_0CN@NFLCIAJJ@CL_GetSnapshot?3?5truncated?5?$CFi?5ent@ 005ffbc8     cl_cgame.obj
 0003:00000c00       ??_C@_0DI@DMJPFKEN@CL_GetSnapshot?3?5snapshotNumber?5?$DO@ 005ffc00     cl_cgame.obj
 0003:00000c44       ??_C@_02DKCKIIND@?$CFs?$AA@ 005ffc44     cl_cgame.obj
 0003:00000c48       ??_C@_0BN@EHLDLIPD@MAX_GAMESTATE_CHARS?5exceeded?$AA@ 005ffc48     cl_cgame.obj
 0003:00000c6c       ??_C@_0CB@GKLEHILN@configstring?5?$DO?5MAX_CONFIGSTRINGS@ 005ffc6c     cl_cgame.obj
 0003:00000c94       ??_C@_0DC@GKPOBHJK@wait?5?$DL?5wait?5?$DL?5wait?5?$DL?5wait?5?$DL?5scre@ 005ffc94     cl_cgame.obj
 0003:00000cd0       ??_C@_0BA@GNMFKLDC@clientLevelShot?$AA@ 005ffcd0     cl_cgame.obj
 0003:00000ce4       ??_C@_0M@NBIMEKNE@map_restart?$AA@ 005ffce4     cl_cgame.obj
 0003:00000cf4       ??_C@_02EODNHJKB@cs?$AA@   005ffcf4     cl_cgame.obj
 0003:00000cf8       ??_C@_01BJJEKLCA@?$CC?$AA@ 005ffcf8     cl_cgame.obj
 0003:00000cfc       ??_C@_04EIHLPGFK@bcs2?$AA@ 005ffcfc     cl_cgame.obj
 0003:00000d04       ??_C@_0BN@DLAPMAAP@bcs?5exceeded?5BIG_INFO_STRING?$AA@ 005ffd04     cl_cgame.obj
 0003:00000d28       ??_C@_04GDFGKFJJ@bcs1?$AA@ 005ffd28     cl_cgame.obj
 0003:00000d30       ??_C@_09PHKADKGH@cs?5?$CFs?5?$CC?$CFs?$AA@ 005ffd30     cl_cgame.obj
 0003:00000d3c       ??_C@_04HKENJENI@bcs0?$AA@ 005ffd3c     cl_cgame.obj
 0003:00000d44       ??_C@_0BF@PHOEELOB@Server?5disconnected?6?$AA@ 005ffd44     cl_cgame.obj
 0003:00000d60       ??_C@_0BJ@OAHNJMO@Server?5disconnected?5?9?5?$CFs?$AA@ 005ffd60     cl_cgame.obj
 0003:00000d80       ??_C@_0L@KKPFIJOL@disconnect?$AA@ 005ffd80     cl_cgame.obj
 0003:00000d90       ??_C@_0BI@JLIEJCCP@serverCommand?3?5?$CFi?5?3?5?$CFs?6?$AA@ 005ffd90     cl_cgame.obj
 0003:00000dac       ??_C@_0DG@FOCFKOFN@CL_GetServerCommand?3?5requested?5a@ 005ffdac     cl_cgame.obj
 0003:00000dec       ??_C@_0DH@KEKKOLLD@CL_GetServerCommand?3?5a?5reliable?5@ 005ffdec     cl_cgame.obj
 0003:00000e30       ??_C@_0BL@JDECGIEG@Bad?5cgame?5system?5trap?3?5?$CFld?$AA@ 005ffe30     cl_cgame.obj
 0003:00000e50       ??_C@_13COJANIEC@?$AA0?$AA?$AA@ 005ffe50     cl_cgame.obj
 0003:00000e58       ??_C@_1HM@HLDAGFGA@?$AAc?$AA?3?$AA?2?$AAw?$AAe?$AAb?$AA?2?$AAt?$AAr?$AAe?$AAp?$AAd?$AAe?$AAv?$AA?2?$AAt?$AAr?$AAe?$AAp?$AAi?$AAd?$AAa?$AAt?$AAi?$AAo?$AAn?$AA?2?$AAt?$AAr?$AAe?$AAp?$AA?9@ 005ffe58     cl_cgame.obj
 0003:00000eec       ??_C@_0BN@IDOJBIPH@CL_InitCGame?3?5?$CF5?42f?5seconds?6?$AA@ 005ffeec     cl_cgame.obj
 0003:00000f10       __real@408f400000000000    005fff10     cl_cgame.obj
 0003:00000f1c       ??_C@_0BK@DNNCDOHF@VM_Create?5on?5cgame?5failed?$AA@ 005fff1c     cl_cgame.obj
 0003:00000f3c       ??_C@_05DAFANPAC@cgame?$AA@ 005fff3c     cl_cgame.obj
 0003:00000f44       ??_C@_08HKFBPMGE@vm_cgame?$AA@ 005fff44     cl_cgame.obj
 0003:00000f50       ??_C@_0M@DKNJHPLK@maps?1?$CFs?4bsp?$AA@ 005fff50     cl_cgame.obj
 0003:00000f60       ??_C@_07KMNEBLH@mapname?$AA@ 005fff60     cl_cgame.obj
 0003:00000f6c       ??_C@_03JLNFKLOC@?$CFi?5?$AA@ 005fff6c     cl_cgame.obj
 0003:00000f70       __real@3ff0000000000000    005fff70     cl_cgame.obj
 0003:00000f80       __real@0000000000000000    005fff80     cl_cgame.obj
 0003:00000f8c       ??_C@_07CLMNDOPI@?$DMFAST?$DO?5?$AA@ 005fff8c     cl_cgame.obj
 0003:00000f98       ??_C@_08DFNEKPFP@?$DMRESET?$DO?5?$AA@ 005fff98     cl_cgame.obj
 0003:00000fa4       ??_C@_0BC@EECIIJFD@cl_voipSendTarget?$AA@ 005fffa4     cl_cgame.obj
 0003:00000fbc       ??_C@_03NFKEKGGK@all?$AA@  005fffbc     cl_cgame.obj
 0003:00000fc0       ??_C@_04EEDDHDIB@voip?$AA@ 005fffc0     cl_cgame.obj
 0003:00000fc8       __real@3f800000            005fffc8     cl_cgame.obj
 0003:00000fcc       ??_C@_0N@JKAMCJJO@activeAction?$AA@ 005fffcc     cl_cgame.obj
 0003:00000fdb       ??_C@_00CNPNBAHC@?$AA@     005fffdb     cl_cgame.obj
 0003:00000fdc       ??_C@_0CL@NEIPEDIE@cl?4snap?4serverTime?5?$DM?5cl?4oldFrame@ 005fffdc     cl_cgame.obj
 0003:00001010       ??_C@_0CA@FIEOEIEM@CL_SetCGameTime?3?5?$CBcl?4snap?4valid?$AA@ 00600010     cl_cgame.obj
 0003:00001038       ??_C@_0BL@ODCKOIHE@trFMV?3?3stop?$CI?$CJ?0?5closing?5?$CFs?6?$AA@ 00600038     cl_cin.obj
 0003:00001058       ??_C@_03OFAPEBGM@?$CFs?6?$AA@ 00600058     cl_cin.obj
 0003:0000105c       ??_C@_07MCHHMPMB@nextmap?$AA@ 0060005c     cl_cin.obj
 0003:00001068       ??_C@_0BE@JMMOLKGP@finished?5cinematic?6?$AA@ 00600068     cl_cin.obj
 0003:00001080       __real@4059000000000000    00600080     cl_cin.obj
 0003:00001090       __real@4008000000000000    00600090     cl_cin.obj
 0003:0000109c       ??_C@_0CA@PBEAEEHD@roq_size?$DO65536?$HM?$HMroq_id?$DN?$DN0x1084?6?$AA@ 0060009c     cl_cin.obj
 0003:000010c4       ??_C@_0DH@BGGOKGDB@HACK?3?5approxmimating?5cinematic?5f@ 006000c4     cl_cin.obj
 0003:00001108       ??_C@_0BP@ONKNDCKB@trFMV?3?3play?$CI?$CJ?0?5invalid?5RoQ?5ID?6?$AA@ 00600108     cl_cin.obj
 0003:00001130       ??_C@_0BL@NOJKJAEE@trFMV?3?3play?$CI?$CJ?0?5playing?5?$CFs?6?$AA@ 00600130     cl_cin.obj
 0003:00001150       ??_C@_0BG@CHLIAINM@play?$CI?$CFs?$CJ?0?5ROQSize?$DM?$DN0?6?$AA@ 00600150     cl_cin.obj
 0003:0000116c       ??_C@_0BJ@PGHMMNHI@SCR_PlayCinematic?$CI?5?$CFs?5?$CJ?6?$AA@ 0060016c     cl_cin.obj
 0003:0000118c       ??_C@_08KLIMONEL@video?1?$CFs?$AA@ 0060018c     cl_cin.obj
 0003:00001198       ??_C@_01KICIPPFI@?2?$AA@   00600198     cl_cin.obj
 0003:0000119c       ??_C@_01KMDKNFGN@?1?$AA@   0060019c     cl_cin.obj
 0003:000011a0       ??_C@_0BO@EBCDHAOB@CIN_HandleForVideo?3?5none?5free?$AA@ 006001a0     cl_cin.obj
 0003:000011c8       __real@4040000000000000    006001c8     cl_cin.obj
 0003:000011d4       __real@41bad1e1            006001d4     cl_cin.obj
 0003:000011d8       __real@4138331e            006001d8     cl_cin.obj
 0003:000011dc       __real@423574bc            006001dc     cl_cin.obj
 0003:000011e0       __real@4264d0e5            006001e0     cl_cin.obj
 0003:000011e4       ??_C@_07IAFCMJGF@end?4roq?$AA@ 006001e4     cl_cin.obj
 0003:000011f0       ??_C@_0M@DDLBHMNL@demoend?4roq?$AA@ 006001f0     cl_cin.obj
 0003:00001200       ??_C@_0BE@DDELHFMC@CL_PlayCinematic_f?6?$AA@ 00600200     cl_cin.obj
 0003:00001218       ??_C@_01EEMJAFIK@?6?$AA@   00600218     cl_console.obj
 0003:0000121c       ??_C@_0BH@DBPHKMFK@ERROR?3?5couldn?8t?5open?4?6?$AA@ 0060021c     cl_console.obj
 0003:00001238       ??_C@_0BM@HNBBHJDG@Dumped?5console?5text?5to?5?$CFs?4?6?$AA@ 00600238     cl_console.obj
 0003:0000125c       ??_C@_0BL@FAHDMBMK@usage?3?5condump?5?$DMfilename?$DO?6?$AA@ 0060025c     cl_console.obj
 0003:0000127c       ??_C@_03CLFHJCDC@txt?$AA@  0060027c     cl_console.obj
 0003:00001280       ??_C@_07NENKHFEO@condump?$AA@ 00600280     cl_console.obj
 0003:0000128c       ??_C@_05MEHLAELG@clear?$AA@ 0060028c     cl_console.obj
 0003:00001294       ??_C@_0N@NFNJCLFL@messagemode4?$AA@ 00600294     cl_console.obj
 0003:000012a4       ??_C@_0N@JKJILNJM@messagemode3?$AA@ 006002a4     cl_console.obj
 0003:000012b4       ??_C@_0N@IDIDIMNN@messagemode2?$AA@ 006002b4     cl_console.obj
 0003:000012c4       ??_C@_0M@JINOELJH@messagemode?$AA@ 006002c4     cl_console.obj
 0003:000012d4       ??_C@_0O@JJBKLGLG@toggleconsole?$AA@ 006002d4     cl_console.obj
 0003:000012e4       ??_C@_0N@MGJFCGAP@scr_conspeed?$AA@ 006002e4     cl_console.obj
 0003:000012f4       ??_C@_0P@INMLCMIF@con_notifytime?$AA@ 006002f4     cl_console.obj
 0003:00001308       ??_C@_01EKENIIDA@3?$AA@    00600308     cl_console.obj
 0003:0000130c       ??_C@_0N@BFMOJDMP@?$FLskipnotify?$FN?$AA@ 0060030c     cl_console.obj
 0003:00001320       __real@4030000000000000    00600320     cl_console.obj
 0003:00001330       __real@4020000000000000    00600330     cl_console.obj
 0003:0000133c       ??_C@_04HKLMIPDN@say?3?$AA@ 0060033c     cl_console.obj
 0003:00001344       ??_C@_09LMMIOJG@say_team?3?$AA@ 00600344     cl_console.obj
 0003:00001350       ??_C@_0DA@POKPOAC@Trepidation?512?920?92011?5Dev?5Build@ 00600350     cl_console.obj
 0003:0000138c       __real@40000000            0060038c     cl_console.obj
 0003:00001390       __real@44200000            00600390     cl_console.obj
 0003:00001398       __real@407e000000000000    00600398     cl_console.obj
 0003:000013a4       __real@00000000            006003a4     cl_console.obj
 0003:000013a8       __real@3f50624dd2f1a9fc    006003a8     cl_console.obj
 0003:000013b4       __real@3f000000            006003b4     cl_console.obj
 0003:000013b8       ??_C@_03JLOMOCCD@OK?6?$AA@ 006003b8     cl_curl.obj
 0003:000013bc       ??_C@_0CE@KFAGOMGB@FAIL?5One?5or?5more?5symbols?5not?5fou@ 006003bc     cl_curl.obj
 0003:000013e8       ??_C@_0BE@IEBCKPDC@curl_multi_strerror?$AA@ 006003e8     cl_curl.obj
 0003:00001400       ??_C@_0BF@FGMOLPHI@curl_multi_info_read?$AA@ 00600400     cl_curl.obj
 0003:0000141c       ??_C@_0BD@DOGHLFO@curl_multi_cleanup?$AA@ 0060041c     cl_curl.obj
 0003:00001434       ??_C@_0BD@IKCGPLIK@curl_multi_perform?$AA@ 00600434     cl_curl.obj
 0003:0000144c       ??_C@_0BB@BOKHLLIF@curl_multi_fdset?$AA@ 0060044c     cl_curl.obj
 0003:00001460       ??_C@_0BJ@GJJJLLNK@curl_multi_remove_handle?$AA@ 00600460     cl_curl.obj
 0003:00001480       ??_C@_0BG@OGEDNJFG@curl_multi_add_handle?$AA@ 00600480     cl_curl.obj
 0003:0000149c       ??_C@_0BA@FOKECKLE@curl_multi_init?$AA@ 0060049c     cl_curl.obj
 0003:000014b0       ??_C@_0BD@KPKGILJG@curl_easy_strerror?$AA@ 006004b0     cl_curl.obj
 0003:000014c8       ??_C@_0BA@DMEGGPLF@curl_easy_reset?$AA@ 006004c8     cl_curl.obj
 0003:000014dc       ??_C@_0BE@BBFJOELK@curl_easy_duphandle?$AA@ 006004dc     cl_curl.obj
 0003:000014f4       ??_C@_0BC@DJIKIPIF@curl_easy_getinfo?$AA@ 006004f4     cl_curl.obj
 0003:0000150c       ??_C@_0BC@DJIENOE@curl_easy_cleanup?$AA@ 0060050c     cl_curl.obj
 0003:00001524       ??_C@_0BC@IKFIMNDA@curl_easy_perform?$AA@ 00600524     cl_curl.obj
 0003:0000153c       ??_C@_0BB@IMIHCCIC@curl_easy_setopt?$AA@ 0060053c     cl_curl.obj
 0003:00001550       ??_C@_0P@JALKPFCF@curl_easy_init?$AA@ 00600550     cl_curl.obj
 0003:00001564       ??_C@_0N@IKNHMHFP@curl_version?$AA@ 00600564     cl_curl.obj
 0003:00001574       ??_C@_0BA@DMPNHFKM@Loading?5?$CC?$CFs?$CC?4?4?4?$AA@ 00600574     cl_curl.obj
 0003:00001588       ??_C@_0BJ@GCDJABPA@Loaded?5symbol?5?$CFs?5?$CI0x?$CFp?$CJ?6?$AA@ 00600588     cl_curl.obj
 0003:000015a8       ??_C@_0BG@LIJCHND@Can?8t?5load?5symbol?5?$CFs?6?$AA@ 006005a8     cl_curl.obj
 0003:000015c4       ??_C@_0DC@MNDOGBPH@CL_cURL_BeginDownload?3?5qcurl_mul@ 006005c4     cl_curl.obj
 0003:00001600       ??_C@_05DNIIFBMG@?$CFs?5?$CFs?$AA@ 00600600     cl_curl.obj
 0003:00001608       ??_C@_09JGOPDHJJ@ioQ3?3?1?1?$CFs?$AA@ 00600608     cl_curl.obj
 0003:00001614       ??_C@_0DG@PKBKPHHP@CL_cURL_BeginDownload?3?5failed?5to@ 00600614     cl_curl.obj
 0003:00001654       ??_C@_0DB@NKGLCGJG@CL_cURL_BeginDownload?3?5qcurl_eas@ 00600654     cl_curl.obj
 0003:00001690       ??_C@_0BA@CHCCPCBI@cl_downloadTime?$AA@ 00600690     cl_curl.obj
 0003:000016a4       ??_C@_0BB@FAHDFBEE@cl_downloadCount?$AA@ 006006a4     cl_curl.obj
 0003:000016b8       ??_C@_0BA@IMGLJLPN@cl_downloadSize?$AA@ 006006b8     cl_curl.obj
 0003:000016cc       ??_C@_01GBGANLPD@0?$AA@    006006cc     cl_curl.obj
 0003:000016d0       ??_C@_0BA@MIMGFFNE@cl_downloadName?$AA@ 006006d0     cl_curl.obj
 0003:000016e4       ??_C@_06IHDMMOPO@?$CFs?4tmp?$AA@ 006006e4     cl_curl.obj
 0003:000016f0       ??_C@_0FM@PFBOCBPP@?$CK?$CK?$CK?$CK?$CK?5CL_cURL_BeginDownload?5?$CK?$CK?$CK?$CK@ 006006f0     cl_curl.obj
 0003:00001760       ??_C@_08OKAPGOJO@URL?3?5?$CFs?6?$AA@ 00600760     cl_curl.obj
 0003:0000176c       ??_C@_0CF@NBBCMGNJ@Download?5Error?3?5?$CFs?5Code?3?5?$CFld?5URL@ 0060076c     cl_curl.obj
 0003:00001798       ??_C@_0BP@KKNANIBM@Three?5keys?5down?5for?5a?5button?$CB?6?$AA@ 00600798     cl_input.obj
 0003:000017c0       ??_C@_0M@GGNKKIEO@cl_voipSend?$AA@ 006007c0     cl_input.obj
 0003:000017d0       ??_C@_01HIHLOKLC@1?$AA@    006007d0     cl_input.obj
 0003:000017d8       __real@3f76800000000000    006007d8     cl_input.obj
 0003:000017e4       ??_C@_0BO@PJHINAKI@CL_JoystickEvent?3?5bad?5axis?5?$CFi?$AA@ 006007e4     cl_input.obj
 0003:00001808       ??_C@_0CK@JHEDONIJ@ratex?3?5?$CFf?0?5ratey?3?5?$CFf?0?5powx?3?5?$CFf?0?5@ 00600808     cl_input.obj
 0003:0000183c       ??_C@_0CA@GMEICKE@rate?3?5?$CFf?0?5accelSensitivity?3?5?$CFf?6?$AA@ 0060083c     cl_input.obj
 0003:00001868       __real@3fe0000000000000    00600868     cl_input.obj
 0003:00001878       __real@4076800000000000    00600878     cl_input.obj
 0003:00001888       __real@40f0000000000000    00600888     cl_input.obj
 0003:00001898       __real@4056800000000000    00600898     cl_input.obj
 0003:000018a4       ??_C@_03BDPCEMGP@125?$AA@  006008a4     cl_input.obj
 0003:000018a8       ??_C@_0O@FAEBFPEP@cl_maxpackets?$AA@ 006008a8     cl_input.obj
 0003:000018b8       ??_C@_02IHCGGLPM@15?$AA@   006008b8     cl_input.obj
 0003:000018bc       ??_C@_0DK@ONGDGOPA@WARNING?3?5?$CD462?5unsent?5fragments?5?$CI@ 006008bc     cl_input.obj
 0003:00001904       ??_C@_04FMMAFMGP@?$CI?$CFi?$CJ?$AA@ 00600904     cl_input.obj
 0003:0000190c       ??_C@_04CGFJFPFD@none?$AA@ 0060090c     cl_input.obj
 0003:00001914       ??_C@_09NBNKIDFG@crosshair?$AA@ 00600914     cl_input.obj
 0003:00001920       ??_C@_02DPKJAMEF@?$CFd?$AA@ 00600920     cl_input.obj
 0003:00001924       ??_C@_08MANLKGDL@attacker?$AA@ 00600924     cl_input.obj
 0003:00001930       ??_C@_0BF@IEGIFLHJ@MAX_PACKET_USERCMDS?6?$AA@ 00600930     cl_input.obj
 0003:0000194c       ??_C@_01BMBHCPLG@5?$AA@    0060094c     cl_input.obj
 0003:00001950       ??_C@_0N@HCACMDEB@cl_packetdup?$AA@ 00600950     cl_input.obj
 0003:00001960       ??_C@_02KHOJGJKF@?4?5?$AA@ 00600960     cl_input.obj
 0003:00001964       ??_C@_0N@PJOLPAGC@cl_debugMove?$AA@ 00600964     cl_input.obj
 0003:00001974       ??_C@_0L@BPLIDNFG@cl_nodelta?$AA@ 00600974     cl_input.obj
 0003:00001984       ??_C@_0M@KAKCCFBK@?9voiprecord?$AA@ 00600984     cl_input.obj
 0003:00001994       ??_C@_0M@EPJPIAPK@?$CLvoiprecord?$AA@ 00600994     cl_input.obj
 0003:000019a4       ??_C@_06ICJGCHDB@?9mlook?$AA@ 006009a4     cl_input.obj
 0003:000019ac       ??_C@_06OBEGBCAL@?$CLmlook?$AA@ 006009ac     cl_input.obj
 0003:000019b4       ??_C@_09OGHPIOCM@?9button14?$AA@ 006009b4     cl_input.obj
 0003:000019c0       ??_C@_09OLGBPOGL@?$CLbutton14?$AA@ 006009c0     cl_input.obj
 0003:000019cc       ??_C@_09KJDOBIOL@?9button13?$AA@ 006009cc     cl_input.obj
 0003:000019d8       ??_C@_09KECAGIKM@?$CLbutton13?$AA@ 006009d8     cl_input.obj
 0003:000019e4       ??_C@_09LACFCJKK@?9button12?$AA@ 006009e4     cl_input.obj
 0003:000019f0       ??_C@_09LNDLFJON@?$CLbutton12?$AA@ 006009f0     cl_input.obj
 0003:000019fc       ??_C@_09JLAIHKGJ@?9button11?$AA@ 006009fc     cl_input.obj
 0003:00001a08       ??_C@_09JGBGAKCO@?$CLbutton11?$AA@ 00600a08     cl_input.obj
 0003:00001a14       ??_C@_09ICBDELCI@?9button10?$AA@ 00600a14     cl_input.obj
 0003:00001a20       ??_C@_09IPANDLGP@?$CLbutton10?$AA@ 00600a20     cl_input.obj
 0003:00001a2c       ??_C@_08PFLPFDPC@?9button9?$AA@ 00600a2c     cl_input.obj
 0003:00001a38       ??_C@_08IGKFCKHI@?$CLbutton9?$AA@ 00600a38     cl_input.obj
 0003:00001a44       ??_C@_08OMKEGCLD@?9button8?$AA@ 00600a44     cl_input.obj
 0003:00001a50       ??_C@_08JPLOBLDJ@?$CLbutton8?$AA@ 00600a50     cl_input.obj
 0003:00001a5c       ??_C@_08GLDMHOHM@?9button7?$AA@ 00600a5c     cl_input.obj
 0003:00001a68       ??_C@_08BICGAHPG@?$CLbutton7?$AA@ 00600a68     cl_input.obj
 0003:00001a74       ??_C@_08HCCHEPDN@?9button6?$AA@ 00600a74     cl_input.obj
 0003:00001a80       ??_C@_08BDNDGLH@?$CLbutton6?$AA@ 00600a80     cl_input.obj
 0003:00001a8c       ??_C@_08FJAKBMPO@?9button5?$AA@ 00600a8c     cl_input.obj
 0003:00001a98       ??_C@_08CKBAGFHE@?$CLbutton5?$AA@ 00600a98     cl_input.obj
 0003:00001aa4       ??_C@_08EABBCNLP@?9button4?$AA@ 00600aa4     cl_input.obj
 0003:00001ab0       ??_C@_08DDALFEDF@?$CLbutton4?$AA@ 00600ab0     cl_input.obj
 0003:00001abc       ??_C@_08PFALLHI@?9button3?$AA@ 00600abc     cl_input.obj
 0003:00001ac8       ??_C@_08HMEKMCPC@?$CLbutton3?$AA@ 00600ac8     cl_input.obj
 0003:00001ad4       ??_C@_08BGELIKDJ@?9button2?$AA@ 00600ad4     cl_input.obj
 0003:00001ae0       ??_C@_08GFFBPDLD@?$CLbutton2?$AA@ 00600ae0     cl_input.obj
 0003:00001aec       ??_C@_08DNGGNJPK@?9button1?$AA@ 00600aec     cl_input.obj
 0003:00001af8       ??_C@_08EOHMKAHA@?$CLbutton1?$AA@ 00600af8     cl_input.obj
 0003:00001b04       ??_C@_08CEHNOILL@?9button0?$AA@ 00600b04     cl_input.obj
 0003:00001b10       ??_C@_08FHGHJBDB@?$CLbutton0?$AA@ 00600b10     cl_input.obj
 0003:00001b1c       ??_C@_07GIMEOOL@?9attack?$AA@ 00600b1c     cl_input.obj
 0003:00001b28       ??_C@_07MAODEHGM@?$CLattack?$AA@ 00600b28     cl_input.obj
 0003:00001b34       ??_C@_06PLOIEHCE@?9speed?$AA@ 00600b34     cl_input.obj
 0003:00001b3c       ??_C@_06JIDIHCBO@?$CLspeed?$AA@ 00600b3c     cl_input.obj
 0003:00001b44       ??_C@_0L@LEKMOGAF@?9moveright?$AA@ 00600b44     cl_input.obj
 0003:00001b54       ??_C@_0L@FMBJCMEG@?$CLmoveright?$AA@ 00600b54     cl_input.obj
 0003:00001b64       ??_C@_09ICIDCGOI@?9moveleft?$AA@ 00600b64     cl_input.obj
 0003:00001b70       ??_C@_09IPJNFGKP@?$CLmoveleft?$AA@ 00600b70     cl_input.obj
 0003:00001b7c       ??_C@_07OBMFNJMJ@?9strafe?$AA@ 00600b7c     cl_input.obj
 0003:00001b88       ??_C@_07CHKKNAEO@?$CLstrafe?$AA@ 00600b88     cl_input.obj
 0003:00001b94       ??_C@_09KPLABCPP@?9lookdown?$AA@ 00600b94     cl_input.obj
 0003:00001ba0       ??_C@_09KCKOGCLI@?$CLlookdown?$AA@ 00600ba0     cl_input.obj
 0003:00001bac       ??_C@_07MHFKIPNM@?9lookup?$AA@ 00600bac     cl_input.obj
 0003:00001bb8       ??_C@_07BDFIGFL@?$CLlookup?$AA@ 00600bb8     cl_input.obj
 0003:00001bc4       ??_C@_05FJPPDLOK@?9back?$AA@ 00600bc4     cl_input.obj
 0003:00001bcc       ??_C@_05IPKGNIPH@?$CLback?$AA@ 00600bcc     cl_input.obj
 0003:00001bd4       ??_C@_08NJFEAJHL@?9forward?$AA@ 00600bd4     cl_input.obj
 0003:00001be0       ??_C@_08KKEOHAPB@?$CLforward?$AA@ 00600be0     cl_input.obj
 0003:00001bec       ??_C@_06LFFHCIPL@?9right?$AA@ 00600bec     cl_input.obj
 0003:00001bf4       ??_C@_06NGIHBNMB@?$CLright?$AA@ 00600bf4     cl_input.obj
 0003:00001bfc       ??_C@_05KCDMNOKJ@?9left?$AA@ 00600bfc     cl_input.obj
 0003:00001c04       ??_C@_05HEGFDNLE@?$CLleft?$AA@ 00600c04     cl_input.obj
 0003:00001c0c       ??_C@_09HAIHLONB@?9movedown?$AA@ 00600c0c     cl_input.obj
 0003:00001c18       ??_C@_09HNJJMOJG@?$CLmovedown?$AA@ 00600c18     cl_input.obj
 0003:00001c24       ??_C@_07OMACAGKI@?9moveup?$AA@ 00600c24     cl_input.obj
 0003:00001c30       ??_C@_07CKGNAPCP@?$CLmoveup?$AA@ 00600c30     cl_input.obj
 0003:00001c3c       ??_C@_0L@FHIBDANG@centerview?$AA@ 00600c3c     cl_input.obj
 0003:00001c4c       ??_C@_04LCJHBBIB@UNDO?$AA@ 00600c4c     cl_keys.obj
 0003:00001c54       ??_C@_04ENMEIJFP@EURO?$AA@ 00600c54     cl_keys.obj
 0003:00001c5c       ??_C@_05DABGNONF@POWER?$AA@ 00600c5c     cl_keys.obj
 0003:00001c64       ??_C@_04IILMDFMO@MENU?$AA@ 00600c64     cl_keys.obj
 0003:00001c6c       ??_C@_05IAGBLAKG@BREAK?$AA@ 00600c6c     cl_keys.obj
 0003:00001c74       ??_C@_09ELLGPGEI@SCROLLOCK?$AA@ 00600c74     cl_keys.obj
 0003:00001c80       ??_C@_06JAGJNLJI@SYSREQ?$AA@ 00600c80     cl_keys.obj
 0003:00001c88       ??_C@_05ECKPOFCN@PRINT?$AA@ 00600c88     cl_keys.obj
 0003:00001c90       ??_C@_04DOKPJKJF@HELP?$AA@ 00600c90     cl_keys.obj
 0003:00001c98       ??_C@_04KAFEECCN@MODE?$AA@ 00600c98     cl_keys.obj
 0003:00001ca0       ??_C@_07CENKFFLD@COMPOSE?$AA@ 00600ca0     cl_keys.obj
 0003:00001cac       ??_C@_07LHJOABLP@WINDOWS?$AA@ 00600cac     cl_keys.obj
 0003:00001cb8       ??_C@_08IEDONIPC@WORLD_95?$AA@ 00600cb8     cl_keys.obj
 0003:00001cc4       ??_C@_08JNCFOJLD@WORLD_94?$AA@ 00600cc4     cl_keys.obj
 0003:00001cd0       ??_C@_08NCGEHPHE@WORLD_93?$AA@ 00600cd0     cl_keys.obj
 0003:00001cdc       ??_C@_08MLHPEODF@WORLD_92?$AA@ 00600cdc     cl_keys.obj
 0003:00001ce8       ??_C@_08OAFCBNPG@WORLD_91?$AA@ 00600ce8     cl_keys.obj
 0003:00001cf4       ??_C@_08PJEJCMLH@WORLD_90?$AA@ 00600cf4     cl_keys.obj
 0003:00001d00       ??_C@_08CJEJPNMJ@WORLD_89?$AA@ 00600d00     cl_keys.obj
 0003:00001d0c       ??_C@_08DAFCMMII@WORLD_88?$AA@ 00600d0c     cl_keys.obj
 0003:00001d18       ??_C@_08LHMKNAEH@WORLD_87?$AA@ 00600d18     cl_keys.obj
 0003:00001d24       ??_C@_08KONBOBAG@WORLD_86?$AA@ 00600d24     cl_keys.obj
 0003:00001d30       ??_C@_08IFPMLCMF@WORLD_85?$AA@ 00600d30     cl_keys.obj
 0003:00001d3c       ??_C@_08JMOHIDIE@WORLD_84?$AA@ 00600d3c     cl_keys.obj
 0003:00001d48       ??_C@_08NDKGBFED@WORLD_83?$AA@ 00600d48     cl_keys.obj
 0003:00001d54       ??_C@_08MKLNCEAC@WORLD_82?$AA@ 00600d54     cl_keys.obj
 0003:00001d60       ??_C@_08OBJAHHMB@WORLD_81?$AA@ 00600d60     cl_keys.obj
 0003:00001d6c       ??_C@_08PIILEGIA@WORLD_80?$AA@ 00600d6c     cl_keys.obj
 0003:00001d78       ??_C@_08CCBFLKPE@WORLD_79?$AA@ 00600d78     cl_keys.obj
 0003:00001d84       ??_C@_08DLAOILLF@WORLD_78?$AA@ 00600d84     cl_keys.obj
 0003:00001d90       ??_C@_08LMJGJHHK@WORLD_77?$AA@ 00600d90     cl_keys.obj
 0003:00001d9c       ??_C@_08KFINKGDL@WORLD_76?$AA@ 00600d9c     cl_keys.obj
 0003:00001da8       ??_C@_08IOKAPFPI@WORLD_75?$AA@ 00600da8     cl_keys.obj
 0003:00001db4       ??_C@_08JHLLMELJ@WORLD_74?$AA@ 00600db4     cl_keys.obj
 0003:00001dc0       ??_C@_08NIPKFCHO@WORLD_73?$AA@ 00600dc0     cl_keys.obj
 0003:00001dcc       ??_C@_08MBOBGDDP@WORLD_72?$AA@ 00600dcc     cl_keys.obj
 0003:00001dd8       ??_C@_08OKMMDAPM@WORLD_71?$AA@ 00600dd8     cl_keys.obj
 0003:00001de4       ??_C@_08PDNHABLN@WORLD_70?$AA@ 00600de4     cl_keys.obj
 0003:00001df0       ??_C@_08CDNHNAMD@WORLD_69?$AA@ 00600df0     cl_keys.obj
 0003:00001dfc       ??_C@_08DKMMOBIC@WORLD_68?$AA@ 00600dfc     cl_keys.obj
 0003:00001e08       ??_C@_08LNFEPNEN@WORLD_67?$AA@ 00600e08     cl_keys.obj
 0003:00001e14       ??_C@_08KEEPMMAM@WORLD_66?$AA@ 00600e14     cl_keys.obj
 0003:00001e20       ??_C@_08IPGCJPMP@WORLD_65?$AA@ 00600e20     cl_keys.obj
 0003:00001e2c       ??_C@_08JGHJKOIO@WORLD_64?$AA@ 00600e2c     cl_keys.obj
 0003:00001e38       ??_C@_08NJDIDIEJ@WORLD_63?$AA@ 00600e38     cl_keys.obj
 0003:00001e44       ??_C@_08MACDAJAI@WORLD_62?$AA@ 00600e44     cl_keys.obj
 0003:00001e50       ??_C@_08OLAOFKML@WORLD_61?$AA@ 00600e50     cl_keys.obj
 0003:00001e5c       ??_C@_08PCBFGLIK@WORLD_60?$AA@ 00600e5c     cl_keys.obj
 0003:00001e68       ??_C@_08CBJBGOJK@WORLD_59?$AA@ 00600e68     cl_keys.obj
 0003:00001e74       ??_C@_08DIIKFPNL@WORLD_58?$AA@ 00600e74     cl_keys.obj
 0003:00001e80       ??_C@_08LPBCEDBE@WORLD_57?$AA@ 00600e80     cl_keys.obj
 0003:00001e8c       ??_C@_08KGAJHCFF@WORLD_56?$AA@ 00600e8c     cl_keys.obj
 0003:00001e98       ??_C@_08INCECBJG@WORLD_55?$AA@ 00600e98     cl_keys.obj
 0003:00001ea4       ??_C@_08JEDPBANH@WORLD_54?$AA@ 00600ea4     cl_keys.obj
 0003:00001eb0       ??_C@_08NLHOIGBA@WORLD_53?$AA@ 00600eb0     cl_keys.obj
 0003:00001ebc       ??_C@_08MCGFLHFB@WORLD_52?$AA@ 00600ebc     cl_keys.obj
 0003:00001ec8       ??_C@_08OJEIOEJC@WORLD_51?$AA@ 00600ec8     cl_keys.obj
 0003:00001ed4       ??_C@_08PAFDNFND@WORLD_50?$AA@ 00600ed4     cl_keys.obj
 0003:00001ee0       ??_C@_08CAFDAEKN@WORLD_49?$AA@ 00600ee0     cl_keys.obj
 0003:00001eec       ??_C@_08DJEIDFOM@WORLD_48?$AA@ 00600eec     cl_keys.obj
 0003:00001ef8       ??_C@_08LONACJCD@WORLD_47?$AA@ 00600ef8     cl_keys.obj
 0003:00001f04       ??_C@_08KHMLBIGC@WORLD_46?$AA@ 00600f04     cl_keys.obj
 0003:00001f10       ??_C@_08IMOGELKB@WORLD_45?$AA@ 00600f10     cl_keys.obj
 0003:00001f1c       ??_C@_08JFPNHKOA@WORLD_44?$AA@ 00600f1c     cl_keys.obj
 0003:00001f28       ??_C@_08NKLMOMCH@WORLD_43?$AA@ 00600f28     cl_keys.obj
 0003:00001f34       ??_C@_08MDKHNNGG@WORLD_42?$AA@ 00600f34     cl_keys.obj
 0003:00001f40       ??_C@_08OIIKIOKF@WORLD_41?$AA@ 00600f40     cl_keys.obj
 0003:00001f4c       ??_C@_08PBJBLPOE@WORLD_40?$AA@ 00600f4c     cl_keys.obj
 0003:00001f58       ??_C@_08CFBMBCCI@WORLD_39?$AA@ 00600f58     cl_keys.obj
 0003:00001f64       ??_C@_08DMAHCDGJ@WORLD_38?$AA@ 00600f64     cl_keys.obj
 0003:00001f70       ??_C@_08LLJPDPKG@WORLD_37?$AA@ 00600f70     cl_keys.obj
 0003:00001f7c       ??_C@_08KCIEAOOH@WORLD_36?$AA@ 00600f7c     cl_keys.obj
 0003:00001f88       ??_C@_08IJKJFNCE@WORLD_35?$AA@ 00600f88     cl_keys.obj
 0003:00001f94       ??_C@_08JALCGMGF@WORLD_34?$AA@ 00600f94     cl_keys.obj
 0003:00001fa0       ??_C@_08NPPDPKKC@WORLD_33?$AA@ 00600fa0     cl_keys.obj
 0003:00001fac       ??_C@_08MGOIMLOD@WORLD_32?$AA@ 00600fac     cl_keys.obj
 0003:00001fb8       ??_C@_08ONMFJICA@WORLD_31?$AA@ 00600fb8     cl_keys.obj
 0003:00001fc4       ??_C@_08PENOKJGB@WORLD_30?$AA@ 00600fc4     cl_keys.obj
 0003:00001fd0       ??_C@_08CENOHIBP@WORLD_29?$AA@ 00600fd0     cl_keys.obj
 0003:00001fdc       ??_C@_08DNMFEJFO@WORLD_28?$AA@ 00600fdc     cl_keys.obj
 0003:00001fe8       ??_C@_08LKFNFFJB@WORLD_27?$AA@ 00600fe8     cl_keys.obj
 0003:00001ff4       ??_C@_08KDEGGENA@WORLD_26?$AA@ 00600ff4     cl_keys.obj
 0003:00002000       ??_C@_08IIGLDHBD@WORLD_25?$AA@ 00601000     cl_keys.obj
 0003:0000200c       ??_C@_08JBHAAGFC@WORLD_24?$AA@ 0060100c     cl_keys.obj
 0003:00002018       ??_C@_08NODBJAJF@WORLD_23?$AA@ 00601018     cl_keys.obj
 0003:00002024       ??_C@_08MHCKKBNE@WORLD_22?$AA@ 00601024     cl_keys.obj
 0003:00002030       ??_C@_08OMAHPCBH@WORLD_21?$AA@ 00601030     cl_keys.obj
 0003:0000203c       ??_C@_08PFBMMDFG@WORLD_20?$AA@ 0060103c     cl_keys.obj
 0003:00002048       ??_C@_08CGJIMGEG@WORLD_19?$AA@ 00601048     cl_keys.obj
 0003:00002054       ??_C@_08DPIDPHAH@WORLD_18?$AA@ 00601054     cl_keys.obj
 0003:00002060       ??_C@_08LIBLOLMI@WORLD_17?$AA@ 00601060     cl_keys.obj
 0003:0000206c       ??_C@_08KBAANKIJ@WORLD_16?$AA@ 0060106c     cl_keys.obj
 0003:00002078       ??_C@_08IKCNIJEK@WORLD_15?$AA@ 00601078     cl_keys.obj
 0003:00002084       ??_C@_08JDDGLIAL@WORLD_14?$AA@ 00601084     cl_keys.obj
 0003:00002090       ??_C@_08NMHHCOMM@WORLD_13?$AA@ 00601090     cl_keys.obj
 0003:0000209c       ??_C@_08MFGMBPIN@WORLD_12?$AA@ 0060109c     cl_keys.obj
 0003:000020a8       ??_C@_08OOEBEMEO@WORLD_11?$AA@ 006010a8     cl_keys.obj
 0003:000020b4       ??_C@_08PHFKHNAP@WORLD_10?$AA@ 006010b4     cl_keys.obj
 0003:000020c0       ??_C@_07NGCKOIDA@WORLD_9?$AA@ 006010c0     cl_keys.obj
 0003:000020cc       ??_C@_07MPDBNJHB@WORLD_8?$AA@ 006010cc     cl_keys.obj
 0003:000020d8       ??_C@_07EIKJMFLO@WORLD_7?$AA@ 006010d8     cl_keys.obj
 0003:000020e4       ??_C@_07FBLCPEPP@WORLD_6?$AA@ 006010e4     cl_keys.obj
 0003:000020f0       ??_C@_07HKJPKHDM@WORLD_5?$AA@ 006010f0     cl_keys.obj
 0003:000020fc       ??_C@_07GDIEJGHN@WORLD_4?$AA@ 006010fc     cl_keys.obj
 0003:00002108       ??_C@_07CMMFAALK@WORLD_3?$AA@ 00601108     cl_keys.obj
 0003:00002114       ??_C@_07DFNODBPL@WORLD_2?$AA@ 00601114     cl_keys.obj
 0003:00002120       ??_C@_07BOPDGCDI@WORLD_1?$AA@ 00601120     cl_keys.obj
 0003:0000212c       ??_C@_07HOIFDHJ@WORLD_0?$AA@ 0060112c     cl_keys.obj
 0003:00002138       ??_C@_09COMJPDLF@SEMICOLON?$AA@ 00601138     cl_keys.obj
 0003:00002144       ??_C@_05DIAHPDGL@PAUSE?$AA@ 00601144     cl_keys.obj
 0003:0000214c       ??_C@_09GONHEPJO@KP_EQUALS?$AA@ 0060114c     cl_keys.obj
 0003:00002158       ??_C@_07PCCOFIHH@KP_STAR?$AA@ 00601158     cl_keys.obj
 0003:00002164       ??_C@_0L@LEPHIPFO@KP_NUMLOCK?$AA@ 00601164     cl_keys.obj
 0003:00002174       ??_C@_07CCBHGHDK@KP_PLUS?$AA@ 00601174     cl_keys.obj
 0003:00002180       ??_C@_08KDIFPCFL@KP_MINUS?$AA@ 00601180     cl_keys.obj
 0003:0000218c       ??_C@_08KHGBLJLO@KP_SLASH?$AA@ 0060118c     cl_keys.obj
 0003:00002198       ??_C@_06KMLJNBKH@KP_DEL?$AA@ 00601198     cl_keys.obj
 0003:000021a0       ??_C@_06JPNMOIAF@KP_INS?$AA@ 006011a0     cl_keys.obj
 0003:000021a8       ??_C@_08MHGPIJOM@KP_ENTER?$AA@ 006011a8     cl_keys.obj
 0003:000021b4       ??_C@_07BHJOEFGA@KP_PGDN?$AA@ 006011b4     cl_keys.obj
 0003:000021c0       ??_C@_0N@MJLAPIEJ@KP_DOWNARROW?$AA@ 006011c0     cl_keys.obj
 0003:000021d0       ??_C@_06NAIJNDCL@KP_END?$AA@ 006011d0     cl_keys.obj
 0003:000021d8       ??_C@_0O@NLCDAJLA@KP_RIGHTARROW?$AA@ 006011d8     cl_keys.obj
 0003:000021e8       ??_C@_04BICCMFCD@KP_5?$AA@ 006011e8     cl_keys.obj
 0003:000021f0       ??_C@_0N@DMPGMABG@KP_LEFTARROW?$AA@ 006011f0     cl_keys.obj
 0003:00002200       ??_C@_07NODLLDPI@KP_PGUP?$AA@ 00601200     cl_keys.obj
 0003:0000220c       ??_C@_0L@CCBCEPGH@KP_UPARROW?$AA@ 0060120c     cl_keys.obj
 0003:0000221c       ??_C@_07GOJPFDII@KP_HOME?$AA@ 0060121c     cl_keys.obj
 0003:00002228       ??_C@_05NIMGPOLB@AUX16?$AA@ 00601228     cl_keys.obj
 0003:00002230       ??_C@_05PDOLKNHC@AUX15?$AA@ 00601230     cl_keys.obj
 0003:00002238       ??_C@_05OKPAJMDD@AUX14?$AA@ 00601238     cl_keys.obj
 0003:00002240       ??_C@_05KFLBAKPE@AUX13?$AA@ 00601240     cl_keys.obj
 0003:00002248       ??_C@_05LMKKDLLF@AUX12?$AA@ 00601248     cl_keys.obj
 0003:00002250       ??_C@_05JHIHGIHG@AUX11?$AA@ 00601250     cl_keys.obj
 0003:00002258       ??_C@_05IOJMFJDH@AUX10?$AA@ 00601258     cl_keys.obj
 0003:00002260       ??_C@_04MMLGHEDJ@AUX9?$AA@ 00601260     cl_keys.obj
 0003:00002268       ??_C@_04NFKNEFHI@AUX8?$AA@ 00601268     cl_keys.obj
 0003:00002270       ??_C@_04FCDFFJLH@AUX7?$AA@ 00601270     cl_keys.obj
 0003:00002278       ??_C@_04ELCOGIPG@AUX6?$AA@ 00601278     cl_keys.obj
 0003:00002280       ??_C@_04GAADDLDF@AUX5?$AA@ 00601280     cl_keys.obj
 0003:00002288       ??_C@_04HJBIAKHE@AUX4?$AA@ 00601288     cl_keys.obj
 0003:00002290       ??_C@_04DGFJJMLD@AUX3?$AA@ 00601290     cl_keys.obj
 0003:00002298       ??_C@_04CPECKNPC@AUX2?$AA@ 00601298     cl_keys.obj
 0003:000022a0       ??_C@_04EGPPODB@AUX1?$AA@  006012a0     cl_keys.obj
 0003:000022a8       ??_C@_05EHAFPHFO@JOY32?$AA@ 006012a8     cl_keys.obj
 0003:000022b0       ??_C@_05GMCIKEJN@JOY31?$AA@ 006012b0     cl_keys.obj
 0003:000022b8       ??_C@_05HFDDJFNM@JOY30?$AA@ 006012b8     cl_keys.obj
 0003:000022c0       ??_C@_05KFDDEEKC@JOY29?$AA@ 006012c0     cl_keys.obj
 0003:000022c8       ??_C@_05LMCIHFOD@JOY28?$AA@ 006012c8     cl_keys.obj
 0003:000022d0       ??_C@_05DLLAGJCM@JOY27?$AA@ 006012d0     cl_keys.obj
 0003:000022d8       ??_C@_05CCKLFIGN@JOY26?$AA@ 006012d8     cl_keys.obj
 0003:000022e0       ??_C@_05JIGALKO@JOY25?$AA@ 006012e0     cl_keys.obj
 0003:000022e8       ??_C@_05BAJNDKOP@JOY24?$AA@ 006012e8     cl_keys.obj
 0003:000022f0       ??_C@_05FPNMKMCI@JOY23?$AA@ 006012f0     cl_keys.obj
 0003:000022f8       ??_C@_05EGMHJNGJ@JOY22?$AA@ 006012f8     cl_keys.obj
 0003:00002300       ??_C@_05GNOKMOKK@JOY21?$AA@ 00601300     cl_keys.obj
 0003:00002308       ??_C@_05HEPBPPOL@JOY20?$AA@ 00601308     cl_keys.obj
 0003:00002310       ??_C@_05KHHFPKPL@JOY19?$AA@ 00601310     cl_keys.obj
 0003:00002318       ??_C@_05LOGOMLLK@JOY18?$AA@ 00601318     cl_keys.obj
 0003:00002320       ??_C@_05DJPGNHHF@JOY17?$AA@ 00601320     cl_keys.obj
 0003:00002328       ??_C@_05CAONOGDE@JOY16?$AA@ 00601328     cl_keys.obj
 0003:00002330       ??_C@_05LMALFPH@JOY15?$AA@ 00601330     cl_keys.obj
 0003:00002338       ??_C@_05BCNLIELG@JOY14?$AA@ 00601338     cl_keys.obj
 0003:00002340       ??_C@_05FNJKBCHB@JOY13?$AA@ 00601340     cl_keys.obj
 0003:00002348       ??_C@_05EEIBCDDA@JOY12?$AA@ 00601348     cl_keys.obj
 0003:00002350       ??_C@_05GPKMHAPD@JOY11?$AA@ 00601350     cl_keys.obj
 0003:00002358       ??_C@_05HGLHEBLC@JOY10?$AA@ 00601358     cl_keys.obj
 0003:00002360       ??_C@_04IFAAJIOE@JOY9?$AA@ 00601360     cl_keys.obj
 0003:00002368       ??_C@_04JMBLKJKF@JOY8?$AA@ 00601368     cl_keys.obj
 0003:00002370       ??_C@_04BLIDLFGK@JOY7?$AA@ 00601370     cl_keys.obj
 0003:00002378       ??_C@_04CJIIECL@JOY6?$AA@  00601378     cl_keys.obj
 0003:00002380       ??_C@_04CJLFNHOI@JOY5?$AA@ 00601380     cl_keys.obj
 0003:00002388       ??_C@_04DAKOOGKJ@JOY4?$AA@ 00601388     cl_keys.obj
 0003:00002390       ??_C@_04HPOPHAGO@JOY3?$AA@ 00601390     cl_keys.obj
 0003:00002398       ??_C@_04GGPEEBCP@JOY2?$AA@ 00601398     cl_keys.obj
 0003:000023a0       ??_C@_04ENNJBCOM@JOY1?$AA@ 006013a0     cl_keys.obj
 0003:000023a8       ??_C@_0L@NBPPJGMJ@MWHEELDOWN?$AA@ 006013a8     cl_keys.obj
 0003:000023b8       ??_C@_08NAKENEKM@MWHEELUP?$AA@ 006013b8     cl_keys.obj
 0003:000023c4       ??_C@_06EEGKOBOL@MOUSE5?$AA@ 006013c4     cl_keys.obj
 0003:000023cc       ??_C@_06FNHBNAKK@MOUSE4?$AA@ 006013cc     cl_keys.obj
 0003:000023d4       ??_C@_06BCDAEGGN@MOUSE3?$AA@ 006013d4     cl_keys.obj
 0003:000023dc       ??_C@_06LCLHHCM@MOUSE2?$AA@ 006013dc     cl_keys.obj
 0003:000023e4       ??_C@_06CAAGCEOP@MOUSE1?$AA@ 006013e4     cl_keys.obj
 0003:000023ec       ??_C@_03JMGAKCCH@END?$AA@  006013ec     cl_keys.obj
 0003:000023f0       ??_C@_04GHGFPGNC@HOME?$AA@ 006013f0     cl_keys.obj
 0003:000023f8       ??_C@_04NHMBBGKC@PGUP?$AA@ 006013f8     cl_keys.obj
 0003:00002400       ??_C@_04BOGEOADK@PGDN?$AA@ 00601400     cl_keys.obj
 0003:00002408       ??_C@_03OAFAKAKL@DEL?$AA@  00601408     cl_keys.obj
 0003:0000240c       ??_C@_03NDDFJJAJ@INS?$AA@  0060140c     cl_keys.obj
 0003:00002410       ??_C@_03OHFMGKBD@F15?$AA@  00601410     cl_keys.obj
 0003:00002414       ??_C@_03POEHFLFC@F14?$AA@  00601414     cl_keys.obj
 0003:00002418       ??_C@_03LBAGMNJF@F13?$AA@  00601418     cl_keys.obj
 0003:0000241c       ??_C@_03KIBNPMNE@F12?$AA@  0060141c     cl_keys.obj
 0003:00002420       ??_C@_03IDDAKPBH@F11?$AA@  00601420     cl_keys.obj
 0003:00002424       ??_C@_03JKCLJOFG@F10?$AA@  00601424     cl_keys.obj
 0003:00002428       ??_C@_02HKCNFKCF@F9?$AA@   00601428     cl_keys.obj
 0003:0000242c       ??_C@_02GDDGGLGE@F8?$AA@   0060142c     cl_keys.obj
 0003:00002430       ??_C@_02OEKOHHKL@F7?$AA@   00601430     cl_keys.obj
 0003:00002434       ??_C@_02PNLFEGOK@F6?$AA@   00601434     cl_keys.obj
 0003:00002438       ??_C@_02NGJIBFCJ@F5?$AA@   00601438     cl_keys.obj
 0003:0000243c       ??_C@_02MPIDCEGI@F4?$AA@   0060143c     cl_keys.obj
 0003:00002440       ??_C@_02IAMCLCKP@F3?$AA@   00601440     cl_keys.obj
 0003:00002444       ??_C@_02JJNJIDOO@F2?$AA@   00601444     cl_keys.obj
 0003:00002448       ??_C@_02LCPENACN@F1?$AA@   00601448     cl_keys.obj
 0003:0000244c       ??_C@_08INDENNHK@CAPSLOCK?$AA@ 0060144c     cl_keys.obj
 0003:00002458       ??_C@_07FBJAHANB@COMMAND?$AA@ 00601458     cl_keys.obj
 0003:00002464       ??_C@_05OAHIEJBI@SHIFT?$AA@ 00601464     cl_keys.obj
 0003:0000246c       ??_C@_04FBBFEIFJ@CTRL?$AA@ 0060146c     cl_keys.obj
 0003:00002474       ??_C@_03FKEEPDEP@ALT?$AA@  00601474     cl_keys.obj
 0003:00002478       ??_C@_0L@CIPLPPIL@RIGHTARROW?$AA@ 00601478     cl_keys.obj
 0003:00002488       ??_C@_09FNHBLDAE@LEFTARROW?$AA@ 00601488     cl_keys.obj
 0003:00002494       ??_C@_09KIDHILFL@DOWNARROW?$AA@ 00601494     cl_keys.obj
 0003:000024a0       ??_C@_07MNCBLHKG@UPARROW?$AA@ 006014a0     cl_keys.obj
 0003:000024ac       ??_C@_09MALOLBMO@BACKSPACE?$AA@ 006014ac     cl_keys.obj
 0003:000024b8       ??_C@_05CAEOFMEP@SPACE?$AA@ 006014b8     cl_keys.obj
 0003:000024c0       ??_C@_06CDPDIIDH@ESCAPE?$AA@ 006014c0     cl_keys.obj
 0003:000024c8       ??_C@_05EMNIMLKD@ENTER?$AA@ 006014c8     cl_keys.obj
 0003:000024d0       ??_C@_03CJMDHCGG@TAB?$AA@  006014d0     cl_keys.obj
 0003:000024d4       ??_C@_0BM@MHAABCMH@drawLen?5?$DO?$DN?5MAX_STRING_CHARS?$AA@ 006014d4     cl_keys.obj
 0003:000024f8       ??_C@_08LMOPPDJO@cmd?5say?5?$AA@ 006014f8     cl_keys.obj
 0003:00002504       ??_C@_04MCOKGCBH@?$FN?$CFs?6?$AA@ 00601504     cl_keys.obj
 0003:0000250c       ??_C@_03GFPEDOMH@?2?$CFs?$AA@ 0060150c     cl_keys.obj
 0003:00002510       ??_C@_06NICJIFDH@clear?6?$AA@ 00601510     cl_keys.obj
 0003:00002518       ??_C@_09MNFIPOON@say?5?$CC?$CFs?$CC?6?$AA@ 00601518     cl_keys.obj
 0003:00002524       ??_C@_0P@BAMGBHOI@say_team?5?$CC?$CFs?$CC?6?$AA@ 00601524     cl_keys.obj
 0003:00002538       ??_C@_0O@MFAGMBFC@tell?5?$CFi?5?$CC?$CFs?$CC?6?$AA@ 00601538     cl_keys.obj
 0003:00002548       ??_C@_0P@IGICGKLH@?$DMOUT?5OF?5RANGE?$DO?$AA@ 00601548     cl_keys.obj
 0003:0000255c       ??_C@_0BA@FLLJDFDJ@?$DMKEY?5NOT?5FOUND?$DO?$AA@ 0060155c     cl_keys.obj
 0003:00002570       ??_C@_0BI@PLEALGJH@?$CC?$CFs?$CC?5isn?8t?5a?5valid?5key?6?$AA@ 00601570     cl_keys.obj
 0003:0000258c       ??_C@_0CL@OCGCHGGL@unbind?5?$DMkey?$DO?5?3?5remove?5commands?5f@ 0060158c     cl_keys.obj
 0003:000025c0       ??_C@_01CLKCMJKC@?5?$AA@   006015c0     cl_keys.obj
 0003:000025c4       ??_C@_0BD@BAINEHPI@?$CC?$CFs?$CC?5is?5not?5bound?6?$AA@ 006015c4     cl_keys.obj
 0003:000025dc       ??_C@_0N@CHDOIAJI@?$CC?$CFs?$CC?5?$DN?5?$CC?$CFs?$CC?6?$AA@ 006015dc     cl_keys.obj
 0003:000025ec       ??_C@_0DC@GHIPCCCE@bind?5?$DMkey?$DO?5?$FLcommand?$FN?5?3?5attach?5a?5@ 006015ec     cl_keys.obj
 0003:00002628       ??_C@_0O@HKEPFNEK@bind?5?$CFs?5?$CC?$CFs?$CC?6?$AA@ 00601628     cl_keys.obj
 0003:00002638       ??_C@_0L@EPHOCAKP@unbindall?6?$AA@ 00601638     cl_keys.obj
 0003:00002648       ??_C@_08MHBLPCGN@?$CFs?5?$CC?$CFs?$CC?6?$AA@ 00601648     cl_keys.obj
 0003:00002654       ??_C@_08OLCDMLCJ@bindlist?$AA@ 00601654     cl_keys.obj
 0003:00002660       ??_C@_09EBAHBELN@unbindall?$AA@ 00601660     cl_keys.obj
 0003:0000266c       ??_C@_06IDJGFAK@unbind?$AA@ 0060166c     cl_keys.obj
 0003:00002674       ??_C@_04NPNJNMMP@bind?$AA@ 00601674     cl_keys.obj
 0003:0000267c       ??_C@_0M@LJFOJAJK@?$CFc?$CFs?5?$CFd?5?$CFd?6?$AA@ 0060167c     cl_keys.obj
 0003:0000268c       ??_C@_08JIEIDHIE@nextdemo?$AA@ 0060168c     cl_keys.obj
 0003:00002698       ??_C@_0P@EIAPFKBF@com_cameraMode?$AA@ 00601698     cl_keys.obj
 0003:000026ac       ??_C@_0N@JILGCMBC@r_fullscreen?$AA@ 006016ac     cl_keys.obj
 0003:000026bc       ??_C@_0CF@BEENDNJ@?$FO3WARNING?3?5probable?5corrupt?5hist@ 006016bc     cl_keys.obj
 0003:000026e8       ??_C@_0BD@MHGLOIM@Couldn?8t?5read?5?$CFs?4?6?$AA@ 006016e8     cl_keys.obj
 0003:00002700       ??_C@_09EEELJHLE@q3history?$AA@ 00601700     cl_keys.obj
 0003:0000270c       ??_C@_0BE@JKCFDMJK@Couldn?8t?5write?5?$CFs?4?6?$AA@ 0060170c     cl_keys.obj
 0003:00002724       ??_C@_0N@DJGBDKIF@?$CFd?5?$CFd?5?$CFd?5?$CFs?5?$AA@ 00601724     cl_keys.obj
 0003:00002734       ??_C@_0O@EINBKOAD@999?5999?5999?5?5?$AA@ 00601734     cl_keys.obj
 0003:00002748       ??_C@_0GB@PLCLCMNN@usage?3?5voip?5?$FLun?$FNignore?5?$DMplayerID@ 00601748     cl_main.obj
 0003:000027bc       ??_C@_0P@EGHCHIGD@voip?5unmuteall?$AA@ 006017bc     cl_main.obj
 0003:000027d0       ??_C@_0BP@FFAOAIFD@VoIP?3?5unmuting?5incoming?5voice?6?$AA@ 006017d0     cl_main.obj
 0003:000027f8       ??_C@_09KHHEPIOG@unmuteall?$AA@ 006017f8     cl_main.obj
 0003:00002804       ??_C@_0N@NALNDNFO@voip?5muteall?$AA@ 00601804     cl_main.obj
 0003:00002814       ??_C@_0BN@HFHBCACK@VoIP?3?5muting?5incoming?5voice?6?$AA@ 00601814     cl_main.obj
 0003:00002838       ??_C@_07KFBNFLBD@muteall?$AA@ 00601838     cl_main.obj
 0003:00002844       ??_C@_0CG@JLGJHCOF@usage?3?5voip?5gain?5?$DMplayerID?$CD?$DO?5?$FLva@ 00601844     cl_main.obj
 0003:00002874       ??_C@_0BK@FGFMEGBB@VoIP?3?5invalid?5player?5ID?$CD?6?$AA@ 00601874     cl_main.obj
 0003:00002894       ??_C@_0CJ@CNIJKHFB@VoIP?3?5current?5gain?5for?5player?5?$CD?$CF@ 00601894     cl_main.obj
 0003:000028c8       ??_C@_04CNCNIFFP@gain?$AA@ 006018c8     cl_main.obj
 0003:000028d0       ??_C@_08GHMEOEDD@unignore?$AA@ 006018d0     cl_main.obj
 0003:000028dc       ??_C@_06GDPEBLPA@ignore?$AA@ 006018dc     cl_main.obj
 0003:000028e4       ??_C@_0BL@BEMPMMGM@VoIP?3?5command?5ignored?3?5?$CFs?6?$AA@ 006018e4     cl_main.obj
 0003:00002904       ??_C@_0BO@FDEOANCB@running?5in?5single?9player?5mode?$AA@ 00601904     cl_main.obj
 0003:00002928       ??_C@_0BG@JDIGCOKJ@ui_singlePlayerActive?$AA@ 00601928     cl_main.obj
 0003:00002948       __real@4000000000000000    00601948     cl_main.obj
 0003:00002954       ??_C@_0L@GFINLBEC@g_gametype?$AA@ 00601954     cl_main.obj
 0003:00002964       ??_C@_0BM@JIMNJHPI@Server?5doesn?8t?5support?5VoIP?$AA@ 00601964     cl_main.obj
 0003:00002988       ??_C@_0BG@LOJKNCFH@Speex?5not?5initialized?$AA@ 00601988     cl_main.obj
 0003:000029a4       ??_C@_0BK@DLGKIFGI@Not?5connected?5to?5a?5server?$AA@ 006019a4     cl_main.obj
 0003:000029c4       ??_C@_0BO@EAANMNKN@VoIP?3?5?$CFs?5ignoring?5player?5?$CD?$CFd?6?$AA@ 006019c4     cl_main.obj
 0003:000029e8       ??_C@_09IAPIADIO@No?5longer?$AA@ 006019e8     cl_main.obj
 0003:000029f4       ??_C@_03IGIFGMMB@Now?$AA@  006019f4     cl_main.obj
 0003:000029f8       ??_C@_0L@EHBIJNKB@voip?5?$CFs?5?$CFd?$AA@ 006019f8     cl_main.obj
 0003:00002a08       ??_C@_0CF@NNLGDNMK@VoIP?3?5player?5?$CD?$CFd?5gain?5now?5set?5to@ 00601a08     cl_main.obj
 0003:00002a34       ??_C@_0BI@EAPJOGJE@Client?5command?5overflow?$AA@ 00601a34     cl_main.obj
 0003:00002a50       __real@4014000000000000    00601a50     cl_main.obj
 0003:00002a60       __real@40dfffc000000000    00601a60     cl_main.obj
 0003:00002a6c       ??_C@_0P@JFMMMOHN@Stopped?5demo?4?6?$AA@ 00601a6c     cl_main.obj
 0003:00002a80       ??_C@_0BH@FJJDMOAC@Not?5recording?5a?5demo?4?6?$AA@ 00601a80     cl_main.obj
 0003:00002a9c       ??_C@_0N@EFJGOOKC@demo?$CFi?$CFi?$CFi?$CFi?$AA@ 00601a9c     cl_main.obj
 0003:00002aac       ??_C@_0BA@OHINOCDN@ui_recordSPDemo?$AA@ 00601aac     cl_main.obj
 0003:00002ac0       ??_C@_0BC@PMCLPAOL@recording?5to?5?$CFs?4?6?$AA@ 00601ac0     cl_main.obj
 0003:00002ad8       ??_C@_0P@JBKMAJI@demos?1?$CFs?4dm_?$CFd?$AA@ 00601ad8     cl_main.obj
 0003:00002af0       ??_C@_0FA@PLJDEPGO@?$FO3WARNING?3?5You?5should?5set?5?8g_syn@ 00601af0     cl_main.obj
 0003:00002b50       ??_C@_0BF@LICFCALK@g_synchronousClients?$AA@ 00601b50     cl_main.obj
 0003:00002b6c       ??_C@_0CD@JLOAFGIP@You?5must?5be?5in?5a?5level?5to?5record@ 00601b6c     cl_main.obj
 0003:00002b98       ??_C@_0BE@GOGLPLDO@Already?5recording?4?6?$AA@ 00601b98     cl_main.obj
 0003:00002bb0       ??_C@_0BD@PGNLAEFI@record?5?$DMdemoname?$DO?6?$AA@ 00601bb0     cl_main.obj
 0003:00002bc8       ??_C@_0BO@KMHGPKH@Couldn?8t?5open?5?$CFs?5for?5writing?6?$AA@ 00601bc8     cl_main.obj
 0003:00002bec       ??_C@_0M@GAADJDNE@?$CFs?5written?6?$AA@ 00601bec     cl_main.obj
 0003:00002bfc       ??_C@_03PMGGPEJJ@?$CFd?6?$AA@ 00601bfc     cl_main.obj
 0003:00002c00       ??_C@_04CFBKFMDG@?$CD?5?$CFs?$AA@ 00601c00     cl_main.obj
 0003:00002c08       ??_C@_0DK@NICIAFED@?$CFi?5frames?5?$CF3?41f?5seconds?5?$CF3?41f?5fp@ 00601c08     cl_main.obj
 0003:00002c50       ??_C@_0BK@CDNCLIJC@Demo?5file?5was?5truncated?4?6?$AA@ 00601c50     cl_main.obj
 0003:00002c70       ??_C@_0CM@CDKKAHKA@CL_ReadDemoMessage?3?5demoMsglen?5?$DO@ 00601c70     cl_main.obj
 0003:00002ca4       ??_C@_0BB@OONEJEGE@couldn?8t?5open?5?$CFs?$AA@ 00601ca4     cl_main.obj
 0003:00002cb8       ??_C@_0CF@NNMMABBB@Protocol?5?$CFd?5not?5supported?5for?5de@ 00601cb8     cl_main.obj
 0003:00002ce4       ??_C@_08OPAGIOMF@demos?1?$CFs?$AA@ 00601ce4     cl_main.obj
 0003:00002cf0       ??_C@_0O@JEEKIFAP@sv_killserver?$AA@ 00601cf0     cl_main.obj
 0003:00002d00       ??_C@_01FDFGLJHB@2?$AA@    00601d00     cl_main.obj
 0003:00002d04       ??_C@_0BB@GBIEJDKC@demo?5?$DMdemoname?$DO?6?$AA@ 00601d04     cl_main.obj
 0003:00002d18       ??_C@_0P@HACEFMAG@Not?5found?3?5?$CFs?6?$AA@ 00601d18     cl_main.obj
 0003:00002d2c       ??_C@_0P@NIDHDKPC@Demo?5file?3?5?$CFs?6?$AA@ 00601d2c     cl_main.obj
 0003:00002d40       ??_C@_03LFLJCHJK@d1?6?$AA@ 00601d40     cl_main.obj
 0003:00002d44       ??_C@_0BB@HGODKPPP@CL_NextDemo?3?5?$CFs?6?$AA@ 00601d44     cl_main.obj
 0003:00002d58       ??_C@_09IPAEKDAI@localhost?$AA@ 00601d58     cl_main.obj
 0003:00002d64       ??_C@_09NFOPKLIK@sv_cheats?$AA@ 00601d64     cl_main.obj
 0003:00002d70       ??_C@_0P@FABCFONG@r_uiFullScreen?$AA@ 00601d70     cl_main.obj
 0003:00002d84       ??_C@_0CK@KKKHBNCL@VoIP?3?5Send?5?$CFd?5frames?0?5?$CFd?5bytes?0?5@ 00601d84     cl_main.obj
 0003:00002db8       __real@41d0000000000000    00601db8     cl_main.obj
 0003:00002dc4       ??_C@_1DK@OPOOHGMC@?$AA?$CI?$AAb?$AAy?$AAt?$AAe?$AAs?$AA?5?$AA?$DO?$AA?5?$AA0?$AA?$CJ?$AA?5?$AA?$CG?$AA?$CG?$AA?5?$AA?$CI?$AAb?$AAy?$AAt?$AAe?$AAs?$AA?5?$AA?$DM?$AA?5?$AA2?$AA5?$AA6?$AA?$CJ?$AA?$AA@ 00601dc4     cl_main.obj
 0003:00002e10       ??_C@_1HK@LBHPCII@?$AAc?$AA?3?$AA?2?$AAw?$AAe?$AAb?$AA?2?$AAt?$AAr?$AAe?$AAp?$AAd?$AAe?$AAv?$AA?2?$AAt?$AAr?$AAe?$AAp?$AAi?$AAd?$AAa?$AAt?$AAi?$AAo?$AAn?$AA?2?$AAt?$AAr?$AAe?$AAp?$AA?9@ 00601e10     cl_main.obj
 0003:00002ea4       ??_C@_07EEBDLOIC@cl_guid?$AA@ 00601ea4     cl_main.obj
 0003:00002eb0       ??_C@_04KBKJHKOL@qkey?$AA@ 00601eb0     cl_main.obj
 0003:00002eb8       ??_C@_0BI@NLCCPFAE@Unknown?5command?5?$CC?$CFs?$FO7?$CC?6?$AA@ 00601eb8     cl_main.obj
 0003:00002ed4       ??_C@_0O@IFNCIAOO@getmotd?5?$CC?$CFs?$CC?6?$AA@ 00601ed4     cl_main.obj
 0003:00002ee4       ??_C@_07CPCPJPKL@version?$AA@ 00601ee4     cl_main.obj
 0003:00002ef0       ??_C@_08NELFFGLM@renderer?$AA@ 00601ef0     cl_main.obj
 0003:00002efc       ??_C@_09DBEGHIJJ@challenge?$AA@ 00601efc     cl_main.obj
 0003:00002f08       ??_C@_02IKAHHCAI@?$CFi?$AA@ 00601f08     cl_main.obj
 0003:00002f0c       ??_C@_0BP@FPDCKHM@?$CFs?5resolved?5to?5?$CFi?4?$CFi?4?$CFi?4?$CFi?3?$CFi?6?$AA@ 00601f0c     cl_main.obj
 0003:00002f34       ??_C@_0BK@PDDCGPDI@Couldn?8t?5resolve?5address?6?$AA@ 00601f34     cl_main.obj
 0003:00002f54       ??_C@_0O@NIMOHCFP@Resolving?5?$CFs?6?$AA@ 00601f54     cl_main.obj
 0003:00002f64       ??_C@_0BG@FGGNFFEK@getKeyAuthorize?5?$CFi?5?$CFs?$AA@ 00601f64     cl_main.obj
 0003:00002f80       ??_C@_0N@IFIIDPHP@cl_anonymous?$AA@ 00601f80     cl_main.obj
 0003:00002f90       ??_C@_0BM@PIMKCOAK@Not?5connected?5to?5a?5server?4?6?$AA@ 00601f90     cl_main.obj
 0003:00002fb4       ??_C@_0BJ@EBHAICOP@Disconnected?5from?5server?$AA@ 00601fb4     cl_main.obj
 0003:00002fd4       ??_C@_0M@LNGHCJI@connect?5?$CFs?6?$AA@ 00601fd4     cl_main.obj
 0003:00002fe4       ??_C@_0BP@KAEALGFM@Can?8t?5reconnect?5to?5localhost?4?6?$AA@ 00601fe4     cl_main.obj
 0003:0000300c       ??_C@_0BI@OBPNNDLP@cl_currentServerAddress?$AA@ 0060200c     cl_main.obj
 0003:00003028       ??_C@_0BD@EJEOIBMG@?$CFs?5resolved?5to?5?$CFs?6?$AA@ 00602028     cl_main.obj
 0003:00003040       ??_C@_0BE@BMPNGILO@Bad?5server?5address?6?$AA@ 00602040     cl_main.obj
 0003:00003058       ??_C@_0M@OPBPNLIL@Server?5quit?$AA@ 00602058     cl_main.obj
 0003:00003068       ??_C@_0DE@PELNEODC@warning?3?5only?5?94?5or?5?96?5as?5addres@ 00602068     cl_main.obj
 0003:000030a8       ??_C@_02LJDHGCCL@?96?$AA@  006020a8     cl_main.obj
 0003:000030ac       ??_C@_02ILABAAKJ@?94?$AA@  006020ac     cl_main.obj
 0003:000030b0       ??_C@_0BP@KOAHGJCJ@usage?3?5connect?5?$FL?94?$HM?96?$FN?5server?6?$AA@ 006020b0     cl_main.obj
 0003:000030d8       ??_C@_0FE@GKHHMJFK@You?5must?5either?5be?5connected?0?6or@ 006020d8     cl_main.obj
 0003:0000313c       ??_C@_05GCMNNKNG@rcon?5?$AA@ 0060213c     cl_main.obj
 0003:00003144       ??_C@_0DN@LCHLNDDC@You?5must?5set?5?8rconpassword?8?5befo@ 00602144     cl_main.obj
 0003:00003190       ??_C@_08LOIALKDE@cp?5?$CFd?5?$CFs?$AA@ 00602190     cl_main.obj
 0003:0000319c       ??_C@_03MCDIKHCL@vdr?$AA@  0060219c     cl_main.obj
 0003:000031a0       ??_C@_09DIABHAFB@cl_paused?$AA@ 006021a0     cl_main.obj
 0003:000031ac       ??_C@_0BG@KJOBEGLE@Opened?5PK3?5Names?3?5?$CFs?6?$AA@ 006021ac     cl_main.obj
 0003:000031c8       ??_C@_0BK@GENIKODO@Referenced?5PK3?5Names?3?5?$CFs?6?$AA@ 006021c8     cl_main.obj
 0003:000031e8       ??_C@_08JBKNBCEM@?$CF4i?3?5?$CFs?6?$AA@ 006021e8     cl_main.obj
 0003:000031f4       ??_C@_0CI@DBDLLCJO@?9?9?9?9?9?9?9?9?9?9?9?9?9?9?9?9?9?9?9?9?9?9?9?9?9?9?9?9?9?9?9?9@ 006021f4     cl_main.obj
 0003:00003224       ??_C@_0BF@CNHFFNEA@User?5info?5settings?3?6?$AA@ 00602224     cl_main.obj
 0003:00003240       ??_C@_0M@CDCBGBHB@Server?3?5?$CFs?6?$AA@ 00602240     cl_main.obj
 0003:00003250       ??_C@_0L@PILDHKCK@state?3?5?$CFi?6?$AA@ 00602250     cl_main.obj
 0003:00003260       ??_C@_0CI@OGJFLPIM@?9?9?9?9?9?9?9?9?9?5Client?5Information?5?9?9?9@ 00602260     cl_main.obj
 0003:00003290       ??_C@_06EIKEHMLC@donedl?$AA@ 00602290     cl_main.obj
 0003:00003298       ??_C@_0M@CDGAENEE@download?5?$CFs?$AA@ 00602298     cl_main.obj
 0003:000032a8       ??_C@_0FI@OJLPOMHD@?$CK?$CK?$CK?$CK?$CK?5CL_BeginDownload?5?$CK?$CK?$CK?$CK?$CK?6Loc@ 006022a8     cl_main.obj
 0003:00003318       ??_C@_0EE@FACEODEB@UDP?5Downloads?5are?5disabled?5on?5yo@ 00602318     cl_main.obj
 0003:00003370       ??_C@_0GP@PPCLGNCH@WARNING?3?5server?5allows?5download?5@ 00602370     cl_main.obj
 0003:000033f8       ??_C@_05GFOLEBJA@?$CFs?1?$CFs?$AA@ 006023f8     cl_main.obj
 0003:00003400       ??_C@_0CG@LFOMKIJE@WARNING?3?5could?5not?5load?5cURL?5lib@ 00602400     cl_main.obj
 0003:00003430       ??_C@_0EN@KCBNHOHK@WARNING?3?5server?5allows?5download?5@ 00602430     cl_main.obj
 0003:00003490       ??_C@_0EO@JLGJHLAN@WARNING?3?5server?5does?5not?5allow?5d@ 00602490     cl_main.obj
 0003:000034f0       ??_C@_0CA@KBLHLNGN@Incorrect?5checksum?5for?5file?3?5?$CFs?$AA@ 006024f0     cl_main.obj
 0003:00003518       ??_C@_0M@LECGGKKC@fs_homepath?$AA@ 00602518     cl_main.obj
 0003:00003528       ??_C@_0P@LAKMDNN@Need?5paks?3?5?$CFs?6?$AA@ 00602528     cl_main.obj
 0003:00003540       ??_C@_0LE@HBLDLCIC@?6WARNING?3?5You?5are?5missing?5some?5f@ 00602540     cl_main.obj
 0003:00003618       ??_C@_0CB@JLKOHGFD@CL_CheckForResend?3?5bad?5cls?4state@ 00602618     cl_main.obj
 0003:00003640       ??_C@_08CCJJPJEL@connect?5?$AA@ 00602640     cl_main.obj
 0003:0000364c       ??_C@_05IPCIHGO@qport?$AA@ 0060264c     cl_main.obj
 0003:00003654       ??_C@_08FCFPNNHF@protocol?$AA@ 00602654     cl_main.obj
 0003:00003660       ??_C@_09HOOHLIKH@net_qport?$AA@ 00602660     cl_main.obj
 0003:0000366c       ??_C@_0BA@LALDKOJA@getchallenge?5?$CFd?$AA@ 0060266c     cl_main.obj
 0003:00003680       ??_C@_0P@GJBIBBKG@com_standalone?$AA@ 00602680     cl_main.obj
 0003:00003694       ??_C@_0BB@GDGLAKGE@com_errorMessage?$AA@ 00602694     cl_main.obj
 0003:000036a8       ??_C@_0CI@POLDFEDD@Server?5disconnected?5for?5unknown?5@ 006026a8     cl_main.obj
 0003:000036d8       ??_C@_0O@GJFLJONJ@cl_motdString?$AA@ 006026d8     cl_main.obj
 0003:000036e8       ??_C@_04GJFDDCGE@motd?$AA@ 006026e8     cl_main.obj
 0003:000036f0       ??_C@_0BO@DIFEDBKJ@?$CFd?5servers?5parsed?5?$CItotal?5?$CFd?$CJ?6?$AA@ 006026f0     cl_main.obj
 0003:00003714       ??_C@_0BK@BOAAMPMC@CL_ServersResponsePacket?6?$AA@ 00602714     cl_main.obj
 0003:00003734       ??_C@_0CI@KFHENOL@Unknown?5connectionless?5packet?5co@ 00602734     cl_main.obj
 0003:00003764       ??_C@_0BG@JIDHHDG@getserversExtResponse?$AA@ 00602764     cl_main.obj
 0003:00003780       ??_C@_0BD@BBKFKIHA@getserversResponse?$AA@ 00602780     cl_main.obj
 0003:00003798       ??_C@_05IJDJACGD@print?$AA@ 00602798     cl_main.obj
 0003:000037a0       ??_C@_0N@KFCBIMP@keyAuthorize?$AA@ 006027a0     cl_main.obj
 0003:000037b0       ??_C@_04OFDNEFMC@echo?$AA@ 006027b0     cl_main.obj
 0003:000037b8       ??_C@_0P@DGEHCAPG@statusResponse?$AA@ 006027b8     cl_main.obj
 0003:000037cc       ??_C@_0N@LMKIPMEE@infoResponse?$AA@ 006027cc     cl_main.obj
 0003:000037dc       ??_C@_0CO@EDIMICMD@connectResponse?5from?5wrong?5addre@ 006027dc     cl_main.obj
 0003:00003814       ??_C@_0DH@FIMKMAMH@connectResponse?5packet?5while?5not@ 00602814     cl_main.obj
 0003:00003858       ??_C@_0CB@DAMFFBNO@Dup?5connect?5received?4?5?5Ignored?4?6@ 00602858     cl_main.obj
 0003:00003880       ??_C@_0BA@LMOGOADK@connectResponse?$AA@ 00602880     cl_main.obj
 0003:00003894       ??_C@_0BH@HJNMAMEA@challengeResponse?3?5?$CFd?6?$AA@ 00602894     cl_main.obj
 0003:000038b0       ??_C@_0DO@GIIDIEGC@Challenge?5response?5received?5from@ 006028b0     cl_main.obj
 0003:000038fc       ??_C@_0DB@NPIBIHLP@Unwanted?5challenge?5response?5rece@ 006028fc     cl_main.obj
 0003:00003938       ??_C@_0BC@DGKDGAMO@challengeResponse?$AA@ 00602938     cl_main.obj
 0003:00003950       ??_C@_0BC@IFKLHAPC@CL?5packet?5?$CFs?3?5?$CFs?6?$AA@ 00602950     cl_main.obj
 0003:00003968       ??_C@_0CI@KKHCEKLL@?$CFs?3sequenced?5packet?5without?5conn@ 00602968     cl_main.obj
 0003:00003998       ??_C@_0BB@JCENNPDP@?$CFs?3?5Runt?5packet?6?$AA@ 00602998     cl_main.obj
 0003:000039ac       ??_C@_0BP@CBAODGNF@?6Server?5connection?5timed?5out?4?6?$AA@ 006029ac     cl_main.obj
 0003:000039d4       ??_C@_0O@FJGEONLL@userinfo?5?$CC?$CFs?$CC?$AA@ 006029d4     cl_main.obj
 0003:000039e8       __real@3fd0000000000000    006029e8     cl_main.obj
 0003:000039f4       ??_C@_0BA@EBCJFLKE@record?5?$CFs?9?$CFs?9?$CFs?$AA@ 006029f4     cl_main.obj
 0003:00003a08       ??_C@_01JLIPDDHJ@?3?$AA@   00602a08     cl_main.obj
 0003:00003a0c       ??_C@_0BJ@NPJPFJML@?$CF04d?$CF02d?$CF02d?$CF02d?$CF02d?$CF02d?$AA@ 00602a0c     cl_main.obj
 0003:00003a2c       ??_C@_04MMPNEILC@?$FO1?$CFs?$AA@ 00602a2c     cl_main.obj
 0003:00003a34       ??_C@_04GGPEIADJ@?$FO3?$CFs?$AA@ 00602a34     cl_main.obj
 0003:00003a3c       ??_C@_07PMJAFAE@console?$AA@ 00602a3c     cl_main.obj
 0003:00003a48       ??_C@_05PMAELIEO@white?$AA@ 00602a48     cl_main.obj
 0003:00003a50       ??_C@_0BA@FILGFBEK@gfx?12d?1bigchars?$AA@ 00602a50     cl_main.obj
 0003:00003a64       ??_C@_04IAGNFIBA@size?$AA@ 00602a64     cl_main.obj
 0003:00003a6c       ??_C@_0DN@HFNGJAFB@c?3?2web?2trepdev?2trepidation?2trep?9@ 00602a6c     cl_main.obj
 0003:00003ab8       ??_C@_0BM@BKBAAMDA@Couldn?8t?5initialize?5refresh?$AA@ 00602ab8     cl_main.obj
 0003:00003adc       ??_C@_0CB@LHLKLKOG@?9?9?9?9?9?9?9?9?9?9?9?9?9?9?9?9?9?9?9?9?9?9?9?9?9?9?9?9?9?9?9?6@ 00602adc     cl_main.obj
 0003:00003b04       ??_C@_0CC@CKFOOPEI@?9?9?9?9?9?5Initializing?5Renderer?5?9?9?9?9@ 00602b04     cl_main.obj
 0003:00003b2c       ??_C@_0BE@BOKBONJL@model?5is?5set?5to?5?$CFs?6?$AA@ 00602b2c     cl_main.obj
 0003:00003b44       ??_C@_09DHBBGOBJ@headmodel?$AA@ 00602b44     cl_main.obj
 0003:00003b50       ??_C@_05NCCFOPHA@model?$AA@ 00602b50     cl_main.obj
 0003:00003b58       ??_C@_0CN@GKKDJEBE@?$FO1ERROR?3?5no?5free?5file?5names?5to?5c@ 00602b58     cl_main.obj
 0003:00003b90       ??_C@_0BJ@DDLAPEGJ@videos?1video?$CFd?$CFd?$CFd?$CFd?4avi?$AA@ 00602b90     cl_main.obj
 0003:00003bb0       ??_C@_0O@HPNHLPDM@videos?1?$CFs?4avi?$AA@ 00602bb0     cl_main.obj
 0003:00003bc0       ??_C@_0DM@HLLKPPCM@The?5video?5command?5can?5only?5be?5us@ 00602bc0     cl_main.obj
 0003:00003c08       ??_C@_0CM@KNFCNAPG@?9?9?9?9?9?5Client?5Initialization?5Comp@ 00602c08     cl_main.obj
 0003:00003c3c       ??_C@_0L@FBHMLJNH@cl_running?$AA@ 00602c3c     cl_main.obj
 0003:00003c4c       ??_C@_09BIIDLMOA@stopvideo?$AA@ 00602c4c     cl_main.obj
 0003:00003c58       ??_C@_05BPFJLLEL@video?$AA@ 00602c58     cl_main.obj
 0003:00003c60       ??_C@_0BC@GPOKHKHA@fs_referencedList?$AA@ 00602c60     cl_main.obj
 0003:00003c78       ??_C@_0O@HJFIEPKA@fs_openedList?$AA@ 00602c78     cl_main.obj
 0003:00003c88       ??_C@_06NOAHJGOA@showip?$AA@ 00602c88     cl_main.obj
 0003:00003c90       ??_C@_0N@LJMIJCBN@serverstatus?$AA@ 00602c90     cl_main.obj
 0003:00003ca0       ??_C@_04OONEELOO@ping?$AA@ 00602ca0     cl_main.obj
 0003:00003ca8       ??_C@_04CLKJCJJE@rcon?$AA@ 00602ca8     cl_main.obj
 0003:00003cb0       ??_C@_0O@BBKHNMKE@globalservers?$AA@ 00602cb0     cl_main.obj
 0003:00003cc0       ??_C@_0N@OHPGBJMI@localservers?$AA@ 00602cc0     cl_main.obj
 0003:00003cd0       ??_C@_09MCGBPECP@reconnect?$AA@ 00602cd0     cl_main.obj
 0003:00003cdc       ??_C@_07KAIBNCHO@connect?$AA@ 00602cdc     cl_main.obj
 0003:00003ce8       ??_C@_0L@OLGNCHFI@stoprecord?$AA@ 00602ce8     cl_main.obj
 0003:00003cf8       ??_C@_09DHDJHDLH@cinematic?$AA@ 00602cf8     cl_main.obj
 0003:00003d04       ??_C@_04PLPNPBEF@demo?$AA@ 00602d04     cl_main.obj
 0003:00003d0c       ??_C@_06KKGOIHDP@record?$AA@ 00602d0c     cl_main.obj
 0003:00003d14       ??_C@_0M@DIIAMDPB@vid_restart?$AA@ 00602d14     cl_main.obj
 0003:00003d24       ??_C@_0M@IJBIKBGC@snd_restart?$AA@ 00602d24     cl_main.obj
 0003:00003d34       ??_C@_0L@FEIAOOGN@clientinfo?$AA@ 00602d34     cl_main.obj
 0003:00003d44       ??_C@_0O@OBMKKPAG@configstrings?$AA@ 00602d44     cl_main.obj
 0003:00003d54       ??_C@_03LGLGIONO@cmd?$AA@  00602d54     cl_main.obj
 0003:00003d58       ??_C@_0BE@EMBJACLB@cg_stereoSeparation?$AA@ 00602d58     cl_main.obj
 0003:00003d70       ??_C@_0M@NABCNGBA@cg_viewsize?$AA@ 00602d70     cl_main.obj
 0003:00003d80       ??_C@_0BP@NGKJNAIM@Until?5then?0?5VoIP?5is?5disabled?4?6?$AA@ 00602d80     cl_main.obj
 0003:00003da8       ??_C@_0EM@PKKNGBJF@Set?5?8Data?5Rate?8?5to?5?8LAN?1Cable?1xD@ 00602da8     cl_main.obj
 0003:00003e04       ??_C@_0CL@CPAGFPFN@?$FO3Your?5network?5rate?5is?5too?5slow?5@ 00602e04     cl_main.obj
 0003:00003e38       ??_C@_07IJJGABO@cl_voip?$AA@ 00602e38     cl_main.obj
 0003:00003e44       ??_C@_0BB@OCCKAOGE@cl_voipShowMeter?$AA@ 00602e44     cl_main.obj
 0003:00003e58       ??_C@_0BE@DAPBBIMP@cl_voipVADThreshold?$AA@ 00602e58     cl_main.obj
 0003:00003e70       ??_C@_0O@MIBHJHPK@cl_voipUseVAD?$AA@ 00602e70     cl_main.obj
 0003:00003e80       ??_C@_0BD@CEHHLNCL@cl_voipCaptureMult?$AA@ 00602e80     cl_main.obj
 0003:00003e98       ??_C@_03GJAMENNA@2?40?$AA@ 00602e98     cl_main.obj
 0003:00003e9c       ??_C@_0BJ@LBNKNAKB@cl_voipGainDuringCapture?$AA@ 00602e9c     cl_main.obj
 0003:00003ebc       ??_C@_03PBDDOHNJ@0?42?$AA@ 00602ebc     cl_main.obj
 0003:00003ec0       ??_C@_0BA@PKAEEJJB@cg_predictItems?$AA@ 00602ec0     cl_main.obj
 0003:00003ed4       ??_C@_08NLHBPEGP@password?$AA@ 00602ed4     cl_main.obj
 0003:00003ee0       ??_C@_03OMLNFKE@sex?$AA@   00602ee0     cl_main.obj
 0003:00003ee4       ??_C@_04ICKCIGNO@male?$AA@ 00602ee4     cl_main.obj
 0003:00003eec       ??_C@_08OKGPDOIO@teamtask?$AA@ 00602eec     cl_main.obj
 0003:00003ef8       ??_C@_08HBHLIHAM@handicap?$AA@ 00602ef8     cl_main.obj
 0003:00003f04       ??_C@_03GNABGMEE@100?$AA@  00602f04     cl_main.obj
 0003:00003f08       ??_C@_06KEONFOCA@color2?$AA@ 00602f08     cl_main.obj
 0003:00003f10       ??_C@_06IPMAANOD@color1?$AA@ 00602f10     cl_main.obj
 0003:00003f18       ??_C@_01FAMBOPH@4?$AA@     00602f18     cl_main.obj
 0003:00003f1c       ??_C@_0L@OOBNLHBJ@g_blueTeam?$AA@ 00602f1c     cl_main.obj
 0003:00003f2c       ??_C@_04CAKOHOCJ@Blue?$AA@ 00602f2c     cl_main.obj
 0003:00003f34       ??_C@_09HOBGGEAD@g_redTeam?$AA@ 00602f34     cl_main.obj
 0003:00003f40       ??_C@_03PADCEAKC@Red?$AA@  00602f40     cl_main.obj
 0003:00003f44       ??_C@_0P@JMIBMNM@team_headmodel?$AA@ 00602f44     cl_main.obj
 0003:00003f58       ??_C@_06BDHPIECE@?$CKmajor?$AA@ 00602f58     cl_main.obj
 0003:00003f60       ??_C@_0L@KEDOKIKJ@team_model?$AA@ 00602f60     cl_main.obj
 0003:00003f70       ??_C@_05FEBMJMCL@major?$AA@ 00602f70     cl_main.obj
 0003:00003f78       ??_C@_05DGPADKBM@snaps?$AA@ 00602f78     cl_main.obj
 0003:00003f80       ??_C@_02PIBHCBOA@20?$AA@   00602f80     cl_main.obj
 0003:00003f84       ??_C@_04HCCHHEEF@rate?$AA@ 00602f84     cl_main.obj
 0003:00003f8c       ??_C@_05GFEIOEMO@25000?$AA@ 00602f8c     cl_main.obj
 0003:00003f94       ??_C@_04MEMAJGDJ@name?$AA@ 00602f94     cl_main.obj
 0003:00003f9c       ??_C@_06BNHPEPEK@Terran?$AA@ 00602f9c     cl_main.obj
 0003:00003fa4       ??_C@_0P@IFACFPL@cl_consoleKeys?$AA@ 00602fa4     cl_main.obj
 0003:00003fb8       ??_C@_0O@JAKIIIBG@?$HO?5?$GA?50x7e?50x60?$AA@ 00602fb8     cl_main.obj
 0003:00003fc8       ??_C@_0BC@IHJCBFNP@cl_guidServerUniq?$AA@ 00602fc8     cl_main.obj
 0003:00003fe0       ??_C@_0BD@DGNJABPM@cl_lanForcePackets?$AA@ 00602fe0     cl_main.obj
 0003:00003ff8       ??_C@_0L@KMOIMFOM@cl_maxPing?$AA@ 00602ff8     cl_main.obj
 0003:00004008       ??_C@_03BAAJCDMO@800?$AA@  00603008     cl_main.obj
 0003:0000400c       ??_C@_08BEMLPELN@m_filter?$AA@ 0060300c     cl_main.obj
 0003:00004018       ??_C@_06NKCCGJAO@m_side?$AA@ 00603018     cl_main.obj
 0003:00004020       ??_C@_09CGJLBBDA@m_forward?$AA@ 00603020     cl_main.obj
 0003:0000402c       ??_C@_04FNMPJLCB@0?425?$AA@ 0060302c     cl_main.obj
 0003:00004034       ??_C@_05HPEILLPC@m_yaw?$AA@ 00603034     cl_main.obj
 0003:0000403c       ??_C@_07JIEGLHEC@m_pitch?$AA@ 0060303c     cl_main.obj
 0003:00004048       ??_C@_05OACFFLK@0?4022?$AA@ 00603048     cl_main.obj
 0003:00004050       ??_C@_0O@JKEEFDLF@cg_autoswitch?$AA@ 00603050     cl_main.obj
 0003:00004060       ??_C@_0BK@NLNALACG@cl_serverStatusResendTime?$AA@ 00603060     cl_main.obj
 0003:00004080       ??_C@_03EOKBPBHD@750?$AA@  00603080     cl_main.obj
 0003:00004084       ??_C@_0O@EPDAEHAE@r_inGameVideo?$AA@ 00603084     cl_main.obj
 0003:00004094       ??_C@_0O@PJLPEGOC@cl_conXOffset?$AA@ 00603094     cl_main.obj
 0003:000040a4       ??_C@_0L@JLNLHIA@cl_cURLLib?$AA@ 006030a4     cl_main.obj
 0003:000040b4       ??_C@_0O@CLJAJANO@libcurl?93?4dll?$AA@ 006030b4     cl_main.obj
 0003:000040c4       ??_C@_0BB@MLOALJHK@cl_allowDownload?$AA@ 006030c4     cl_main.obj
 0003:000040d8       ??_C@_0BB@JAAMCGDF@cl_showmouserate?$AA@ 006030d8     cl_main.obj
 0003:000040ec       ??_C@_0BE@DAKDEKAA@cl_mouseAccelOffset?$AA@ 006030ec     cl_main.obj
 0003:00004104       ??_C@_0BD@DAOJPJEM@cl_mouseAccelStyle?$AA@ 00603104     cl_main.obj
 0003:0000411c       ??_C@_0M@HDIJIOFC@cl_freelook?$AA@ 0060311c     cl_main.obj
 0003:0000412c       ??_C@_0O@EKMGNMKC@cl_mouseAccel?$AA@ 0060312c     cl_main.obj
 0003:0000413c       ??_C@_0M@JFLMCFNC@sensitivity?$AA@ 0060313c     cl_main.obj
 0003:0000414c       ??_C@_06HFMKGFEH@cl_run?$AA@ 0060314c     cl_main.obj
 0003:00004154       ??_C@_02PJNFELNH@30?$AA@   00603154     cl_main.obj
 0003:00004158       ??_C@_0BB@FCKNHEAF@cl_anglespeedkey?$AA@ 00603158     cl_main.obj
 0003:0000416c       ??_C@_03GMOBGHL@1?45?$AA@  0060316c     cl_main.obj
 0003:00004170       ??_C@_0O@KLONPPKB@cl_pitchspeed?$AA@ 00603170     cl_main.obj
 0003:00004180       ??_C@_0M@JHKIFKKF@cl_yawspeed?$AA@ 00603180     cl_main.obj
 0003:00004190       ??_C@_03GKAIMEJI@140?$AA@  00603190     cl_main.obj
 0003:00004194       ??_C@_0M@OFMEHMGC@rconAddress?$AA@ 00603194     cl_main.obj
 0003:000041a4       ??_C@_0BA@HFABJKOC@cl_forceavidemo?$AA@ 006031a4     cl_main.obj
 0003:000041b8       ??_C@_0BB@OBCCIEBC@cl_aviMotionJpeg?$AA@ 006031b8     cl_main.obj
 0003:000041cc       ??_C@_0BA@CPMBENDP@cl_aviFrameRate?$AA@ 006031cc     cl_main.obj
 0003:000041e0       ??_C@_02IFGANFKF@25?$AA@   006031e0     cl_main.obj
 0003:000041e4       ??_C@_0BC@BACPONID@cl_autoRecordDemo?$AA@ 006031e4     cl_main.obj
 0003:000041fc       ??_C@_0P@FHFHNBDM@cl_timedemoLog?$AA@ 006031fc     cl_main.obj
 0003:00004210       ??_C@_08LGFIIHD@timedemo?$AA@ 00603210     cl_main.obj
 0003:0000421c       ??_C@_0N@DJJLAFOK@rconPassword?$AA@ 0060321c     cl_main.obj
 0003:0000422c       ??_C@_0O@NDLMCONH@cl_freezeDemo?$AA@ 0060322c     cl_main.obj
 0003:0000423c       ??_C@_0BB@FEJGPFPP@cl_showTimeDelta?$AA@ 0060323c     cl_main.obj
 0003:00004250       ??_C@_0M@FIFNOBJK@cl_showSend?$AA@ 00603250     cl_main.obj
 0003:00004260       ??_C@_0L@MNBOPENL@cl_shownet?$AA@ 00603260     cl_main.obj
 0003:00004270       ??_C@_0N@PNJIOFAD@cl_timeNudge?$AA@ 00603270     cl_main.obj
 0003:00004280       ??_C@_0L@JCNOFHIK@cl_timeout?$AA@ 00603280     cl_main.obj
 0003:00004290       ??_C@_03HPLEMDKK@200?$AA@  00603290     cl_main.obj
 0003:00004294       ??_C@_07CFPJCBPL@cl_motd?$AA@ 00603294     cl_main.obj
 0003:000042a0       ??_C@_0L@EEOFAGMJ@cl_noprint?$AA@ 006032a0     cl_main.obj
 0003:000042b0       ??_C@_0CD@IPKBNFJ@?9?9?9?9?9?5Client?5Initialization?5?9?9?9?9@ 006032b0     cl_main.obj
 0003:000042dc       ??_C@_05CFPGCNL@demos?$AA@ 006032dc     cl_main.obj
 0003:000042e4       ??_C@_06KDKPKJKM@?4dm_?$CFd?$AA@ 006032e4     cl_main.obj
 0003:000042ec       ??_C@_0BA@HNABCAPC@QKEY?5generated?6?$AA@ 006032ec     cl_main.obj
 0003:00004300       ??_C@_0CC@IADNMGOC@QKEY?5could?5not?5open?5?$CFs?5for?5write@ 00603300     cl_main.obj
 0003:00004328       ??_C@_0BN@PEHEPNO@QKEY?5building?5random?5string?6?$AA@ 00603328     cl_main.obj
 0003:0000434c       ??_C@_0CE@IINBNOPK@QKEY?5file?5size?5?$CB?$DN?5?$CFd?0?5regenerati@ 0060334c     cl_main.obj
 0003:00004378       ??_C@_0N@GPGGPNKB@QKEY?5found?4?6?$AA@ 00603378     cl_main.obj
 0003:00004388       ??_C@_0BJ@NDLHEOCN@?9?9?9?9?9?9?9?9?9?9?9?9?9?9?9?9?9?9?9?9?9?9?9?6?$AA@ 00603388     cl_main.obj
 0003:000043a8       ??_C@_08PPJNGBMG@userinfo?$AA@ 006033a8     cl_main.obj
 0003:000043b4       ??_C@_0BN@GHLHHFEC@WARNING?3?5Recursive?5shutdown?6?$AA@ 006033b4     cl_main.obj
 0003:000043d8       ??_C@_0CC@HKMGEBMA@?9?9?9?9?9?5Client?5Shutdown?5?$CI?$CFs?$CJ?5?9?9?9?9?9@ 006033d8     cl_main.obj
 0003:00004400       ??_C@_06DJHOIPC@?$CFs?3?5?$CFs?$AA@ 00603400     cl_main.obj
 0003:00004408       ??_C@_0CO@PDOECEBD@MAX_OTHER_SERVERS?5hit?0?5dropping?5@ 00603408     cl_main.obj
 0003:00004440       ??_C@_07EAJPOACB@nettype?$AA@ 00603440     cl_main.obj
 0003:0000444c       ??_C@_0BI@DBADJLIK@ping?5time?5?$CFdms?5from?5?$CFs?6?$AA@ 0060344c     cl_main.obj
 0003:00004468       ??_C@_0CE@BMBLKOLI@Different?5protocol?5info?5packet?3?5@ 00603468     cl_main.obj
 0003:00004494       ??_C@_0L@CNOGMKDC@punkbuster?$AA@ 00603494     cl_main.obj
 0003:000044a4       ??_C@_07MMIKBOAN@maxping?$AA@ 006034a4     cl_main.obj
 0003:000044b0       ??_C@_07CKOKLBOM@minping?$AA@ 006034b0     cl_main.obj
 0003:000044bc       ??_C@_08NJPDEKHO@gametype?$AA@ 006034bc     cl_main.obj
 0003:000044c8       ??_C@_04MJNAPEEI@game?$AA@ 006034c8     cl_main.obj
 0003:000044d0       ??_C@_0O@OCOCOONB@sv_maxclients?$AA@ 006034d0     cl_main.obj
 0003:000044e0       ??_C@_08EHKIGBEA@hostname?$AA@ 006034e0     cl_main.obj
 0003:000044ec       ??_C@_07HKJFGNHJ@clients?$AA@ 006034ec     cl_main.obj
 0003:000044f8       ??_C@_09EKLELPNI@getstatus?$AA@ 006034f8     cl_main.obj
 0003:00004504       ??_C@_0BK@GJAGDIHH@?$CF?92d?5?5?5?$CF?93d?5?5?5?5?$CF?93d?5?5?5?$CFs?6?$AA@ 00603504     cl_main.obj
 0003:00004524       ??_C@_07CIFAGBMG@unknown?$AA@ 00603524     cl_main.obj
 0003:00004530       ??_C@_05OKMLJOMC@?$CFd?5?$CFd?$AA@ 00603530     cl_main.obj
 0003:00004538       ??_C@_0BJ@FOGFOPMO@num?3?5score?3?5ping?3?5name?3?6?$AA@ 00603538     cl_main.obj
 0003:00004558       ??_C@_0L@GBJHHNEK@?6Players?3?6?$AA@ 00603558     cl_main.obj
 0003:00004568       ??_C@_05FNFPHGDP@?$CF?924s?$AA@ 00603568     cl_main.obj
 0003:00004570       ??_C@_0BC@KPIAKMPH@Server?5settings?3?6?$AA@ 00603570     cl_main.obj
 0003:00004588       ??_C@_0BA@HEMALGFI@?$PP?$PP?$PP?$PPgetinfo?5xxx?$AA@ 00603588     cl_main.obj
 0003:0000459c       ??_C@_0CO@LIFGMECC@Scanning?5for?5servers?5on?5the?5loca@ 0060359c     cl_main.obj
 0003:000045d4       ??_C@_0L@ODKAENOL@getservers?$AA@ 006035d4     cl_main.obj
 0003:000045e4       ??_C@_0BK@KHMNMBB@getserversExt?5Trepidation?$AA@ 006035e4     cl_main.obj
 0003:00004604       ??_C@_0CG@FGMKEBHF@Requesting?5servers?5from?5master?5?$CF@ 00603604     cl_main.obj
 0003:00004638       ??_C@_0ED@FIJGLDHN@CL_GlobalServers_f?3?5Error?3?5could@ 00603638     cl_main.obj
 0003:00004688       ??_C@_0DM@DEEIBIDL@CL_GlobalServers_f?3?5Error?3?5No?5ma@ 00603688     cl_main.obj
 0003:000046d0       ??_C@_0M@NKNLNGNE@sv_master?$CFd?$AA@ 006036d0     cl_main.obj
 0003:000046e0       ??_C@_0DL@LMAPMEJE@usage?3?5globalservers?5?$DMmaster?$CD?50?9@ 006036e0     cl_main.obj
 0003:00004728       ??_C@_0M@PAOKIPMI@getinfo?5xxx?$AA@ 00603728     cl_main.obj
 0003:00004738       ??_C@_0BM@EKDJJBFB@usage?3?5ping?5?$FL?94?$HM?96?$FN?5server?6?$AA@ 00603738     cl_main.obj
 0003:0000475c       ??_C@_0CE@PBJJPHNJ@usage?3?5serverstatus?5?$FL?94?$HM?96?$FN?5serv@ 0060375c     cl_main.obj
 0003:00004788       ??_C@_04NOJCDH@?$CF02x?$AA@ 00603788     cl_main.obj
 0003:00004790       ??_C@_08IAIPBLGP@svc_voip?$AA@ 00603790     cl_parse.obj
 0003:0000479c       ??_C@_0O@OJKHPALM@svc_extension?$AA@ 0060379c     cl_parse.obj
 0003:000047ac       ??_C@_07HCLGPMGL@svc_EOF?$AA@ 006037ac     cl_parse.obj
 0003:000047b8       ??_C@_0N@NPHPNCMK@svc_snapshot?$AA@ 006037b8     cl_parse.obj
 0003:000047c8       ??_C@_0N@NJJNDAEC@svc_download?$AA@ 006037c8     cl_parse.obj
 0003:000047d8       ??_C@_0BC@MPNLMMMD@svc_serverCommand?$AA@ 006037d8     cl_parse.obj
 0003:000047f0       ??_C@_0N@BGKJKGIK@svc_baseline?$AA@ 006037f0     cl_parse.obj
 0003:00004800       ??_C@_0BB@FCKFJGAJ@svc_configstring?$AA@ 00603800     cl_parse.obj
 0003:00004814       ??_C@_0O@LFJOIOEL@svc_gamestate?$AA@ 00603814     cl_parse.obj
 0003:00004824       ??_C@_07LENEADMB@svc_nop?$AA@ 00603824     cl_parse.obj
 0003:00004830       ??_C@_07NKDCEGCG@svc_bad?$AA@ 00603830     cl_parse.obj
 0003:0000483c       ??_C@_07ENBOGMFB@?$CF3i?3?$CFs?6?$AA@ 0060383c     cl_parse.obj
 0003:00004848       ??_C@_0BE@HJHAKBFM@?$CF3i?3?5?5baseline?3?5?$CFi?6?$AA@ 00603848     cl_parse.obj
 0003:00004860       ??_C@_0BB@PEEFLBGI@?$CF3i?3?5?5delta?3?5?$CFi?6?$AA@ 00603860     cl_parse.obj
 0003:00004874       ??_C@_0BF@DMOLEINN@?$CF3i?3?5?5unchanged?3?5?$CFi?6?$AA@ 00603874     cl_parse.obj
 0003:00004890       ??_C@_0CH@FIOHCEPK@CL_ParsePacketEntities?3?5end?5of?5m@ 00603890     cl_parse.obj
 0003:000048c0       ??_C@_0CD@OFCDBLEN@?5?5?5snapshot?3?$CFi?5?5delta?3?$CFi?5?5ping?3?$CF@ 006038c0     cl_parse.obj
 0003:000048ec       ??_C@_0BA@HLANGOLO@packet?5entities?$AA@ 006038ec     cl_parse.obj
 0003:00004900       ??_C@_0M@DCHLDPOO@playerstate?$AA@ 00603900     cl_parse.obj
 0003:00004910       ??_C@_0DA@OKCCADDD@CL_ParseSnapshot?3?5Invalid?5size?5?$CF@ 00603910     cl_parse.obj
 0003:0000494c       ??_C@_0CB@DKGPPJCN@Delta?5parseEntitiesNum?5too?5old?4?6@ 0060394c     cl_parse.obj
 0003:00004974       ??_C@_0BG@KNOBNHLI@Delta?5frame?5too?5old?4?6?$AA@ 00603974     cl_parse.obj
 0003:00004990       ??_C@_0DF@IPHEMKHH@Delta?5from?5invalid?5frame?5?$CInot?5su@ 00603990     cl_parse.obj
 0003:000049d0       ??_C@_07CAKOHKGL@sv_pure?$AA@ 006039d0     cl_parse.obj
 0003:000049dc       ??_C@_0CP@BIKFDJDK@?$FO3WARNING?3?5server?5is?5not?5allowed@ 006039dc     cl_parse.obj
 0003:00004a14       ??_C@_0DB@INCMDBMG@?$FO3WARNING?3?5Server?5sent?5invalid?5f@ 00603a14     cl_parse.obj
 0003:00004a50       ??_C@_07FMAMAFJE@fs_game?$AA@ 00603a50     cl_parse.obj
 0003:00004a5c       ??_C@_0BG@GLEJBOHO@sv_referencedPakNames?$AA@ 00603a5c     cl_parse.obj
 0003:00004a78       ??_C@_0BC@GMMNJNGA@sv_referencedPaks?$AA@ 00603a78     cl_parse.obj
 0003:00004a90       ??_C@_0M@POGHGNMP@sv_pakNames?$AA@ 00603a90     cl_parse.obj
 0003:00004aa0       ??_C@_07PALKJHIL@sv_paks?$AA@ 00603aa0     cl_parse.obj
 0003:00004aac       ??_C@_07LHIMJCLF@sv_voip?$AA@ 00603aac     cl_parse.obj
 0003:00004ab8       ??_C@_0M@KIKMJPNG@sv_serverid?$AA@ 00603ab8     cl_parse.obj
 0003:00004ac8       ??_C@_0CE@PAKDFLME@CL_ParseGamestate?3?5bad?5command?5b@ 00603ac8     cl_parse.obj
 0003:00004af4       ??_C@_0CB@MJAKJKGN@Baseline?5number?5out?5of?5range?3?5?$CFi@ 00603af4     cl_parse.obj
 0003:00004b1c       ??_C@_08GPPKMHEP@sv_dlURL?$AA@ 00603b1c     cl_parse.obj
 0003:00004b28       ??_C@_0BB@MOCFKELF@sv_allowDownload?$AA@ 00603b28     cl_parse.obj
 0003:00004b3c       ??_C@_09PCLPELCK@nextdl?5?$CFd?$AA@ 00603b3c     cl_parse.obj
 0003:00004b48       ??_C@_0BF@FEBHKNJL@Could?5not?5create?5?$CFs?6?$AA@ 00603b48     cl_parse.obj
 0003:00004b64       ??_C@_0CN@HEADJFOK@CL_ParseDownload?3?5Expected?5block@ 00603b64     cl_parse.obj
 0003:00004b9c       ??_C@_0DG@ODBFANFG@CL_ParseDownload?3?5Invalid?5size?5?$CF@ 00603b9c     cl_parse.obj
 0003:00004bdc       ??_C@_06NJGLKCLH@stopdl?$AA@ 00603bdc     cl_parse.obj
 0003:00004be4       ??_C@_0DI@JKPJCOJB@Server?5sending?5download?0?5but?5no?5@ 00603be4     cl_parse.obj
 0003:00004c28       ??_C@_0DB@FPIIIAAE@CL_ParseServerMessage?3?5Illegible@ 00603c28     cl_parse.obj
 0003:00004c64       ??_C@_0BA@JPKIBJNA@?$CF3i?3BAD?5CMD?5?$CFi?6?$AA@ 00603c64     cl_parse.obj
 0003:00004c78       ??_C@_0P@OAODPOMK@END?5OF?5MESSAGE?$AA@ 00603c78     cl_parse.obj
 0003:00004c8c       ??_C@_09NDPCHOCH@EXTENSION?$AA@ 00603c8c     cl_parse.obj
 0003:00004c98       ??_C@_0DH@BBFPEAJH@CL_ParseServerMessage?3?5read?5past@ 00603c98     cl_parse.obj
 0003:00004cdc       ??_C@_0BE@OPHJAJHM@?9?9?9?9?9?9?9?9?9?9?9?9?9?9?9?9?9?9?6?$AA@ 00603cdc     cl_parse.obj
 0003:00004cf4       ??_C@_0DA@MJKJDFMI@VoIP?3?5playback?5?$CFd?5bytes?0?5?$CFd?5samp@ 00603cf4     cl_parse.obj
 0003:00004d30       ??_C@_0BF@DNIIFOPC@VoIP?3?5Short?5packet?$CB?6?$AA@ 00603d30     cl_parse.obj
 0003:00004d50       ??_C@_1GM@DHPCKMNM@?$AA?$CI?$AAw?$AAr?$AAi?$AAt?$AAt?$AAe?$AAn?$AA?5?$AA?$CL?$AA?5?$AAc?$AAl?$AAc?$AA?4?$AAs?$AAp?$AAe?$AAe?$AAx?$AAF?$AAr?$AAa?$AAm?$AAe?$AAS?$AAi?$AAz?$AAe?$AA?$CJ?$AA?5?$AA?$CK@ 00603d50     cl_parse.obj
 0003:00004dd8       ??_C@_1HM@OPMCKON@?$AAc?$AA?3?$AA?2?$AAw?$AAe?$AAb?$AA?2?$AAt?$AAr?$AAe?$AAp?$AAd?$AAe?$AAv?$AA?2?$AAt?$AAr?$AAe?$AAp?$AAi?$AAd?$AAa?$AAt?$AAi?$AAo?$AAn?$AA?2?$AAt?$AAr?$AAe?$AAp?$AA?9@ 00603dd8     cl_parse.obj
 0003:00004e6c       ??_C@_0CJ@PJCENDBN@VoIP?3?5Dropped?5?$CFd?5frames?5from?5cli@ 00603e6c     cl_parse.obj
 0003:00004ea0       ??_C@_0DI@LJJBKLIA@VoIP?3?5Dropped?5way?5too?5many?5?$CI?$CFd?$CJ?5@ 00603ea0     cl_parse.obj
 0003:00004ee4       ??_C@_0CF@OKDBGAFJ@VoIP?3?5misordered?5sequence?$CB?5?$CFd?5?$DM?5@ 00603ee4     cl_parse.obj
 0003:00004f10       ??_C@_0BK@MBMEMJKJ@VoIP?3?5new?5generation?5?$CFd?$CB?6?$AA@ 00603f10     cl_parse.obj
 0003:00004f30       ??_C@_0BI@EDDIOHAH@VoIP?3?5packet?5accepted?$CB?6?$AA@ 00603f30     cl_parse.obj
 0003:00004f4c       ??_C@_0CF@EAEAIBBI@VoIP?3?5?$CFd?9byte?5packet?5from?5client@ 00603f4c     cl_parse.obj
 0003:00004f78       ??_C@_1BG@HMAOPAJ@?$AAw?$AAi?$AAd?$AAt?$AAh?$AA?5?$AA?$CB?$AA?$DN?$AA?5?$AA0?$AA?$AA@ 00603f78     cl_scrn.obj
 0003:00004f98       ??_C@_1HK@JFELHPOE@?$AAc?$AA?3?$AA?2?$AAw?$AAe?$AAb?$AA?2?$AAt?$AAr?$AAe?$AAp?$AAd?$AAe?$AAv?$AA?2?$AAt?$AAr?$AAe?$AAp?$AAi?$AAd?$AAa?$AAt?$AAi?$AAo?$AAn?$AA?2?$AAt?$AAr?$AAe?$AAp?$AA?9@ 00603f98     cl_scrn.obj
 0003:00005030       __real@4084000000000000    00604030     cl_scrn.obj
 0003:0000503c       __real@41000000            0060403c     cl_scrn.obj
 0003:00005040       __real@41800000            00604040     cl_scrn.obj
 0003:00005044       __real@3d800000            00604044     cl_scrn.obj
 0003:00005048       __real@3fb0000000000000    00604048     cl_scrn.obj
 0003:00005054       ??_C@_0BC@LNEGBKC@RECORDING?5?$CFs?3?5?$CFik?$AA@ 00604054     cl_scrn.obj
 0003:0000506c       ??_C@_0L@IJLKOLPP@VoIP?3?5?$FL?$CFs?$FN?$AA@ 0060406c     cl_scrn.obj
 0003:00005080       __real@4024000000000000    00604080     cl_scrn.obj
 0003:0000508c       ??_C@_0L@CFOJGOPC@graphshift?$AA@ 0060408c     cl_scrn.obj
 0003:0000509c       ??_C@_0L@MJMDNBMK@graphscale?$AA@ 0060409c     cl_scrn.obj
 0003:000050ac       ??_C@_0M@GMACCADH@graphheight?$AA@ 006040ac     cl_scrn.obj
 0003:000050bc       ??_C@_02MLODCJFF@32?$AA@   006040bc     cl_scrn.obj
 0003:000050c0       ??_C@_0L@HHCDLFPE@debuggraph?$AA@ 006040c0     cl_scrn.obj
 0003:000050d0       ??_C@_09GNNLMGGI@timegraph?$AA@ 006040d0     cl_scrn.obj
 0003:000050dc       ??_C@_0CD@LIPOMDOG@SCR_DrawScreenField?3?5bad?5cls?4sta@ 006040dc     cl_scrn.obj
 0003:00005108       ??_C@_0CF@GEKBNHMI@SCR_UpdateScreen?3?5recursively?5ca@ 00604108     cl_scrn.obj
 0003:00005134       ??_C@_0BA@JEMDJBMB@servercache?4dat?$AA@ 00604134     cl_ui.obj
 0003:00005148       ??_C@_0BI@BGKGLAHA@Bad?5UI?5system?5trap?3?5?$CFld?$AA@ 00604148     cl_ui.obj
 0003:00005164       ??_C@_0BG@JBIBCIPI@UI_CIN_PlayCinematic?6?$AA@ 00604164     cl_ui.obj
 0003:00005180       ??_C@_0CN@GAHJOPAL@?$FO3turning?5EXEC_NOW?5?8?$CF?411s?8?5into?5@ 00604180     cl_ui.obj
 0003:000051b8       ??_C@_04KNNLNNGO@quit?$AA@ 006041b8     cl_ui.obj
 0003:000051c0       ??_C@_04HLBMEOMD@addr?$AA@ 006041c0     cl_ui.obj
 0003:000051c8       ??_C@_0CK@FNGBPDDH@User?5Interface?5is?5version?5?$CFd?0?5ex@ 006041c8     cl_ui.obj
 0003:000051fc       ??_C@_0BH@ECPNONCF@VM_Create?5on?5UI?5failed?$AA@ 006041fc     cl_ui.obj
 0003:00005218       ??_C@_02OGLLFMLI@ui?$AA@   00604218     cl_ui.obj
 0003:0000521c       ??_C@_05IHIPGGNN@vm_ui?$AA@ 0060421c     cl_ui.obj
 0003:00005224       ??_C@_0BO@HDIOGFHF@count?5?$CK?5sizeof?$CI?5?$CKcm?4shaders?5?$CJ?$AA@ 00604224     cm_load.obj
 0003:00005248       ??_C@_0DO@MABKFBEH@c?3?2web?2trepdev?2trepidation?2trep?9@ 00604248     cm_load.obj
 0003:00005294       ??_C@_0BE@ELELOBLD@Map?5with?5no?5shaders?$AA@ 00604294     cm_load.obj
 0003:000052ac       ??_C@_0CC@IBCMNOCH@CMod_LoadShaders?3?5funny?5lump?5siz@ 006042ac     cm_load.obj
 0003:000052d4       ??_C@_0BO@DLAIFGNA@out?9?$DOleaf?4numLeafSurfaces?5?$CK?54?$AA@ 006042d4     cm_load.obj
 0003:000052f8       ??_C@_0BN@GHOIIMKJ@out?9?$DOleaf?4numLeafBrushes?5?$CK?54?$AA@ 006042f8     cm_load.obj
 0003:0000531c       ??_C@_0BH@CCEOEHI@MAX_SUBMODELS?5exceeded?$AA@ 0060431c     cm_load.obj
 0003:00005338       ??_C@_0BO@NEONJKAD@count?5?$CK?5sizeof?$CI?5?$CKcm?4cmodels?5?$CJ?$AA@ 00604338     cm_load.obj
 0003:0000535c       ??_C@_0BD@MKELOBFD@Map?5with?5no?5models?$AA@ 0060435c     cm_load.obj
 0003:00005374       ??_C@_0CE@MGJNCBPJ@CMod_LoadSubmodels?3?5funny?5lump?5s@ 00604374     cm_load.obj
 0003:000053a0       ??_C@_0BM@DFNAHEGG@count?5?$CK?5sizeof?$CI?5?$CKcm?4nodes?5?$CJ?$AA@ 006043a0     cm_load.obj
 0003:000053c4       ??_C@_0BB@GPGCHEBB@Map?5has?5no?5nodes?$AA@ 006043c4     cm_load.obj
 0003:000053d8       ??_C@_0CA@CGOMLOLO@MOD_LoadBmodel?3?5funny?5lump?5size?$AA@ 006043d8     cm_load.obj
 0003:00005400       ??_C@_0CE@NNCDCDMG@CMod_LoadBrushes?3?5bad?5shaderNum?3@ 00604400     cm_load.obj
 0003:0000542c       ??_C@_0DA@FNOFIEDM@?$CI?5BOX_BRUSHES?5?$CL?5count?5?$CJ?5?$CK?5sizeof@ 0060442c     cm_load.obj
 0003:00005468       ??_C@_0DG@DFFODCB@cm?4numAreas?5?$CK?5cm?4numAreas?5?$CK?5size@ 00604468     cm_load.obj
 0003:000054a8       ??_C@_0CC@PFPMDKPC@cm?4numAreas?5?$CK?5sizeof?$CI?5?$CKcm?4areas?5@ 006044a8     cm_load.obj
 0003:000054d0       ??_C@_0CM@ILOCJOMC@?$CI?5BOX_LEAFS?5?$CL?5count?5?$CJ?5?$CK?5sizeof?$CI?5@ 006044d0     cm_load.obj
 0003:00005504       ??_C@_0BC@EBABHCIG@Map?5with?5no?5leafs?$AA@ 00604504     cm_load.obj
 0003:0000551c       ??_C@_0CO@PHHNKDIO@?$CI?5BOX_PLANES?5?$CL?5count?5?$CJ?5?$CK?5sizeof?$CI@ 0060451c     cm_load.obj
 0003:00005554       ??_C@_0BD@FKOGFNAN@Map?5with?5no?5planes?$AA@ 00604554     cm_load.obj
 0003:0000556c       ??_C@_0DC@NJGGBPAJ@?$CIcount?5?$CL?5BOX_BRUSHES?$CJ?5?$CK?5sizeof?$CI?5@ 0060456c     cm_load.obj
 0003:000055a8       ??_C@_0CD@GIJJGEFB@count?5?$CK?5sizeof?$CI?5?$CKcm?4leafsurfaces@ 006045a8     cm_load.obj
 0003:000055d4       ??_C@_0CH@MJKOBAAK@CMod_LoadBrushSides?3?5bad?5shaderN@ 006045d4     cm_load.obj
 0003:00005604       ??_C@_0DB@FCHCOBNC@?$CI?5BOX_SIDES?5?$CL?5count?5?$CJ?5?$CK?5sizeof?$CI?5@ 00604604     cm_load.obj
 0003:00005640       ??_C@_0L@HADKEJID@l?9?$DOfilelen?$AA@ 00604640     cm_load.obj
 0003:00005650       ??_C@_03BKCJCHLK@len?$AA@  00604650     cm_load.obj
 0003:00005654       ??_C@_0BA@OBNKAALD@cm?4clusterBytes?$AA@ 00604654     cm_load.obj
 0003:00005668       ??_C@_0BL@GCIBIODK@ParseMesh?3?5MAX_PATCH_VERTS?$AA@ 00604668     cm_load.obj
 0003:00005688       ??_C@_0BB@ELDBGPIC@sizeof?$CI?5?$CKpatch?5?$CJ?$AA@ 00604688     cm_load.obj
 0003:0000569c       ??_C@_0CK@KBOCBBIG@cm?4numSurfaces?5?$CK?5sizeof?$CI?5cm?4surf@ 0060469c     cm_load.obj
 0003:000056d0       ??_C@_0DK@KJOJIHED@CM_LoadMap?3?5?$CFs?5has?5wrong?5version@ 006046d0     cm_load.obj
 0003:00005718       ??_C@_0BB@OEPBHON@Couldn?8t?5load?5?$CFs?$AA@ 00604718     cm_load.obj
 0003:0000572c       ??_C@_0BG@JGBNEMJA@sizeof?$CI?5?$CKcm?4cmodels?5?$CJ?$AA@ 0060472c     cm_load.obj
 0003:00005748       ??_C@_0BG@FOHJEOAK@CM_LoadMap?$CI?5?$CFs?0?5?$CFi?5?$CJ?6?$AA@ 00604748     cm_load.obj
 0003:00005764       ??_C@_0BD@GHKOGBLC@cm_playerCurveClip?$AA@ 00604764     cm_load.obj
 0003:0000577c       ??_C@_0M@DMJHPFDE@cm_noCurves?$AA@ 0060477c     cm_load.obj
 0003:0000578c       ??_C@_0L@GKMKNHLN@cm_noAreas?$AA@ 0060478c     cm_load.obj
 0003:0000579c       ??_C@_0BG@KOPIJPGC@CM_LoadMap?3?5NULL?5name?$AA@ 0060479c     cm_load.obj
 0003:000057b8       ??_C@_0CO@INDKCALG@CM_ClipHandleToModel?3?5bad?5handle@ 006047b8     cm_load.obj
 0003:000057f0       ??_C@_0CE@IDDBKAAE@CM_ClipHandleToModel?3?5bad?5handle@ 006047f0     cm_load.obj
 0003:0000581c       ??_C@_0BL@CFOECHKA@CM_InlineModel?3?5bad?5number?$AA@ 0060481c     cm_load.obj
 0003:0000583c       ??_C@_0BL@NKFJNPCM@CM_LeafCluster?3?5bad?5number?$AA@ 0060483c     cm_load.obj
 0003:0000585c       ??_C@_0BI@LLPODCBJ@CM_LeafArea?3?5bad?5number?$AA@ 0060485c     cm_load.obj
 0003:00005878       __real@bf800000            00604878     cm_load.obj
 0003:00005880       __real@3f947ae147ae147b    00604880     cm_patch.obj
 0003:00005890       __real@3f1a36e2eb1c432d    00604890     cm_patch.obj
 0003:000058a0       __real@bff0000000000000    006048a0     cm_patch.obj
 0003:000058ac       ??_C@_0BB@JNELFKGE@MAX_PATCH_PLANES?$AA@ 006048ac     cm_patch.obj
 0003:000058c0       ??_C@_0CN@BPJNCPGM@WARNING?3?5CM_AddFacetBevels?4?4?4?5in@ 006048c0     cm_patch.obj
 0003:000058f8       ??_C@_0CD@OEGHCJEG@WARNING?3?5bevel?5plane?5already?5use@ 006048f8     cm_patch.obj
 0003:00005928       __real@3fb999999999999a    00604928     cm_patch.obj
 0003:00005934       ??_C@_0BI@JFDENLMJ@ERROR?3?5too?5many?5bevels?6?$AA@ 00604934     cm_patch.obj
 0003:00005950       __real@3dcccccd            00604950     cm_patch.obj
 0003:00005954       ??_C@_0O@JMKMDBI@sizeof?$CI?5?$CKpf?5?$CJ?$AA@ 00604954     cm_patch.obj
 0003:00005964       ??_C@_0DP@PKIFPPHF@c?3?2web?2trepdev?2trepidation?2trep?9@ 00604964     cm_patch.obj
 0003:000059b0       ??_C@_0DC@BHAKBNNN@CM_GeneratePatchFacets?3?5source?5i@ 006049b0     cm_patch.obj
 0003:000059f0       ??_C@_0EE@IBFPNDNH@CM_GeneratePatchFacets?3?5even?5siz@ 006049f0     cm_patch.obj
 0003:00005a44       ??_C@_0DF@ODLAAPCB@CM_GeneratePatchFacets?3?5bad?5para@ 00604a44     cm_patch.obj
 0003:00005a88       __real@bfb999999999999a    00604a88     cm_patch.obj
 0003:00005a94       ??_C@_0CC@GIMHNJMA@numPlanes?5?$CK?5sizeof?$CI?5?$CKpf?9?$DOplanes?5@ 00604a94     cm_patch.obj
 0003:00005abc       ??_C@_0CC@EIPNMLHO@numFacets?5?$CK?5sizeof?$CI?5?$CKpf?9?$DOfacets?5@ 00604abc     cm_patch.obj
 0003:00005ae4       ??_C@_0L@BHDFOPIG@MAX_FACETS?$AA@ 00604ae4     cm_patch.obj
 0003:00005af4       ??_C@_0BH@LLNEMILC@CM_EdgePlaneNum?3?5bad?5k?$AA@ 00604af4     cm_patch.obj
 0003:00005b10       __real@4010000000000000    00604b10     cm_patch.obj
 0003:00005b1c       ??_C@_0CE@NJNBHFJK@WARNING?3?5CM_GridPlane?5unresolvab@ 00604b1c     cm_patch.obj
 0003:00005b48       ??_C@_0DA@PCDKAIPH@WARNING?3?5CM_SetBorderInward?3?5mix@ 00604b48     cm_patch.obj
 0003:00005b84       ??_C@_0CC@BGGAAOHM@CM_SetBorderInward?3?5bad?5paramete@ 00604b84     cm_patch.obj
 0003:00005bb0       __real@c0efffe000000000    00604bb0     cm_patch.obj
 0003:00005bc0       __real@40efffe000000000    00604bc0     cm_patch.obj
 0003:00005bd0       __real@3fc0000000000000    00604bd0     cm_patch.obj
 0003:00005bdc       ??_C@_0BF@BAKLCMON@r_debugSurfaceUpdate?$AA@ 00604bdc     cm_patch.obj
 0003:00005bf8       __real@47c34f80            00604bf8     cm_patch.obj
 0003:00005bfc       ??_C@_0CH@BLOEEIKO@winding?5chopped?5away?5by?5border?5p@ 00604bfc     cm_patch.obj
 0003:00005c2c       ??_C@_0N@JBOPDDFG@cm_debugSize?$AA@ 00604c2c     cm_patch.obj
 0003:00005c3c       ??_C@_0P@ENOIJBKF@r_debugSurface?$AA@ 00604c3c     cm_patch.obj
 0003:00005c50       __real@41e00000            00604c50     cm_patch.obj
 0003:00005c54       __real@41700000            00604c54     cm_patch.obj
 0003:00005c58       __real@c1e00000            00604c58     cm_patch.obj
 0003:00005c5c       __real@c1700000            00604c5c     cm_patch.obj
 0003:00005c60       ??_C@_0BH@LNMPEGNH@?$CI?$CF5?41f?0?5?$CF5?41f?0?5?$CF5?41f?$CJ?6?$AA@ 00604c60     cm_polylib.obj
 0003:00005c7c       ??_C@_01LKDEMHDF@s?$AA@    00604c7c     cm_polylib.obj
 0003:00005c80       ??_C@_0EB@GOIFFIJD@c?3?2web?2trepdev?2trepidation?2trep?9@ 00604c80     cm_polylib.obj
 0003:00005cd0       ??_C@_0CD@BOFJFDD@FreeWinding?3?5freed?5a?5freed?5windi@ 00604cd0     cm_polylib.obj
 0003:00005d00       __real@3feff7ced916872b    00604d00     cm_polylib.obj
 0003:00005d0c       __real@c77fff00            00604d0c     cm_polylib.obj
 0003:00005d10       __real@477fff00            00604d10     cm_polylib.obj
 0003:00005d14       ??_C@_0CD@BHBKGNIF@BaseWindingForPlane?3?5no?5axis?5fou@ 00604d14     cm_polylib.obj
 0003:00005d40       ??_C@_0CD@PEDPMDOJ@ClipWinding?3?5MAX_POINTS_ON_WINDI@ 00604d40     cm_polylib.obj
 0003:00005d6c       ??_C@_0CG@OLJCNKCC@ClipWinding?3?5points?5exceeded?5est@ 00604d6c     cm_polylib.obj
 0003:00005d9c       ??_C@_0BJ@OGJJAGOO@CheckWinding?3?5non?9convex?$AA@ 00604d9c     cm_polylib.obj
 0003:00005dbc       ??_C@_0BO@BKAOIPNM@CheckWinding?3?5degenerate?5edge?$AA@ 00604dbc     cm_polylib.obj
 0003:00005de0       ??_C@_0BO@IFHIHAOC@CheckWinding?3?5point?5off?5plane?$AA@ 00604de0     cm_polylib.obj
 0003:00005e08       __real@3fb99999a0000000    00604e08     cm_polylib.obj
 0003:00005e18       __real@bfb99999a0000000    00604e18     cm_polylib.obj
 0003:00005e24       ??_C@_0BL@MEPEMAFE@CheckFace?3?5BUGUS_RANGE?3?5?$CFf?$AA@ 00604e24     cm_polylib.obj
 0003:00005e44       ??_C@_0BG@EFPIHBAE@CheckWinding?3?5?$CFf?5area?$AA@ 00604e44     cm_polylib.obj
 0003:00005e60       ??_C@_0BI@CIEPJPFG@CheckWinding?3?5?$CFi?5points?$AA@ 00604e60     cm_polylib.obj
 0003:00005e7c       ??_C@_0BH@BFMDHBGF@FloodArea_r?3?5reflooded?$AA@ 00604e7c     cm_test.obj
 0003:00005e98       ??_C@_0DD@NONPJOAP@CM_AdjustAreaPortalState?3?5negati@ 00604e98     cm_test.obj
 0003:00005ed8       ??_C@_0CK@BFFNFBLN@CM_ChangeAreaPortalState?3?5bad?5ar@ 00604ed8     cm_test.obj
 0003:00005f0c       ??_C@_0BE@NBHJNIOB@area?5?$DO?$DN?5cm?4numAreas?$AA@ 00604f0c     cm_test.obj
 0003:00005f24       __real@3fc00000            00604f24     cm_trace.obj
 0003:00005f28       __real@45000000            00604f28     cm_trace.obj
 0003:00005f30       ??_C@_1MK@BFJNMHOP@?$AAt?$AAw?$AA?4?$AAt?$AAr?$AAa?$AAc?$AAe?$AA?4?$AAa?$AAl?$AAl?$AAs?$AAo?$AAl?$AAi?$AAd?$AA?5?$AA?$HM?$AA?$HM?$AA?5?$AAt?$AAw?$AA?4?$AAt?$AAr?$AAa?$AAc?$AAe?$AA?4?$AAf?$AAr@ 00604f30     cm_trace.obj
 0003:00006028       ??_C@_1HO@ILOMMDBJ@?$AAc?$AA?3?$AA?2?$AAw?$AAe?$AAb?$AA?2?$AAt?$AAr?$AAe?$AAp?$AAd?$AAe?$AAv?$AA?2?$AAt?$AAr?$AAe?$AAp?$AAi?$AAd?$AAa?$AAt?$AAi?$AAo?$AAn?$AA?2?$AAt?$AAr?$AAe?$AAp?$AA?9@ 00605028     cm_trace.obj
 0003:000060c0       __real@3fefff2e48e8a71e    006050c0     cm_trace.obj
 0003:000060cc       ??_C@_0BI@JOMBKBLK@Cbuf_AddText?3?5overflow?6?$AA@ 006050cc     cmd.obj
 0003:000060e8       ??_C@_0BM@KMPIOOIF@Cbuf_InsertText?5overflowed?6?$AA@ 006050e8     cmd.obj
 0003:0000610c       ??_C@_0CA@HHKKPMIM@Cbuf_ExecuteText?3?5bad?5exec_when?$AA@ 0060510c     cmd.obj
 0003:00006134       ??_C@_0P@BMHHELFI@?$FO3EXEC_NOW?5?$CFs?6?$AA@ 00605134     cmd.obj
 0003:00006148       ??_C@_0M@NJLDBOCK@execing?5?$CFs?6?$AA@ 00605148     cmd.obj
 0003:00006158       ??_C@_0BC@EKILBLKK@couldn?8t?5exec?5?$CFs?6?$AA@ 00605158     cmd.obj
 0003:00006170       ??_C@_04IFJILJI@?4cfg?$AA@ 00605170     cmd.obj
 0003:00006178       ??_C@_0CJ@HNMBJIBF@exec?5?$DMfilename?$DO?5?3?5execute?5a?5scri@ 00605178     cmd.obj
 0003:000061ac       ??_C@_0DC@EJOKMNAB@vstr?5?$DMvariablename?$DO?5?3?5execute?5a?5@ 006051ac     cmd.obj
 0003:000061e8       ??_C@_03IFGMLMOM@?6?$AN?$DL?$AA@ 006051e8     cmd.obj
 0003:000061ec       ??_C@_0BH@GPJDCFFC@sizeof?$CIcmd_function_t?$CJ?$AA@ 006051ec     cmd.obj
 0003:00006208       ??_C@_0DK@JOFBAKEN@c?3?2web?2trepdev?2trepidation?2trep?9@ 00605208     cmd.obj
 0003:00006250       ??_C@_0CE@BLDHFDBK@Cmd_AddCommand?3?5?$CFs?5already?5defin@ 00605250     cmd.obj
 0003:0000627c       ??_C@_0N@IIIOLKJI@?$CFi?5commands?6?$AA@ 0060527c     cmd.obj
 0003:0000628c       ??_C@_03JBMODCPM@cfg?$AA@  0060528c     cmd.obj
 0003:00006290       ??_C@_04PNOAOIAG@wait?$AA@ 00605290     cmd.obj
 0003:00006298       ??_C@_04HIDEMJAH@vstr?$AA@ 00605298     cmd.obj
 0003:000062a0       ??_C@_04MGEIEJAD@exec?$AA@ 006052a0     cmd.obj
 0003:000062a8       ??_C@_07LKLFKPJJ@cmdlist?$AA@ 006052a8     cmd.obj
 0003:000062b4       ??_C@_07HMINABEO@logfile?$AA@ 006052b4     common.obj
 0003:000062c0       ??_C@_0BO@JFMPPDLN@Opening?5qconsole?4log?5failed?$CB?6?$AA@ 006052c0     common.obj
 0003:000062e4       ??_C@_0BG@HNINGLEK@logfile?5opened?5on?5?$CFs?6?$AA@ 006052e4     common.obj
 0003:00006300       ??_C@_0N@HGNLKJGF@qconsole?4log?$AA@ 00605300     common.obj
 0003:00006310       ??_C@_0BJ@IBDLHMCI@Server?5fatal?5crashed?3?5?$CFs?$AA@ 00605310     common.obj
 0003:00006330       ??_C@_0BJ@LHGKAPMJ@Client?5fatal?5crashed?3?5?$CFs?$AA@ 00605330     common.obj
 0003:00006350       ??_C@_0BH@PKJLOEHK@Server?5didn?8t?5have?5CD?6?$AA@ 00605350     common.obj
 0003:0000636c       ??_C@_0BG@HEAMPAAA@Server?5didn?8t?5have?5CD?$AA@ 0060536c     common.obj
 0003:00006388       ??_C@_0BD@BIDIHMCD@Server?5crashed?3?5?$CFs?$AA@ 00605388     common.obj
 0003:000063a0       ??_C@_0DF@NMNFBMEP@?$CK?$CK?$CK?$CK?$CK?$CK?$CK?$CK?$CK?$CK?$CK?$CK?$CK?$CK?$CK?$CK?$CK?$CK?$CK?$CK?6ERROR?3?5?$CFs?6?$CK@ 006053a0     common.obj
 0003:000063e0       ??_C@_0BE@GGMJFFIK@Server?5disconnected?$AA@ 006053e0     common.obj
 0003:000063f8       ??_C@_0O@LNHIHMDL@com_errorCode?$AA@ 006053f8     common.obj
 0003:00006408       ??_C@_0BK@DDHCKPII@recursive?5error?5after?3?5?$CFs?$AA@ 00605408     common.obj
 0003:00006428       ??_C@_0M@OMPDCFDF@Client?5quit?$AA@ 00605428     common.obj
 0003:00006438       ??_C@_0N@GPGLOFGG@cvar_restart?$AA@ 00605438     common.obj
 0003:00006448       ??_C@_04FAOFCKOL@safe?$AA@ 00605448     common.obj
 0003:00006450       ??_C@_03KCHOJKKI@set?$AA@  00605450     common.obj
 0003:00006454       ??_C@_0P@JAPNKEH@MISSING?5VALUE?6?$AA@ 00605454     common.obj
 0003:00006468       ??_C@_0CE@FGOINGFL@Z_Free?3?5memory?5block?5wrote?5past?5@ 00605468     common.obj
 0003:00006494       ??_C@_0BO@KPDAKNIP@Z_Free?3?5freed?5a?5freed?5pointer?$AA@ 00605494     common.obj
 0003:000064b8       ??_C@_0CH@OJFIIOIA@Z_Free?3?5freed?5a?5pointer?5without?5@ 006054b8     common.obj
 0003:000064e8       ??_C@_0BF@IBBHAAHI@Z_Free?3?5NULL?5pointer?$AA@ 006054e8     common.obj
 0003:00006504       ??_C@_0DM@CJFCFDMA@Z_Malloc?3?5failed?5on?5allocation?5o@ 00605504     common.obj
 0003:0000654c       ??_C@_04GHJNJNPO@main?$AA@ 0060554c     common.obj
 0003:00006554       ??_C@_05KJDGBEEG@small?$AA@ 00605554     common.obj
 0003:0000655c       ??_C@_0CC@LIMDBBOP@Z_TagMalloc?3?5tried?5to?5use?5a?50?5ta@ 0060555c     common.obj
 0003:00006584       ??_C@_0CK@MHBJLLKL@Z_CheckHeap?3?5two?5consecutive?5fre@ 00605584     common.obj
 0003:000065b8       ??_C@_0DH@DHOAKNHO@Z_CheckHeap?3?5next?5block?5doesn?8t?5@ 006055b8     common.obj
 0003:000065fc       ??_C@_0DH@PDLFHKNN@Z_CheckHeap?3?5block?5size?5does?5not@ 006055fc     common.obj
 0003:00006640       ??_C@_0BI@MAFPOHOH@?$CFd?5?$CFs?5memory?5overhead?$AN?6?$AA@ 00605640     common.obj
 0003:0000665c       ??_C@_0BM@BAHOBDOG@?$CFd?5?$CFs?5memory?5in?5?$CFd?5blocks?$AN?6?$AA@ 0060565c     common.obj
 0003:00006680       ??_C@_0CF@PJBDDOGL@size?5?$DN?5?$CF8d?3?5?$CFs?0?5line?3?5?$CFd?5?$CI?$CFs?$CJ?5?$FL?$CF@ 00605680     common.obj
 0003:000066ac       ??_C@_0CP@MANOLJKG@?$AN?6?$DN?$DN?$DN?$DN?$DN?$DN?$DN?$DN?$DN?$DN?$DN?$DN?$DN?$DN?$DN?$DN?$AN?6?$CFs?5log?$AN?6?$DN?$DN?$DN?$DN@ 006056ac     common.obj
 0003:000066e4       ??_C@_05GCKAPDAI@SMALL?$AA@ 006056e4     common.obj
 0003:000066ec       ??_C@_04KLKHHPIG@MAIN?$AA@ 006056ec     common.obj
 0003:000066f4       ??_C@_0N@LECNMEFA@strlen?$CIin?$CJ?$CL1?$AA@ 006056f4     common.obj
 0003:00006704       ??_C@_0DN@KCLKJDDG@c?3?2web?2trepdev?2trepidation?2trep?9@ 00605704     common.obj
 0003:00006750       ??_C@_0CI@OANEJCJB@?5?5?5?5?5?5?5?5?$CF8i?5bytes?5in?5small?5Zone?5@ 00605750     common.obj
 0003:00006780       ??_C@_0CE@NPDILPEO@?5?5?5?5?5?5?5?5?$CF8i?5bytes?5in?5dynamic?5oth@ 00605780     common.obj
 0003:000067ac       ??_C@_0CH@EOLLDOAN@?5?5?5?5?5?5?5?5?$CF8i?5bytes?5in?5dynamic?5ren@ 006057ac     common.obj
 0003:000067dc       ??_C@_0CF@CNFAILNA@?5?5?5?5?5?5?5?5?$CF8i?5bytes?5in?5dynamic?5bot@ 006057dc     common.obj
 0003:00006808       ??_C@_0BN@HAFIPPM@?$CF8i?5bytes?5in?5?$CFi?5zone?5blocks?6?$AA@ 00605808     common.obj
 0003:0000682c       ??_C@_0BG@FENEFIEO@?$CF8i?5unused?5highwater?6?$AA@ 0060582c     common.obj
 0003:00006848       ??_C@_0BH@CLOMEGOK@?$CF8i?5total?5hunk?5in?5use?6?$AA@ 00605848     common.obj
 0003:00006864       ??_C@_0BI@GFEBGNFI@?$CF8i?5high?5tempHighwater?6?$AA@ 00605864     common.obj
 0003:00006880       ??_C@_0P@PNBADBH@?$CF8i?5high?5temp?6?$AA@ 00605880     common.obj
 0003:00006894       ??_C@_0BE@HHMLFLFC@?$CF8i?5high?5permanent?6?$AA@ 00605894     common.obj
 0003:000068ac       ??_C@_0P@MGIBPNNM@?$CF8i?5high?5mark?6?$AA@ 006058ac     common.obj
 0003:000068c0       ??_C@_0BH@FCECDNPG@?$CF8i?5low?5tempHighwater?6?$AA@ 006058c0     common.obj
 0003:000068dc       ??_C@_0O@IOIEGEPB@?$CF8i?5low?5temp?6?$AA@ 006058dc     common.obj
 0003:000068ec       ??_C@_0BD@DOEBODMG@?$CF8i?5low?5permanent?6?$AA@ 006058ec     common.obj
 0003:00006904       ??_C@_0O@EHNEJKDK@?$CF8i?5low?5mark?6?$AA@ 00605904     common.obj
 0003:00006914       ??_C@_0BG@OCFDAFBB@?$CF8i?5bytes?5total?5zone?6?$AA@ 00605914     common.obj
 0003:00006930       ??_C@_0BG@IMIDAEKI@?$CF8i?5bytes?5total?5hunk?6?$AA@ 00605930     common.obj
 0003:0000694c       ??_C@_0CE@BLFCFJMN@ERROR?3?5two?5consecutive?5free?5bloc@ 0060594c     common.obj
 0003:00006978       ??_C@_0DB@INBMMEOG@ERROR?3?5next?5block?5doesn?8t?5have?5p@ 00605978     common.obj
 0003:000069b4       ??_C@_0DB@EJEJBDEF@ERROR?3?5block?5size?5does?5not?5touch@ 006059b4     common.obj
 0003:000069f0       ??_C@_0CB@IHMKPJJG@block?3?$CFp?5?5?5?5size?3?$CF7i?5?5?5?5tag?3?$CF3i?6@ 006059f0     common.obj
 0003:00006a18       ??_C@_0BK@CDNNLLKC@Com_TouchMemory?3?5?$CFi?5msec?6?$AA@ 00605a18     common.obj
 0003:00006a38       ??_C@_0CO@GEDAJKNP@Small?5zone?5data?5failed?5to?5alloca@ 00605a38     common.obj
 0003:00006a70       __real@4130000000000000    00605a70     common.obj
 0003:00006a7c       ??_C@_0CF@OPBLBLPA@Zone?5data?5failed?5to?5allocate?5?$CFi?5@ 00605a7c     common.obj
 0003:00006aa8       ??_C@_0N@MAMMMEDK@com_zoneMegs?$AA@ 00605aa8     common.obj
 0003:00006ab8       ??_C@_02JMHLOEOE@24?$AA@   00605ab8     common.obj
 0003:00006abc       ??_C@_0BB@PCMLDEB@?$CFd?5hunk?5blocks?$AN?6?$AA@ 00605abc     common.obj
 0003:00006ad0       ??_C@_0BB@OAKONLKG@?$CFd?5Hunk?5memory?$AN?6?$AA@ 00605ad0     common.obj
 0003:00006ae4       ??_C@_0CA@DEIGDGFG@size?5?$DN?5?$CF8d?3?5?$CFs?0?5line?3?5?$CFd?5?$CI?$CFs?$CJ?$AN?6?$AA@ 00605ae4     common.obj
 0003:00006b0c       ??_C@_0DB@BHMHHFJ@?$AN?6?$DN?$DN?$DN?$DN?$DN?$DN?$DN?$DN?$DN?$DN?$DN?$DN?$DN?$DN?$DN?$DN?$AN?6Hunk?5log?$AN?6?$DN?$DN@ 00605b0c     common.obj
 0003:00006b48       ??_C@_0DH@MKFMPAEL@?$AN?6?$DN?$DN?$DN?$DN?$DN?$DN?$DN?$DN?$DN?$DN?$DN?$DN?$DN?$DN?$DN?$DN?$AN?6Hunk?5Small?5l@ 00605b48     common.obj
 0003:00006b8c       ??_C@_0N@KHAFGFJD@hunksmalllog?$AA@ 00605b8c     common.obj
 0003:00006b9c       ??_C@_07ODFIHFKE@hunklog?$AA@ 00605b9c     common.obj
 0003:00006ba8       ??_C@_07KBFIDOBD@zonelog?$AA@ 00605ba8     common.obj
 0003:00006bb4       ??_C@_07FNDDLPMM@meminfo?$AA@ 00605bb4     common.obj
 0003:00006bc0       ??_C@_0CF@BDKJHKGO@Hunk?5data?5failed?5to?5allocate?5?$CFi?5@ 00605bc0     common.obj
 0003:00006bec       ??_C@_0DB@DJODFHPN@Minimum?5com_hunkMegs?5is?5?$CFi?0?5allo@ 00605bec     common.obj
 0003:00006c28       ??_C@_0EI@EOGOECDI@Minimum?5com_hunkMegs?5for?5a?5dedic@ 00605c28     common.obj
 0003:00006c80       ??_C@_0N@JFILOCFO@com_hunkMegs?$AA@ 00605c80     common.obj
 0003:00006c90       ??_C@_02JLHCEMDI@64?$AA@   00605c90     common.obj
 0003:00006c94       ??_C@_0DM@JGPFFDMA@Hunk?5initialization?5failed?4?5File@ 00605c94     common.obj
 0003:00006cdc       ??_C@_0BP@KPGLMOBC@Hunk_Clear?3?5reset?5the?5hunk?5ok?6?$AA@ 00605cdc     common.obj
 0003:00006d04       ??_C@_0BI@DFDJEDO@Hunk_Alloc?5failed?5on?5?$CFi?$AA@ 00605d04     common.obj
 0003:00006d20       ??_C@_0CP@BHLCFLCK@Hunk_Alloc?3?5Hunk?5memory?5system?5n@ 00605d20     common.obj
 0003:00006d58       ??_C@_0CG@IDCIPPIH@Hunk_AllocateTempMemory?3?5failed?5@ 00605d58     common.obj
 0003:00006d88       ??_C@_0CK@KPLCADKN@Hunk_FreeTempMemory?3?5not?5the?5fin@ 00605d88     common.obj
 0003:00006dbc       ??_C@_0BP@DFPHFPJG@Hunk_FreeTempMemory?3?5bad?5magic?$AA@ 00605dbc     common.obj
 0003:00006de4       ??_C@_06LJNMFAHO@com_jp?$AA@ 00605de4     common.obj
 0003:00006dec       ??_C@_0O@DIBGPJML@hunk?5trashed?6?$AA@ 00605dec     common.obj
 0003:00006dfc       ??_C@_0BN@MJLDDPNI@Couldn?8t?5open?5journal?5files?6?$AA@ 00605dfc     common.obj
 0003:00006e20       ??_C@_0M@COLEEONP@com_journal?$AA@ 00605e20     common.obj
 0003:00006e30       ??_C@_0BM@POMPJIOA@Replaying?5journaled?5events?6?$AA@ 00605e30     common.obj
 0003:00006e54       ??_C@_0BA@OJDELHBG@journaldata?4dat?$AA@ 00605e54     common.obj
 0003:00006e68       ??_C@_0M@BEDDKMKF@journal?4dat?$AA@ 00605e68     common.obj
 0003:00006e78       ??_C@_0BD@MBEKCKFD@Journaling?5events?6?$AA@ 00605e78     common.obj
 0003:00006e90       ??_C@_07CFFBIKLI@journal?$AA@ 00605e90     common.obj
 0003:00006e9c       ??_C@_0BK@JECDBLNE@Com_QueueEvent?3?5overflow?6?$AA@ 00605e9c     common.obj
 0003:00006ebc       ??_C@_0BO@GBMLCFPO@Error?5writing?5to?5journal?5file?$AA@ 00605ebc     common.obj
 0003:00006ee0       ??_C@_0P@PLFFBPED@ev?4evPtrLength?$AA@ 00605ee0     common.obj
 0003:00006ef4       ??_C@_0CA@BFODPKNC@Error?5reading?5from?5journal?5file?$AA@ 00605ef4     common.obj
 0003:00006f1c       ??_C@_0CB@OJGNBCMC@WARNING?3?5Com_PushEvent?5overflow?6@ 00605f1c     common.obj
 0003:00006f44       ??_C@_0BJ@GPNJLJPC@SV_PacketEvent?5time?3?5?$CFi?6?$AA@ 00605f44     common.obj
 0003:00006f64       ??_C@_0CA@ENDIPNNF@Com_EventLoop?3?5oversize?5packet?6?$AA@ 00605f64     common.obj
 0003:00006f8c       ??_C@_0CB@HFEJCBKA@Com_EventLoop?3?5bad?5event?5type?5?$CFi@ 00605f8c     common.obj
 0003:00006fb4       ??_C@_0O@PJAFINBM@?$CFs?5undefined?6?$AA@ 00605fb4     common.obj
 0003:00006fc4       ??_C@_06BAKFFEGN@?$CFs?$DN?$CFs?6?$AA@ 00605fc4     common.obj
 0003:00006fcc       ??_C@_0BD@PHEIHMPD@exec?5autoexec?4cfg?6?$AA@ 00605fcc     common.obj
 0003:00006fe4       ??_C@_0BF@NEALEMOE@exec?5trepconfig?4cfg?6?$AA@ 00605fe4     common.obj
 0003:00007000       ??_C@_0BG@LCEJGFIE@exec?5trepidation?4cfg?6?$AA@ 00606000     common.obj
 0003:0000701c       ??_C@_0BH@IBFHMOJL@Game?5directory?5changed?$AA@ 0060601c     common.obj
 0003:00007038       ??_C@_0BB@FHAPCDKO@?5?5?5?5?5?5?5?5?5?5?5?5?5?5?5?5?$AA@ 00606038     common.obj
 0003:0000704c       ??_C@_08LAIDFEPP@?$CFs?1q3key?$AA@ 0060604c     common.obj
 0003:00007058       ??_C@_0CI@HOGAMGJF@?9?9?9?5Common?5Initialization?5Comple@ 00606058     common.obj
 0003:00007088       ??_C@_0BE@DIBMBDCC@cinematic?5intro?4RoQ?$AA@ 00606088     common.obj
 0003:000070a0       ??_C@_0BG@DLPIPEDG@cinematic?5idlogo?4RoQ?6?$AA@ 006060a0     common.obj
 0003:000070bc       ??_C@_0O@KELEIBIB@Abnormal?5Exit?$AA@ 006060bc     common.obj
 0003:000070d0       ??_C@_0KF@HOCOAKLN@The?5last?5time?5Trepidation?5Consol@ 006060d0     common.obj
 0003:00007198       ??_C@_08EPEHIMMI@?$CFs?5?$CFs?5?$CFs?$AA@ 00606198     common.obj
 0003:000071a4       ??_C@_0BA@PBHFIIBP@com_introplayed?$AA@ 006061a4     common.obj
 0003:000071b8       ??_C@_0BB@KOKIHGCA@com_abnormalExit?$AA@ 006061b8     common.obj
 0003:000071cc       ??_C@_0BE@BEIJLPOL@com_maxfpsMinimized?$AA@ 006061cc     common.obj
 0003:000071e4       ??_C@_0O@MOBBIKAN@com_minimized?$AA@ 006061e4     common.obj
 0003:000071f4       ??_C@_0BE@BGLGGJMI@com_maxfpsUnfocused?$AA@ 006061f4     common.obj
 0003:0000720c       ??_C@_0O@MMCOFMCO@com_unfocused?$AA@ 0060620c     common.obj
 0003:0000721c       ??_C@_0O@IBGJIKBE@com_ansiColor?$AA@ 0060621c     common.obj
 0003:0000722c       ??_C@_0BA@MOHNLIKA@com_buildScript?$AA@ 0060622c     common.obj
 0003:00007240       ??_C@_0L@MPAGGMDN@sv_running?$AA@ 00606240     common.obj
 0003:00007250       ??_C@_0P@NGCPPKPJ@sv_packetdelay?$AA@ 00606250     common.obj
 0003:00007264       ??_C@_0P@CGMIIDEB@cl_packetdelay?$AA@ 00606264     common.obj
 0003:00007278       ??_C@_09CGEBDJFG@sv_paused?$AA@ 00606278     common.obj
 0003:00007284       ??_C@_0L@JMMMBHPM@com_speeds?$AA@ 00606284     common.obj
 0003:00007294       ??_C@_0M@FAMBDMMF@com_dropsim?$AA@ 00606294     common.obj
 0003:000072a4       ??_C@_0O@LCCBKALF@com_showtrace?$AA@ 006062a4     common.obj
 0003:000072b4       ??_C@_09BHOLEJHN@fixedtime?$AA@ 006062b4     common.obj
 0003:000072c0       ??_C@_09IIOBMIO@timescale?$AA@ 006062c0     common.obj
 0003:000072cc       ??_C@_09DKNLLEN@com_blood?$AA@ 006062cc     common.obj
 0003:000072d8       ??_C@_0L@PCENNGCA@com_maxfps?$AA@ 006062d8     common.obj
 0003:000072e8       ??_C@_02IIPHFAHD@85?$AA@   006062e8     common.obj
 0003:000072ec       ??_C@_0M@ILGGPGEB@com_altivec?$AA@ 006062ec     common.obj
 0003:000072fc       ??_C@_09BJOAODLF@dedicated?$AA@ 006062fc     common.obj
 0003:00007308       ??_C@_0N@BIDKIDNF@game_restart?$AA@ 00606308     common.obj
 0003:00007318       ??_C@_0M@HMAJCOKO@writeconfig?$AA@ 00606318     common.obj
 0003:00007328       ??_C@_0O@OGEFLAOE@changeVectors?$AA@ 00606328     common.obj
 0003:00007338       ??_C@_06NANJHIPM@freeze?$AA@ 00606338     common.obj
 0003:00007340       ??_C@_05DLEGDHMH@crash?$AA@ 00606340     common.obj
 0003:00007348       ??_C@_05KKCIMGE@error?$AA@ 00606348     common.obj
 0003:00007350       ??_C@_06NMKMANLK@setenv?$AA@ 00606350     common.obj
 0003:00007358       ??_C@_09DNECJBKD@developer?$AA@ 00606358     common.obj
 0003:00007364       ??_C@_0BM@JMOBJEDO@Error?5during?5initialization?$AA@ 00606364     common.obj
 0003:00007388       ??_C@_09GPBPOFIE@?$CFs?5?$CFs?5?$CFs?6?$AA@ 00606388     common.obj
 0003:00007394       ??_C@_0BD@OKPHMKLE@win_msvc?9x86?9debug?$AA@ 00606394     common.obj
 0003:000073ac       ??_C@_0M@PHDNLELC@Oct?531?52016?$AA@ 006063ac     common.obj
 0003:000073bc       ??_C@_0BE@PFFNONJO@Testing?5fatal?5error?$AA@ 006063bc     common.obj
 0003:000073d4       ??_C@_0BD@DDPCEAL@Testing?5drop?5error?$AA@ 006063d4     common.obj
 0003:000073ec       ??_C@_0BC@DJHDECHL@freeze?5?$DMseconds?$DO?6?$AA@ 006063ec     common.obj
 0003:00007404       ??_C@_0CG@FPKFBBME@?1?1?5generated?5by?5quake?0?5do?5not?5mo@ 00606404     common.obj
 0003:00007434       ??_C@_04BHIIPFEC@base?$AA@ 00606434     common.obj
 0003:0000743c       ??_C@_0P@MJDPDFOG@trepconfig?4cfg?$AA@ 0060643c     common.obj
 0003:00007450       ??_C@_0EM@CPHPFGMM@?1?1?5id?5Software?5and?5Activision?5wi@ 00606450     common.obj
 0003:000074ac       ??_C@_0CG@ILMLHNJJ@?1?1?5Do?5not?5give?5this?5file?5to?5ANYO@ 006064ac     common.obj
 0003:000074dc       ??_C@_0CI@PFGDDHBG@?6?1?1?5generated?5by?5quake?0?5do?5not?5m@ 006064dc     common.obj
 0003:0000750c       ??_C@_0BO@EAJNKBKJ@Couldn?8t?5write?5CD?5key?5to?5?$CFs?4?6?$AA@ 0060650c     common.obj
 0003:00007530       ??_C@_0N@FMLDMECN@Writing?5?$CFs?4?6?$AA@ 00606530     common.obj
 0003:00007540       ??_C@_0BP@JAAMJFGO@Usage?3?5writeconfig?5?$DMfilename?$DO?6?$AA@ 00606540     common.obj
 0003:00007568       ??_C@_0CD@IHBFIHBI@Hitch?5warning?3?5?$CFi?5msec?5frame?5tim@ 00606568     common.obj
 0003:00007594       ??_C@_0CC@HBLLGKBA@?$CF4i?5traces?5?5?$CI?$CFib?5?$CFip?$CJ?5?$CF4i?5points@ 00606594     common.obj
 0003:000075bc       ??_C@_0DM@DEOKJHOL@frame?3?$CFi?5all?3?$CF3i?5sv?3?$CF3i?5ev?3?$CF3i?5c@ 006065bc     common.obj
 0003:00007604       ??_C@_0BD@KBDKCAEM@dedicated?5set?5to?50?$AA@ 00606604     common.obj
 0003:00007620       __real@c00921fb60000000    00606620     common.obj
 0003:0000762c       __real@40490fdb            0060662c     common.obj
 0003:00007630       __real@400921fb60000000    00606630     common.obj
 0003:0000763c       ??_C@_07FBMPDAOB@?5?5?5?5?$CFs?6?$AA@ 0060663c     common.obj
 0003:00007648       ??_C@_02JPEBCGCN@?5?$CC?$AA@ 00606648     common.obj
 0003:0000764c       ??_C@_0P@IEBKLLPB@?5?5?5?5?$CFs?5?$DN?5?$CC?$CFs?$CC?6?$AA@ 0060664c     common.obj
 0003:00007660       ??_C@_0CL@NLCEDKAF@Com_RandomBytes?3?5using?5weak?5rand@ 00606660     common.obj
 0003:00007694       ??_C@_0DA@PDIADLDC@Error?3?5Too?5many?5cvars?0?5cannot?5cr@ 00606694     cvar.obj
 0003:000076d0       ??_C@_0DI@GOCCEMPD@Warning?3?5cvar?5?$CC?$CFs?$CC?5given?5initial@ 006066d0     cvar.obj
 0003:00007714       ??_C@_07LGPHKPBC@BADNAME?$AA@ 00606714     cvar.obj
 0003:00007720       ??_C@_0BO@HIEMFHPL@invalid?5cvar?5name?5string?3?5?$CFs?6?$AA@ 00606720     cvar.obj
 0003:00007744       ??_C@_0BJ@EGPKCOBM@Cvar_Get?3?5NULL?5parameter?$AA@ 00606744     cvar.obj
 0003:00007764       ??_C@_0BB@PMBEKGHO@?0?5setting?5to?5?$CFf?6?$AA@ 00606764     cvar.obj
 0003:00007778       ??_C@_02NJPGOMH@?$CFf?$AA@ 00606778     cvar.obj
 0003:0000777c       ??_C@_0BB@PPJAHCBA@?0?5setting?5to?5?$CFd?6?$AA@ 0060677c     cvar.obj
 0003:00007790       ??_C@_0BH@FOKBNIEN@?5out?5of?5range?5?$CImax?5?$CFf?$CJ?$AA@ 00606790     cvar.obj
 0003:000077ac       ??_C@_0BH@FNCFAMCD@?5out?5of?5range?5?$CImax?5?$CFd?$CJ?$AA@ 006067ac     cvar.obj
 0003:000077c8       ??_C@_0BH@LIMBHHKM@?5out?5of?5range?5?$CImin?5?$CFf?$CJ?$AA@ 006067c8     cvar.obj
 0003:000077e4       ??_C@_0BH@LLEFKDMC@?5out?5of?5range?5?$CImin?5?$CFd?$CJ?$AA@ 006067e4     cvar.obj
 0003:00007800       ??_C@_0BD@MLFAGBAM@WARNING?3?5cvar?5?8?$CFs?8?$AA@ 00606800     cvar.obj
 0003:00007818       ??_C@_07PDAAMPJC@?5and?5is?$AA@ 00606818     cvar.obj
 0003:00007824       ??_C@_0CD@LFCNCEDI@WARNING?3?5cvar?5?8?$CFs?8?5must?5be?5numer@ 00606824     cvar.obj
 0003:00007850       ??_C@_0CE@HKJFDELK@WARNING?3?5cvar?5?8?$CFs?8?5must?5be?5integ@ 00606850     cvar.obj
 0003:0000787c       ??_C@_0P@OHLLLJFN@latched?3?5?$CC?$CFs?$CC?6?$AA@ 0060687c     cvar.obj
 0003:00007890       ??_C@_0BA@DIDPAHFP@?5default?3?$CC?$CFs?$FO7?$CC?$AA@ 00606890     cvar.obj
 0003:000078a4       ??_C@_0O@KDGAAFPI@?0?5the?5default?$AA@ 006068a4     cvar.obj
 0003:000078b4       ??_C@_0P@NIKEMLMM@?$CC?$CFs?$CC?5is?3?$CC?$CFs?$FO7?$CC?$AA@ 006068b4     cvar.obj
 0003:000078c8       ??_C@_0BI@NNDBDFOI@?$CFs?5is?5cheat?5protected?4?6?$AA@ 006068c8     cvar.obj
 0003:000078e4       ??_C@_0CF@MMBKLCAG@?$CFs?5will?5be?5changed?5upon?5restarti@ 006068e4     cvar.obj
 0003:00007910       ??_C@_0BI@PGDNNHME@?$CFs?5is?5write?5protected?4?6?$AA@ 00606910     cvar.obj
 0003:0000792c       ??_C@_0BC@PCJCNELF@?$CFs?5is?5read?5only?4?6?$AA@ 0060692c     cvar.obj
 0003:00007944       ??_C@_0BJ@JABBIEMB@Cvar?5?$CFs?5does?5not?5exist?4?6?$AA@ 00606944     cvar.obj
 0003:00007964       ??_C@_0BJ@IMAPFCGJ@usage?3?5print?5?$DMvariable?$DO?6?$AA@ 00606964     cvar.obj
 0003:00007984       ??_C@_0BO@ODGNJNNO@toggle?3?5nothing?5to?5toggle?5to?6?$AA@ 00606984     cvar.obj
 0003:000079a8       ??_C@_0DA@KMNKHND@usage?3?5toggle?5?$DMvariable?$DO?5?$FLvalue1@ 006069a8     cvar.obj
 0003:000079e4       ??_C@_0BO@FAGJOBJM@usage?3?5?$CFs?5?$DMvariable?$DO?5?$DMvalue?$DO?6?$AA@ 006069e4     cvar.obj
 0003:00007a08       ??_C@_0BJ@HCHIPOJA@usage?3?5reset?5?$DMvariable?$DO?6?$AA@ 00606a08     cvar.obj
 0003:00007a28       ??_C@_0O@IMDAJAHE@seta?5?$CFs?5?$CC?$CFs?$CC?6?$AA@ 00606a28     cvar.obj
 0003:00007a38       ??_C@_0DN@DKGDNEHA@?$FO3WARNING?3?5value?5of?5variable?5?$CC?$CFs@ 00606a38     cvar.obj
 0003:00007a84       ??_C@_08JANFGNJF@cl_cdkey?$AA@ 00606a84     cvar.obj
 0003:00007a90       ??_C@_0BB@ELMIENAI@?$CFi?5cvar?5indexes?6?$AA@ 00606a90     cvar.obj
 0003:00007aa4       ??_C@_0BB@CNBPFGFL@?6?$CFi?5total?5cvars?6?$AA@ 00606aa4     cvar.obj
 0003:00007ab8       ??_C@_09INMFINGF@?5?$CFs?5?$CC?$CFs?$CC?6?$AA@ 00606ab8     cvar.obj
 0003:00007ac4       ??_C@_01OGPIMHDM@?$DP?$AA@ 00606ac4     cvar.obj
 0003:00007ac8       ??_C@_01GFHCPBMG@C?$AA@    00606ac8     cvar.obj
 0003:00007acc       ??_C@_01OCOKONAJ@L?$AA@    00606acc     cvar.obj
 0003:00007ad0       ??_C@_01FHEEJDEE@A?$AA@    00606ad0     cvar.obj
 0003:00007ad4       ??_C@_01JPJNBJEM@I?$AA@    00606ad4     cvar.obj
 0003:00007ad8       ??_C@_01DGKLNCNG@R?$AA@    00606ad8     cvar.obj
 0003:00007adc       ??_C@_01HJOKEEBB@U?$AA@    00606adc     cvar.obj
 0003:00007ae0       ??_C@_01CPLAODJH@S?$AA@    00606ae0     cvar.obj
 0003:00007ae4       ??_C@_0CN@OIODNOCF@Error?3?5?$CFs?3?5Variable?5?$CFs?5is?5not?5us@ 00606ae4     cvar.obj
 0003:00007b1c       ??_C@_0BF@NHPLNLKO@Usage?3?5?$CFs?5?$DMvarname?$DO?6?$AA@ 00606b1c     cvar.obj
 0003:00007b38       ??_C@_0EI@DMMDFKBG@?$FO3WARNING?3?5Unsetting?5CVAR_ROM?5cv@ 00606b38     cvar.obj
 0003:00007b90       ??_C@_0DM@CADHDAHP@Cvar_Update?3?5src?5?$CFs?5length?5?$CFd?5ex@ 00606b90     cvar.obj
 0003:00007bd8       ??_C@_0CB@LCNMLEBG@Cvar_Update?3?5handle?5out?5of?5range@ 00606bd8     cvar.obj
 0003:00007c00       ??_C@_1O@JHDIIDHB@?$AAv?$AAm?$AAC?$AAv?$AAa?$AAr?$AA?$AA@ 00606c00     cvar.obj
 0003:00007c10       ??_C@_1HG@MAECJOEH@?$AAc?$AA?3?$AA?2?$AAw?$AAe?$AAb?$AA?2?$AAt?$AAr?$AAe?$AAp?$AAd?$AAe?$AAv?$AA?2?$AAt?$AAr?$AAe?$AAp?$AAi?$AAd?$AAa?$AAt?$AAi?$AAo?$AAn?$AA?2?$AAt?$AAr?$AAe?$AAp?$AA?9@ 00606c10     cvar.obj
 0003:00007ca0       ??_C@_08HKAEGNIC@cvarlist?$AA@ 00606ca0     cvar.obj
 0003:00007cac       ??_C@_05EPBFLBEJ@unset?$AA@ 00606cac     cvar.obj
 0003:00007cb4       ??_C@_05CFMALAOA@reset?$AA@ 00606cb4     cvar.obj
 0003:00007cbc       ??_C@_04KEEJAPKG@seta?$AA@ 00606cbc     cvar.obj
 0003:00007cc4       ??_C@_04IKOHNIPD@setu?$AA@ 00606cc4     cvar.obj
 0003:00007ccc       ??_C@_04NMLNHPHF@sets?$AA@ 00606ccc     cvar.obj
 0003:00007cd4       ??_C@_06FHLCKAHH@toggle?$AA@ 00606cd4     cvar.obj
 0003:00007d08       ??_C@_0BH@ENNDMPLD@FS_FileForHandle?3?5NULL?$AA@ 00606d08     files.obj
 0003:00007d24       ??_C@_0CN@FJPHMIMA@FS_FileForHandle?3?5can?8t?5get?5FILE@ 00606d24     files.obj
 0003:00007d5c       ??_C@_0BP@EPPOCFOF@FS_FileForHandle?3?5out?5of?5range?$AA@ 00606d5c     files.obj
 0003:00007d84       ??_C@_04HDOCAJNK@?$CFs?$CFs?$AA@ 00606d84     files.obj
 0003:00007d8c       ??_C@_06HALAHGDI@?1?$CFs?1?$CFs?$AA@ 00606d8c     files.obj
 0003:00007d94       ??_C@_0CL@KIMDIOGK@FS_CreatePath?3?5failed?5to?5create?5@ 00606d94     files.obj
 0003:00007dc8       ??_C@_0DA@OPJLIFHH@WARNING?3?5refusing?5to?5create?5rela@ 00606dc8     files.obj
 0003:00007e04       ??_C@_02MOLJINC@?3?3?$AA@  00606e04     files.obj
 0003:00007e08       ??_C@_02DJGKEECL@?4?4?$AA@ 00606e08     files.obj
 0003:00007e0c       ??_C@_09GPGAJHPD@?$CIunknown?$CJ?$AA@ 00606e0c     files.obj
 0003:00007e18       ??_C@_0DI@PJAPLDDG@?$CFs?3?5Not?5allowed?5to?5manipulate?5?8?$CF@ 00606e18     files.obj
 0003:00007e5c       ??_C@_04HLONOPDM@?4dll?$AA@ 00606e5c     files.obj
 0003:00007e64       ??_C@_02JDPG@rb?$AA@       00606e64     files.obj
 0003:00007e68       ??_C@_02GMLFBBN@wb?$AA@    00606e68     files.obj
 0003:00007e6c       ??_C@_0BA@MLCEENKL@writing?5to?3?5?$CFs?6?$AA@ 00606e6c     files.obj
 0003:00007e80       ??_C@_0BK@KMAALCKD@FS_SV_FOpenFileWrite?3?5?$CFs?6?$AA@ 00606e80     files.obj
 0003:00007ea0       ??_C@_0CN@OMHGMFID@Filesystem?5call?5made?5without?5ini@ 00606ea0     files.obj
 0003:00007ed8       ??_C@_0BM@PCLMEAKM@FS_HandleForFile?3?5none?5free?$AA@ 00606ed8     files.obj
 0003:00007efc       ??_C@_0CH@DIDGHCFB@FS_SV_FOpenFileRead?5?$CIfs_basepath@ 00606efc     files.obj
 0003:00007f2c       ??_C@_0CH@NKEDPAKN@FS_SV_FOpenFileRead?5?$CIfs_homepath@ 00606f2c     files.obj
 0003:00007f5c       ??_C@_0BJ@HAKJFOOE@FS_SV_Rename?3?5?$CFs?5?9?9?$DO?5?$CFs?6?$AA@ 00606f5c     files.obj
 0003:00007f7c       ??_C@_0BP@DCHMDBJP@Short?5write?5in?5FS_Copyfiles?$CI?$CJ?6?$AA@ 00606f7c     files.obj
 0003:00007fa4       ??_C@_0BO@PEGACBP@Short?5read?5in?5FS_Copyfiles?$CI?$CJ?6?$AA@ 00606fa4     files.obj
 0003:00007fc8       ??_C@_0BI@CAOFAEDB@Ignoring?5journal?5files?6?$AA@ 00606fc8     files.obj
 0003:00007fe4       ??_C@_0P@KGHBPCIF@copy?5?$CFs?5to?5?$CFs?6?$AA@ 00606fe4     files.obj
 0003:00007ff8       ??_C@_0BG@PNPFEECE@FS_Rename?3?5?$CFs?5?9?9?$DO?5?$CFs?6?$AA@ 00606ff8     files.obj
 0003:00008014       ??_C@_0BH@DHOJCMAJ@FS_FOpenFileWrite?3?5?$CFs?6?$AA@ 00607014     files.obj
 0003:00008030       ??_C@_02BOGAIONP@ab?$AA@   00607030     files.obj
 0003:00008034       ??_C@_0BI@KJCGJHFP@FS_FOpenFileAppend?3?5?$CFs?6?$AA@ 00607034     files.obj
 0003:00008050       ??_C@_0CJ@MGIOFJMI@FS_FOpenFileRead?3?5?$CFs?5?$CIfound?5in?5?8@ 00607050     files.obj
 0003:00008084       ??_C@_04PBCOOEDG@?4dat?$AA@ 00607084     files.obj
 0003:0000808c       ??_C@_05IDJGMGLA@?4game?$AA@ 0060708c     files.obj
 0003:00008094       ??_C@_0CG@BBPIBMKO@FS_FOpenFileRead?3?5?$CFs?5?$CIfound?5in?5?8@ 00607094     files.obj
 0003:000080c4       ??_C@_0BB@MAHHKGJO@Couldn?8t?5open?5?$CFs?$AA@ 006070c4     files.obj
 0003:000080d8       ??_C@_06NOGFNGAL@ui?4qvm?$AA@ 006070d8     files.obj
 0003:000080e0       ??_C@_09JNODIAOK@cgame?4qvm?$AA@ 006070e0     files.obj
 0003:000080ec       ??_C@_0L@COLHAEHO@qagame?4qvm?$AA@ 006070ec     files.obj
 0003:000080fc       ??_C@_05OMAOFEO@?4menu?$AA@ 006070fc     files.obj
 0003:00008104       ??_C@_06IPPMLGON@?4arena?$AA@ 00607104     files.obj
 0003:0000810c       ??_C@_04NONLJGOA@?4bot?$AA@ 0060710c     files.obj
 0003:00008114       ??_C@_0L@LOIHPJMG@levelshots?$AA@ 00607114     files.obj
 0003:00008124       ??_C@_07GACINHDJ@?4config?$AA@ 00607124     files.obj
 0003:00008130       ??_C@_04LCMACLFG@?4txt?$AA@ 00607130     files.obj
 0003:00008138       ??_C@_07MAFDLGF@?4shader?$AA@ 00607138     files.obj
 0003:00008144       ??_C@_05DEAEPJBI@q3key?$AA@ 00607144     files.obj
 0003:0000814c       ??_C@_0DE@FPPDNFFA@FS_FOpenFileRead?3?5NULL?5?8filename@ 0060714c     files.obj
 0003:0000818c       ??_C@_0BH@JBMACPMK@FS_Read?3?5?91?5bytes?5read?$AA@ 0060718c     files.obj
 0003:000081a8       ??_C@_0BM@KBJOLIDM@FS_Write?3?5?91?5bytes?5written?6?$AA@ 006071a8     files.obj
 0003:000081cc       ??_C@_0BL@MHLILIO@FS_Write?3?50?5bytes?5written?6?$AA@ 006071cc     files.obj
 0003:000081ec       ??_C@_0BH@JLADNIGI@Bad?5origin?5in?5FS_Seek?6?$AA@ 006071ec     files.obj
 0003:00008208       ??_C@_0FD@LCODKPAL@Negative?5offsets?5and?5FS_SEEK_END@ 00607208     files.obj
 0003:0000826c       ??_C@_0BN@IBAOHAGH@Writing?5?$CFs?5to?5journal?5file?4?6?$AA@ 0060726c     files.obj
 0003:00008290       ??_C@_0CF@GJHFIHLC@Writing?5len?5for?5?$CFs?5to?5journal?5fi@ 00607290     files.obj
 0003:000082bc       ??_C@_0CG@JNPHIOFB@Writing?5zero?5for?5?$CFs?5to?5journal?5f@ 006072bc     files.obj
 0003:000082ec       ??_C@_0CB@MAKFKKPM@Read?5from?5journalDataFile?5failed@ 006072ec     files.obj
 0003:00008314       ??_C@_0BP@DLEFKJEB@Loading?5?$CFs?5from?5journal?5file?4?6?$AA@ 00607314     files.obj
 0003:0000833c       ??_C@_0BN@KJKCEPNA@FS_ReadFile?5with?5empty?5name?6?$AA@ 0060733c     files.obj
 0003:00008360       ??_C@_0BE@HILOFDOP@FS_FreeFile?$CI?5NULL?5?$CJ?$AA@ 00607360     files.obj
 0003:00008378       ??_C@_0BD@LDIONFIK@Failed?5to?5open?5?$CFs?6?$AA@ 00607378     files.obj
 0003:00008390       ??_C@_0BN@HEBINHD@FS_WriteFile?3?5NULL?5parameter?$AA@ 00607390     files.obj
 0003:000083b4       ??_C@_04JMPKHIOK@?4pk3?$AA@ 006073b4     files.obj
 0003:000083bc       ??_C@_0CO@OLGBLONP@sizeof?$CI?5pack_t?5?$CJ?5?$CL?5i?5?$CK?5sizeof?$CIfi@ 006073bc     files.obj
 0003:000083f4       ??_C@_0CG@DAELKHBF@?$CI?5gi?4number_entry?5?$CL?51?5?$CJ?5?$CK?5sizeof@ 006073f4     files.obj
 0003:00008424       ??_C@_0DB@IKDDFEGN@?$CIgi?4number_entry?5?$CK?5sizeof?$CI?5fileI@ 00607424     files.obj
 0003:00008460       ??_C@_0DM@PGMHIDFE@c?3?2web?2trepdev?2trepidation?2trep?9@ 00607460     files.obj
 0003:000084a8       ??_C@_0CF@BCICEKL@?$CI?5nfiles?5?$CL?51?5?$CJ?5?$CK?5sizeof?$CI?5?$CKlistCo@ 006074a8     files.obj
 0003:000084d4       ??_C@_08GEJGLEOK@$modlist?$AA@ 006074d4     files.obj
 0003:000084e0       ??_C@_0BB@NEJIHPJO@?1description?4txt?$AA@ 006074e0     files.obj
 0003:000084f4       ??_C@_01LFCBOECM@?4?$AA@   006074f4     files.obj
 0003:000084f8       ??_C@_0CG@FHFCLCFD@?$CI?5totalLength?5?$CL?51?5?$CJ?5?$CK?5sizeof?$CI?5ch@ 006074f8     files.obj
 0003:00008528       ??_C@_0BB@DKKMKEBK@?9?9?9?9?9?9?9?9?9?9?9?9?9?9?9?6?$AA@ 00607528     files.obj
 0003:0000853c       ??_C@_0BE@MKJFMONH@Directory?5of?5?$CFs?5?$CFs?6?$AA@ 0060753c     files.obj
 0003:00008554       ??_C@_0CE@GOHPFEGA@usage?3?5dir?5?$DMdirectory?$DO?5?$FLextensio@ 00607554     files.obj
 0003:00008580       ??_C@_0CJ@INLGDABC@?$CI?5numfiles?5?$CL?51?5?$CJ?5?$CK?5sizeof?$CI?5?$CKsort@ 00607580     files.obj
 0003:000085b4       ??_C@_0BB@EGMCJFKN@?$CFd?5files?5listed?6?$AA@ 006075b4     files.obj
 0003:000085c8       ??_C@_0BK@BBJDOPOH@example?3?5fdir?5?$CKq3dm?$CK?4bsp?6?$AA@ 006075c8     files.obj
 0003:000085e8       ??_C@_0BG@OINMOPNJ@usage?3?5fdir?5?$DMfilter?$DO?6?$AA@ 006075e8     files.obj
 0003:00008604       ??_C@_0P@HENFNMJG@handle?5?$CFi?3?5?$CFs?6?$AA@ 00607604     files.obj
 0003:00008618       ??_C@_06KIFJAIP@?$CFs?1?$CFs?6?$AA@ 00607618     files.obj
 0003:00008620       ??_C@_0BG@CENCGGPF@?5?5?5?5on?5the?5pure?5list?6?$AA@ 00607620     files.obj
 0003:0000863c       ??_C@_0BK@MCAEBIFK@?5?5?5?5not?5on?5the?5pure?5list?6?$AA@ 0060763c     files.obj
 0003:0000865c       ??_C@_0P@GCFMIPGN@?$CFs?5?$CI?$CFi?5files?$CJ?6?$AA@ 0060765c     files.obj
 0003:00008670       ??_C@_0BG@HPKHMA@Current?5search?5path?3?6?$AA@ 00607670     files.obj
 0003:0000868c       ??_C@_0BJ@GCFEINHC@Usage?3?5touchFile?5?$DMfile?$DO?6?$AA@ 0060768c     files.obj
 0003:000086ac       ??_C@_0BH@GAJPAFHB@sizeof?$CI?5?$CKsearch?9?$DOdir?5?$CJ?$AA@ 006076ac     files.obj
 0003:000086c8       ??_C@_0BF@NFDBPDKP@sizeof?$CIsearchpath_t?$CJ?$AA@ 006076c8     files.obj
 0003:000086e4       ??_C@_08LGPKPKCN@?$CFs?1pak?$CFd?$AA@ 006076e4     files.obj
 0003:000086f0       ??_C@_03LKILIBFM@?4?4?2?$AA@ 006076f0     files.obj
 0003:000086f4       ??_C@_03LOJJKLGJ@?4?4?1?$AA@ 006076f4     files.obj
 0003:000086f8       ??_C@_0CJ@MOAKOHNN@?5?$CIlocal?5file?5exists?5with?5wrong?5c@ 006076f8     files.obj
 0003:0000872c       ??_C@_0M@KGJNBCOJ@?$CFs?4?$CF08x?4pk3?$AA@ 0060772c     files.obj
 0003:0000873c       ??_C@_06NHIHDJNN@?$CFs?4pk3?$AA@ 0060773c     files.obj
 0003:00008744       ??_C@_01EOFPKCAF@?$EA?$AA@ 00607744     files.obj
 0003:00008748       ??_C@_0CD@JNPCAKIJ@WARNING?3?5Invalid?5download?5name?5?$CF@ 00607748     files.obj
 0003:00008774       ??_C@_0M@PLGKGDEK@missionpack?$AA@ 00607774     files.obj
 0003:00008784       ??_C@_06KOMAFLML@baseq3?$AA@ 00607784     files.obj
 0003:0000878c       ??_C@_09BCJOAAGD@touchFile?$AA@ 0060778c     files.obj
 0003:00008798       ??_C@_04MBOEABIA@fdir?$AA@ 00607798     files.obj
 0003:000087a0       ??_C@_03DAPAKLGM@dir?$AA@  006077a0     files.obj
 0003:000087a4       ??_C@_04LNEJFJGI@path?$AA@ 006077a4     files.obj
 0003:000087ac       ??_C@_0BP@JOGJAID@FS?5search?5reorder?5is?5required?6?$AA@ 006077ac     files.obj
 0003:000087d4       ??_C@_0BN@HAHOMMJP@Connected?5to?5a?5pure?5server?4?6?$AA@ 006077d4     files.obj
 0003:000087f8       ??_C@_0BO@NALAHNHL@Couldn?8t?5load?5trepidation?4cfg?$AA@ 006077f8     files.obj
 0003:0000881c       ??_C@_0BA@HDPPJJLB@trepidation?4cfg?$AA@ 0060781c     files.obj
 0003:00008830       ??_C@_0M@DGDBFJN@fs_basepath?$AA@ 00607830     files.obj
 0003:00008840       ??_C@_0BH@ENGIAIMF@?$CFd?5files?5in?5pk3?5files?6?$AA@ 00607840     files.obj
 0003:0000885c       ??_C@_0BI@FLKKINBM@?9?9?9?9?9?9?9?9?9?9?9?9?9?9?9?9?9?9?9?9?9?9?6?$AA@ 0060785c     files.obj
 0003:00008878       ??_C@_0M@HHPKLILN@fs_basegame?$AA@ 00607878     files.obj
 0003:00008888       ??_C@_08OKNDMBHA@fs_debug?$AA@ 00607888     files.obj
 0003:00008894       ??_C@_0BI@LBEJILEG@?9?9?9?9?9?5FS_Startup?5?9?9?9?9?9?6?$AA@ 00607894     files.obj
 0003:000088b0       ??_C@_0BF@BLDAMEAN@Invalid?5game?5folder?6?$AA@ 006078b0     files.obj
 0003:000088cc       ??_C@_0O@KIDPHDKB@fs_gamedirvar?$AA@ 006078cc     files.obj
 0003:000088dc       ??_C@_0BN@BJKPAIAB@FS_FOpenFileByMode?3?5bad?5mode?$AA@ 006078dc     files.obj
 0003:00008900       ??_C@_04JFFKLGJF@?$CF02X?$AA@ 00607900     md5.obj
 0003:00008908       ??_C@_0M@LANFJBCD@jumppad_ent?$AA@ 00607908     msg.obj
 0003:00008918       ??_C@_0BA@PEKHLKLH@grapplePoint?$FL2?$FN?$AA@ 00607918     msg.obj
 0003:0000892c       ??_C@_0BA@PGOBAEOO@grapplePoint?$FL1?$FN?$AA@ 0060792c     msg.obj
 0003:00008940       ??_C@_0BA@PHCDGONJ@grapplePoint?$FL0?$FN?$AA@ 00607940     msg.obj
 0003:00008954       ??_C@_0O@DMGGNGOM@viewangles?$FL2?$FN?$AA@ 00607954     msg.obj
 0003:00008964       ??_C@_0O@FIJGMFDG@eventParms?$FL1?$FN?$AA@ 00607964     msg.obj
 0003:00008974       ??_C@_0O@FJFEKPAB@eventParms?$FL0?$FN?$AA@ 00607974     msg.obj
 0003:00008984       ??_C@_0L@OCHPBDAP@torsoTimer?$AA@ 00607984     msg.obj
 0003:00008994       ??_C@_0BA@OFFIKLKI@delta_angles?$FL2?$FN?$AA@ 00607994     msg.obj
 0003:000089a8       ??_C@_0BA@OGNMHPMG@delta_angles?$FL0?$FN?$AA@ 006079a8     msg.obj
 0003:000089bc       ??_C@_07HHCKHIKK@pm_type?$AA@ 006079bc     msg.obj
 0003:000089c8       ??_C@_0M@JFNAGFPA@damageCount?$AA@ 006079c8     msg.obj
 0003:000089d8       ??_C@_0M@MJMBEJAO@damagePitch?$AA@ 006079d8     msg.obj
 0003:000089e8       ??_C@_09DCADJNIO@damageYaw?$AA@ 006079e8     msg.obj
 0003:000089f4       ??_C@_0M@HOGACEIB@damageEvent?$AA@ 006079f4     msg.obj
 0003:00008a04       ??_C@_0L@MAFIMFPM@viewheight?$AA@ 00607a04     msg.obj
 0003:00008a14       ??_C@_0BC@GBAGMPPC@externalEventParm?$AA@ 00607a14     msg.obj
 0003:00008a2c       ??_C@_0BA@OHBOBFPB@delta_angles?$FL1?$FN?$AA@ 00607a2c     msg.obj
 0003:00008a40       ??_C@_05HJCMGBKF@speed?$AA@ 00607a40     msg.obj
 0003:00008a48       ??_C@_07GFBFDLBM@gravity?$AA@ 00607a48     msg.obj
 0003:00008a54       ??_C@_0O@NKKNBCBK@externalEvent?$AA@ 00607a54     msg.obj
 0003:00008a64       ??_C@_0M@KALDLEMN@weaponstate?$AA@ 00607a64     msg.obj
 0003:00008a74       ??_C@_08DPFJBFEN@pm_flags?$AA@ 00607a74     msg.obj
 0003:00008a80       ??_C@_09PDPBIKFA@events?$FL1?$FN?$AA@ 00607a80     msg.obj
 0003:00008a8c       ??_C@_09PCDDOAGH@events?$FL0?$FN?$AA@ 00607a8c     msg.obj
 0003:00008a98       ??_C@_0M@POONNNAA@movementDir?$AA@ 00607a98     msg.obj
 0003:00008aa8       ??_C@_0O@GLMOEBPG@eventSequence?$AA@ 00607aa8     msg.obj
 0003:00008ab8       ??_C@_07DDMNBPBG@pm_time?$AA@ 00607ab8     msg.obj
 0003:00008ac4       ??_C@_09FPJALGDE@legsTimer?$AA@ 00607ac4     msg.obj
 0003:00008ad0       ??_C@_0M@DGBCHEDG@velocity?$FL2?$FN?$AA@ 00607ad0     msg.obj
 0003:00008ae0       ??_C@_0L@PNPIGBF@weaponTime?$AA@ 00607ae0     msg.obj
 0003:00008af0       ??_C@_0O@DPOCACIC@viewangles?$FL0?$FN?$AA@ 00607af0     msg.obj
 0003:00008b00       ??_C@_0O@DOCAGILF@viewangles?$FL1?$FN?$AA@ 00607b00     msg.obj
 0003:00008b10       ??_C@_0M@DEFEMKGP@velocity?$FL1?$FN?$AA@ 00607b10     msg.obj
 0003:00008b20       ??_C@_0M@DFJGKAFI@velocity?$FL0?$FN?$AA@ 00607b20     msg.obj
 0003:00008b30       ??_C@_08HDFLKCJP@bobCycle?$AA@ 00607b30     msg.obj
 0003:00008b3c       ??_C@_0M@BGGKMAGH@commandTime?$AA@ 00607b3c     msg.obj
 0003:00008b4c       ??_C@_04KADBPNCB@team?$AA@ 00607b4c     msg.obj
 0003:00008b54       ??_C@_05MIJNFGED@frame?$AA@ 00607b54     msg.obj
 0003:00008b5c       ??_C@_0O@HPPKGIAK@constantLight?$AA@ 00607b5c     msg.obj
 0003:00008b6c       ??_C@_0L@MOGFAHDO@angles2?$FL2?$FN?$AA@ 00607b6c     msg.obj
 0003:00008b7c       ??_C@_0L@MNOBNDFA@angles2?$FL0?$FN?$AA@ 00607b7c     msg.obj
 0003:00008b8c       ??_C@_09PCHELDHA@angles?$FL2?$FN?$AA@ 00607b8c     msg.obj
 0003:00008b98       ??_C@_05CAIMHGND@time2?$AA@ 00607b98     msg.obj
 0003:00008ba0       ??_C@_0BA@EFHFHEJM@apos?4trDelta?$FL2?$FN?$AA@ 00607ba0     msg.obj
 0003:00008bb4       ??_C@_0BA@EHDDMKMF@apos?4trDelta?$FL1?$FN?$AA@ 00607bb4     msg.obj
 0003:00008bc8       ??_C@_0BA@EGPBKAPC@apos?4trDelta?$FL0?$FN?$AA@ 00607bc8     msg.obj
 0003:00008bdc       ??_C@_0P@BICHHIIO@apos?4trBase?$FL2?$FN?$AA@ 00607bdc     msg.obj
 0003:00008bf0       ??_C@_0BA@DPBJMBAH@apos?4trDuration?$AA@ 00607bf0     msg.obj
 0003:00008c04       ??_C@_0M@EBDENFGM@apos?4trTime?$AA@ 00607c04     msg.obj
 0003:00008c14       ??_C@_04CLCEDBPF@time?$AA@ 00607c14     msg.obj
 0003:00008c1c       ??_C@_09PBPAGHBO@angles?$FL0?$FN?$AA@ 00607c1c     msg.obj
 0003:00008c28       ??_C@_0M@EDEPDPKE@modelindex2?$AA@ 00607c28     msg.obj
 0003:00008c38       ??_C@_0L@EOIHEPPC@origin2?$FL1?$FN?$AA@ 00607c38     msg.obj
 0003:00008c48       ??_C@_0L@EPEFCFMF@origin2?$FL0?$FN?$AA@ 00607c48     msg.obj
 0003:00008c58       ??_C@_0L@EMMBPBKL@origin2?$FL2?$FN?$AA@ 00607c58     msg.obj
 0003:00008c68       ??_C@_08HDLPHJFP@generic1?$AA@ 00607c68     msg.obj
 0003:00008c74       ??_C@_09DPJGNNNM@loopSound?$AA@ 00607c74     msg.obj
 0003:00008c80       ??_C@_0BA@GEGLLMHD@otherEntityNum2?$AA@ 00607c80     msg.obj
 0003:00008c94       ??_C@_0L@OOABJPOI@modelindex?$AA@ 00607c94     msg.obj
 0003:00008ca4       ??_C@_08BOHIELLL@powerups?$AA@ 00607ca4     msg.obj
 0003:00008cb0       ??_C@_05OPIONHBI@solid?$AA@ 00607cb0     msg.obj
 0003:00008cb8       ??_C@_09FOHGOHCG@origin?$FL2?$FN?$AA@ 00607cb8     msg.obj
 0003:00008cc4       ??_C@_09FMDAFJHP@origin?$FL1?$FN?$AA@ 00607cc4     msg.obj
 0003:00008cd0       ??_C@_09FNPCDDEI@origin?$FL0?$FN?$AA@ 00607cd0     msg.obj
 0003:00008cdc       ??_C@_0M@FNDLCNA@apos?4trType?$AA@ 00607cdc     msg.obj
 0003:00008cec       ??_C@_0P@JDFIJFKD@pos?4trDuration?$AA@ 00607cec     msg.obj
 0003:00008d00       ??_C@_09PADCANCJ@angles?$FL1?$FN?$AA@ 00607d00     msg.obj
 0003:00008d0c       ??_C@_09ENNGDKOC@clientNum?$AA@ 00607d0c     msg.obj
 0003:00008d18       ??_C@_06GEPNGEJI@weapon?$AA@ 00607d18     msg.obj
 0003:00008d20       ??_C@_0P@MIMDOCJJ@otherEntityNum?$AA@ 00607d20     msg.obj
 0003:00008d34       ??_C@_06PEMOFHAI@eFlags?$AA@ 00607d34     msg.obj
 0003:00008d3c       ??_C@_0L@KGHGOFDE@pos?4trType?$AA@ 00607d3c     msg.obj
 0003:00008d4c       ??_C@_0BA@GCAPFJDJ@groundEntityNum?$AA@ 00607d4c     msg.obj
 0003:00008d60       ??_C@_08NBDCCOLG@legsAnim?$AA@ 00607d60     msg.obj
 0003:00008d6c       ??_C@_09EHJMMCCL@eventParm?$AA@ 00607d6c     msg.obj
 0003:00008d78       ??_C@_09IDGFAJEG@torsoAnim?$AA@ 00607d78     msg.obj
 0003:00008d84       ??_C@_05IBNLLBBK@eType?$AA@ 00607d84     msg.obj
 0003:00008d8c       ??_C@_0L@MMCDLJGH@angles2?$FL1?$FN?$AA@ 00607d8c     msg.obj
 0003:00008d9c       ??_C@_05GFHEIIDD@event?$AA@ 00607d9c     msg.obj
 0003:00008da4       ??_C@_0P@BLKDKMOA@apos?4trBase?$FL0?$FN?$AA@ 00607da4     msg.obj
 0003:00008db8       ??_C@_0P@OJDECADI@pos?4trDelta?$FL2?$FN?$AA@ 00607db8     msg.obj
 0003:00008dcc       ??_C@_0P@BKGBMGNH@apos?4trBase?$FL1?$FN?$AA@ 00607dcc     msg.obj
 0003:00008de0       ??_C@_0O@OFIKJMKF@pos?4trBase?$FL2?$FN?$AA@ 00607de0     msg.obj
 0003:00008df0       ??_C@_0P@OLHCJOGB@pos?4trDelta?$FL1?$FN?$AA@ 00607df0     msg.obj
 0003:00008e04       ??_C@_0P@OKLAPEFG@pos?4trDelta?$FL0?$FN?$AA@ 00607e04     msg.obj
 0003:00008e18       ??_C@_0O@OHMMCCPM@pos?4trBase?$FL1?$FN?$AA@ 00607e18     msg.obj
 0003:00008e28       ??_C@_0O@OGAOEIML@pos?4trBase?$FL0?$FN?$AA@ 00607e28     msg.obj
 0003:00008e38       ??_C@_0L@OCJBICII@pos?4trTime?$AA@ 00607e38     msg.obj
 0003:00008e48       ??_C@_0DB@CDCFBJOH@MSG_Copy?3?5can?8t?5copy?5into?5a?5smal@ 00607e48     msg.obj
 0003:00008e84       ??_C@_0BE@HBLHKMBF@can?8t?5read?5?$CFd?5bits?6?$AA@ 00607e84     msg.obj
 0003:00008e9c       ??_C@_0BL@JPLBKHNB@MSG_WriteBits?3?5bad?5bits?5?$CFi?$AA@ 00607e9c     msg.obj
 0003:00008ebc       ??_C@_0CC@BCAHGEKN@MSG_WriteString?3?5MAX_STRING_CHAR@ 00607ebc     msg.obj
 0003:00008ee4       ??_C@_0CB@FEBBBOCP@MSG_WriteString?3?5BIG_INFO_STRING@ 00607ee4     msg.obj
 0003:00008f10       __real@4070000000000000    00607f10     msg.obj
 0003:00008f1c       ??_C@_0M@JKPELGIL@?$CFd?5used?5?$CFd?6?$AA@ 00607f1c     msg.obj
 0003:00008f2c       ??_C@_0CM@EJOMBCBE@MSG_WriteDeltaEntity?3?5Bad?5entity@ 00607f2c     msg.obj
 0003:00008f60       ??_C@_1EG@PKMNDEAC@?$AAn?$AAu?$AAm?$AAF?$AAi?$AAe?$AAl?$AAd?$AAs?$AA?5?$AA?$CL?$AA?5?$AA1?$AA?5?$AA?$DN?$AA?$DN?$AA?5?$AAs?$AAi?$AAz?$AAe?$AAo?$AAf?$AA?$CI?$AA?5?$AA?$CK?$AAf?$AAr?$AAo?$AAm?$AA?5?$AA?$CJ@ 00607f60     msg.obj
 0003:00008fb8       ??_C@_1HE@FNBHHAI@?$AAc?$AA?3?$AA?2?$AAw?$AAe?$AAb?$AA?2?$AAt?$AAr?$AAe?$AAp?$AAd?$AAe?$AAv?$AA?2?$AAt?$AAr?$AAe?$AAp?$AAi?$AAd?$AAa?$AAt?$AAi?$AAo?$AAn?$AA?2?$AAt?$AAr?$AAe?$AAp?$AA?9@ 00607fb8     msg.obj
 0003:00009044       ??_C@_0M@ILPPMOAB@?5?$CI?$CFi?5bits?$CJ?6?$AA@ 00608044     msg.obj
 0003:00009054       ??_C@_06NHADCFMO@?$CFs?3?$CFf?5?$AA@ 00608054     msg.obj
 0003:0000905c       ??_C@_06NMFPGCPD@?$CFs?3?$CFi?5?$AA@ 0060805c     msg.obj
 0003:00009064       ??_C@_0M@HKNCGALG@?$CF3i?3?5?$CD?$CF?93i?5?$AA@ 00608064     msg.obj
 0003:00009074       ??_C@_0CA@HCHJDJNJ@invalid?5entityState?5field?5count?$AA@ 00608074     msg.obj
 0003:0000909c       ??_C@_0BD@NOLCAOLH@?$CF3i?3?5?$CD?$CF?93i?5remove?6?$AA@ 0060809c     msg.obj
 0003:000090b4       ??_C@_0BM@MHCCEDBM@Bad?5delta?5entity?5number?3?5?$CFi?$AA@ 006080b4     msg.obj
 0003:000090d8       ??_C@_0M@GJDAJLLB@PS_POWERUPS?$AA@ 006080d8     msg.obj
 0003:000090e8       ??_C@_07CDFACGBI@PS_AMMO?$AA@ 006080e8     msg.obj
 0003:000090f4       ??_C@_0O@GFKBHLEI@PS_PERSISTANT?$AA@ 006080f4     msg.obj
 0003:00009104       ??_C@_03IKGEINEE@?$CFs?5?$AA@ 00608104     msg.obj
 0003:00009108       ??_C@_08PLJCGDKN@PS_STATS?$AA@ 00608108     msg.obj
 0003:00009114       ??_C@_0CA@IOGLMKFH@invalid?5playerState?5field?5count?$AA@ 00608114     msg.obj
 0003:0000913c       ??_C@_0BC@OLEJBHLP@?$CF3i?3?5playerstate?5?$AA@ 0060813c     msg.obj
 0003:00009154       ??_C@_06HJHJCKIO@server?$AA@ 00608154     net_chan.obj
 0003:0000915c       ??_C@_06DGDLPBAN@client?$AA@ 0060815c     net_chan.obj
 0003:00009164       ??_C@_08HJDPOCEL@showdrop?$AA@ 00608164     net_chan.obj
 0003:00009170       ??_C@_0M@DDMGOMOJ@showpackets?$AA@ 00608170     net_chan.obj
 0003:00009180       ??_C@_0CD@LNBJCMMG@?$CFs?5send?5?$CF4i?5?3?5s?$DN?$CFi?5fragment?$DN?$CFi?0?$CF@ 00608180     net_chan.obj
 0003:000091ac       ??_C@_0BL@BFLOIGMD@?$CFs?5send?5?$CF4i?5?3?5s?$DN?$CFi?5ack?$DN?$CFi?6?$AA@ 006081ac     net_chan.obj
 0003:000091cc       ??_C@_0BO@OIBNDEGJ@Netchan_Transmit?3?5length?5?$DN?5?$CFi?$AA@ 006081cc     net_chan.obj
 0003:000091f0       ??_C@_0CF@FNEEAEAE@?$CFs?3fragmentLength?5?$CFi?5?$DO?5msg?9?$DOmaxs@ 006081f0     net_chan.obj
 0003:0000921c       ??_C@_0BM@KGOPCCAH@?$CFs?3illegal?5fragment?5length?6?$AA@ 0060821c     net_chan.obj
 0003:00009240       ??_C@_0BP@NNNGGON@?$CFs?3Dropped?5a?5message?5fragment?6?$AA@ 00608240     net_chan.obj
 0003:00009268       ??_C@_0BN@CDDCLPO@?$CFs?3Dropped?5?$CFi?5packets?5at?5?$CFi?6?$AA@ 00608268     net_chan.obj
 0003:0000928c       ??_C@_0CB@IKJIFCCO@?$CFs?3Out?5of?5order?5packet?5?$CFi?5at?5?$CFi?6@ 0060828c     net_chan.obj
 0003:000092b4       ??_C@_0BE@NEBCOCEH@?$CFs?5recv?5?$CF4i?5?3?5s?$DN?$CFi?6?$AA@ 006082b4     net_chan.obj
 0003:000092cc       ??_C@_0CD@PJJBGHAI@?$CFs?5recv?5?$CF4i?5?3?5s?$DN?$CFi?5fragment?$DN?$CFi?0?$CF@ 006082cc     net_chan.obj
 0003:000092f8       ??_C@_0BB@NGJDDNAF@send?5packet?5?$CF4i?6?$AA@ 006082f8     net_chan.obj
 0003:0000930c       ??_C@_06IJDLPEM@length?$AA@ 0060830c     net_chan.obj
 0003:00009314       ??_C@_0BG@MFLNCGPF@sizeof?$CIpacketQueue_t?$CJ?$AA@ 00608314     net_chan.obj
 0003:00009330       ??_C@_0DP@LOBEEBHH@c?3?2web?2trepdev?2trepidation?2trep?9@ 00608330     net_chan.obj
 0003:0000937c       ??_C@_08LPKPOPGP@NO?5ERROR?$AA@ 0060837c     net_ip.obj
 0003:00009388       ??_C@_0L@CBLHPKCP@WSANO_DATA?$AA@ 00608388     net_ip.obj
 0003:00009398       ??_C@_0P@HLNEBJNJ@WSANO_RECOVERY?$AA@ 00608398     net_ip.obj
 0003:000093ac       ??_C@_0N@LHDAEOPK@WSATRY_AGAIN?$AA@ 006083ac     net_ip.obj
 0003:000093bc       ??_C@_0BC@JCJCFNAO@WSAHOST_NOT_FOUND?$AA@ 006083bc     net_ip.obj
 0003:000093d4       ??_C@_0BC@CLCHBKPK@WSANOTINITIALISED?$AA@ 006083d4     net_ip.obj
 0003:000093ec       ??_C@_0BD@PKACBPOA@WSAVERNOTSUPPORTED?$AA@ 006083ec     net_ip.obj
 0003:00009404       ??_C@_0P@MDJAKAKC@WSASYSNOTREADY?$AA@ 00608404     net_ip.obj
 0003:00009418       ??_C@_0N@NJBKCOKK@WSAEHOSTDOWN?$AA@ 00608418     net_ip.obj
 0003:00009428       ??_C@_0BA@PCKIJCGI@WSAENAMETOOLONG?$AA@ 00608428     net_ip.obj
 0003:0000943c       ??_C@_08PGIMLMFD@WSAELOOP?$AA@ 0060843c     net_ip.obj
 0003:00009448       ??_C@_0BA@ECEEDLKJ@WSAECONNREFUSED?$AA@ 00608448     net_ip.obj
 0003:0000945c       ??_C@_0N@BJEDIOFA@WSAETIMEDOUT?$AA@ 0060845c     net_ip.obj
 0003:0000946c       ??_C@_0BA@COKPFEMB@WSAETOOMANYREFS?$AA@ 0060846c     net_ip.obj
 0003:00009480       ??_C@_0N@JOJKMOCF@WSAESHUTDOWN?$AA@ 00608480     net_ip.obj
 0003:00009490       ??_C@_0M@BJHJCMPN@WSAENOTCONN?$AA@ 00608490     net_ip.obj
 0003:000094a0       ??_C@_0L@KMBJICHC@WSAEISCONN?$AA@ 006084a0     net_ip.obj
 0003:000094b0       ??_C@_0L@OOBBNNPD@WSAENOBUFS?$AA@ 006084b0     net_ip.obj
 0003:000094c0       ??_C@_0O@CIPFFFJE@WSAECONNRESET?$AA@ 006084c0     net_ip.obj
 0003:000094d0       ??_C@_0BI@NPIHFCBB@WSWSAECONNABORTEDAEINTR?$AA@ 006084d0     net_ip.obj
 0003:000094ec       ??_C@_0N@KABONKCJ@WSAENETRESET?$AA@ 006084ec     net_ip.obj
 0003:000094fc       ??_C@_0P@MMGFNLEA@WSAENETUNREACH?$AA@ 006084fc     net_ip.obj
 0003:00009510       ??_C@_0M@BMNODHFM@WSAENETDOWN?$AA@ 00608510     net_ip.obj
 0003:00009520       ??_C@_0BB@MBBPJMGK@WSAEADDRNOTAVAIL?$AA@ 00608520     net_ip.obj
 0003:00009534       ??_C@_0O@OPDDJBEB@WSAEADDRINUSE?$AA@ 00608534     net_ip.obj
 0003:00009544       ??_C@_0BA@DNDGDCNF@WSAEAFNOSUPPORT?$AA@ 00608544     net_ip.obj
 0003:00009558       ??_C@_0BA@KKILJDEG@WSAEPFNOSUPPORT?$AA@ 00608558     net_ip.obj
 0003:0000956c       ??_C@_0O@IFNEEJHC@WSAEOPNOTSUPP?$AA@ 0060856c     net_ip.obj
 0003:0000957c       ??_C@_0BD@KNONLHOA@WSAESOCKTNOSUPPORT?$AA@ 0060857c     net_ip.obj
 0003:00009594       ??_C@_0BD@EDJBJFH@WSAEPROTONOSUPPORT?$AA@ 00608594     net_ip.obj
 0003:000095ac       ??_C@_0P@KODINEND@WSAENOPROTOOPT?$AA@ 006085ac     net_ip.obj
 0003:000095c0       ??_C@_0O@HCKGAENP@WSAEPROTOTYPE?$AA@ 006085c0     net_ip.obj
 0003:000095d0       ??_C@_0M@PJKLHKI@WSAEMSGSIZE?$AA@ 006085d0     net_ip.obj
 0003:000095e0       ??_C@_0BA@BLGPIJAD@WSAEDESTADDRREQ?$AA@ 006085e0     net_ip.obj
 0003:000095f4       ??_C@_0M@MDGNMGJ@WSAENOTSOCK?$AA@ 006085f4     net_ip.obj
 0003:00009604       ??_C@_0M@EAGDEEAC@WSAEALREADY?$AA@ 00608604     net_ip.obj
 0003:00009614       ??_C@_0P@FHEJEBJC@WSAEINPROGRESS?$AA@ 00608614     net_ip.obj
 0003:00009628       ??_C@_0P@BLDHJENA@WSAEWOULDBLOCK?$AA@ 00608628     net_ip.obj
 0003:0000963c       ??_C@_09IJIBIDKO@WSAEMFILE?$AA@ 0060863c     net_ip.obj
 0003:00009648       ??_C@_09PDAAOFKK@WSAEINVAL?$AA@ 00608648     net_ip.obj
 0003:00009654       ??_C@_09BIHAGEEK@WSAEFAULT?$AA@ 00608654     net_ip.obj
 0003:00009660       ??_C@_0L@EEHHIAEC@WSAEDISCON?$AA@ 00608660     net_ip.obj
 0003:00009670       ??_C@_09EKFHKCJJ@WSAEACCES?$AA@ 00608670     net_ip.obj
 0003:0000967c       ??_C@_08LJKOCPDH@WSAEBADF?$AA@ 0060867c     net_ip.obj
 0003:00009688       ??_C@_08KEJFHKFF@WSAEINTR?$AA@ 00608688     net_ip.obj
 0003:00009694       ??_C@_0CO@DPGOJCFM@Sys_StringToSockaddr?3?5Error?5reso@ 00608694     net_ip.obj
 0003:000096d0       ??_C@_0EO@LGMGONF@Sys_StringToSockaddr?3?5Error?5reso@ 006086d0     net_ip.obj
 0003:00009730       ??_C@_0CG@BDGJLBKO@NET_CompareBaseAdr?3?5bad?5address?5@ 00608730     net_ip.obj
 0003:00009760       ??_C@_03EHEMCPIE@bot?$AA@  00608760     net_ip.obj
 0003:00009764       ??_C@_08HAEGGJGF@loopback?$AA@ 00608764     net_ip.obj
 0003:00009770       ??_C@_08FNAGGBFH@?$FL?$CFs?$FN?3?$CFhu?$AA@ 00608770     net_ip.obj
 0003:0000977c       ??_C@_06BKFBKBNF@?$CFs?3?$CFhu?$AA@ 0060877c     net_ip.obj
 0003:00009784       ??_C@_0BJ@NDNBFPLK@Oversize?5packet?5from?5?$CFs?6?$AA@ 00608784     net_ip.obj
 0003:000097a4       ??_C@_0BD@GIOPKJNJ@NET_GetPacket?3?5?$CFs?6?$AA@ 006087a4     net_ip.obj
 0003:000097bc       ??_C@_0BE@DDOALEHF@NET_SendPacket?3?5?$CFs?6?$AA@ 006087bc     net_ip.obj
 0003:000097d4       ??_C@_0CB@JKHJHNNL@Sys_SendPacket?3?5bad?5address?5type@ 006087d4     net_ip.obj
 0003:000097fc       ??_C@_08KKMGFHOD@IP6?3?5?$CFs?6?$AA@ 006087fc     net_ip.obj
 0003:00009808       ??_C@_07NAEOHKKH@IP?3?5?$CFs?6?$AA@ 00608808     net_ip.obj
 0003:00009814       ??_C@_0CB@KPOOCPCO@WARNING?3?5NET_IPSocket?3?5bind?3?5?$CFs?6@ 00608814     net_ip.obj
 0003:0000983c       ??_C@_0DE@BPPBHMDN@WARNING?3?5NET_IPSocket?3?5setsockop@ 0060883c     net_ip.obj
 0003:0000987c       ??_C@_0CK@GMOLKKID@WARNING?3?5NET_IPSocket?3?5ioctl?5FIO@ 0060887c     net_ip.obj
 0003:000098b0       ??_C@_0CD@HHDPBMFK@WARNING?3?5NET_IPSocket?3?5socket?3?5?$CF@ 006088b0     net_ip.obj
 0003:000098dc       ??_C@_0BP@PBGPGMLD@Opening?5IP?5socket?3?50?40?40?40?3?$CFi?6?$AA@ 006088dc     net_ip.obj
 0003:00009904       ??_C@_0BK@FBACENIG@Opening?5IP?5socket?3?5?$CFs?3?$CFi?6?$AA@ 00608904     net_ip.obj
 0003:00009924       ??_C@_0CC@GCGJDOCH@WARNING?3?5NET_IP6Socket?3?5bind?3?5?$CFs@ 00608924     net_ip.obj
 0003:0000994c       ??_C@_0DE@DMELAPDO@WARNING?3?5NET_IP6Socket?3?5setsocko@ 0060894c     net_ip.obj
 0003:0000998c       ??_C@_0CL@JAJOPEHL@WARNING?3?5NET_IP6Socket?3?5ioctl?5FI@ 0060898c     net_ip.obj
 0003:000099c0       ??_C@_0CE@MMENEKGG@WARNING?3?5NET_IP6Socket?3?5socket?3?5@ 006089c0     net_ip.obj
 0003:000099ec       ??_C@_0BN@DJONHHNF@Opening?5IP6?5socket?3?5?$FL?3?3?$FN?3?$CFi?6?$AA@ 006089ec     net_ip.obj
 0003:00009a10       ??_C@_0BL@LIHFMGNB@Opening?5IP6?5socket?3?5?$CFs?3?$CFi?6?$AA@ 00608a10     net_ip.obj
 0003:00009a30       ??_C@_0BN@ENOFGEPI@Opening?5IP6?5socket?3?5?$FL?$CFs?$FN?3?$CFi?6?$AA@ 00608a30     net_ip.obj
 0003:00009a58       ??_C@_0GF@DAJIHAAA@WARNING?3?5NET_JoinMulticast6?3?5Inc@ 00608a58     net_ip.obj
 0003:00009ad4       ??_C@_0DH@OLGEOEIG@NET_JoinMulticast6?3?5Couldn?8t?5joi@ 00608ad4     net_ip.obj
 0003:00009b18       ??_C@_0EA@DOPBEMPP@NET_JoinMulticast6?3?5Couldn?8t?5set@ 00608b18     net_ip.obj
 0003:00009b64       ??_C@_0CO@JGEDJDD@NET_OpenSocks?3?5relay?5address?5is?5@ 00608b64     net_ip.obj
 0003:00009b9c       ??_C@_0CD@BALIMEMG@NET_OpenSocks?3?5request?5denied?3?5?$CF@ 00608b9c     net_ip.obj
 0003:00009bc8       ??_C@_0CG@OEEMKDKJ@NET_OpenSocks?3?5authentication?5fa@ 00608bc8     net_ip.obj
 0003:00009bf8       ??_C@_0BP@MFAELAIP@NET_OpenSocks?3?5request?5denied?6?$AA@ 00608bf8     net_ip.obj
 0003:00009c20       ??_C@_0BN@JGAEDBBB@NET_OpenSocks?3?5bad?5response?6?$AA@ 00608c20     net_ip.obj
 0003:00009c44       ??_C@_0BJ@GIBPKBJF@NET_OpenSocks?3?5recv?3?5?$CFs?6?$AA@ 00608c44     net_ip.obj
 0003:00009c64       ??_C@_0BJ@OMJJFCJN@NET_OpenSocks?3?5send?3?5?$CFs?6?$AA@ 00608c64     net_ip.obj
 0003:00009c84       ??_C@_0BM@KKEOEFCP@NET_OpenSocks?3?5connect?3?5?$CFs?6?$AA@ 00608c84     net_ip.obj
 0003:00009ca8       ??_C@_0EF@JDPHELLH@WARNING?3?5NET_OpenSocks?3?5gethostb@ 00608ca8     net_ip.obj
 0003:00009cfc       ??_C@_0CL@NFJLJMMA@WARNING?3?5NET_OpenSocks?3?5gethostb@ 00608cfc     net_ip.obj
 0003:00009d30       ??_C@_0CE@LFANBIPO@WARNING?3?5NET_OpenSocks?3?5socket?3?5@ 00608d30     net_ip.obj
 0003:00009d5c       ??_C@_0CF@BHILGHLE@Opening?5connection?5to?5SOCKS?5serv@ 00608d5c     net_ip.obj
 0003:00009d88       ??_C@_0CM@IIGCDJCD@WARNING?3?5Couldn?8t?5bind?5to?5a?5v4?5i@ 00608d88     net_ip.obj
 0003:00009dbc       ??_C@_08HGBCFGPE@net_port?$AA@ 00608dbc     net_ip.obj
 0003:00009dc8       ??_C@_0CM@CAOEIILC@WARNING?3?5Couldn?8t?5bind?5to?5a?5v6?5i@ 00608dc8     net_ip.obj
 0003:00009dfc       ??_C@_09DDLKLFCG@net_port6?$AA@ 00608dfc     net_ip.obj
 0003:00009e08       ??_C@_0O@CBMKAPKN@Hostname?3?5?$CFs?6?$AA@ 00608e08     net_ip.obj
 0003:00009e18       ??_C@_0BC@POLDBMKP@net_socksPassword?$AA@ 00608e18     net_ip.obj
 0003:00009e30       ??_C@_0BC@MGKGECCL@net_socksUsername?$AA@ 00608e30     net_ip.obj
 0003:00009e48       ??_C@_0O@DFGDDOCB@net_socksPort?$AA@ 00608e48     net_ip.obj
 0003:00009e58       ??_C@_04KAIJODKO@1080?$AA@ 00608e58     net_ip.obj
 0003:00009e60       ??_C@_0BA@CEJBNOOE@net_socksServer?$AA@ 00608e60     net_ip.obj
 0003:00009e74       ??_C@_0BB@GKECMOEC@net_socksEnabled?$AA@ 00608e74     net_ip.obj
 0003:00009e88       ??_C@_0BA@CFGGEOPF@net_mcast6iface?$AA@ 00608e88     net_ip.obj
 0003:00009e9c       ??_C@_0P@PLCPKCNE@net_mcast6addr?$AA@ 00608e9c     net_ip.obj
 0003:00009eb0       ??_C@_0BK@JEFHGNKB@ff04?3?3696f?37175?3616b?36533?$AA@ 00608eb0     net_ip.obj
 0003:00009ed0       ??_C@_07DHABKHDM@net_ip6?$AA@ 00608ed0     net_ip.obj
 0003:00009edc       ??_C@_06BGCGFJHC@net_ip?$AA@ 00608edc     net_ip.obj
 0003:00009ee4       ??_C@_07OHKHACFK@0?40?40?40?$AA@ 00608ee4     net_ip.obj
 0003:00009ef0       ??_C@_0M@GLCGJJNP@net_enabled?$AA@ 00608ef0     net_ip.obj
 0003:00009f00       ??_C@_0M@BPCAELNM@net_restart?$AA@ 00608f00     net_ip.obj
 0003:00009f10       ??_C@_0BF@DNHJMPMJ@Winsock?5Initialized?6?$AA@ 00608f10     net_ip.obj
 0003:00009f2c       ??_C@_0DF@DFODMHFF@WARNING?3?5Winsock?5initialization?5@ 00608f2c     net_ip.obj
 0003:0000a0c0       __real@406fe00000000000    006090c0     q_math.obj
 0003:0000a0d0       __real@4066800000000000    006090d0     q_math.obj
 0003:0000a0dc       __real@43870000            006090dc     q_math.obj
 0003:0000a0e0       __real@42b40000            006090e0     q_math.obj
 0003:0000a0e4       ??_C@_1DE@EJPCDGJI@?$AAQ?$AA_?$AAf?$AAa?$AAb?$AAs?$AA?$CI?$AAi?$AAn?$AAv?$AA_?$AAd?$AAe?$AAn?$AAo?$AAm?$AA?$CJ?$AA?5?$AA?$CB?$AA?$DN?$AA?5?$AA0?$AA?4?$AA0?$AAf?$AA?$AA@ 006090e4     q_math.obj
 0003:0000a128       ??_C@_1HK@PPEMMACM@?$AAc?$AA?3?$AA?2?$AAw?$AAe?$AAb?$AA?2?$AAt?$AAr?$AAe?$AAp?$AAd?$AAe?$AAv?$AA?2?$AAt?$AAr?$AAe?$AAp?$AAi?$AAd?$AAa?$AAt?$AAi?$AAo?$AAn?$AA?2?$AAt?$AAr?$AAe?$AAp?$AA?9@ 00609128     q_math.obj
 0003:0000a1c0       __real@c066800000000000    006091c0     q_math.obj
 0003:0000a1d0       __real@4066c16c16c16c17    006091d0     q_math.obj
 0003:0000a1dc       __real@c7c34f80            006091dc     q_math.obj
 0003:0000a1e0       __real@3f91df46a0000000    006091e0     q_math.obj
 0003:0000a1ec       ??_C@_0BI@KPLEBEJF@ERROR?3?5?$CFs?0?5line?5?$CFd?3?5?$CFs?6?$AA@ 006091ec     q_shared.obj
 0003:0000a208       ??_C@_0BK@DJMKDJBL@WARNING?3?5?$CFs?0?5line?5?$CFd?3?5?$CFs?6?$AA@ 00609208     q_shared.obj
 0003:0000a228       ??_C@_0BF@BFEJCABG@MatchToken?3?5?$CFs?5?$CB?$DN?5?$CFs?$AA@ 00609228     q_shared.obj
 0003:0000a244       ??_C@_01PKGAHCOL@?$CJ?$AA@ 00609244     q_shared.obj
 0003:0000a248       ??_C@_01ODHLEDKK@?$CI?$AA@ 00609248     q_shared.obj
 0003:0000a24c       ??_C@_0BJ@OLBOPICM@Q_strncpyz?3?5destsize?5?$DM?51?$AA@ 0060924c     q_shared.obj
 0003:0000a26c       ??_C@_0BF@BJHHBLMD@Q_strncpyz?3?5NULL?5src?$AA@ 0060926c     q_shared.obj
 0003:0000a288       ??_C@_0BG@EKAPNPCH@Q_strncpyz?3?5NULL?5dest?$AA@ 00609288     q_shared.obj
 0003:0000a2a4       ??_C@_0BN@EFOOAHFL@Q_strcat?3?5already?5overflowed?$AA@ 006092a4     q_shared.obj
 0003:0000a2c8       ??_C@_0CD@GIPJKOOD@Com_sprintf?3?5overflow?5of?5?$CFi?5in?5?$CF@ 006092c8     q_shared.obj
 0003:0000a2f4       ??_C@_0CC@GMEFDOKA@Com_sprintf?3?5overflowed?5bigbuffe@ 006092f4     q_shared.obj
 0003:0000a31c       ??_C@_05NANKFNEK@?5?4?4?4?5?$AA@ 0060931c     q_shared.obj
 0003:0000a324       ??_C@_0CG@FLHABLN@Info_ValueForKey?3?5oversize?5infos@ 00609324     q_shared.obj
 0003:0000a354       ??_C@_0CE@HMPLGKDK@Info_RemoveKey?3?5oversize?5infostr@ 00609354     q_shared.obj
 0003:0000a380       ??_C@_0CI@CPIEPBLO@Info_RemoveKey_Big?3?5oversize?5inf@ 00609380     q_shared.obj
 0003:0000a3b0       ??_C@_0BN@CAOBGKLE@Info?5string?5length?5exceeded?6?$AA@ 006093b0     q_shared.obj
 0003:0000a3d4       ??_C@_06NELKLDPM@?2?$CFs?2?$CFs?$AA@ 006093d4     q_shared.obj
 0003:0000a3dc       ??_C@_0DB@HJKMJFNP@?$FO3Can?8t?5use?5keys?5or?5values?5with?5@ 006093dc     q_shared.obj
 0003:0000a418       ??_C@_0CJ@CEEBDGNA@Info_SetValueForKey?3?5oversize?5in@ 00609418     q_shared.obj
 0003:0000a44c       ??_C@_03NAOMNMKI@?2?$DL?$CC?$AA@ 0060944c     q_shared.obj
 0003:0000a450       ??_C@_0CB@EMDOOGBI@BIG?5Info?5string?5length?5exceeded?6@ 00609450     q_shared.obj
 0003:0000a478       ??_C@_0CA@CMEDABKG@?5One?5or?5more?5symbols?5not?5found?6?$AA@ 00609478     qal.obj
 0003:0000a4a0       ??_C@_0BC@NKPGLKPI@alcCaptureSamples?$AA@ 006094a0     qal.obj
 0003:0000a4b8       ??_C@_0P@HLHNEGBK@alcCaptureStop?$AA@ 006094b8     qal.obj
 0003:0000a4cc       ??_C@_0BA@FFBBJLJD@alcCaptureStart?$AA@ 006094cc     qal.obj
 0003:0000a4e0       ??_C@_0BG@JEKCPLIE@alcCaptureCloseDevice?$AA@ 006094e0     qal.obj
 0003:0000a4fc       ??_C@_0BF@GPMNKEOL@alcCaptureOpenDevice?$AA@ 006094fc     qal.obj
 0003:0000a518       ??_C@_0P@KCJGCIEG@alcGetIntegerv?$AA@ 00609518     qal.obj
 0003:0000a52c       ??_C@_0N@KKEPIANP@alcGetString?$AA@ 0060952c     qal.obj
 0003:0000a53c       ??_C@_0BA@OKMIKPCF@alcGetEnumValue?$AA@ 0060953c     qal.obj
 0003:0000a550       ??_C@_0BC@EOBDDHNB@alcGetProcAddress?$AA@ 00609550     qal.obj
 0003:0000a568       ??_C@_0BG@BCKLMDNF@alcIsExtensionPresent?$AA@ 00609568     qal.obj
 0003:0000a584       ??_C@_0M@COCPEBFM@alcGetError?$AA@ 00609584     qal.obj
 0003:0000a594       ??_C@_0P@CANICNLE@alcCloseDevice?$AA@ 00609594     qal.obj
 0003:0000a5a8       ??_C@_0O@BOKFKDBH@alcOpenDevice?$AA@ 006095a8     qal.obj
 0003:0000a5b8       ??_C@_0BF@LCJOALEE@alcGetContextsDevice?$AA@ 006095b8     qal.obj
 0003:0000a5d4       ??_C@_0BF@LMCHOLFM@alcGetCurrentContext?$AA@ 006095d4     qal.obj
 0003:0000a5f0       ??_C@_0BC@CNCJIPPP@alcDestroyContext?$AA@ 006095f0     qal.obj
 0003:0000a608       ??_C@_0BC@KCHOAHOJ@alcSuspendContext?$AA@ 00609608     qal.obj
 0003:0000a620       ??_C@_0BC@JJAEMCJN@alcProcessContext?$AA@ 00609620     qal.obj
 0003:0000a638       ??_C@_0BG@EDPBABLE@alcMakeContextCurrent?$AA@ 00609638     qal.obj
 0003:0000a654       ??_C@_0BB@NJPHBINK@alcCreateContext?$AA@ 00609654     qal.obj
 0003:0000a668       ??_C@_0BA@PJCANLOK@alDistanceModel?$AA@ 00609668     qal.obj
 0003:0000a67c       ??_C@_0BC@CNMLHGNC@alDopplerVelocity?$AA@ 0060967c     qal.obj
 0003:0000a694       ??_C@_0BA@JLDMGHEG@alDopplerFactor?$AA@ 00609694     qal.obj
 0003:0000a6a8       ??_C@_0N@JJMBPFPJ@alGetBufferi?$AA@ 006096a8     qal.obj
 0003:0000a6b8       ??_C@_0N@BOFJOJDG@alGetBufferf?$AA@ 006096b8     qal.obj
 0003:0000a6c8       ??_C@_0N@DHJMBPMC@alBufferData?$AA@ 006096c8     qal.obj
 0003:0000a6d8       ??_C@_0L@ENEGAAJF@alIsBuffer?$AA@ 006096d8     qal.obj
 0003:0000a6e8       ??_C@_0BA@GPEKGKGK@alDeleteBuffers?$AA@ 006096e8     qal.obj
 0003:0000a6fc       ??_C@_0N@BAACMHMN@alGenBuffers?$AA@ 006096fc     qal.obj
 0003:0000a70c       ??_C@_0BH@IMEDFEGJ@alSourceUnqueueBuffers?$AA@ 0060970c     qal.obj
 0003:0000a728       ??_C@_0BF@MMDJDGAM@alSourceQueueBuffers?$AA@ 00609728     qal.obj
 0003:0000a744       ??_C@_0O@NAMJEPBK@alSourcePause?$AA@ 00609744     qal.obj
 0003:0000a754       ??_C@_0P@LJBMMGND@alSourceRewind?$AA@ 00609754     qal.obj
 0003:0000a768       ??_C@_0N@IOHKNACK@alSourceStop?$AA@ 00609768     qal.obj
 0003:0000a778       ??_C@_0N@IHCLEDMJ@alSourcePlay?$AA@ 00609778     qal.obj
 0003:0000a788       ??_C@_0P@IENHOOEF@alSourcePausev?$AA@ 00609788     qal.obj
 0003:0000a79c       ??_C@_0BA@GGAGEBNI@alSourceRewindv?$AA@ 0060979c     qal.obj
 0003:0000a7b0       ??_C@_0O@KCFAGNHG@alSourceStopv?$AA@ 006097b0     qal.obj
 0003:0000a7c0       ??_C@_0O@JLFKIPCH@alSourcePlayv?$AA@ 006097c0     qal.obj
 0003:0000a7d0       ??_C@_0N@MGFOKMJC@alGetSourcei?$AA@ 006097d0     qal.obj
 0003:0000a7e0       ??_C@_0O@GMPODFIJ@alGetSourcefv?$AA@ 006097e0     qal.obj
 0003:0000a7f0       ??_C@_0O@EMELMLID@alGetSource3f?$AA@ 006097f0     qal.obj
 0003:0000a800       ??_C@_0N@EBMGLAFN@alGetSourcef?$AA@ 00609800     qal.obj
 0003:0000a810       ??_C@_09DFBNOMEL@alSourcei?$AA@ 00609810     qal.obj
 0003:0000a81c       ??_C@_0L@JDACBMLJ@alSourcefv?$AA@ 0060981c     qal.obj
 0003:0000a82c       ??_C@_0L@LDLHOCLD@alSource3f?$AA@ 0060982c     qal.obj
 0003:0000a83c       ??_C@_09LCIFPAIE@alSourcef?$AA@ 0060983c     qal.obj
 0003:0000a848       ??_C@_0L@NHJHGDKM@alIsSource?$AA@ 00609848     qal.obj
 0003:0000a858       ??_C@_0BA@DANFDDAB@alDeleteSources?$AA@ 00609858     qal.obj
 0003:0000a86c       ??_C@_0N@EPJNJOKG@alGenSources?$AA@ 0060986c     qal.obj
 0003:0000a87c       ??_C@_0P@JEACFPDD@alGetListeneri?$AA@ 0060987c     qal.obj
 0003:0000a890       ??_C@_0BA@MNHNPKAE@alGetListenerfv?$AA@ 00609890     qal.obj
 0003:0000a8a4       ??_C@_0BA@ONMIAEAO@alGetListener3f?$AA@ 006098a4     qal.obj
 0003:0000a8b8       ??_C@_0P@BDJKEDPM@alGetListenerf?$AA@ 006098b8     qal.obj
 0003:0000a8cc       ??_C@_0M@LCCEJDLG@alListeneri?$AA@ 006098cc     qal.obj
 0003:0000a8dc       ??_C@_0N@FAIJKLGH@alListenerfv?$AA@ 006098dc     qal.obj
 0003:0000a8ec       ??_C@_0N@HADMFFGN@alListener3f?$AA@ 006098ec     qal.obj
 0003:0000a8fc       ??_C@_0M@DFLMIPHJ@alListenerf?$AA@ 006098fc     qal.obj
 0003:0000a90c       ??_C@_0P@OMBDDNHL@alGetEnumValue?$AA@ 0060990c     qal.obj
 0003:0000a920       ??_C@_0BB@HECKLDLI@alGetProcAddress?$AA@ 00609920     qal.obj
 0003:0000a934       ??_C@_0BF@HKDBJMAI@alIsExtensionPresent?$AA@ 00609934     qal.obj
 0003:0000a950       ??_C@_0L@LHBFAADC@alGetError?$AA@ 00609950     qal.obj
 0003:0000a960       ??_C@_0M@JPCHELCE@alGetDouble?$AA@ 00609960     qal.obj
 0003:0000a970       ??_C@_0L@BAOGFOLB@alGetFloat?$AA@ 00609970     qal.obj
 0003:0000a980       ??_C@_0N@LCJKEODP@alGetInteger?$AA@ 00609980     qal.obj
 0003:0000a990       ??_C@_0N@GGPBPEPO@alGetBoolean?$AA@ 00609990     qal.obj
 0003:0000a9a0       ??_C@_0N@EFPJBNOK@alGetDoublev?$AA@ 006099a0     qal.obj
 0003:0000a9b0       ??_C@_0M@MFBDLLDE@alGetFloatv?$AA@ 006099b0     qal.obj
 0003:0000a9c0       ??_C@_0O@MPLBGJAD@alGetIntegerv?$AA@ 006099c0     qal.obj
 0003:0000a9d0       ??_C@_0O@CDAGPAJP@alGetBooleanv?$AA@ 006099d0     qal.obj
 0003:0000a9e0       ??_C@_0M@NMPGMB@alGetString?$AA@ 006099e0     qal.obj
 0003:0000a9f0       ??_C@_0M@GCEBCCEC@alIsEnabled?$AA@ 006099f0     qal.obj
 0003:0000aa00       ??_C@_09MKHCPMOK@alDisable?$AA@ 00609a00     qal.obj
 0003:0000aa0c       ??_C@_08JNFNDDGF@alEnable?$AA@ 00609a0c     qal.obj
 0003:0000aa18       ??_C@_0BB@CFLDPKDM@Loading?5?$CC?$CFs?$CC?4?4?4?6?$AA@ 00609a18     qal.obj
 0003:0000aa2c       ??_C@_0BI@MOJLIHPB@?5Loaded?5symbol?5?$CFs?5?$CI?$CFp?$CJ?6?$AA@ 00609a2c     qal.obj
 0003:0000aa48       ??_C@_0BH@NDOFLOOP@?5Can?8t?5load?5symbol?5?$CFs?6?$AA@ 00609a48     qal.obj
 0003:0000aa64       ??_C@_0BJ@BGCBDMM@performing?5gamma?5clamp?4?6?$AA@ 00609a64     sdl_gamma.obj
 0003:0000bdd0       ??_C@_0BB@FBIHGCLD@r_availableModes?$AA@ 0060add0     sdl_glimp.obj
 0003:0000bde4       ??_C@_0DA@ILPICGJA@GLimp_Init?$CI?$CJ?5?9?5could?5not?5load?5Op@ 0060ade4     sdl_glimp.obj
 0003:0000be20       ??_C@_0DF@EPHPEAFD@Setting?5r_mode?5?$CFd?5failed?0?5fallin@ 0060ae20     sdl_glimp.obj
 0003:0000be60       ??_C@_0BD@GKOODDHC@SDL_VIDEO_CENTERED?$AA@ 0060ae60     sdl_glimp.obj
 0003:0000be78       ??_C@_06LBAPPDBG@r_mode?$AA@ 0060ae78     sdl_glimp.obj
 0003:0000be80       ??_C@_0P@IJBKMMOD@r_centerWindow?$AA@ 0060ae80     sdl_glimp.obj
 0003:0000be94       ??_C@_0O@FJNBDDIL@r_allowResize?$AA@ 0060ae94     sdl_glimp.obj
 0003:0000bea4       ??_C@_0M@EDGFFBLN@r_sdlDriver?$AA@ 0060aea4     sdl_glimp.obj
 0003:0000beb4       ??_C@_0BC@BNBBBHDE@r_allowSoftwareGL?$AA@ 0060aeb4     sdl_glimp.obj
 0003:0000becc       ??_C@_0CP@LOAGJHPF@?4?4?4WARNING?3?5could?5not?5set?5the?5gi@ 0060aecc     sdl_glimp.obj
 0003:0000bf04       ??_C@_0DB@OOIIKJEH@?4?4?4WARNING?3?5fullscreen?5unavailab@ 0060af04     sdl_glimp.obj
 0003:0000bf40       ??_C@_0CJ@HBGBOCBH@Fullscreen?5not?5allowed?5with?5in_n@ 0060af40     sdl_glimp.obj
 0003:0000bf74       ??_C@_09PPPBOCCA@in_nograb?$AA@ 0060af74     sdl_glimp.obj
 0003:0000bf80       ??_C@_0BH@NALKMKBG@SDL?5using?5driver?5?$CC?$CFs?$CC?6?$AA@ 0060af80     sdl_glimp.obj
 0003:0000bf9c       ??_C@_0CI@PJFEKPDE@SDL_Init?$CI?5SDL_INIT_VIDEO?5?$CJ?5FAILE@ 0060af9c     sdl_glimp.obj
 0003:0000bfcc       ??_C@_0BB@GPBJMNCI@GL_RENDERER?3?5?$CFs?6?$AA@ 0060afcc     sdl_glimp.obj
 0003:0000bfe0       ??_C@_0BH@NPKDPPBO@Couldn?8t?5get?5a?5visual?6?$AA@ 0060afe0     sdl_glimp.obj
 0003:0000bffc       ??_C@_0DK@HJPJPGJI@Using?5?$CFd?1?$CFd?1?$CFd?5Color?5bits?0?5?$CFd?5de@ 0060affc     sdl_glimp.obj
 0003:0000c044       ??_C@_0BN@NHHKIMGI@SDL_SetVideoMode?5failed?3?5?$CFs?6?$AA@ 0060b044     sdl_glimp.obj
 0003:0000c068       ??_C@_0BE@BAILFKEM@Trepidation?5Console?$AA@ 0060b068     sdl_glimp.obj
 0003:0000c080       ??_C@_0CK@OAKDODCA@r_swapInterval?5requires?5libSDL?5?$DO@ 0060b080     sdl_glimp.obj
 0003:0000c0b4       ??_C@_07IOFHOCMJ@?5?$CFd?5?$CFd?6?$AA@ 0060b0b4     sdl_glimp.obj
 0003:0000c0c0       ??_C@_0P@CDOCDADM@?5invalid?5mode?6?$AA@ 0060b0c0     sdl_glimp.obj
 0003:0000c0d4       ??_C@_0BE@MPKDPDGP@?4?4?4setting?5mode?5?$CFd?3?$AA@ 0060b0d4     sdl_glimp.obj
 0003:0000c0ec       ??_C@_0DA@MOOEIPKC@Cannot?5estimate?5display?5aspect?0?5@ 0060b0ec     sdl_glimp.obj
 0003:0000c128       ??_C@_0CA@IHOMLEFA@Estimated?5display?5aspect?3?5?$CF?43f?6?$AA@ 0060b128     sdl_glimp.obj
 0003:0000c150       ??_C@_0BN@FHPOCHBB@Initializing?5OpenGL?5display?6?$AA@ 0060b150     sdl_glimp.obj
 0003:0000c174       ??_C@_0BH@NMGKFJJB@Available?5modes?3?5?8?$CFs?8?6?$AA@ 0060b174     sdl_glimp.obj
 0003:0000c190       ??_C@_0CH@BFPGOJEJ@Skipping?5mode?5?$CFux?$CFx?0?5buffer?5too?5@ 0060b190     sdl_glimp.obj
 0003:0000c1c0       ??_C@_06DNAJNAND@?$CFux?$CFu?5?$AA@ 0060b1c0     sdl_glimp.obj
 0003:0000c1c8       ??_C@_0CB@OCNCBNBM@Display?5supports?5any?5resolution?6@ 0060b1c8     sdl_glimp.obj
 0003:0000c1f0       ??_C@_0CD@JHLFHCLJ@Can?8t?5get?5list?5of?5available?5mode@ 0060b1f0     sdl_glimp.obj
 0003:0000c21c       __real@3a83126f            0060b21c     sdl_glimp.obj
 0003:0000c220       ??_C@_0DA@CLCJMHGA@?4?4?4GL_EXT_texture_filter_anisotr@ 0060b220     sdl_glimp.obj
 0003:0000c25c       ??_C@_0CP@EADDILP@?4?4?4ignoring?5GL_EXT_texture_filte@ 0060b25c     sdl_glimp.obj
 0003:0000c294       ??_C@_0DG@IMBJBFBP@?4?4?4using?5GL_EXT_texture_filter_a@ 0060b294     sdl_glimp.obj
 0003:0000c2d4       ??_C@_0DO@LLJGIHJG@?4?4?4GL_EXT_texture_filter_anisotr@ 0060b2d4     sdl_glimp.obj
 0003:0000c320       ??_C@_0CC@BCHFGKCK@GL_EXT_texture_filter_anisotropi@ 0060b320     sdl_glimp.obj
 0003:0000c348       ??_C@_0CL@NDHIPFLH@?4?4?4GL_EXT_compiled_vertex_array?5@ 0060b348     sdl_glimp.obj
 0003:0000c37c       ??_C@_0CK@OCNDKECL@?4?4?4ignoring?5GL_EXT_compiled_vert@ 0060b37c     sdl_glimp.obj
 0003:0000c3b0       ??_C@_0BD@GEBMCHJI@bad?5getprocaddress?$AA@ 0060b3b0     sdl_glimp.obj
 0003:0000c3c8       ??_C@_0BC@CIFHOEOG@glUnlockArraysEXT?$AA@ 0060b3c8     sdl_glimp.obj
 0003:0000c3e0       ??_C@_0BA@FALFDEFM@glLockArraysEXT?$AA@ 0060b3e0     sdl_glimp.obj
 0003:0000c3f4       ??_C@_0CH@MAMJLLDH@?4?4?4using?5GL_EXT_compiled_vertex_@ 0060b3f4     sdl_glimp.obj
 0003:0000c424       ??_C@_0BN@LBNKGIPJ@GL_EXT_compiled_vertex_array?$AA@ 0060b424     sdl_glimp.obj
 0003:0000c448       ??_C@_0CC@BHBHALAE@?4?4?4GL_ARB_multitexture?5not?5found@ 0060b448     sdl_glimp.obj
 0003:0000c470       ??_C@_0CB@EPJPPON@?4?4?4ignoring?5GL_ARB_multitexture?6@ 0060b470     sdl_glimp.obj
 0003:0000c498       ??_C@_0DF@HBIOMIEF@?4?4?4not?5using?5GL_ARB_multitexture@ 0060b498     sdl_glimp.obj
 0003:0000c4d8       ??_C@_0BO@NHKDBIBP@?4?4?4using?5GL_ARB_multitexture?6?$AA@ 0060b4d8     sdl_glimp.obj
 0003:0000c4fc       ??_C@_0BJ@PBJNGLJH@glClientActiveTextureARB?$AA@ 0060b4fc     sdl_glimp.obj
 0003:0000c51c       ??_C@_0BD@IKCKKKNH@glActiveTextureARB?$AA@ 0060b51c     sdl_glimp.obj
 0003:0000c534       ??_C@_0BF@GFGCIEPA@glMultiTexCoord2fARB?$AA@ 0060b534     sdl_glimp.obj
 0003:0000c550       ??_C@_0BE@MEMOPMEA@GL_ARB_multitexture?$AA@ 0060b550     sdl_glimp.obj
 0003:0000c568       ??_C@_0CF@GHBNFILH@?4?4?4GL_EXT_texture_env_add?5not?5fo@ 0060b568     sdl_glimp.obj
 0003:0000c594       ??_C@_0CE@CLIBMNDC@?4?4?4ignoring?5GL_EXT_texture_env_a@ 0060b594     sdl_glimp.obj
 0003:0000c5c0       ??_C@_0CB@HEALHJO@?4?4?4using?5GL_EXT_texture_env_add?6@ 0060b5c0     sdl_glimp.obj
 0003:0000c5e8       ??_C@_0BE@BKNIHLLE@EXT_texture_env_add?$AA@ 0060b5e8     sdl_glimp.obj
 0003:0000c600       ??_C@_0BJ@PEHOEDEJ@?4?4?4GL_S3_s3tc?5not?5found?6?$AA@ 0060b600     sdl_glimp.obj
 0003:0000c620       ??_C@_0BI@EOFEGDJG@?4?4?4ignoring?5GL_S3_s3tc?6?$AA@ 0060b620     sdl_glimp.obj
 0003:0000c63c       ??_C@_0BF@DKAGBHJJ@?4?4?4using?5GL_S3_s3tc?6?$AA@ 0060b63c     sdl_glimp.obj
 0003:0000c658       ??_C@_0L@LMFIOPIG@GL_S3_s3tc?$AA@ 0060b658     sdl_glimp.obj
 0003:0000c668       ??_C@_0CO@CCICDGBP@?4?4?4GL_EXT_texture_compression_s3@ 0060b668     sdl_glimp.obj
 0003:0000c6a0       ??_C@_0CN@PAGPMEMJ@?4?4?4ignoring?5GL_EXT_texture_compr@ 0060b6a0     sdl_glimp.obj
 0003:0000c6d8       ??_C@_0CK@NFGLGJBL@?4?4?4using?5GL_EXT_texture_compress@ 0060b6d8     sdl_glimp.obj
 0003:0000c70c       ??_C@_0CA@DJMDGOCK@GL_EXT_texture_compression_s3tc?$AA@ 0060b70c     sdl_glimp.obj
 0003:0000c734       ??_C@_0BL@PEFPCGDJ@GL_ARB_texture_compression?$AA@ 0060b734     sdl_glimp.obj
 0003:0000c754       ??_C@_0CA@PKLDCBMC@Initializing?5OpenGL?5extensions?6?$AA@ 0060b754     sdl_glimp.obj
 0003:0000c77c       ??_C@_0CA@BMGCDBKO@?$CK?5IGNORING?5OPENGL?5EXTENSIONS?5?$CK?6?$AA@ 0060b77c     sdl_glimp.obj
 0003:0000c7a4       ??_C@_08PENMMOEI@GL_FRONT?$AA@ 0060b7a4     sdl_glimp.obj
 0003:0000c7b0       ??_C@_0DB@BMFJPCN@ERROR?3?5SMP?5support?5was?5disabled?5@ 0060b7b0     sdl_glimp.obj
 0003:0000c7ec       ??_C@_02PGHGPEOM@?91?$AA@  0060b7ec     sdl_input.obj
 0003:0000c7f0       ??_C@_0P@HHMLCCLC@r_customheight?$AA@ 0060b7f0     sdl_input.obj
 0003:0000c804       ??_C@_0O@EAAAAJJP@r_customwidth?$AA@ 0060b804     sdl_input.obj
 0003:0000c814       ??_C@_0BE@FBOEHKFC@quit?5Closed?5window?6?$AA@ 0060b814     sdl_input.obj
 0003:0000c82c       ??_C@_0BJ@BKBCHIDF@?5?5Ignored?5dead?5key?5?8?$CFc?8?6?$AA@ 0060b82c     sdl_input.obj
 0003:0000c84c       ??_C@_04FBFHNJLJ@?$CI?$CFc?$CJ?$AA@ 0060b84c     sdl_input.obj
 0003:0000c854       ??_C@_09JPBGPPO@?5U?30x?$CF02x?$AA@ 0060b854     sdl_input.obj
 0003:0000c860       ??_C@_0O@OFFMJNGM@?5Q?30x?$CF02x?$CI?$CFs?$CJ?$AA@ 0060b860     sdl_input.obj
 0003:0000c870       ??_C@_0P@GDAKEBF@?5KMOD_RESERVED?$AA@ 0060b870     sdl_input.obj
 0003:0000c884       ??_C@_0L@HPMLKIAF@?5KMOD_MODE?$AA@ 0060b884     sdl_input.obj
 0003:0000c894       ??_C@_0L@CHJDNPCM@?5KMOD_CAPS?$AA@ 0060b894     sdl_input.obj
 0003:0000c8a4       ??_C@_09HFNFDJFC@?5KMOD_NUM?$AA@ 0060b8a4     sdl_input.obj
 0003:0000c8b0       ??_C@_0M@LEGPAMGP@?5KMOD_RMETA?$AA@ 0060b8b0     sdl_input.obj
 0003:0000c8c0       ??_C@_0M@INLDGPIE@?5KMOD_LMETA?$AA@ 0060b8c0     sdl_input.obj
 0003:0000c8d0       ??_C@_0L@CAGOKNMN@?5KMOD_RALT?$AA@ 0060b8d0     sdl_input.obj
 0003:0000c8e0       ??_C@_0L@PPLOIECO@?5KMOD_LALT?$AA@ 0060b8e0     sdl_input.obj
 0003:0000c8f0       ??_C@_0M@FCNJIAAL@?5KMOD_RCTRL?$AA@ 0060b8f0     sdl_input.obj
 0003:0000c900       ??_C@_0M@GLAFODOA@?5KMOD_LCTRL?$AA@ 0060b900     sdl_input.obj
 0003:0000c910       ??_C@_0N@GFBOLFAI@?5KMOD_RSHIFT?$AA@ 0060b910     sdl_input.obj
 0003:0000c920       ??_C@_0N@FCPPFCJL@?5KMOD_LSHIFT?$AA@ 0060b920     sdl_input.obj
 0003:0000c930       ??_C@_0M@JBIMMIFP@0x?$CF02x?5?$CC?$CFs?$CC?$AA@ 0060b930     sdl_input.obj
 0003:0000c940       ??_C@_02KNHHEEKP@?5?5?$AA@ 0060b940     sdl_input.obj
 0003:0000c944       ??_C@_02KBCCKLEO@?$CL?5?$AA@ 0060b944     sdl_input.obj
 0003:0000c948       ??_C@_0CG@KGENGPKN@?9?9?9?9?9?9?9?9?9?9?9?9?9?9?9?9?9?9?9?9?9?9?9?9?9?9?9?9?9?9?9?9@ 0060b948     sdl_input.obj
 0003:0000c978       ??_C@_0BF@CIAIMNCJ@in_joystickThreshold?$AA@ 0060b978     sdl_input.obj
 0003:0000c994       ??_C@_04FPIJCFHI@0?415?$AA@ 0060b994     sdl_input.obj
 0003:0000c99c       ??_C@_0BB@LKNOCBBC@in_joystickDebug?$AA@ 0060b99c     sdl_input.obj
 0003:0000c9b0       ??_C@_0M@MJEIGFNL@in_joystick?$AA@ 0060b9b0     sdl_input.obj
 0003:0000c9c0       ??_C@_08EEBOBCCE@in_mouse?$AA@ 0060b9c0     sdl_input.obj
 0003:0000c9cc       ??_C@_0BB@FADJCEBC@in_keyboardDebug?$AA@ 0060b9cc     sdl_input.obj
 0003:0000c9e0       ??_C@_0CH@JLLNFJIJ@?6?9?9?9?9?9?9?9?5Input?5Initialization?5?9?9@ 0060b9e0     sdl_input.obj
 0003:0000ca10       ??_C@_0DC@LABDMIGJ@IN_Init?5called?5before?5SDL_Init?$CI?5@ 0060ba10     sdl_input.obj
 0003:0000ca4c       ??_C@_0L@ICBHFDDE@Balls?3?5?$CFd?6?$AA@ 0060ba4c     sdl_input.obj
 0003:0000ca5c       ??_C@_0N@PNCMIGBF@Buttons?3?5?$CFd?6?$AA@ 0060ba5c     sdl_input.obj
 0003:0000ca6c       ??_C@_0N@JOBDCLPI@Hats?3?5?5?5?5?$CFd?6?$AA@ 0060ba6c     sdl_input.obj
 0003:0000ca7c       ??_C@_0N@OHEPONHG@Axes?3?5?5?5?5?$CFd?6?$AA@ 0060ba7c     sdl_input.obj
 0003:0000ca8c       ??_C@_0N@NIJEEKDB@Name?3?5?5?5?5?$CFs?6?$AA@ 0060ba8c     sdl_input.obj
 0003:0000ca9c       ??_C@_0BE@NFKHEJN@Joystick?5?$CFd?5opened?6?$AA@ 0060ba9c     sdl_input.obj
 0003:0000cab4       ??_C@_0BF@EJEOGADD@No?5joystick?5opened?4?6?$AA@ 0060bab4     sdl_input.obj
 0003:0000cad0       ??_C@_0O@MHHFJHOJ@in_joystickNo?$AA@ 0060bad0     sdl_input.obj
 0003:0000cae0       ??_C@_08GNPLGFJM@?$FL?$CFd?$FN?5?$CFs?6?$AA@ 0060bae0     sdl_input.obj
 0003:0000caec       ??_C@_0BH@IIACFADP@?$CFd?5possible?5joysticks?6?$AA@ 0060baec     sdl_input.obj
 0003:0000cb08       ??_C@_0CF@HOGMHIJD@SDL_Init?$CISDL_INIT_JOYSTICK?$CJ?5pass@ 0060bb08     sdl_input.obj
 0003:0000cb34       ??_C@_0CI@NEOFBKGA@SDL_Init?$CISDL_INIT_JOYSTICK?$CJ?5fail@ 0060bb34     sdl_input.obj
 0003:0000cb64       ??_C@_0CI@OIECHDNN@Calling?5SDL_Init?$CISDL_INIT_JOYSTI@ 0060bb64     sdl_input.obj
 0003:0000cb94       ??_C@_0BJ@HFLDAPPJ@Joystick?5is?5not?5active?4?6?$AA@ 0060bb94     sdl_input.obj
 0003:0000cbb4       ??_C@_0N@ILOKOAHO@AUDIO_S16MSB?$AA@ 0060bbb4     sdl_snd.obj
 0003:0000cbc4       ??_C@_0N@OIDKNFEE@AUDIO_U16MSB?$AA@ 0060bbc4     sdl_snd.obj
 0003:0000cbd4       ??_C@_0N@DDFGIHBL@AUDIO_S16LSB?$AA@ 0060bbd4     sdl_snd.obj
 0003:0000cbe4       ??_C@_0N@FAIGLCCB@AUDIO_U16LSB?$AA@ 0060bbe4     sdl_snd.obj
 0003:0000cbf4       ??_C@_08GFGCPHAH@AUDIO_S8?$AA@ 0060bbf4     sdl_snd.obj
 0003:0000cc00       ??_C@_08GBOPILLF@AUDIO_U8?$AA@ 0060bc00     sdl_snd.obj
 0003:0000cc0c       ??_C@_0BI@HIBBAPOM@SDL?5audio?5initialized?4?6?$AA@ 0060bc0c     sdl_snd.obj
 0003:0000cc28       ??_C@_0CA@BDCCPEMH@Starting?5SDL?5audio?5callback?4?4?4?6?$AA@ 0060bc28     sdl_snd.obj
 0003:0000cc50       ??_C@_0O@LKBEJEAE@SDL_AudioSpec?$AA@ 0060bc50     sdl_snd.obj
 0003:0000cc60       ??_C@_0BM@LJAJEIBO@SDL_OpenAudio?$CI?$CJ?5failed?3?5?$CFs?6?$AA@ 0060bc60     sdl_snd.obj
 0003:0000cc84       ??_C@_0BL@HEGMDOIO@SDL?5audio?5driver?5is?5?$CC?$CFs?$CC?4?6?$AA@ 0060bc84     sdl_snd.obj
 0003:0000cca4       ??_C@_09IFEIINHG@?$CIUNKNOWN?$CJ?$AA@ 0060bca4     sdl_snd.obj
 0003:0000ccb0       ??_C@_0N@MPOOMCKL@FAILED?5?$CI?$CFs?$CJ?6?$AA@ 0060bcb0     sdl_snd.obj
 0003:0000ccc0       ??_C@_0BP@LLOMPEDP@SDL_Init?$CI?5SDL_INIT_AUDIO?5?$CJ?4?4?4?5?$AA@ 0060bcc0     sdl_snd.obj
 0003:0000cce8       ??_C@_0O@GGKLCIDB@s_sdlMixSamps?$AA@ 0060bce8     sdl_snd.obj
 0003:0000ccf8       ??_C@_0O@MNJIPAHI@s_sdlDevSamps?$AA@ 0060bcf8     sdl_snd.obj
 0003:0000cd08       ??_C@_0O@HKLJNLHJ@s_sdlChannels?$AA@ 0060bd08     sdl_snd.obj
 0003:0000cd18       ??_C@_0L@FKIDOKCL@s_sdlSpeed?$AA@ 0060bd18     sdl_snd.obj
 0003:0000cd28       ??_C@_09LNAHEPAI@s_sdlBits?$AA@ 0060bd28     sdl_snd.obj
 0003:0000cd34       ??_C@_02KMALDIDP@16?$AA@   0060bd34     sdl_snd.obj
 0003:0000cd38       ??_C@_0BA@JBCAOHNG@?5?5Channels?3?5?$CFd?6?$AA@ 0060bd38     sdl_snd.obj
 0003:0000cd4c       ??_C@_0BA@FLDNJBPD@?5?5Samples?3?5?5?$CFd?6?$AA@ 0060bd4c     sdl_snd.obj
 0003:0000cd60       ??_C@_0BA@EPGLCHDK@?5?5Freq?3?5?5?5?5?5?$CFd?6?$AA@ 0060bd60     sdl_snd.obj
 0003:0000cd74       ??_C@_0BH@KKAIELMI@?5?5Format?3?5?5?5?$FO1UNKNOWN?6?$AA@ 0060bd74     sdl_snd.obj
 0003:0000cd90       ??_C@_0BA@PKHEEGDC@?5?5Format?3?5?5?5?$CFs?6?$AA@ 0060bd90     sdl_snd.obj
 0003:0000cda4       ??_C@_04JKGFCPCI@?$CFs?3?6?$AA@ 0060bda4     sdl_snd.obj
 0003:0000cdac       ??_C@_0BN@BGNOPDNG@SDL?5audio?5device?5shut?5down?4?6?$AA@ 0060bdac     sdl_snd.obj
 0003:0000cdd0       ??_C@_0BN@OBBKLFOJ@Closing?5SDL?5audio?5device?4?4?4?6?$AA@ 0060bdd0     sdl_snd.obj
 0003:0000cdf4       ??_C@_0BK@JPHDFJMI@Unknown?5extension?5for?5?$CFs?6?$AA@ 0060bdf4     snd_codec.obj
 0003:0000ce14       ??_C@_0BF@KHJIPGHH@sizeof?$CIsnd_stream_t?$CJ?$AA@ 0060be14     snd_codec.obj
 0003:0000ce30       ??_C@_0DP@EEEBGENG@c?3?2web?2trepdev?2trepidation?2trep?9@ 0060be30     snd_codec.obj
 0003:0000ce7c       ??_C@_0BK@GDHJNKCE@Can?8t?5read?5sound?5file?5?$CFs?6?$AA@ 0060be7c     snd_codec.obj
 0003:0000ce9c       ??_C@_04IBLEHOMF@?4wav?$AA@ 0060be9c     snd_codec_wav.obj
 0003:0000cea4       ??_C@_0CF@KLJPDOLP@?$FO1ERROR?3?5Out?5of?5memory?5reading?5?$CC@ 0060bea4     snd_codec_wav.obj
 0003:0000ced0       ??_C@_0L@HPNHPGCH@info?9?$DOsize?$AA@ 0060bed0     snd_codec_wav.obj
 0003:0000cee0       ??_C@_0ED@JAGPBHFF@c?3?2web?2trepdev?2trepidation?2trep?9@ 0060bee0     snd_codec_wav.obj
 0003:0000cf30       ??_C@_0CP@MMAJNEGG@?$FO1ERROR?3?5Incorrect?1unsupported?5f@ 0060bf30     snd_codec_wav.obj
 0003:0000cf68       ??_C@_0BO@CJBMIGHM@?$FO1ERROR?3?5Could?5not?5open?5?$CC?$CFs?$CC?6?$AA@ 0060bf68     snd_codec_wav.obj
 0003:0000cf8c       ??_C@_0CF@MBKEDKAL@?$FO1ERROR?3?5Couldn?8t?5find?5?$CCdata?$CC?5ch@ 0060bf8c     snd_codec_wav.obj
 0003:0000cfb8       ??_C@_04PJOLNDGD@data?$AA@ 0060bfb8     snd_codec_wav.obj
 0003:0000cfc0       ??_C@_0DB@PAIPKBIP@?$FO1ERROR?3?5Less?5than?58?5bit?5sound?5i@ 0060bfc0     snd_codec_wav.obj
 0003:0000cffc       ??_C@_0CE@BMIIPJEA@?$FO1ERROR?3?5Couldn?8t?5find?5?$CCfmt?$CC?5chu@ 0060bffc     snd_codec_wav.obj
 0003:0000d028       ??_C@_04CAJPEBPP@fmt?5?$AA@ 0060c028     snd_codec_wav.obj
 0003:0000d030       ??_C@_0CC@MJFLKJDD@?$FO3WARNING?3?5Negative?5chunk?5length@ 0060c030     snd_codec_wav.obj
 0003:0000d058       ??_C@_0BF@PIJCDGGI@No?5background?5file?4?6?$AA@ 0060c058     snd_dma.obj
 0003:0000d074       ??_C@_0BF@DBAKANBB@Background?5file?3?5?$CFs?6?$AA@ 0060c074     snd_dma.obj
 0003:0000d090       ??_C@_0P@IDJMIAHN@?$CFp?5dma?5buffer?6?$AA@ 0060c090     snd_dma.obj
 0003:0000d0a4       ??_C@_0L@CLCJCFAJ@?$CF5d?5speed?6?$AA@ 0060c0a4     snd_dma.obj
 0003:0000d0b4       ??_C@_0BG@FOGLIFDD@?$CF5d?5submission_chunk?6?$AA@ 0060c0b4     snd_dma.obj
 0003:0000d0d0       ??_C@_0BA@HGOIHECG@?$CF5d?5samplebits?6?$AA@ 0060c0d0     snd_dma.obj
 0003:0000d0e4       ??_C@_0N@LFEODKMK@?$CF5d?5samples?6?$AA@ 0060c0e4     snd_dma.obj
 0003:0000d0f4       ??_C@_0M@FDDHHICE@?$CF5d?5stereo?6?$AA@ 0060c0f4     snd_dma.obj
 0003:0000d104       ??_C@_0BK@NEOOOKPB@sound?5system?5not?5started?6?$AA@ 0060c104     snd_dma.obj
 0003:0000d124       ??_C@_0BI@JEHEKKKP@?9?9?9?9?9?5Sound?5Info?5?9?9?9?9?9?6?$AA@ 0060c124     snd_dma.obj
 0003:0000d140       ??_C@_0BE@FOMELIJC@Total?5resident?3?5?$CFi?6?$AA@ 0060c140     snd_dma.obj
 0003:0000d158       ??_C@_0BC@HICHNCDI@?$CF6i?$FL?$CFs?$FN?5?3?5?$CFs?$FL?$CFs?$FN?6?$AA@ 0060c158     snd_dma.obj
 0003:0000d170       ??_C@_09BLPOEION@resident?5?$AA@ 0060c170     snd_dma.obj
 0003:0000d17c       ??_C@_09IKAMNOEC@paged?5out?$AA@ 0060c17c     snd_dma.obj
 0003:0000d188       ??_C@_05JDPOCLPK@mulaw?$AA@ 0060c188     snd_dma.obj
 0003:0000d190       ??_C@_05NFJCPBPK@daub4?$AA@ 0060c190     snd_dma.obj
 0003:0000d198       ??_C@_05BANKJDCB@adpcm?$AA@ 0060c198     snd_dma.obj
 0003:0000d1a0       ??_C@_05DCAALEKH@16bit?$AA@ 0060c1a0     snd_dma.obj
 0003:0000d1a8       ??_C@_0CA@PLLGIKIN@Channel?5memory?5manager?5started?6?$AA@ 0060c1a8     snd_dma.obj
 0003:0000d1d0       ??_C@_0CO@KFOCFNID@?$FO3WARNING?3?5could?5not?5find?5?$CFs?5?9?5u@ 0060c1d0     snd_dma.obj
 0003:0000d208       ??_C@_0BO@KNMPIDHG@Sound?5name?5exceeds?5MAX_QPATH?6?$AA@ 0060c208     snd_dma.obj
 0003:0000d22c       ??_C@_0BJ@ONEALDEO@S_FindName?3?5out?5of?5sfx_t?$AA@ 0060c22c     snd_dma.obj
 0003:0000d24c       ??_C@_0BI@FNMGDFHG@Sound?5name?5too?5long?3?5?$CFs?$AA@ 0060c24c     snd_dma.obj
 0003:0000d268       ??_C@_0BI@MBEBGPGI@S_FindName?3?5empty?5name?6?$AA@ 0060c268     snd_dma.obj
 0003:0000d284       ??_C@_0BC@JMCPOJBP@S_FindName?3?5NULL?6?$AA@ 0060c284     snd_dma.obj
 0003:0000d29c       ??_C@_0BH@PPLJNIIB@sound?1feedback?1hit?4wav?$AA@ 0060c29c     snd_dma.obj
 0003:0000d2b8       __real@4054000000000000    0060c2b8     snd_dma.obj
 0003:0000d2c4       __real@3a51b717            0060c2c4     snd_dma.obj
 0003:0000d2c8       ??_C@_0BA@EKACNJLN@dropping?5sound?6?$AA@ 0060c2c8     snd_dma.obj
 0003:0000d2dc       ??_C@_08IOBNMEPB@?$CFi?5?3?5?$CFs?6?$AA@ 0060c2dc     snd_dma.obj
 0003:0000d2e8       ??_C@_0CI@IPOCFLJC@?$FO3S_StartSound?3?5handle?5?$CFi?5out?5of@ 0060c2e8     snd_dma.obj
 0003:0000d318       ??_C@_0BP@PLEMPNLH@S_StartSound?3?5bad?5entitynum?5?$CFi?$AA@ 0060c318     snd_dma.obj
 0003:0000d340       ??_C@_0CN@OFBFNJNK@?$FO3S_StartLocalSound?3?5handle?5?$CFi?5o@ 0060c340     snd_dma.obj
 0003:0000d378       __real@42480000            0060c378     snd_dma.obj
 0003:0000d380       __real@4049000000000000    0060c380     snd_dma.obj
 0003:0000d38c       ??_C@_0BA@JCBCPJHP@?$CFs?5has?5length?50?$AA@ 0060c38c     snd_dma.obj
 0003:0000d3a0       ??_C@_0CN@KJNMJCPK@?$FO3S_AddLoopingSound?3?5handle?5?$CFi?5o@ 0060c3a0     snd_dma.obj
 0003:0000d3d8       ??_C@_0DB@OALOBLCO@?$FO3S_AddRealLoopingSound?3?5handle?5@ 0060c3d8     snd_dma.obj
 0003:0000d414       ??_C@_0CH@GFACFPOM@S_Base_RawSamples?3?5overflowed?5?$CFi@ 0060c414     snd_dma.obj
 0003:0000d444       ??_C@_0CP@PIMBHHFA@S_Base_RawSamples?3?5resetting?5min@ 0060c444     snd_dma.obj
 0003:0000d47c       ??_C@_0CJ@FABAALOF@S_UpdateEntityPosition?3?5bad?5enti@ 0060c47c     snd_dma.obj
 0003:0000d4b0       ??_C@_0BK@LAAFJK@?9?9?9?9?$CI?$CFi?$CJ?9?9?9?9?5painted?3?5?$CFi?6?$AA@ 0060c4b0     snd_dma.obj
 0003:0000d4d0       ??_C@_09LJGNPIBP@?$CFd?5?$CFd?5?$CFs?6?$AA@ 0060c4d0     snd_dma.obj
 0003:0000d4e0       __real@3f847ae147ae147b    0060c4e0     snd_dma.obj
 0003:0000d4ec       __real@41300000            0060c4ec     snd_dma.obj
 0003:0000d4f0       __real@4026000000000000    0060c4f0     snd_dma.obj
 0003:0000d4fc       ??_C@_0CM@GEAHPJEC@?$FO3WARNING?3?5music?5file?5?$CFs?5is?5not?5@ 0060c4fc     snd_dma.obj
 0003:0000d530       ??_C@_0CI@BJIPAJDD@?$FO3WARNING?3?5couldn?8t?5open?5music?5f@ 0060c530     snd_dma.obj
 0003:0000d560       ??_C@_0CC@NGKFCGIG@S_StartBackgroundTrack?$CI?5?$CFs?0?5?$CFs?5?$CJ@ 0060c560     snd_dma.obj
 0003:0000d588       ??_C@_0CF@BDGBFLDG@S_FreeOldestSound?3?5freeing?5sound@ 0060c588     snd_dma.obj
 0003:0000d5b4       ??_C@_06KDCPAFOD@s_info?$AA@ 0060c5b4     snd_dma.obj
 0003:0000d5bc       ??_C@_0M@GGPLEHOA@s_testsound?$AA@ 0060c5bc     snd_dma.obj
 0003:0000d5cc       ??_C@_06CBNOHGMK@s_show?$AA@ 0060c5cc     snd_dma.obj
 0003:0000d5d4       ??_C@_0N@MILGKHMC@s_mixPreStep?$AA@ 0060c5d4     snd_dma.obj
 0003:0000d5e4       ??_C@_04FOELEPEP@0?405?$AA@ 0060c5e4     snd_dma.obj
 0003:0000d5ec       ??_C@_0L@CIDOAMPN@s_mixahead?$AA@ 0060c5ec     snd_dma.obj
 0003:0000d5fc       ??_C@_05GPLACMP@s_khz?$AA@ 0060c5fc     snd_dma.obj
 0003:0000d604       ??_C@_02MKCBEDGC@22?$AA@   0060c604     snd_dma.obj
 0003:0000d608       ??_C@_06MKMJDPPC@?$CFs?4wav?$AA@ 0060c608     snd_main.obj
 0003:0000d610       ??_C@_0BO@IEIFFKHL@music?5?$DMmusicfile?$DO?5?$FLloopfile?$FN?6?$AA@ 0060c610     snd_main.obj
 0003:0000d634       ??_C@_0CC@IODDEFBI@?9?9?9?9?9?9?9?9?9?9?9?9?9?9?9?9?9?9?9?9?9?9?9?9?9?9?9?9?9?9?9?9@ 0060c634     snd_main.obj
 0003:0000d65c       ??_C@_0BO@COAEKHOJ@Sound?5initialization?5failed?4?6?$AA@ 0060c65c     snd_main.obj
 0003:0000d680       ??_C@_0CC@LJNMJGNP@Sound?5initialization?5successful?4@ 0060c680     snd_main.obj
 0003:0000d6a8       ??_C@_0BJ@IEHOGGLP@Sound?5interface?5invalid?4?$AA@ 0060c6a8     snd_main.obj
 0003:0000d6c8       ??_C@_0M@GDCDMLMH@s_useOpenAL?$AA@ 0060c6c8     snd_main.obj
 0003:0000d6d8       ??_C@_06HEFAAICK@s_stop?$AA@ 0060c6d8     snd_main.obj
 0003:0000d6e0       ??_C@_06EFMDBICL@s_list?$AA@ 0060c6e0     snd_main.obj
 0003:0000d6e8       ??_C@_09LMODONHF@stopmusic?$AA@ 0060c6e8     snd_main.obj
 0003:0000d6f4       ??_C@_05LLDJOKNO@music?$AA@ 0060c6f4     snd_main.obj
 0003:0000d6fc       ??_C@_04GBHMDDO@play?$AA@  0060c6fc     snd_main.obj
 0003:0000d704       ??_C@_0BB@GKPFIKJN@Sound?5disabled?4?6?$AA@ 0060c704     snd_main.obj
 0003:0000d718       ??_C@_0BE@PONGOEMN@s_muteWhenUnfocused?$AA@ 0060c718     snd_main.obj
 0003:0000d730       ??_C@_0BE@PMOJDCOO@s_muteWhenMinimized?$AA@ 0060c730     snd_main.obj
 0003:0000d748       ??_C@_09FFKKACPC@s_doppler?$AA@ 0060c748     snd_main.obj
 0003:0000d754       ??_C@_07EDBHMMCD@s_muted?$AA@ 0060c754     snd_main.obj
 0003:0000d760       ??_C@_0O@DCFOJKGE@s_musicvolume?$AA@ 0060c760     snd_main.obj
 0003:0000d770       ??_C@_08HCGCKAMG@s_volume?$AA@ 0060c770     snd_main.obj
 0003:0000d77c       ??_C@_03LNMAPFD@0?48?$AA@  0060c77c     snd_main.obj
 0003:0000d780       ??_C@_0CC@CKDFLPEO@?9?9?9?9?9?9?5Initializing?5Sound?5?9?9?9?9?9?9@ 0060c780     snd_main.obj
 0003:0000d7a8       ??_C@_0BO@JLIKIDHN@Sound?5memory?5manager?5started?6?$AA@ 0060c7a8     snd_mem.obj
 0003:0000d7cc       ??_C@_0O@HNCJJOBC@com_soundMegs?$AA@ 0060c7cc     snd_mem.obj
 0003:0000d7dc       ??_C@_01KJLJFBPL@8?$AA@    0060c7dc     snd_mem.obj
 0003:0000d7e0       ??_C@_0CH@DLPNPMAK@?$FO3WARNING?3?5?$CFs?5is?5not?5a?522kHz?5wav@ 0060c7e0     snd_mem.obj
 0003:0000d810       ??_C@_0CD@BHGEJMMG@?$FO3WARNING?3?5?$CFs?5is?5a?58?5bit?5wav?5fil@ 0060c810     snd_mem.obj
 0003:0000d83c       ??_C@_0DC@PNBPCCNC@?$CFd?5bytes?5free?5sound?5buffer?5memor@ 0060c83c     snd_mem.obj
 0003:0000d878       __real@40d3880000000000    0060c878     snd_mix.obj
 0003:0000d888       __real@40a0000000000000    0060c888     snd_mix.obj
 0003:0000d898       __real@4090000000000000    0060c898     snd_mix.obj
 0003:0000d8a4       ??_C@_0BL@BEJNAIBG@OpenAL?5capture?5device?5?$CFs?4?6?$AA@ 0060c8a4     snd_openal.obj
 0003:0000d8c4       ??_C@_06NBOJMOCJ@opened?$AA@ 0060c8c4     snd_openal.obj
 0003:0000d8cc       ??_C@_0P@BBANEHAI@failed?5to?5open?$AA@ 0060c8cc     snd_openal.obj
 0003:0000d8e0       ??_C@_0CH@MJMIGKGL@OpenAL?5default?5capture?5device?5is@ 0060c8e0     snd_openal.obj
 0003:0000d910       ??_C@_0DB@KBFBAEBD@No?5ALC_EXT_capture?5support?0?5can?8@ 0060c910     snd_openal.obj
 0003:0000d94c       ??_C@_0BA@BPBMLNJH@ALC_EXT_capture?$AA@ 0060c94c     snd_openal.obj
 0003:0000d960       ??_C@_0EK@JGAJDIPE@OpenAL?5capture?5support?5disabled?5@ 0060c960     snd_openal.obj
 0003:0000d9b8       ??_C@_0M@CGHHOEGL@s_alCapture?$AA@ 0060c9b8     snd_openal.obj
 0003:0000d9c8       ??_C@_0CC@KIHNHGKB@Failed?5to?5create?5OpenAL?5context?4@ 0060c9c8     snd_openal.obj
 0003:0000d9f0       ??_C@_0BP@JEFGIJCO@Failed?5to?5open?5OpenAL?5device?4?6?$AA@ 0060c9f0     snd_openal.obj
 0003:0000da18       ??_C@_0DE@HJOEMIDM@Failed?5to?5open?5OpenAL?5device?5?8?$CFs@ 0060ca18     snd_openal.obj
 0003:0000da58       ??_C@_0BF@CADIOLNO@s_alAvailableDevices?$AA@ 0060ca58     snd_openal.obj
 0003:0000da74       ??_C@_0BB@PLIBOBMI@Generic?5Software?$AA@ 0060ca74     snd_openal.obj
 0003:0000da88       ??_C@_0BB@FANJJFBA@Generic?5Hardware?$AA@ 0060ca88     snd_openal.obj
 0003:0000da9c       ??_C@_0BE@DGKKAFBE@ALC_ENUMERATION_EXT?$AA@ 0060ca9c     snd_openal.obj
 0003:0000dab4       ??_C@_0BP@PKIJFKFC@Failed?5to?5load?5library?3?5?$CC?$CFs?$CC?4?6?$AA@ 0060cab4     snd_openal.obj
 0003:0000dadc       ??_C@_0L@PNCBAPMJ@s_alDevice?$AA@ 0060cadc     snd_openal.obj
 0003:0000daec       ??_C@_0L@IDGICFE@s_alDriver?$AA@ 0060caec     snd_openal.obj
 0003:0000dafc       ??_C@_0N@IFEDEMPP@OpenAL32?4dll?$AA@ 0060cafc     snd_openal.obj
 0003:0000db0c       ??_C@_0BC@DIPHJFON@s_alGraceDistance?$AA@ 0060cb0c     snd_openal.obj
 0003:0000db24       ??_C@_03NBJHPDKG@512?$AA@  0060cb24     snd_openal.obj
 0003:0000db28       ??_C@_0M@ONHLFPLE@s_alRolloff?$AA@ 0060cb28     snd_openal.obj
 0003:0000db38       ??_C@_0BA@EMDBPLDC@s_alMaxDistance?$AA@ 0060cb38     snd_openal.obj
 0003:0000db4c       ??_C@_04MJHCKDHM@1024?$AA@ 0060cb4c     snd_openal.obj
 0003:0000db54       ??_C@_0BA@NMECOLNI@s_alMinDistance?$AA@ 0060cb54     snd_openal.obj
 0003:0000db68       ??_C@_03GOIFLICK@120?$AA@  0060cb68     snd_openal.obj
 0003:0000db6c       ??_C@_0BB@FMOPEMGJ@s_alDopplerSpeed?$AA@ 0060cb6c     snd_openal.obj
 0003:0000db80       ??_C@_04EDDDAAEN@2200?$AA@ 0060cb80     snd_openal.obj
 0003:0000db88       ??_C@_0BC@LPOHGFCI@s_alDopplerFactor?$AA@ 0060cb88     snd_openal.obj
 0003:0000dba0       ??_C@_0M@KFPNMCGP@s_alSources?$AA@ 0060cba0     snd_openal.obj
 0003:0000dbb0       ??_C@_02KCBIGJIH@96?$AA@   0060cbb0     snd_openal.obj
 0003:0000dbb4       ??_C@_08NLBINPOC@s_alGain?$AA@ 0060cbb4     snd_openal.obj
 0003:0000dbc0       ??_C@_03HLLJOCDO@1?40?$AA@ 0060cbc0     snd_openal.obj
 0003:0000dbc4       ??_C@_0N@PLJNALAL@s_alPrecache?$AA@ 0060cbc4     snd_openal.obj
 0003:0000dbd4       ??_C@_0CL@DLIECLIM@S_AL_BufferFindFree?3?5No?5free?5sou@ 0060cbd4     snd_openal.obj
 0003:0000dc08       ??_C@_0CO@IFICJMOD@?$FO1ERROR?3?5Can?8t?5fill?5sound?5buffer@ 0060cc08     snd_openal.obj
 0003:0000dc40       ??_C@_0CD@NOJIPEGO@?$FO1ERROR?3?5Out?5of?5memory?5loading?5?$CF@ 0060cc40     snd_openal.obj
 0003:0000dc6c       ??_C@_0DC@IHEEJBEH@?$FO1ERROR?3?5Can?8t?5create?5a?5sound?5bu@ 0060cc6c     snd_openal.obj
 0003:0000dca8       ??_C@_0O@NIPGCINC@Unknown?5error?$AA@ 0060cca8     snd_openal.obj
 0003:0000dcb8       ??_C@_0O@NALGGDJF@Out?5of?5memory?$AA@ 0060ccb8     snd_openal.obj
 0003:0000dcc8       ??_C@_0BC@BPINLOPL@Invalid?5operation?$AA@ 0060ccc8     snd_openal.obj
 0003:0000dce0       ??_C@_0O@INPNLMJE@Invalid?5value?$AA@ 0060cce0     snd_openal.obj
 0003:0000dcf0       ??_C@_0BD@HBFGADBB@Invalid?5enumerator?$AA@ 0060ccf0     snd_openal.obj
 0003:0000dd08       ??_C@_0N@NDPJFAON@Invalid?5name?$AA@ 0060cd08     snd_openal.obj
 0003:0000dd18       ??_C@_08INEPGKHH@No?5error?$AA@ 0060cd18     snd_openal.obj
 0003:0000dd24       ??_C@_0CD@LGPDKGDL@?$FO3WARNING?3?5unhandled?5AL?5error?3?5?$CF@ 0060cd24     snd_openal.obj
 0003:0000dd50       ??_C@_0CH@NKPPDAGK@?$FO3WARNING?3?5Using?5default?5sound?5f@ 0060cd50     snd_openal.obj
 0003:0000dd80       ??_C@_0CE@HBDMCEAK@Can?8t?5load?5default?5sound?5effect?5@ 0060cd80     snd_openal.obj
 0003:0000ddac       ??_C@_0CL@OOIBFMIG@?$FO1ERROR?3?5Can?8t?5delete?5sound?5buff@ 0060cdac     snd_openal.obj
 0003:0000dde0       ??_C@_0BH@EONDENFH@Allocated?5?$CFd?5sources?4?6?$AA@ 0060cde0     snd_openal.obj
 0003:0000de00       ??_C@_0FO@LJANPILC@?$FO3WARNING?3?5vector?5with?5one?5or?5mo@ 0060ce00     snd_openal.obj
 0003:0000de70       ??_C@_0EA@JNKEPIEA@c?3?2web?2trepdev?2trepidation?2trep?9@ 0060ce70     snd_openal.obj
 0003:0000debc       __real@447a0000            0060cebc     snd_openal.obj
 0003:0000dec0       ??_C@_0DK@KEAOMJIM@?$FO3WARNING?3?5Could?5not?5get?5time?5of@ 0060cec0     snd_openal.obj
 0003:0000df08       ??_C@_0DC@JKCDPNEJ@?$FO1ERROR?3?5S_AL_CheckInput?3?5handle@ 0060cf08     snd_openal.obj
 0003:0000df44       ??_C@_0CJ@IPKLBGMK@ERROR?3?5S_AL_CheckInput?3?5bad?5enti@ 0060cf44     snd_openal.obj
 0003:0000df78       __real@40a2000000000000    0060cf78     snd_openal.obj
 0003:0000df88       ??_C@_0ED@FCAHEGDC@?$FO3WARNING?3?5Failed?5to?5allocate?5so@ 0060cf88     snd_openal.obj
 0003:0000dfd8       ??_C@_0DA@BCABPNBH@?$FO1ERROR?3?5Can?8t?5allocate?5streamin@ 0060cfd8     snd_openal.obj
 0003:0000e014       ??_C@_0DF@LEKJEHBG@?$FO1ERROR?3?5while?5buffering?5data?5fo@ 0060d014     snd_openal.obj
 0003:0000e054       ??_C@_0DI@NKNAMMML@?$FO3WARNING?3?5Cannot?5get?5sample?5off@ 0060d054     snd_openal.obj
 0003:0000e098       ??_C@_0BK@ENPHGPOL@?$FO3Restarted?5OpenAL?5music?6?$AA@ 0060d098     snd_openal.obj
 0003:0000e0b8       ??_C@_0BG@LCCFIDJ@Available?5Devices?3?6?$CFs?$AA@ 0060d0b8     snd_openal.obj
 0003:0000e0d4       ??_C@_0BC@LDEBNHIP@?5?5Device?3?5?5?5?5?5?$CFs?6?$AA@ 0060d0d4     snd_openal.obj
 0003:0000e0ec       ??_C@_0BG@PJGEJBGD@?5?5ALC?5Extensions?3?5?$CFs?6?$AA@ 0060d0ec     snd_openal.obj
 0003:0000e108       ??_C@_0BF@BDOBIIMH@?5?5AL?5Extensions?3?5?$CFs?6?$AA@ 0060d108     snd_openal.obj
 0003:0000e124       ??_C@_0BC@IFAACPKP@?5?5Renderer?3?5?5?5?$CFs?6?$AA@ 0060d124     snd_openal.obj
 0003:0000e13c       ??_C@_0BC@MELLNNKN@?5?5Version?3?5?5?5?5?$CFs?6?$AA@ 0060d13c     snd_openal.obj
 0003:0000e154       ??_C@_0BC@ECMGBCJP@?5?5Vendor?3?5?5?5?5?5?$CFs?6?$AA@ 0060d154     snd_openal.obj
 0003:0000e16c       ??_C@_0O@LJCGLCO@OpenAL?5info?3?6?$AA@ 0060d16c     snd_openal.obj
 0003:0000e17c       ??_C@_0BP@EOLMBJBG@OpenAL?5capture?5device?5closed?4?6?$AA@ 0060d17c     snd_openal.obj
 0003:0000e1a4       ??_C@_0CA@LKLDEKOJ@?$FO3WARNING?3?5Source?5?$CFd?5is?5locked?6?$AA@ 0060d1a4     snd_openal.obj
 0003:0000e1d0       __real@bfc0907dc1930691    0060d1d0     snd_wavelet.obj
 0003:0000e1e0       __real@3fccb0bf0b6b7109    0060d1e0     snd_wavelet.obj
 0003:0000e1f0       __real@3feac4bdd6e3fd71    0060d1f0     snd_wavelet.obj
 0003:0000e200       __real@3fdee8dd4748bf14    0060d200     snd_wavelet.obj
 0003:0000e20c       __real@c7000000            0060d20c     snd_wavelet.obj
 0003:0000e210       __real@c0e0000000000000    0060d210     snd_wavelet.obj
 0003:0000e21c       __real@46fffe00            0060d21c     snd_wavelet.obj
 0003:0000e220       ??_C@_0CE@GNNEKHHF@SV_BotFreeClient?3?5bad?5clientNum?3@ 0060d220     sv_bot.obj
 0003:0000e24c       ??_C@_0BC@KEMOOJ@bot_highlightarea?$AA@ 0060d24c     sv_bot.obj
 0003:0000e264       ??_C@_0P@PHABANOG@bot_groundonly?$AA@ 0060d264     sv_bot.obj
 0003:0000e278       ??_C@_0BB@GFMPGHPP@bot_reachability?$AA@ 0060d278     sv_bot.obj
 0003:0000e28c       ??_C@_09JMCENGKH@bot_debug?$AA@ 0060d28c     sv_bot.obj
 0003:0000e298       ??_C@_0DC@ICCMFCJF@?$FO1Error?3?5SV_BotLibSetup?5without?5@ 0060d298     sv_bot.obj
 0003:0000e2d4       ??_C@_0BE@IDNEOHBL@bot_interbreedwrite?$AA@ 0060d2d4     sv_bot.obj
 0003:0000e2ec       ??_C@_0BE@BBMLIECL@bot_interbreedcycle?$AA@ 0060d2ec     sv_bot.obj
 0003:0000e304       ??_C@_0BD@GLHGHIJE@bot_interbreedbots?$AA@ 0060d304     sv_bot.obj
 0003:0000e31c       ??_C@_02PKFBJPLJ@10?$AA@   0060d31c     sv_bot.obj
 0003:0000e320       ??_C@_0BD@MIDHDJEH@bot_interbreedchar?$AA@ 0060d320     sv_bot.obj
 0003:0000e338       ??_C@_0P@IGNPDGBD@bot_minplayers?$AA@ 0060d338     sv_bot.obj
 0003:0000e34c       ??_C@_0O@ILENLOKO@bot_challenge?$AA@ 0060d34c     sv_bot.obj
 0003:0000e35c       ??_C@_0P@OLNMGHML@bot_rocketjump?$AA@ 0060d35c     sv_bot.obj
 0003:0000e370       ??_C@_0M@HIPNFLBG@bot_grapple?$AA@ 0060d370     sv_bot.obj
 0003:0000e380       ??_C@_0L@DIBKBFBJ@bot_report?$AA@ 0060d380     sv_bot.obj
 0003:0000e390       ??_C@_09KJGEBPM@bot_pause?$AA@ 0060d390     sv_bot.obj
 0003:0000e39c       ??_C@_0L@JNAIAIAH@bot_nochat?$AA@ 0060d39c     sv_bot.obj
 0003:0000e3ac       ??_C@_0N@JOELMLFL@bot_fastchat?$AA@ 0060d3ac     sv_bot.obj
 0003:0000e3bc       ??_C@_0BB@LICKAML@bot_testclusters?$AA@ 0060d3bc     sv_bot.obj
 0003:0000e3d0       ??_C@_0O@NEGDFLLI@bot_testsolid?$AA@ 0060d3d0     sv_bot.obj
 0003:0000e3e0       ??_C@_0O@BBHMLBKC@bot_testrchat?$AA@ 0060d3e0     sv_bot.obj
 0003:0000e3f0       ??_C@_0O@HIGNEDPK@bot_testichat?$AA@ 0060d3f0     sv_bot.obj
 0003:0000e400       ??_C@_0BF@BBFOCAKO@bot_reloadcharacters?$AA@ 0060d400     sv_bot.obj
 0003:0000e41c       ??_C@_0O@NKIABNEG@bot_thinktime?$AA@ 0060d41c     sv_bot.obj
 0003:0000e42c       ??_C@_0BF@MDEDPJEF@bot_saveroutingcache?$AA@ 0060d42c     sv_bot.obj
 0003:0000e448       ??_C@_0BA@CHMPBPHA@bot_aasoptimize?$AA@ 0060d448     sv_bot.obj
 0003:0000e45c       ??_C@_0P@HFCEKFCE@bot_forcewrite?$AA@ 0060d45c     sv_bot.obj
 0003:0000e470       ??_C@_0BG@GJKIOMNG@bot_forcereachability?$AA@ 0060d470     sv_bot.obj
 0003:0000e48c       ??_C@_0BE@HANIKEON@bot_forceclustering?$AA@ 0060d48c     sv_bot.obj
 0003:0000e4a4       ??_C@_0BG@HILKKLKJ@bot_visualizejumppads?$AA@ 0060d4a4     sv_bot.obj
 0003:0000e4c0       ??_C@_0BC@OFKLJGBH@bot_maxdebugpolys?$AA@ 0060d4c0     sv_bot.obj
 0003:0000e4d8       ??_C@_0O@IHEJFHJE@bot_developer?$AA@ 0060d4d8     sv_bot.obj
 0003:0000e4e8       ??_C@_0L@BKCPIMBP@bot_enable?$AA@ 0060d4e8     sv_bot.obj
 0003:0000e4f8       ??_C@_1BM@IMIMFNMJ@?$AAb?$AAo?$AAt?$AAl?$AAi?$AAb?$AA_?$AAe?$AAx?$AAp?$AAo?$AAr?$AAt?$AA?$AA@ 0060d4f8     sv_bot.obj
 0003:0000e520       ??_C@_1HI@BDHKGPKH@?$AAc?$AA?3?$AA?2?$AAw?$AAe?$AAb?$AA?2?$AAt?$AAr?$AAe?$AAp?$AAd?$AAe?$AAv?$AA?2?$AAt?$AAr?$AAe?$AAp?$AAi?$AAd?$AAa?$AAt?$AAi?$AAo?$AAn?$AA?2?$AAt?$AAr?$AAe?$AAp?$AA?9@ 0060d520     sv_bot.obj
 0003:0000e5b0       ??_C@_0CM@BMOBJFIG@sizeof?$CIbot_debugpoly_t?$CJ?5?$CK?5bot_ma@ 0060d5b0     sv_bot.obj
 0003:0000e5e4       ??_C@_0DM@NJFOCHOF@c?3?2web?2trepdev?2trepidation?2trep?9@ 0060d5e4     sv_bot.obj
 0003:0000e62c       ??_C@_0BE@HKMNOMAG@unknown?5print?5type?6?$AA@ 0060d62c     sv_bot.obj
 0003:0000e644       ??_C@_0L@CNJLHKJM@?$FO1Exit?3?5?$CFs?$AA@ 0060d644     sv_bot.obj
 0003:0000e654       ??_C@_0M@GLOCHAGD@?$FO1Fatal?3?5?$CFs?$AA@ 0060d654     sv_bot.obj
 0003:0000e664       ??_C@_0M@LKBEKEOF@?$FO1Error?3?5?$CFs?$AA@ 0060d664     sv_bot.obj
 0003:0000e674       ??_C@_0O@LHCIHOMB@?$FO3Warning?3?5?$CFs?$AA@ 0060d674     sv_bot.obj
 0003:0000e684       ??_C@_0DA@ONPNGPHE@SV_Bot_HunkAlloc?3?5Alloc?5with?5mar@ 0060d684     sv_bot.obj
 0003:0000e6c0       __real@c000000000000000    0060d6c0     sv_bot.obj
 0003:0000e6d0       __real@bfefae147ae147ae    0060d6d0     sv_bot.obj
 0003:0000e6e0       __real@3fefae147ae147ae    0060d6e0     sv_bot.obj
 0003:0000e6ec       ??_C@_09IBHPDBCP@flushbans?$AA@ 0060d6ec     sv_ccmds.obj
 0003:0000e6f8       ??_C@_09NDEKPLJA@exceptdel?$AA@ 0060d6f8     sv_ccmds.obj
 0003:0000e704       ??_C@_06KIAACFKK@bandel?$AA@ 0060d704     sv_ccmds.obj
 0003:0000e70c       ??_C@_0L@JDJKHLGG@exceptaddr?$AA@ 0060d70c     sv_ccmds.obj
 0003:0000e71c       ??_C@_07FFONOIAK@banaddr?$AA@ 0060d71c     sv_ccmds.obj
 0003:0000e728       ??_C@_08HAFNPEE@listbans?$AA@ 0060d728     sv_ccmds.obj
 0003:0000e734       ??_C@_0L@OBBGNGFJ@rehashbans?$AA@ 0060d734     sv_ccmds.obj
 0003:0000e744       ??_C@_03BANJEMDJ@say?$AA@  0060d744     sv_ccmds.obj
 0003:0000e748       ??_C@_0L@OMIGLNJO@killserver?$AA@ 0060d748     sv_ccmds.obj
 0003:0000e758       ??_C@_08ICLMJBJO@spdevmap?$AA@ 0060d758     sv_ccmds.obj
 0003:0000e764       ??_C@_05JFDPDGMD@spmap?$AA@ 0060d764     sv_ccmds.obj
 0003:0000e76c       ??_C@_06JMKHDEMO@devmap?$AA@ 0060d76c     sv_ccmds.obj
 0003:0000e774       ??_C@_03HBNNNHNM@map?$AA@  0060d774     sv_ccmds.obj
 0003:0000e778       ??_C@_0L@LFJOEPCG@sectorlist?$AA@ 0060d778     sv_ccmds.obj
 0003:0000e788       ??_C@_08GCHPGJL@dumpuser?$AA@ 0060d788     sv_ccmds.obj
 0003:0000e794       ??_C@_0L@JENAJOPJ@systeminfo?$AA@ 0060d794     sv_ccmds.obj
 0003:0000e7a4       ??_C@_0L@OJMFMOP@serverinfo?$AA@ 0060d7a4     sv_ccmds.obj
 0003:0000e7b4       ??_C@_06DJIHEMFI@status?$AA@ 0060d7b4     sv_ccmds.obj
 0003:0000e7bc       ??_C@_0L@NBDAICFL@clientkick?$AA@ 0060d7bc     sv_ccmds.obj
 0003:0000e7cc       ??_C@_09NMALIMLK@banClient?$AA@ 0060d7cc     sv_ccmds.obj
 0003:0000e7d8       ??_C@_07MNEAPDFN@banUser?$AA@ 0060d7d8     sv_ccmds.obj
 0003:0000e7e4       ??_C@_04FNIJDBCC@kick?$AA@ 0060d7e4     sv_ccmds.obj
 0003:0000e7ec       ??_C@_09NCPIAHOP@heartbeat?$AA@ 0060d7ec     sv_ccmds.obj
 0003:0000e7f8       ??_C@_0L@LPENDGCI@g_doWarmup?$AA@ 0060d7f8     sv_ccmds.obj
 0003:0000e808       ??_C@_02HJDGIJBC@sp?$AA@   0060d808     sv_ccmds.obj
 0003:0000e80c       ??_C@_0BD@IOLJLANL@Can?8t?5find?5map?5?$CFs?6?$AA@ 0060d80c     sv_ccmds.obj
 0003:0000e824       ??_C@_0DC@HPLLIPAB@SV_MapRestart_f?$CI?$CFd?$CJ?3?5dropped?5cli@ 0060d824     sv_ccmds.obj
 0003:0000e860       ??_C@_0N@HLIAHCAN@map_restart?6?$AA@ 0060d860     sv_ccmds.obj
 0003:0000e870       ??_C@_0CA@KCGHPPMG@variable?5change?5?9?9?5restarting?4?6?$AA@ 0060d870     sv_ccmds.obj
 0003:0000e898       ??_C@_0BI@BNNKLCPB@Server?5is?5not?5running?4?6?$AA@ 0060d898     sv_ccmds.obj
 0003:0000e8b4       ??_C@_0L@GPCEIOHM@print?5?$CC?$CFs?$CC?$AA@ 0060d8b4     sv_ccmds.obj
 0003:0000e8c4       ??_C@_0BJ@BPEGMFB@Cannot?5kick?5host?5player?6?$AA@ 0060d8c4     sv_ccmds.obj
 0003:0000e8e4       ??_C@_07GCOBEAMC@allbots?$AA@ 0060d8e4     sv_ccmds.obj
 0003:0000e8f0       ??_C@_0L@JGGOGHBB@was?5kicked?$AA@ 0060d8f0     sv_ccmds.obj
 0003:0000e900       ??_C@_0FB@IAPOMDOC@Usage?3?5kick?5?$DMplayer?5name?$DO?6kick?5a@ 0060d900     sv_ccmds.obj
 0003:0000e964       ??_C@_0CA@COHLGPJ@Player?5?$CFs?5is?5not?5on?5the?5server?6?$AA@ 0060d964     sv_ccmds.obj
 0003:0000e98c       ??_C@_0BG@FMLKELB@No?5player?5specified?4?6?$AA@ 0060d98c     sv_ccmds.obj
 0003:0000e9a8       ??_C@_0CA@IHMFJNLM@?$CFs?5was?5banned?5from?5coming?5back?6?$AA@ 0060d9a8     sv_ccmds.obj
 0003:0000e9d0       ??_C@_0BE@LNHBPGBP@banUser?5?$CFi?4?$CFi?4?$CFi?4?$CFi?$AA@ 0060d9d0     sv_ccmds.obj
 0003:0000e9e8       ??_C@_0BO@JNCGGNFP@Usage?3?5banUser?5?$DMplayer?5name?$DO?6?$AA@ 0060d9e8     sv_ccmds.obj
 0003:0000ea0c       ??_C@_0CC@FHLBNCJE@Usage?3?5banClient?5?$DMclient?5number?$DO@ 0060da0c     sv_ccmds.obj
 0003:0000ea34       ??_C@_0BJ@PDNIBEAG@Client?5?$CFi?5is?5not?5active?6?$AA@ 0060da34     sv_ccmds.obj
 0003:0000ea54       ??_C@_0BF@BEBENGBA@Bad?5client?5slot?3?5?$CFi?6?$AA@ 0060da54     sv_ccmds.obj
 0003:0000ea70       ??_C@_0BF@GAKLMKPI@Bad?5slot?5number?3?5?$CFs?6?$AA@ 0060da70     sv_ccmds.obj
 0003:0000ea8c       ??_C@_07HIABLANJ@filelen?$AA@ 0060da8c     sv_ccmds.obj
 0003:0000ea98       ??_C@_0DO@JHIJBGNM@c?3?2web?2trepdev?2trepidation?2trep?9@ 0060da98     sv_ccmds.obj
 0003:0000eae4       ??_C@_0BD@NOLEDPCM@Except?5?$CD?$CFd?3?5?$CFs?1?$CFd?6?$AA@ 0060dae4     sv_ccmds.obj
 0003:0000eafc       ??_C@_0BA@MGBJMLBC@Ban?5?$CD?$CFd?3?5?$CFs?1?$CFd?6?$AA@ 0060dafc     sv_ccmds.obj
 0003:0000eb10       ??_C@_0CM@JCEKHG@All?5bans?5and?5exceptions?5have?5bee@ 0060db10     sv_ccmds.obj
 0003:0000eb44       ??_C@_09LONHHPMJ@?$CFd?5?$CFs?5?$CFd?6?$AA@ 0060db44     sv_ccmds.obj
 0003:0000eb50       ??_C@_0BB@MOGEPLOO@Added?5?$CFs?3?5?$CFs?1?$CFd?6?$AA@ 0060db50     sv_ccmds.obj
 0003:0000eb64       ??_C@_0O@NFJJKNDG@ban?5exception?$AA@ 0060db64     sv_ccmds.obj
 0003:0000eb74       ??_C@_0DG@DBKCLMLO@Error?3?5?$CFs?5?$CFs?1?$CFd?5supersedes?5alrea@ 0060db74     sv_ccmds.obj
 0003:0000ebb4       ??_C@_0CF@LFOABOIE@Error?3?5?$CFs?5?$CFs?1?$CFd?5supersedes?5?$CFs?5?$CFs@ 0060dbb4     sv_ccmds.obj
 0003:0000ebe0       ??_C@_03FNMNFHGL@Ban?$AA@  0060dbe0     sv_ccmds.obj
 0003:0000ebe4       ??_C@_09FBNMMHMJ@Exception?$AA@ 0060dbe4     sv_ccmds.obj
 0003:0000ebf0       ??_C@_03PNPPPIFF@ban?$AA@  0060dbf0     sv_ccmds.obj
 0003:0000ebf4       ??_C@_09BOIBMEBJ@exception?$AA@ 0060dbf4     sv_ccmds.obj
 0003:0000ec00       ??_C@_0DJ@JMABLDDC@Error?3?5Can?5ban?5players?5connected@ 0060dc00     sv_ccmds.obj
 0003:0000ec44       ??_C@_0CF@BEEBIHLJ@Error?3?5Playernum?5?$CFs?5does?5not?5exi@ 0060dc44     sv_ccmds.obj
 0003:0000ec70       ??_C@_0BL@GEMANFNK@Error?3?5Invalid?5address?5?$CFs?6?$AA@ 0060dc70     sv_ccmds.obj
 0003:0000ec90       ??_C@_0DE@JEPKECNI@Error?3?5Maximum?5number?5of?5bans?1ex@ 0060dc90     sv_ccmds.obj
 0003:0000ecd0       ??_C@_0CO@OLONFCHJ@Usage?3?5?$CFs?5?$CIip?$FL?1subnet?$FN?5?$HM?5clientn@ 0060dcd0     sv_ccmds.obj
 0003:0000ed08       ??_C@_0CB@MBCGLLHN@Error?3?5Invalid?5ban?5number?5given?6@ 0060dd08     sv_ccmds.obj
 0003:0000ed30       ??_C@_0BD@EPPIFCBC@Deleting?5?$CFs?5?$CFs?1?$CFd?6?$AA@ 0060dd30     sv_ccmds.obj
 0003:0000ed48       ??_C@_0BP@PMFLCGAA@Usage?3?5?$CFs?5?$CIip?$FL?1subnet?$FN?5?$HM?5num?$CJ?6?$AA@ 0060dd48     sv_ccmds.obj
 0003:0000ed70       ??_C@_0CA@OMEFHEIE@Usage?3?5kicknum?5?$DMclient?5number?$DO?6?$AA@ 0060dd70     sv_ccmds.obj
 0003:0000ed98       ??_C@_04PJGPIPHP@?5?$CF5i?$AA@ 0060dd98     sv_ccmds.obj
 0003:0000eda0       ??_C@_03NPMIIIHK@?$CF5i?$AA@ 0060dda0     sv_ccmds.obj
 0003:0000eda4       ??_C@_04IPICLMID@?$CF7i?5?$AA@ 0060dda4     sv_ccmds.obj
 0003:0000edac       ??_C@_02PGJLIFGD@?$FO7?$AA@ 0060ddac     sv_ccmds.obj
 0003:0000edb0       ??_C@_04JNDHBDGN@?$CF4i?5?$AA@ 0060ddb0     sv_ccmds.obj
 0003:0000edb8       ??_C@_05JIJJOLGO@ZMBI?5?$AA@ 0060ddb8     sv_ccmds.obj
 0003:0000edc0       ??_C@_05FHKCJFKL@CNCT?5?$AA@ 0060ddc0     sv_ccmds.obj
 0003:0000edc8       ??_C@_04CFILHEAI@?$CF5i?5?$AA@ 0060ddc8     sv_ccmds.obj
 0003:0000edd0       ??_C@_04OACLNE@?$CF3i?5?$AA@ 0060ddd0     sv_ccmds.obj
 0003:0000edd8       ??_C@_0EK@MBPBHBBK@?9?9?9?5?9?9?9?9?9?5?9?9?9?9?5?9?9?9?9?9?9?9?9?9?9?9?9?9?9?9?5?9@ 0060ddd8     sv_ccmds.obj
 0003:0000ee30       ??_C@_0EJ@JCNPBNOM@num?5score?5ping?5name?5?5?5?5?5?5?5?5?5?5?5?5l@ 0060de30     sv_ccmds.obj
 0003:0000ee88       ??_C@_08BLGHJHOM@map?3?5?$CFs?6?$AA@ 0060de88     sv_ccmds.obj
 0003:0000ee94       ??_C@_09BPDMOJCM@chat?5?$CC?$CFs?$CC?$AA@ 0060de94     sv_ccmds.obj
 0003:0000eea0       ??_C@_09KIHOHKKG@console?3?5?$AA@ 0060dea0     sv_ccmds.obj
 0003:0000eeac       ??_C@_0BH@LAHBCPJF@Server?5info?5settings?3?6?$AA@ 0060deac     sv_ccmds.obj
 0003:0000eec8       ??_C@_0BH@HBKMNNLG@System?5info?5settings?3?6?$AA@ 0060dec8     sv_ccmds.obj
 0003:0000eee4       ??_C@_09DDAOCEB@?9?9?9?9?9?9?9?9?6?$AA@ 0060dee4     sv_ccmds.obj
 0003:0000eef0       ??_C@_09IIBHBCGO@userinfo?6?$AA@ 0060def0     sv_ccmds.obj
 0003:0000eefc       ??_C@_0BG@NIEOENOA@Usage?3?5info?5?$DMuserid?$DO?6?$AA@ 0060defc     sv_ccmds.obj
 0003:0000ef18       ??_C@_04ILAGGJBN@maps?$AA@ 0060df18     sv_ccmds.obj
 0003:0000ef20       ??_C@_03DGBMLAJE@bsp?$AA@  0060df20     sv_ccmds.obj
 0003:0000ef24       ??_C@_06EKEKFCEC@nextdl?$AA@ 0060df24     sv_client.obj
 0003:0000ef2c       ??_C@_08HNIAHLMM@download?$AA@ 0060df2c     sv_client.obj
 0003:0000ef38       ??_C@_02GFBACKGC@cp?$AA@   0060df38     sv_client.obj
 0003:0000ef3c       ??_C@_0BI@FLLAJOGF@challengeResponse?5?$CFi?5?$CFs?$AA@ 0060df3c     sv_client.obj
 0003:0000ef58       ??_C@_0CG@IHMMCKIP@getIpAuthorize?5?$CFi?5?$CFi?4?$CFi?4?$CFi?4?$CFi?5?$CFs@ 0060df58     sv_client.obj
 0003:0000ef88       ??_C@_0BP@ECBEJKDB@sending?5getIpAuthorize?5for?5?$CFs?6?$AA@ 0060df88     sv_client.obj
 0003:0000efb0       ??_C@_0BM@KDJKNJFI@authorize?5server?5timed?5out?6?$AA@ 0060dfb0     sv_client.obj
 0003:0000efd4       ??_C@_0CG@EPKOLEOD@Couldn?8t?5resolve?5auth?5server?5add@ 0060dfd4     sv_client.obj
 0003:0000f004       ??_C@_0CE@IHINFNJF@print?6Someone?5is?5using?5this?5CD?5K@ 0060e004     sv_client.obj
 0003:0000f030       ??_C@_09MBPDEDJD@print?6?$CFs?6?$AA@ 0060e030     sv_client.obj
 0003:0000f03c       ??_C@_0CF@DFLDHJDB@print?6Awaiting?5CD?5key?5authorizat@ 0060e03c     sv_client.obj
 0003:0000f068       ??_C@_0BI@KGKDNOEC@challengeResponse?5?$CFd?5?$CFd?$AA@ 0060e068     sv_client.obj
 0003:0000f084       ??_C@_06MPKMECK@accept?$AA@ 0060e084     sv_client.obj
 0003:0000f08c       ??_C@_0CD@NLEENFLL@print?6Server?5is?5not?5a?5demo?5serve@ 0060e08c     sv_client.obj
 0003:0000f0b8       ??_C@_0CL@OHKPCOFN@SV_AuthorizeIpPacket?3?5challenge?5@ 0060e0b8     sv_client.obj
 0003:0000f0ec       ??_C@_0DB@LGFOIHIH@SV_AuthorizeIpPacket?3?5not?5from?5a@ 0060e0ec     sv_client.obj
 0003:0000f128       ??_C@_0CL@DFDOECNK@Going?5from?5CS_FREE?5to?5CS_CONNECT@ 0060e128     sv_client.obj
 0003:0000f15c       ??_C@_0CB@GOGCKONC@Game?5rejected?5a?5connection?3?5?$CFs?4?6@ 0060e15c     sv_client.obj
 0003:0000f184       ??_C@_0BI@BLKLCACF@Rejected?5a?5connection?4?6?$AA@ 0060e184     sv_client.obj
 0003:0000f1a0       ??_C@_0BH@NCFENBBP@print?6Server?5is?5full?4?6?$AA@ 0060e1a0     sv_client.obj
 0003:0000f1bc       ??_C@_0CB@OMBNPOIO@server?5is?5full?5on?5local?5connect?6@ 0060e1bc     sv_client.obj
 0003:0000f1e4       ??_C@_0BE@HMGKIAJD@only?5bots?5on?5server?$AA@ 0060e1e4     sv_client.obj
 0003:0000f1fc       ??_C@_0O@FLCHKEJG@?$CFs?3reconnect?6?$AA@ 0060e1fc     sv_client.obj
 0003:0000f20c       ??_C@_0CN@CCHCPFHI@Client?5?$CFi?5connecting?5with?5?$CFi?5cha@ 0060e20c     sv_client.obj
 0003:0000f244       ??_C@_0CH@PHCNAHEM@Client?5?$CFi?5rejected?5on?5a?5too?5high@ 0060e244     sv_client.obj
 0003:0000f274       ??_C@_0CE@KINDDLDA@print?6Server?5is?5for?5low?5pings?5on@ 0060e274     sv_client.obj
 0003:0000f2a0       ??_C@_0CG@PNAAMAJH@Client?5?$CFi?5rejected?5on?5a?5too?5low?5@ 0060e2a0     sv_client.obj
 0003:0000f2d0       ??_C@_0CF@JPLKPOEC@print?6Server?5is?5for?5high?5pings?5o@ 0060e2d0     sv_client.obj
 0003:0000f2fc       ??_C@_0CN@PLFPHHGB@print?6No?5or?5bad?5challenge?5for?5yo@ 0060e2fc     sv_client.obj
 0003:0000f334       ??_C@_02GIIHKPLE@ip?$AA@   0060e334     sv_client.obj
 0003:0000f338       ??_C@_0FD@MIDJMODE@print?6Userinfo?5string?5length?5exc@ 0060e338     sv_client.obj
 0003:0000f39c       ??_C@_0CC@CIJKAFKI@?$CFs?3reconnect?5rejected?5?3?5too?5soon@ 0060e39c     sv_client.obj
 0003:0000f3c4       ??_C@_0CG@NFNEGGLD@?5?5?5?5rejected?5connect?5from?5versio@ 0060e3c4     sv_client.obj
 0003:0000f3f4       ??_C@_0CI@CNIPOKOM@print?6Server?5uses?5protocol?5versi@ 0060e3f4     sv_client.obj
 0003:0000f424       ??_C@_0CI@EMMEGMFI@print?6You?5are?5banned?5from?5this?5s@ 0060e424     sv_client.obj
 0003:0000f454       ??_C@_0BG@MHNPDKDO@SVC_DirectConnect?5?$CI?$CJ?6?$AA@ 0060e454     sv_client.obj
 0003:0000f470       ??_C@_0BL@IKHIFDGN@Going?5to?5CS_ZOMBIE?5for?5?$CFs?6?$AA@ 0060e470     sv_client.obj
 0003:0000f490       ??_C@_0BA@PCPGFMFA@disconnect?5?$CC?$CFs?$CC?$AA@ 0060e490     sv_client.obj
 0003:0000f4a4       ??_C@_0BB@FFPEABPI@print?5?$CC?$CFs?$FO7?5?$CFs?6?$CC?$AA@ 0060e4a4     sv_client.obj
 0003:0000f4b8       ??_C@_0CK@GAFGMNPI@Going?5from?5CS_PRIMED?5to?5CS_ACTIV@ 0060e4b8     sv_client.obj
 0003:0000f4ec       ??_C@_0CI@MOHODIAH@clientDownload?3?5?$CFd?5?3?5file?5?$CC?$CFs?$CC?5a@ 0060e4ec     sv_client.obj
 0003:0000f51c       ??_C@_0BJ@GCBEGMAA@clientDownload?3?5?$CFs?5Done?6?$AA@ 0060e51c     sv_client.obj
 0003:0000f53c       ??_C@_0CN@KDBDIPIK@Going?5from?5CS_CONNECTED?5to?5CS_PR@ 0060e53c     sv_client.obj
 0003:0000f574       ??_C@_0CB@EAILJHJ@SV_SendClientGameState?$CI?$CJ?5for?5?$CFs?6@ 0060e574     sv_client.obj
 0003:0000f59c       ??_C@_0BA@KJHEBMDK@broken?5download?$AA@ 0060e59c     sv_client.obj
 0003:0000f5b0       ??_C@_0CK@EEKHNEKF@clientDownload?3?5?$CFd?5?3?5file?5?$CC?$CFs?$CC?5c@ 0060e5b0     sv_client.obj
 0003:0000f5e4       ??_C@_0DF@CGGBKJAN@clientDownload?3?5?$CFd?5?3?5client?5ackn@ 0060e5e4     sv_client.obj
 0003:0000f624       ??_C@_0CH@KLJBEJLM@clientDownload?3?5?$CFd?5?3?5writing?5blo@ 0060e624     sv_client.obj
 0003:0000f654       ??_C@_0L@EIABIAEM@sv_minRate?$AA@ 0060e654     sv_client.obj
 0003:0000f664       ??_C@_0L@FHBHENPL@sv_MaxRate?$AA@ 0060e664     sv_client.obj
 0003:0000f674       ??_C@_04KOJKLCBG@1000?$AA@ 0060e674     sv_client.obj
 0003:0000f67c       ??_C@_0BF@CGDEMHKI@MAX_DOWNLOAD_BLKSIZE?$AA@ 0060e67c     sv_client.obj
 0003:0000f698       ??_C@_0DP@GDJDGIPB@c?3?2web?2trepdev?2trepidation?2trep?9@ 0060e698     sv_client.obj
 0003:0000f6e4       ??_C@_0CF@MNJGDLLA@clientDownload?3?5?$CFd?5?3?5beginning?5?$CC@ 0060e6e4     sv_client.obj
 0003:0000f710       ??_C@_0DE@NDHILGPJ@File?5?$CC?$CFs?$CC?5not?5found?5on?5server?5fo@ 0060e710     sv_client.obj
 0003:0000f750       ??_C@_0DE@PKCFFLAA@clientDownload?3?5?$CFd?5?3?5?$CC?$CFs?$CC?5file?5n@ 0060e750     sv_client.obj
 0003:0000f790       ??_C@_0NL@DHILMFMH@Could?5not?5download?5?$CC?$CFs?$CC?5because?5@ 0060e790     sv_client.obj
 0003:0000f898       ??_C@_0KC@PMIAHGNA@Could?5not?5download?5?$CC?$CFs?$CC?5because?5@ 0060e898     sv_client.obj
 0003:0000f95c       ??_C@_0CM@JNECMCJP@clientDownload?3?5?$CFd?5?3?5?$CC?$CFs?$CC?5downlo@ 0060e95c     sv_client.obj
 0003:0000f990       ??_C@_0CF@NHMNKNNJ@Cannot?5autodownload?5id?5pk3?5file?5@ 0060e990     sv_client.obj
 0003:0000f9c0       ??_C@_0GM@IJEBFDBA@Cannot?5autodownload?5Team?5Arena?5f@ 0060e9c0     sv_client.obj
 0003:0000fa44       ??_C@_0DI@PLGAONGI@clientDownload?3?5?$CFd?5?3?5?$CC?$CFs?$CC?5cannot@ 0060ea44     sv_client.obj
 0003:0000fa88       ??_C@_0DG@HCPLAEAH@File?5?$CC?$CFs?$CC?5is?5not?5referenced?5and?5@ 0060ea88     sv_client.obj
 0003:0000fac8       ??_C@_0EH@NEOOIAAM@clientDownload?3?5?$CFd?5?3?5?$CC?$CFs?$CC?5is?5not@ 0060eac8     sv_client.obj
 0003:0000fb20       ??_C@_03FGNMBIO@pk3?$AA@   0060eb20     sv_client.obj
 0003:0000fb24       ??_C@_0N@GGGDBMDO@disconnected?$AA@ 0060eb24     sv_client.obj
 0003:0000fb34       ??_C@_0DH@DJILMAML@Unpure?5client?5detected?4?5Invalid?5@ 0060eb34     sv_client.obj
 0003:0000fb78       ??_C@_0CN@FCJKPEIK@ignoring?5outdated?5cp?5command?5fro@ 0060eb78     sv_client.obj
 0003:0000fbb0       ??_C@_09NGKOICNF@vm?1ui?4qvm?$AA@ 0060ebb0     sv_client.obj
 0003:0000fbbc       ??_C@_0N@MIJFBLLA@vm?1cgame?4qvm?$AA@ 0060ebbc     sv_client.obj
 0003:0000fbcc       ??_C@_0CA@DCIPBEOE@userinfo?5string?5length?5exceeded?$AA@ 0060ebcc     sv_client.obj
 0003:0000fbf4       ??_C@_0CA@PLBLJOEE@client?5text?5ignored?5for?5?$CFs?3?5?$CFs?6?$AA@ 0060ebf4     sv_client.obj
 0003:0000fc1c       ??_C@_0CJ@KKMJLOKN@WARNING?3?5bad?5command?5byte?5for?5cl@ 0060ec1c     sv_client.obj
 0003:0000fc50       ??_C@_0BL@JDBGDPFH@?$CFs?5acknowledged?5gamestate?6?$AA@ 0060ec50     sv_client.obj
 0003:0000fc70       ??_C@_0CD@KEGKAOCA@?$CFs?5?3?5dropped?5gamestate?0?5resendin@ 0060ec70     sv_client.obj
 0003:0000fc9c       ??_C@_0DJ@EAHJJJGJ@?$CFs?5?3?5ignoring?5pre?5map_restart?5?1?5@ 0060ec9c     sv_client.obj
 0003:0000fce0       ??_C@_0CA@OFPHIHAN@DEBUG?3?5illegible?5client?5message?$AA@ 0060ece0     sv_client.obj
 0003:0000fd08       ??_C@_0BH@DJCJEPBJ@Lost?5reliable?5commands?$AA@ 0060ed08     sv_client.obj
 0003:0000fd24       ??_C@_0CC@POHIDIAI@Client?5?$CFs?5lost?5?$CFi?5clientCommands@ 0060ed24     sv_client.obj
 0003:0000fd4c       ??_C@_0BN@CDEFJJCC@clientCommand?3?5?$CFs?5?3?5?$CFi?5?3?5?$CFs?6?$AA@ 0060ed4c     sv_client.obj
 0003:0000fd70       ??_C@_0BN@OHAOFFFB@Cannot?5validate?5pure?5client?$CB?$AA@ 0060ed70     sv_client.obj
 0003:0000fd94       ??_C@_0DA@HCALNAD@?$CFs?3?5didn?8t?5get?5cp?5command?0?5resen@ 0060ed94     sv_client.obj
 0003:0000fdd0       ??_C@_0CA@MHDHEKFF@cmdCount?5?$DO?5MAX_PACKET_USERCMDS?6?$AA@ 0060edd0     sv_client.obj
 0003:0000fdf8       ??_C@_0O@KIEOLJAH@cmdCount?5?$DM?51?6?$AA@ 0060edf8     sv_client.obj
 0003:0000fe08       ??_C@_0CN@MABENGPN@Too?5many?5VoIP?5packets?5queued?5for@ 0060ee08     sv_client.obj
 0003:0000fe40       ??_C@_1DI@EFJAEGBI@?$AAs?$AAv?$AA_?$AAm?$AAa?$AAx?$AAc?$AAl?$AAi?$AAe?$AAn?$AAt?$AAs?$AA?9?$AA?$DO?$AAi?$AAn?$AAt?$AAe?$AAg?$AAe?$AAr?$AA?5?$AA?$DM?$AA?5?$AA9?$AA3?$AA?$AA@ 0060ee40     sv_client.obj
 0003:0000fe88       ??_C@_1HO@JKGLOJLA@?$AAc?$AA?3?$AA?2?$AAw?$AAe?$AAb?$AA?2?$AAt?$AAr?$AAe?$AAp?$AAd?$AAe?$AAv?$AA?2?$AAt?$AAr?$AAe?$AAp?$AAi?$AAd?$AAa?$AAt?$AAi?$AAo?$AAn?$AA?2?$AAt?$AAr?$AAe?$AAp?$AA?9@ 0060ee88     sv_client.obj
 0003:0000ff20       ??_C@_0CA@HBFCCGAO@SV_SvEntityForGentity?3?5bad?5gEnt?$AA@ 0060ef20     sv_game.obj
 0003:0000ff48       ??_C@_0CJ@BCMBPMHM@SV_SetBrushModel?3?5?$CFs?5isn?8t?5a?5bru@ 0060ef48     sv_game.obj
 0003:0000ff7c       ??_C@_0BH@MHCNIHPH@SV_SetBrushModel?3?5NULL?$AA@ 0060ef7c     sv_game.obj
 0003:0000ff98       ??_C@_0CD@INNMELOE@SV_GetServerinfo?3?5bufferSize?5?$DN?$DN?5@ 0060ef98     sv_game.obj
 0003:0000ffc4       ??_C@_0CA@HGKJAJPL@SV_GetUsercmd?3?5bad?5clientNum?3?$CFi?$AA@ 0060efc4     sv_game.obj
 0003:0000ffec       ??_C@_0BK@EGCONKAL@Bad?5game?5system?5trap?3?5?$CFld?$AA@ 0060efec     sv_game.obj
 0003:0001000c       ??_C@_0BK@FFDIGEEK@VM_Restart?5on?5game?5failed?$AA@ 0060f00c     sv_game.obj
 0003:0001002c       ??_C@_0BJ@EAOELJMB@VM_Create?5on?5game?5failed?$AA@ 0060f02c     sv_game.obj
 0003:0001004c       ??_C@_06BLCJNLEL@qagame?$AA@ 0060f04c     sv_game.obj
 0003:00010054       ??_C@_07BHFGNDCM@vm_game?$AA@ 0060f054     sv_game.obj
 0003:00010060       ??_C@_0M@MAONIEJF@cs?5?$CFi?5?$CC?$CFs?$CC?6?$AA@ 0060f060     sv_init.obj
 0003:00010070       ??_C@_0M@BPLDJGIF@?$CFs?5?$CFi?5?$CC?$CFs?$CC?6?$AA@ 0060f070     sv_init.obj
 0003:00010080       ??_C@_0CC@NDBLLBPI@SV_SetConfigstring?3?5bad?5index?5?$CFi@ 0060f080     sv_init.obj
 0003:000100a8       ??_C@_0CC@GPKJPKM@SV_GetConfigstring?3?5bad?5index?5?$CFi@ 0060f0a8     sv_init.obj
 0003:000100d0       ??_C@_0CF@GDNLOPIJ@SV_GetConfigstring?3?5bufferSize?5?$DN@ 0060f0d0     sv_init.obj
 0003:000100fc       ??_C@_0BO@HKNINECJ@SV_SetUserinfo?3?5bad?5index?5?$CFi?6?$AA@ 0060f0fc     sv_init.obj
 0003:00010120       ??_C@_0BO@EFONBEDJ@SV_GetUserinfo?3?5bad?5index?5?$CFi?6?$AA@ 0060f120     sv_init.obj
 0003:00010144       ??_C@_0CB@MDKHFBJG@SV_GetUserinfo?3?5bufferSize?5?$DN?$DN?5?$CFi@ 0060f144     sv_init.obj
 0003:0001016c       ??_C@_0CK@OHCOEDEE@sv_maxclients?9?$DOinteger?5?$CK?5sizeof?$CI@ 0060f16c     sv_init.obj
 0003:000101a0       ??_C@_0DN@BDLAFFIN@c?3?2web?2trepdev?2trepidation?2trep?9@ 0060f1a0     sv_init.obj
 0003:000101ec       ??_C@_0CF@MLCIJBNO@?9?9?9?9?9?9?9?9?9?9?9?9?9?9?9?9?9?9?9?9?9?9?9?9?9?9?9?9?9?9?9?9@ 0060f1ec     sv_init.obj
 0003:00010218       ??_C@_0CO@LKBABFKA@WARNING?3?5sv_pure?5set?5but?5no?5PK3?5@ 0060f218     sv_init.obj
 0003:00010250       ??_C@_0P@HEEKJLPJ@sv_mapChecksum?$AA@ 0060f250     sv_init.obj
 0003:00010264       ??_C@_0O@JEFGAJAK@map_restart?50?$AA@ 0060f264     sv_init.obj
 0003:00010274       ??_C@_0CO@HKIBLAAD@sizeof?$CIentityState_t?$CJ?$CKsvs?4numSna@ 0060f274     sv_init.obj
 0003:000102ac       ??_C@_0CF@OFBEAHFI@?9?9?9?9?9?9?5Server?5Initialization?5?9?9?9@ 0060f2ac     sv_init.obj
 0003:000102d8       ??_C@_0CK@EBIBHALJ@sizeof?$CIclient_t?$CJ?5?$CK?5sv_maxclients@ 0060f2d8     sv_init.obj
 0003:0001030c       ??_C@_0BM@HIHCAEOD@SV_Startup?3?5svs?4initialized?$AA@ 0060f30c     sv_init.obj
 0003:00010330       ??_C@_09FHDGEKJP@vm?1?$CFs?4qvm?$AA@ 0060f330     sv_init.obj
 0003:0001033c       ??_C@_0M@OILJBHAM@rehashbans?6?$AA@ 0060f33c     sv_init.obj
 0003:0001034c       ??_C@_0L@OACPDHOC@sv_banFile?$AA@ 0060f34c     sv_init.obj
 0003:0001035c       ??_C@_0P@FILICIJ@serverbans?4dat?$AA@ 0060f35c     sv_init.obj
 0003:00010370       ??_C@_0O@IIGECOIK@sv_strictAuth?$AA@ 0060f370     sv_init.obj
 0003:00010380       ??_C@_0BA@DJIAIMF@sv_lanForceRate?$AA@ 0060f380     sv_init.obj
 0003:00010394       ??_C@_0O@GOELPJCA@sv_padPackets?$AA@ 0060f394     sv_init.obj
 0003:000103a4       ??_C@_0M@EFKNOLKP@sv_showloss?$AA@ 0060f3a4     sv_init.obj
 0003:000103b4       ??_C@_0BC@MCFEMHMF@sv_reconnectlimit?$AA@ 0060f3b4     sv_init.obj
 0003:000103cc       ??_C@_0L@NPBPHGHP@sv_master1?$AA@ 0060f3cc     sv_init.obj
 0003:000103dc       ??_C@_0BD@OMCPCLLF@master?4tnlsoft?4com?$AA@ 0060f3dc     sv_init.obj
 0003:000103f4       ??_C@_0O@LLNJEMPF@sv_zombietime?$AA@ 0060f3f4     sv_init.obj
 0003:00010404       ??_C@_0L@MKEICGA@sv_timeout?$AA@ 0060f404     sv_init.obj
 0003:00010414       ??_C@_06JGIFLGEL@sv_fps?$AA@ 0060f414     sv_init.obj
 0003:0001041c       ??_C@_0BD@HGHMKODF@sv_privatePassword?$AA@ 0060f41c     sv_init.obj
 0003:00010434       ??_C@_0BA@HMJAMCL@sv_floodProtect?$AA@ 0060f434     sv_init.obj
 0003:00010448       ??_C@_0L@DCJCBAAG@sv_maxPing?$AA@ 0060f448     sv_init.obj
 0003:00010458       ??_C@_0L@NEPCLPOH@sv_minPing?$AA@ 0060f458     sv_init.obj
 0003:00010468       ??_C@_0L@KOGBCPKN@sv_maxRate?$AA@ 0060f468     sv_init.obj
 0003:00010478       ??_C@_0M@NHCIKFPA@sv_hostname?$AA@ 0060f478     sv_init.obj
 0003:00010488       ??_C@_06LNKFDEGN@noname?$AA@ 0060f488     sv_init.obj
 0003:00010490       ??_C@_0BC@BAEHHBBD@sv_privateClients?$AA@ 0060f490     sv_init.obj
 0003:000104a8       ??_C@_05MIMHCHNF@nomap?$AA@ 0060f4a8     sv_init.obj
 0003:000104b0       ??_C@_0M@DBAEPHIE@sv_keywords?$AA@ 0060f4b0     sv_init.obj
 0003:000104c0       ??_C@_09KPHKOKCC@timelimit?$AA@ 0060f4c0     sv_init.obj
 0003:000104cc       ??_C@_09GCIEGDDN@fraglimit?$AA@ 0060f4cc     sv_init.obj
 0003:000104d8       ??_C@_07GMGCLCAP@dmflags?$AA@ 0060f4d8     sv_init.obj
 0003:000104e4       ??_C@_0N@CNCKAKCM@print?5?$CC?$CFs?6?$CC?6?$AA@ 0060f4e4     sv_init.obj
 0003:000104f4       ??_C@_0BN@CHNIPINJ@?9?9?9?9?9?9?9?9?9?9?9?9?9?9?9?9?9?9?9?9?9?9?9?9?9?9?9?6?$AA@ 0060f4f4     sv_init.obj
 0003:00010518       ??_C@_0CC@MKJILADG@?9?9?9?9?9?5Server?5Shutdown?5?$CI?$CFs?$CJ?5?9?9?9?9?9@ 0060f518     sv_init.obj
 0003:00010540       ??_C@_0BI@BCMAPBDO@Server?5command?5overflow?$AA@ 0060f540     sv_main.obj
 0003:0001055c       ??_C@_0N@HPDJBMCC@cmd?5?$CF5d?3?5?$CFs?6?$AA@ 0060f55c     sv_main.obj
 0003:0001056c       ??_C@_0CF@DKJKGIEJ@?$DN?$DN?$DN?$DN?$DN?5pending?5server?5commands?5?$DN?$DN@ 0060f56c     sv_main.obj
 0003:00010598       ??_C@_0P@KHEIJHKL@broadcast?3?5?$CFs?6?$AA@ 0060f598     sv_main.obj
 0003:000105ac       ??_C@_0O@MFJONBCN@heartbeat?5?$CFs?6?$AA@ 0060f5ac     sv_main.obj
 0003:000105bc       ??_C@_0O@LFCLAFKK@Trepidation?91?$AA@ 0060f5bc     sv_main.obj
 0003:000105cc       ??_C@_0BJ@FPIJBFOP@Sending?5heartbeat?5to?5?$CFs?6?$AA@ 0060f5cc     sv_main.obj
 0003:000105ec       ??_C@_0BO@EBNPOCKC@Couldn?8t?5resolve?5address?3?5?$CFs?6?$AA@ 0060f5ec     sv_main.obj
 0003:00010610       ??_C@_0BJ@KDJICCJF@?$CFs?5has?5no?5IPv6?5address?4?6?$AA@ 0060f610     sv_main.obj
 0003:00010630       ??_C@_0BF@KIECJMCM@Resolving?5?$CFs?5?$CIIPv6?$CJ?6?$AA@ 0060f630     sv_main.obj
 0003:0001064c       ??_C@_0BJ@EPKDLMAK@?$CFs?5has?5no?5IPv4?5address?4?6?$AA@ 0060f64c     sv_main.obj
 0003:0001066c       ??_C@_0BF@CELFEKH@Resolving?5?$CFs?5?$CIIPv4?$CJ?6?$AA@ 0060f66c     sv_main.obj
 0003:00010688       ??_C@_0BA@ECLOOOJB@infoResponse?6?$CFs?$AA@ 0060f688     sv_main.obj
 0003:0001069c       ??_C@_07NELDBAJ@maxPing?$AA@ 0060f69c     sv_main.obj
 0003:000106a8       ??_C@_07OLCLJOOI@minPing?$AA@ 0060f6a8     sv_main.obj
 0003:000106b4       ??_C@_04NDBBJLFP@pure?$AA@ 0060f6b4     sv_main.obj
 0003:000106bc       ??_C@_0CN@BLLAHKEO@SV_PacketEvent?3?5fixing?5up?5a?5tran@ 0060f6bc     sv_main.obj
 0003:000106f4       ??_C@_0CH@NHBAICIE@bad?5connectionless?5packet?5from?5?$CF@ 0060f6f4     sv_main.obj
 0003:00010724       ??_C@_0M@OJIOIONL@ipAuthorize?$AA@ 0060f724     sv_main.obj
 0003:00010734       ??_C@_0N@FADCLAAC@getchallenge?$AA@ 0060f734     sv_main.obj
 0003:00010744       ??_C@_07OICKPAFH@getinfo?$AA@ 0060f744     sv_main.obj
 0003:00010750       ??_C@_0BD@JKPIBMPL@SV?5packet?5?$CFs?5?3?5?$CFs?6?$AA@ 0060f750     sv_main.obj
 0003:00010768       ??_C@_0BF@DMGFDDCI@statusResponse?6?$CFs?6?$CFs?$AA@ 0060f768     sv_main.obj
 0003:00010784       ??_C@_0M@FDOKAKMK@?$CFi?5?$CFi?5?$CC?$CFs?$CC?6?$AA@ 0060f784     sv_main.obj
 0003:00010794       ??_C@_0DD@EKHBJGDC@SVC_Status?3?5rate?5limit?5exceeded?0@ 0060f794     sv_main.obj
 0003:000107d4       ??_C@_0DL@DOFLAOFE@SVC_Status?3?5rate?5limit?5from?5?$CFs?5e@ 0060f7d4     sv_main.obj
 0003:0001081c       ??_C@_0BD@LBHHIPJJ@Bad?5rconpassword?4?6?$AA@ 0060f81c     sv_main.obj
 0003:00010834       ??_C@_0CE@LDGIIONG@No?5rconpassword?5set?5on?5the?5serve@ 0060f834     sv_main.obj
 0003:00010860       ??_C@_0BC@MMMCANIB@Rcon?5from?5?$CFs?3?5?$CFs?6?$AA@ 0060f860     sv_main.obj
 0003:00010878       ??_C@_0BG@BDGKHLM@Bad?5rcon?5from?5?$CFs?3?5?$CFs?6?$AA@ 0060f878     sv_main.obj
 0003:00010894       ??_C@_0DK@KMJNCMAH@SVC_RemoteCommand?3?5rate?5limit?5ex@ 0060f894     sv_main.obj
 0003:000108e0       ??_C@_0EC@LBGBKKCF@SVC_RemoteCommand?3?5rate?5limit?5fr@ 0060f8e0     sv_main.obj
 0003:00010930       ??_C@_08HCILNBCA@print?6?$CFs?$AA@ 0060f930     sv_main.obj
 0003:0001093c       ??_C@_0P@BKKOFHJN@map_restart?50?6?$AA@ 0060f93c     sv_main.obj
 0003:00010950       ??_C@_0DG@CKJAOBCN@Restarting?5server?5due?5to?5numSnap@ 0060f950     sv_main.obj
 0003:00010990       ??_C@_07NKFJBOH@map?5?$CFs?6?$AA@ 0060f990     sv_main.obj
 0003:0001099c       ??_C@_0CH@OOPAJFOA@Restarting?5server?5due?5to?5time?5wr@ 0060f99c     sv_main.obj
 0003:000109cc       ??_C@_0BC@MKBBJHBH@Server?5was?5killed?$AA@ 0060f9cc     sv_main.obj
 0003:000109e4       ??_C@_09KJPPMAOI@timed?5out?$AA@ 0060f9e4     sv_main.obj
 0003:000109f0       ??_C@_0CP@OAICOBIP@Going?5from?5CS_ZOMBIE?5to?5CS_FREE?5@ 0060f9f0     sv_main.obj
 0003:00010a28       ??_C@_0DN@JABDKDJO@?$CD462?5Netchan_TransmitNextFragmen@ 0060fa28     sv_net_chan.obj
 0003:00010a74       ??_C@_0DC@LPKBFGIK@?$CD462?5Netchan_TransmitNextFragmen@ 0060fa74     sv_net_chan.obj
 0003:00010ab0       ??_C@_0EK@ODEKMBHH@?$CD462?5Netchan_TransmitNextFragmen@ 0060fab0     sv_net_chan.obj
 0003:00010b08       ??_C@_0EO@MKKMHFAL@netchan?5queue?5is?5not?5properly?5in@ 0060fb08     sv_net_chan.obj
 0003:00010b68       ??_C@_0BJ@BLLNBGAB@sizeof?$CInetchan_buffer_t?$CJ?$AA@ 0060fb68     sv_net_chan.obj
 0003:00010b88       ??_C@_0EB@HBMEDBLA@c?3?2web?2trepdev?2trepidation?2trep?9@ 0060fb88     sv_net_chan.obj
 0003:00010bd8       ??_C@_0DF@MDAEODOK@?$CD462?5SV_Netchan_Transmit?3?5unsent@ 0060fbd8     sv_net_chan.obj
 0003:00010c18       ??_C@_0CA@BILMKJDC@WARNING?3?5msg?5overflowed?5for?5?$CFs?6?$AA@ 0060fc18     sv_snapshot.obj
 0003:00010c40       ??_C@_0CO@GHMJABCI@?$CFs?3?5Delta?5request?5from?5out?5of?5da@ 0060fc40     sv_snapshot.obj
 0003:00010c78       ??_C@_0CM@DLGJFOOO@?$CFs?3?5Delta?5request?5from?5out?5of?5da@ 0060fc78     sv_snapshot.obj
 0003:00010cac       ??_C@_0CB@DGHKPLAI@svs?4nextSnapshotEntities?5wrapped@ 0060fcac     sv_snapshot.obj
 0003:00010cd4       ??_C@_0CI@IHBPJMCI@SV_QsortEntityStates?3?5duplicated@ 0060fcd4     sv_snapshot.obj
 0003:00010d04       ??_C@_0BP@KFJNHKJA@SVF_CLIENTMASK?3?5cientNum?5?$DO?532?6?$AA@ 0060fd04     sv_snapshot.obj
 0003:00010d2c       ??_C@_0BJ@OGOHIIMC@FIXING?5ENT?9?$DOS?4NUMBER?$CB?$CB?$CB?6?$AA@ 0060fd2c     sv_snapshot.obj
 0003:00010d4c       ??_C@_0BI@IINMPMIE@sector?5?$CFi?3?5?$CFi?5entities?6?$AA@ 0060fd4c     sv_world.obj
 0003:00010d68       ??_C@_0DE@NOEMPBKJ@WARNING?3?5SV_UnlinkEntity?3?5not?5fo@ 0060fd68     sv_world.obj
 0003:00010da8       ??_C@_0CI@LMCDEPAK@Object?5?$CFi?5touching?53?5areas?5at?5?$CFf@ 0060fda8     sv_world.obj
 0003:00010dd8       ??_C@_0BL@IPEAAEPI@SV_AreaEntities?3?5MAXCOUNT?6?$AA@ 0060fdd8     sv_world.obj
 0003:00010df8       ??_C@_0BG@DCOALGCG@?$FO3Couldn?8t?5write?5?$CFs?4?6?$AA@ 0060fdf8     sys_main.obj
 0003:00010e14       ??_C@_01NOFIACDB@w?$AA@    0060fe14     sys_main.obj
 0003:00010e18       ??_C@_01KDCPPGHE@r?$AA@    0060fe18     sys_main.obj
 0003:00010e1c       ??_C@_0CF@MEPPMJEH@Trepidation?512?920?92011?5Dev?5Build@ 0060fe1c     sys_main.obj
 0003:00010e48       ??_C@_08ODGEKKOL@username?$AA@ 0060fe48     sys_main.obj
 0003:00010e54       ??_C@_04LLAMKKNO@arch?$AA@ 0060fe54     sys_main.obj
 0003:00010e5c       ??_C@_0N@IKEPBPIM@win_msvc?5x86?$AA@ 0060fe5c     sys_main.obj
 0003:00010e6c       ??_C@_0L@PEIHAAKP@in_restart?$AA@ 0060fe6c     sys_main.obj
 0003:00010e7c       ??_C@_05GAIOHLME@?$BL?$FL?$CFdm?$AA@ 0060fe7c     sys_main.obj
 0003:00010e84       ??_C@_05CCCEBKIG@?$BL?$FL0m?6?$AA@ 0060fe84     sys_main.obj
 0003:00010e8c       ??_C@_0M@ELGFNOJF@Warning?3?5?$CFs?$AA@ 0060fe8c     sys_main.obj
 0003:00010e9c       ??_C@_0BF@ICNFMDBM@Sys_UnloadDll?$CINULL?$CJ?6?$AA@ 0060fe9c     sys_main.obj
 0003:00010eb8       ??_C@_0CN@OKNOCKIG@Sys_LoadDll?$CI?$CFs?$CJ?5found?5vmMain?5fun@ 0060feb8     sys_main.obj
 0003:00010ef0       ??_C@_0DI@LANFAFLO@Sys_LoadDll?$CI?$CFs?$CJ?5failed?5to?5find?5v@ 0060fef0     sys_main.obj
 0003:00010f34       ??_C@_06MGMAGDAM@vmMain?$AA@ 0060ff34     sys_main.obj
 0003:00010f3c       ??_C@_08OHGJLDCF@dllEntry?$AA@ 0060ff3c     sys_main.obj
 0003:00010f48       ??_C@_0CI@JINAEOJF@Sys_LoadDll?$CI?$CFs?$CJ?5failed?5to?5load?5l@ 0060ff48     sys_main.obj
 0003:00010f78       ??_C@_09IAFMCHD@?$CFsx86?4dll?$AA@ 0060ff78     sys_main.obj
 0003:00010f84       ??_C@_19HHIIBINK@?$AAn?$AAa?$AAm?$AAe?$AA?$AA@ 0060ff84     sys_main.obj
 0003:00010f90       ??_C@_1HG@BNHINHM@?$AAc?$AA?3?$AA?2?$AAw?$AAe?$AAb?$AA?2?$AAt?$AAr?$AAe?$AAp?$AAd?$AAe?$AAv?$AA?2?$AAt?$AAr?$AAe?$AAp?$AAi?$AAd?$AAa?$AAt?$AAi?$AAo?$AAn?$AA?2?$AAt?$AAr?$AAe?$AAp?$AA?9@ 0060ff90     sys_main.obj
 0003:00011020       ??_C@_0CA@BHDCLKKI@Sys_LoadDll?$CI?$CFs?$CJ?3?5succeeded?5?4?4?4?6?$AA@ 00610020     sys_main.obj
 0003:00011048       ??_C@_0BO@HCMEBDNG@Sys_LoadDll?$CI?$CFs?$CJ?5failed?3?6?$CC?$CFs?$CC?6?$AA@ 00610048     sys_main.obj
 0003:0001106c       ??_C@_0BF@MCLKLEBD@Sys_LoadDll?$CI?$CFs?$CJ?4?4?4?5?6?$AA@ 0061006c     sys_main.obj
 0003:00011088       ??_C@_0DN@JDACOBNP@Trepidation?512?920?92011?5Dev?5Build@ 00610088     sys_main.obj
 0003:000110d4       ??_C@_02EJEOCNCO@?9v?$AA@  006100d4     sys_main.obj
 0003:000110d8       ??_C@_09GAJKMFCA@?9?9version?$AA@ 006100d8     sys_main.obj
 0003:000110e4       ??_C@_0BD@BLPMFNCG@Received?5signal?5?$CFd?$AA@ 006100e4     sys_main.obj
 0003:000110fc       ??_C@_0DF@IEJBDFJG@DOUBLE?5SIGNAL?5FAULT?3?5Received?5si@ 006100fc     sys_main.obj
 0003:00011140       ??_C@_0JK@BHBPEAID@SDL?5version?51?42?410?5or?5greater?5is@ 00610140     sys_main.obj
 0003:000111f8       ??_C@_0BE@CGMPGNLH@SDL?5Library?5Too?5Old?$AA@ 006101f8     sys_main.obj
 0003:00011210       ??_C@_0N@KEKIFBIE@?2trepidation?$AA@ 00610210     sys_win32.obj
 0003:00011220       ??_C@_0CA@BOCFADNK@Unable?5to?5detect?5CSIDL_APPDATA?6?$AA@ 00610220     sys_win32.obj
 0003:00011248       ??_C@_0DA@BABNOIDH@Unable?5to?5find?5SHGetFolderPath?5i@ 00610248     sys_win32.obj
 0003:00011284       ??_C@_0BB@IHMEONLD@SHGetFolderPathA?$AA@ 00610284     sys_win32.obj
 0003:00011298       ??_C@_0BN@DICKEPFP@Unable?5to?5load?5SHFolder?4dll?6?$AA@ 00610298     sys_win32.obj
 0003:000112bc       ??_C@_0N@HCMEEEOA@shfolder?4dll?$AA@ 006102bc     sys_win32.obj
 0003:000112cc       ??_C@_06BALNJMNP@player?$AA@ 006102cc     sys_win32.obj
 0003:000112d4       ??_C@_03HBAHNJNM@?6?$AN?$AI?$AA@ 006102d4     sys_win32.obj
 0003:000112d8       ??_C@_0CB@IFJEAAIC@GlobalSize?$CI?5hClipboardData?5?$CJ?5?$CL?51@ 006102d8     sys_win32.obj
 0003:00011300       ??_C@_0DM@OFDHEOPP@c?3?2web?2trepdev?2trepidation?2trep?9@ 00610300     sys_win32.obj
 0003:00011348       ??_C@_05BMGBEOOC@?$CFs?2?$CFs?$AA@ 00610348     sys_win32.obj
 0003:00011350       ??_C@_04EDLLLMBI@?$CFs?2?$CK?$AA@ 00610350     sys_win32.obj
 0003:00011358       ??_C@_07PHOBPKGE@?$CFs?2?$CFs?2?$CK?$AA@ 00610358     sys_win32.obj
 0003:00011364       ??_C@_06HKFIIKHL@?$CFs?2?$CK?$CFs?$AA@ 00610364     sys_win32.obj
 0003:0001136c       ??_C@_0CD@PGEOIEMP@?$CFs?4?5Copy?5console?5log?5to?5clipboar@ 0061036c     sys_win32.obj
 0003:00011398       ??_C@_05NAOIJFC@Error?$AA@ 00610398     sys_win32.obj
 0003:000113a0       ??_C@_0BB@BPEMPOHL@SDL_VIDEODRIVER?$DN?$AA@ 006103a0     sys_win32.obj
 0003:000113b4       ??_C@_0BI@JELEJGCG@SDL_VIDEODRIVER?$DNdirectx?$AA@ 006103b4     sys_win32.obj
 0003:000113d0       ??_C@_0BH@NEOGPADD@SDL_VIDEODRIVER?$DNwindib?$AA@ 006103d0     sys_win32.obj
 0003:000113f0       ??_C@_0GA@NBJEMLPP@Warning?3?5Minimum?5supported?5timer@ 006103f0     sys_win32.obj
 0003:00011468       ??_C@_0EM@EOBICMHM@SDL_VIDEODRIVER?5is?5externally?5se@ 00610468     sys_win32.obj
 0003:000114c4       ??_C@_0BA@MOBFFJMC@SDL_VIDEODRIVER?$AA@ 006104c4     sys_win32.obj
 0003:000114d8       ??_C@_05JPPLNOIE@?$CFs?$DN?$CFs?$AA@ 006104d8     sys_win32.obj
 0003:000114e0       _unz_copyright             006104e0     unzip.obj
 0003:00011544       ??_C@_05GDHACFMB@1?42?43?$AA@ 00610544     unzip.obj
 0003:0001154c       ??_C@_03HMFOOINA@r?$CLb?$AA@ 0061054c     ioapi.obj
 0003:00011550       ??_C@_06LIKFIMOC@vminfo?$AA@ 00610550     vm.obj
 0003:00011558       ??_C@_09GNBAHOHK@vmprofile?$AA@ 00610558     vm.obj
 0003:00011564       ??_C@_05FKKECMBM@?$CFs?$CL?$CFi?$AA@ 00610564     vm.obj
 0003:0001156c       ??_C@_0L@CKHGNKPG@NO?5SYMBOLS?$AA@ 0061056c     vm.obj
 0003:0001157c       ??_C@_0BL@FKOJLOGO@?$CFi?5symbols?5parsed?5from?5?$CFs?6?$AA@ 0061057c     vm.obj
 0003:0001159c       ??_C@_0BH@DLADEFCP@sizeof?$CI?5?$CKsym?5?$CJ?5?$CL?5chars?$AA@ 0061059c     vm.obj
 0003:000115b8       ??_C@_0DJ@HBPOPPEJ@c?3?2web?2trepdev?2trepidation?2trep?9@ 006105b8     vm.obj
 0003:000115fc       ??_C@_0CJ@KBFNJAIO@WARNING?3?5incomplete?5line?5at?5end?5@ 006105fc     vm.obj
 0003:00011630       ??_C@_0BP@EJCGAFI@Couldn?8t?5load?5symbol?5file?3?5?$CFs?6?$AA@ 00610630     vm.obj
 0003:00011658       ??_C@_09KLPMHLFB@vm?1?$CFs?4map?$AA@ 00610658     vm.obj
 0003:00011664       ??_C@_0BF@EMEJCFHI@header?4h?9?$DOjtrgLength?$AA@ 00610664     vm.obj
 0003:00011680       ??_C@_0BP@KILDIJND@Loading?5?$CFd?5jump?5table?5targets?6?$AA@ 00610680     vm.obj
 0003:000116a8       ??_C@_0L@FOODFAEK@dataLength?$AA@ 006106a8     vm.obj
 0003:000116b8       ??_C@_0DL@IDLECFEH@?$CFs?5does?5not?5have?5a?5recognisable?5@ 006106b8     vm.obj
 0003:00011700       ??_C@_0BC@OPCEGJFC@?$CFs?5has?5bad?5header?$AA@ 00610700     vm.obj
 0003:00011718       ??_C@_0CE@JAFMCIHN@?4?4?4which?5has?5vmMagic?5VM_MAGIC_VE@ 00610718     vm.obj
 0003:00011744       ??_C@_08OEINOMOH@Failed?4?6?$AA@ 00610744     vm.obj
 0003:00011750       ??_C@_0BH@GADMOBK@Loading?5vm?5file?5?$CFs?4?4?4?6?$AA@ 00610750     vm.obj
 0003:0001176c       ??_C@_0BE@OFKMANMD@VM_Restart?5failed?4?6?$AA@ 0061076c     vm.obj
 0003:00011784       ??_C@_0O@HMGHEGLA@VM_Restart?$CI?$CJ?6?$AA@ 00610784     vm.obj
 0003:00011794       ??_C@_0CD@GEPNAEEP@?$CFs?5loaded?5in?5?$CFd?5bytes?5on?5the?5hun@ 00610794     vm.obj
 0003:000117c0       ??_C@_0BH@HLEDEKFM@vm?9?$DOinstructionCount?$CK4?$AA@ 006107c0     vm.obj
 0003:000117dc       ??_C@_0CG@KNDPANGF@Failed?5to?5load?5dll?0?5looking?5for?5@ 006107dc     vm.obj
 0003:0001180c       ??_C@_0BG@JJIBCGPE@Loading?5dll?5file?5?$CFs?4?6?$AA@ 0061080c     vm.obj
 0003:00011828       ??_C@_0BI@IOGIAGHC@VM_Create?3?5no?5free?5vm_t?$AA@ 00610828     vm.obj
 0003:00011844       ??_C@_0BF@IGDBCBGP@VM_Create?3?5bad?5parms?$AA@ 00610844     vm.obj
 0003:00011860       ??_C@_0BM@GAEANCNK@forcefully?5unloading?5?$CFs?5vm?6?$AA@ 00610860     vm.obj
 0003:00011884       ??_C@_0BK@KAGPBPDP@VM_Free?$CI?$CFs?$CJ?5on?5running?5vm?$AA@ 00610884     vm.obj
 0003:000118a4       ??_C@_0P@EIGBCMCM@VM_Call?$CI?5?$CFd?5?$CJ?6?$AA@ 006108a4     vm.obj
 0003:000118b8       ??_C@_0BF@GNADHAJC@VM_Call?5with?5NULL?5vm?$AA@ 006108b8     vm.obj
 0003:000118d4       ??_C@_0BB@NCIFAMHB@?5?5?5?5?$CF9?40f?5total?6?$AA@ 006108d4     vm.obj
 0003:000118e8       ??_C@_0O@DAPAGLHI@?$CF2i?$CF?$CF?5?$CF9i?5?$CFs?6?$AA@ 006108e8     vm.obj
 0003:000118f8       ??_C@_0CD@HGNPMPMC@vm?9?$DOnumSymbols?5?$CK?5sizeof?$CI?5?$CKsorted@ 006108f8     vm.obj
 0003:00011924       ??_C@_0BH@DGKALKOH@?5?5?5?5data?5length?5?3?5?$CF7i?6?$AA@ 00610924     vm.obj
 0003:00011940       ??_C@_0BH@PPKCIMFO@?5?5?5?5table?5length?3?5?$CF7i?6?$AA@ 00610940     vm.obj
 0003:0001195c       ??_C@_0BH@KGNDPGNP@?5?5?5?5code?5length?5?3?5?$CF7i?6?$AA@ 0061095c     vm.obj
 0003:00011978       ??_C@_0N@CFOLNHPI@interpreted?6?$AA@ 00610978     vm.obj
 0003:00011988       ??_C@_0BC@GEADELFK@compiled?5on?5load?6?$AA@ 00610988     vm.obj
 0003:000119a0       ??_C@_07IMELJBKE@native?6?$AA@ 006109a0     vm.obj
 0003:000119ac       ??_C@_05LLGELLBM@?$CFs?5?3?5?$AA@ 006109ac     vm.obj
 0003:000119b4       ??_C@_0BO@GJPNKMOM@Registered?5virtual?5machines?3?6?$AA@ 006109b4     vm.obj
 0003:000119d8       ??_C@_0BL@KBHEDLNP@?$CFi?3?5?$CFp?5?$CI?$CFi?$CJ?5?$DN?5?$CFi?5?$CFi?5?$CFi?5?$CFi?6?$AA@ 006109d8     vm.obj
 0003:000119f8       ??_C@_0N@HIIMEIJN@syscalls?4log?$AA@ 006109f8     vm.obj
 0003:00011a08       ??_C@_0CJ@PMEMCJLI@?5?5?5?5?5?5?5?5?5?5?5?5?5?5?5?5?5?5?5?5?5?5?5?5?5?5?5?5?5?5?5?5@ 00610a08     vm_interpreted.obj
 0003:00011a3c       ??_C@_0CP@GJNCCGPN@VM_PrepareInterpreter?3?5pc?5?$DO?5head@ 00610a3c     vm_interpreted.obj
 0003:00011a74       ??_C@_0BB@PNMEHFJC@vm?9?$DOcodeLength?$CK4?$AA@ 00610a74     vm_interpreted.obj
 0003:00011a88       ??_C@_0EF@PNCEBPFI@c?3?2web?2trepdev?2trepidation?2trep?9@ 00610a88     vm_interpreted.obj
 0003:00011adc       ??_C@_0CB@FLMLJFLA@Interpreter?5error?3?5opStack?5?$DN?5?$CFld@ 00610adc     vm_interpreted.obj
 0003:00011b04       ??_C@_0CL@CPJDPANE@VM?5program?5counter?5out?5of?5range?5@ 00610b04     vm_interpreted.obj
 0003:00011b38       ??_C@_0CM@PEHNIJOI@VM?5program?5counter?5out?5of?5range?5@ 00610b38     vm_interpreted.obj
 0003:00011b6c       ??_C@_0CL@BKENGFAH@VM?5program?5counter?5out?5of?5range?5@ 00610b6c     vm_interpreted.obj
 0003:00011ba4       ??_C@_05KHJPBIKP@8B?51F?$AA@ 00610ba4     vm_x86.obj
 0003:00011bac       ??_C@_02LBOPFCME@BB?$AA@   00610bac     vm_x86.obj
 0003:00011bb0       ??_C@_05EEBJOGGM@8B?5D8?$AA@ 00610bb0     vm_x86.obj
 0003:00011bb8       ??_C@_0BD@LHJDCNBD@Hex?3?5bad?5char?5?8?$CFc?8?$AA@ 00610bb8     vm_x86.obj
 0003:00011bd0       ??_C@_0CJ@IMEHDLPA@VM?5file?5?$CFs?5compiled?5to?5?$CFi?5bytes?5@ 00610bd0     vm_x86.obj
 0003:00011c04       ??_C@_0CF@FFKLOICD@VM_CompileX86?3?5VirtualProtect?5fa@ 00610c04     vm_x86.obj
 0003:00011c30       ??_C@_0CD@LJBOOBDC@VM_CompileX86?3?5VirtualAlloc?5fail@ 00610c30     vm_x86.obj
 0003:00011c5c       ??_C@_0CK@EFPLJADG@VM_CompileX86?3?5bad?5opcode?5?$CFi?5at?5@ 00610c5c     vm_x86.obj
 0003:00011c90       ??_C@_08KBFJACGK@FF?524?585?$AA@ 00610c90     vm_x86.obj
 0003:00011c9c       ??_C@_02KPBALKNG@5E?$AA@   00610c9c     vm_x86.obj
 0003:00011ca0       ??_C@_02IEDNOJBF@5F?$AA@   00610ca0     vm_x86.obj
 0003:00011ca4       ??_C@_05COGPPAE@F3?5A5?$AA@ 00610ca4     vm_x86.obj
 0003:00011cac       ??_C@_05LKKMOIGM@03?5FB?$AA@ 00610cac     vm_x86.obj
 0003:00011cb4       ??_C@_05CCLENIBL@23?5F8?$AA@ 00610cb4     vm_x86.obj
 0003:00011cbc       ??_C@_05IMIIKANL@03?5F3?$AA@ 00610cbc     vm_x86.obj
 0003:00011cc4       ??_C@_05OKGNFCBD@23?5F0?$AA@ 00610cc4     vm_x86.obj
 0003:00011ccc       ??_C@_02HNCEPCPJ@B9?$AA@   00610ccc     vm_x86.obj
 0003:00011cd0       ??_C@_08OJKHKNOB@8B?57F?5FC?$AA@ 00610cd0     vm_x86.obj
 0003:00011cdc       ??_C@_05JCDPIEHG@8B?537?$AA@ 00610cdc     vm_x86.obj
 0003:00011ce4       ??_C@_02LCBJKBKC@57?$AA@   00610ce4     vm_x86.obj
 0003:00011ce8       ??_C@_02KLACJAOD@56?$AA@   00610ce8     vm_x86.obj
 0003:00011cec       ??_C@_08JGPFDFGB@0F?5BF?507?$AA@ 00610cec     vm_x86.obj
 0003:00011cf8       ??_C@_08NBFFEPLB@0F?5BE?507?$AA@ 00610cf8     vm_x86.obj
 0003:00011d04       ??_C@_05OMJJPHJF@DB?507?$AA@ 00610d04     vm_x86.obj
 0003:00011d0c       ??_C@_08LFPHLGAB@D8?54f?504?$AA@ 00610d0c     vm_x86.obj
 0003:00011d18       ??_C@_08DGBACCNE@D8?577?504?$AA@ 00610d18     vm_x86.obj
 0003:00011d24       ??_C@_08PNEMPBHB@D8?567?504?$AA@ 00610d24     vm_x86.obj
 0003:00011d30       ??_C@_08EDMCLBON@D9?55F?5FC?$AA@ 00610d30     vm_x86.obj
 0003:00011d3c       ??_C@_05FPPLAPPL@D8?507?$AA@ 00610d3c     vm_x86.obj
 0003:00011d44       ??_C@_08EMCMKLDH@D9?547?5FC?$AA@ 00610d44     vm_x86.obj
 0003:00011d50       ??_C@_05FFHNAEML@D9?51F?$AA@ 00610d50     vm_x86.obj
 0003:00011d58       ??_C@_05HPOABKDH@D9?5E0?$AA@ 00610d58     vm_x86.obj
 0003:00011d60       ??_C@_05GCJLCGEL@D9?507?$AA@ 00610d60     vm_x86.obj
 0003:00011d68       ??_C@_08FEJGNPIL@D3?56F?5FC?$AA@ 00610d68     vm_x86.obj
 0003:00011d74       ??_C@_08JPMKAMCO@D3?57F?5FC?$AA@ 00610d74     vm_x86.obj
 0003:00011d80       ??_C@_08JACEBGPE@D3?567?5FC?$AA@ 00610d80     vm_x86.obj
 0003:00011d8c       ??_C@_05KGFNHCJI@8B?50F?$AA@ 00610d8c     vm_x86.obj
 0003:00011d94       ??_C@_05JBKBFDBG@F7?517?$AA@ 00610d94     vm_x86.obj
 0003:00011d9c       ??_C@_08LALBOJO@31?547?5FC?$AA@ 00610d9c     vm_x86.obj
 0003:00011da8       ??_C@_08OBGDDJOO@09?547?5FC?$AA@ 00610da8     vm_x86.obj
 0003:00011db4       ??_C@_08BMHAAKNN@21?547?5FC?$AA@ 00610db4     vm_x86.obj
 0003:00011dc0       ??_C@_05JDOHONEP@F7?527?$AA@ 00610dc0     vm_x86.obj
 0003:00011dc8       ??_C@_05KFMDKFPI@F7?52F?$AA@ 00610dc8     vm_x86.obj
 0003:00011dd0       ??_C@_08JBOHEIFD@89?557?5FC?$AA@ 00610dd0     vm_x86.obj
 0003:00011ddc       ??_C@_05JCCFIHHI@F7?537?$AA@ 00610ddc     vm_x86.obj
 0003:00011de4       ??_C@_05BAIDDHFK@33?5D2?$AA@ 00610de4     vm_x86.obj
 0003:00011dec       ??_C@_08FKLLJLPG@89?547?5FC?$AA@ 00610dec     vm_x86.obj
 0003:00011df8       ??_C@_05KEABMPMP@F7?53F?$AA@ 00610df8     vm_x86.obj
 0003:00011e00       ??_C@_02CFIAHFEI@99?$AA@   00610e00     vm_x86.obj
 0003:00011e04       ??_C@_08KLIBBGDA@8B?547?5FC?$AA@ 00610e04     vm_x86.obj
 0003:00011e10       ??_C@_08MPJFBBGI@29?547?5FC?$AA@ 00610e10     vm_x86.obj
 0003:00011e1c       ??_C@_08DCIGCCFL@01?547?5FC?$AA@ 00610e1c     vm_x86.obj
 0003:00011e28       ??_C@_05KHIFBLKB@F7?51F?$AA@ 00610e28     vm_x86.obj
 0003:00011e30       ??_C@_08KAABHBPO@F6?5C4?541?$AA@ 00610e30     vm_x86.obj
 0003:00011e3c       ??_C@_08KHAINJCC@F6?5C4?501?$AA@ 00610e3c     vm_x86.obj
 0003:00011e48       ??_C@_08LJBKEALP@F6?5C4?540?$AA@ 00610e48     vm_x86.obj
 0003:00011e54       ??_C@_05EGCGNCJ@DF?5E0?$AA@ 00610e54     vm_x86.obj
 0003:00011e5c       ??_C@_08BDNPAFKM@D8?55F?508?$AA@ 00610e5c     vm_x86.obj
 0003:00011e68       ??_C@_08HMCOFAOE@D9?547?504?$AA@ 00610e68     vm_x86.obj
 0003:00011e74       ??_C@_05IBOGFJHE@72?506?$AA@ 00610e74     vm_x86.obj
 0003:00011e7c       ??_C@_05HEGGPPLE@76?506?$AA@ 00610e7c     vm_x86.obj
 0003:00011e84       ??_C@_05EJAGNGAE@77?506?$AA@ 00610e84     vm_x86.obj
 0003:00011e8c       ??_C@_05LMIGHAME@73?506?$AA@ 00610e8c     vm_x86.obj
 0003:00011e94       ??_C@_05EFFEJAAL@7C?506?$AA@ 00610e94     vm_x86.obj
 0003:00011e9c       ??_C@_05MKBEGFKL@7E?506?$AA@ 00610e9c     vm_x86.obj
 0003:00011ea4       ??_C@_05INLEBPHL@7F?506?$AA@ 00610ea4     vm_x86.obj
 0003:00011eac       ??_C@_05PHHEEMBL@7D?506?$AA@ 00610eac     vm_x86.obj
 0003:00011eb4       ??_C@_05OKGKMNE@74?506?$AA@ 00610eb4     vm_x86.obj
 0003:00011ebc       ??_C@_05GFGDEGLC@FF?525?$AA@ 00610ebc     vm_x86.obj
 0003:00011ec4       ??_C@_05DDMGIFGE@75?506?$AA@ 00610ec4     vm_x86.obj
 0003:00011ecc       ??_C@_08LFGDDMDC@3B?547?508?$AA@ 00610ecc     vm_x86.obj
 0003:00011ed8       ??_C@_08JLIDONOD@8B?547?504?$AA@ 00610ed8     vm_x86.obj
 0003:00011ee4       ??_C@_08KEGPAMOK@8B?55F?5FC?$AA@ 00610ee4     vm_x86.obj
 0003:00011ef0       ??_C@_08FFIEBBC@0F?5B6?583?$AA@ 00610ef0     vm_x86.obj
 0003:00011efc       ??_C@_08DIDIGIKC@0F?5B7?583?$AA@ 00610efc     vm_x86.obj
 0003:00011f08       ??_C@_05NBCLPNFA@8B?580?$AA@ 00610f08     vm_x86.obj
 0003:00011f10       ??_C@_02LDEEJNBC@2D?$AA@   00610f10     vm_x86.obj
 0003:00011f14       ??_C@_05IIKCMFF@FF?58B?$AA@ 00610f14     vm_x86.obj
 0003:00011f1c       ??_C@_02IGOEABML@05?$AA@   00610f1c     vm_x86.obj
 0003:00011f20       ??_C@_05PKAGKOJD@8B?583?$AA@ 00610f20     vm_x86.obj
 0003:00011f28       ??_C@_05DOKOGEOC@FF?583?$AA@ 00610f28     vm_x86.obj
 0003:00011f30       ??_C@_02IGAJHAEE@C3?$AA@   00610f30     vm_x86.obj
 0003:00011f34       ??_C@_05GBKHEHHI@81?5C6?$AA@ 00610f34     vm_x86.obj
 0003:00011f3c       ??_C@_05GHCFPIOL@FF?515?$AA@ 00610f3c     vm_x86.obj
 0003:00011f44       ??_C@_05NHKGMIGL@C7?586?$AA@ 00610f44     vm_x86.obj
 0003:00011f4c       ??_C@_05JHDILAI@89?586?$AA@ 00610f4c     vm_x86.obj
 0003:00011f54       ??_C@_05IDBKPHG@8D?586?$AA@ 00610f54     vm_x86.obj
 0003:00011f5c       ??_C@_0DF@ENDNDPPB@VM_CompileX86?3?5jump?5target?5out?5o@ 00610f5c     vm_x86.obj
 0003:00011f9c       ??_C@_05MAKOKIJC@C7?507?$AA@ 00610f9c     vm_x86.obj
 0003:00011fa4       ??_C@_05BLKLDMOJ@81?52F?$AA@ 00610fa4     vm_x86.obj
 0003:00011fac       ??_C@_05COALKADA@81?507?$AA@ 00610fac     vm_x86.obj
 0003:00011fb4       ??_C@_05EJGEFGPN@88?583?$AA@ 00610fb4     vm_x86.obj
 0003:00011fbc       ??_C@_08PCPLBAHO@66?589?583?$AA@ 00610fbc     vm_x86.obj
 0003:00011fc8       ??_C@_05HEAEHPEN@89?583?$AA@ 00610fc8     vm_x86.obj
 0003:00011fd0       ??_C@_02GEDPMDLI@B8?$AA@   00610fd0     vm_x86.obj
 0003:00011fd4       ??_C@_08LELBAKK@0F?5B6?503?$AA@ 00610fd4     vm_x86.obj
 0003:00011fe0       ??_C@_08DGCLDJBK@0F?5B7?503?$AA@ 00610fe0     vm_x86.obj
 0003:00011fec       ??_C@_05PEBFPPCL@8B?503?$AA@ 00610fec     vm_x86.obj
 0003:00011ff4       ??_C@_05GBDIBBPP@81?5EE?$AA@ 00610ff4     vm_x86.obj
 0003:00011ffc       ??_C@_02KJDGAJLC@CC?$AA@   00610ffc     vm_x86.obj
 0003:00012000       ??_C@_0CH@KBPAIEIJ@VM_CompileX86?3?5pc?5?$DO?5header?9?$DOcode@ 00611000     vm_x86.obj
 0003:00012030       ??_C@_0CC@BBOPGMCE@VM_CompileX86?3?5maxLength?5exceede@ 00611030     vm_x86.obj
 0003:00012058       ??_C@_09HAMBECCB@jusedSize?$AA@ 00611058     vm_x86.obj
 0003:00012064       ??_C@_09KJHMKBNK@maxLength?$AA@ 00611064     vm_x86.obj
 0003:00012070       ??_C@_0DN@OOKFIALA@c?3?2web?2trepdev?2trepidation?2trep?9@ 00611070     vm_x86.obj
 0003:000120bc       ??_C@_08FDAACEPK@83?5EF?508?$AA@ 006110bc     vm_x86.obj
 0003:000120c8       ??_C@_08PPLFGLPG@83?5EF?504?$AA@ 006110c8     vm_x86.obj
 0003:000120d4       ??_C@_05BOHLOLPB@89?507?$AA@ 006110d4     vm_x86.obj
 0003:000120dc       ??_C@_08ONFOEBJE@83?5C7?504?$AA@ 006110dc     vm_x86.obj
 0003:000120e8       ??_C@_05JAHJDKCP@8B?507?$AA@ 006110e8     vm_x86.obj
 0003:000120f0       ??_C@_0CI@DJIHNOJD@programStack?5corrupted?5in?5compil@ 006110f0     vm_x86.obj
 0003:00012120       ??_C@_0CD@CEBALJKM@opStack?5corrupted?5in?5compiled?5co@ 00611120     vm_x86.obj
 0003:000121a0       __real@40d0002000000000    006111a0     jcdctmgr.obj
 0003:0001270c       ??_C@_0CL@OCGBAKPF@Application?5transferred?5too?5many@ 0061170c     jerror.obj
 0003:00012740       ??_C@_0CL@BAKCGOKJ@Invalid?5SOS?5parameters?5for?5seque@ 00611740     jerror.obj
 0003:00012774       ??_C@_0DI@NFMBADOH@Corrupt?5JPEG?5data?3?5found?5marker?5@ 00611774     jerror.obj
 0003:000127b8       ??_C@_0BL@DPFPFMLM@Premature?5end?5of?5JPEG?5file?$AA@ 006117b8     jerror.obj
 0003:000127d8       ??_C@_0CO@ODCCEDLN@Warning?3?5unknown?5JFIF?5revision?5n@ 006117d8     jerror.obj
 0003:00012810       ??_C@_0CE@PBLDOPKB@Corrupt?5JPEG?5data?3?5bad?5Huffman?5c@ 00611810     jerror.obj
 0003:0001283c       ??_C@_0DB@PGMEPGHN@Corrupt?5JPEG?5data?3?5premature?5end@ 0061183c     jerror.obj
 0003:00012878       ??_C@_0DM@PCOGCKJB@Corrupt?5JPEG?5data?3?5?$CFu?5extraneous@ 00611878     jerror.obj
 0003:000128c0       ??_C@_0EC@CBCJOINE@Inconsistent?5progression?5sequenc@ 006118c0     jerror.obj
 0003:00012910       ??_C@_0CG@KEGHCDOM@Unknown?5Adobe?5color?5transform?5co@ 00611910     jerror.obj
 0003:00012940       ??_C@_0BH@LJLGPEFF@Obtained?5XMS?5handle?5?$CFu?$AA@ 00611940     jerror.obj
 0003:0001295c       ??_C@_0BE@FOGGKKAO@Freed?5XMS?5handle?5?$CFu?$AA@ 0061195c     jerror.obj
 0003:00012974       ??_C@_0DE@EEJCDLOO@Unrecognized?5component?5IDs?5?$CFd?5?$CFd@ 00611974     jerror.obj
 0003:000129b4       ??_C@_0DG@FCFDGNHE@JFIF?5extension?5marker?3?5RGB?5thumb@ 006119b4     jerror.obj
 0003:000129f4       ??_C@_0DK@JGAPDCJL@JFIF?5extension?5marker?3?5palette?5t@ 006119f4     jerror.obj
 0003:00012a40       ??_C@_0EC@ELDEPOJP@JFIF?5extension?5marker?3?5JPEG?9comp@ 00611a40     jerror.obj
 0003:00012a90       ??_C@_0BJ@GOCABEP@Opened?5temporary?5file?5?$CFs?$AA@ 00611a90     jerror.obj
 0003:00012ab0       ??_C@_0BJ@KDCGAOJB@Closed?5temporary?5file?5?$CFs?$AA@ 00611ab0     jerror.obj
 0003:00012ad0       ??_C@_0BN@GAMIJLDC@?5?5Ss?$DN?$CFd?0?5Se?$DN?$CFd?0?5Ah?$DN?$CFd?0?5Al?$DN?$CFd?$AA@ 00611ad0     jerror.obj
 0003:00012af4       ??_C@_0BO@CDEKFGLC@?5?5?5?5Component?5?$CFd?3?5dc?$DN?$CFd?5ac?$DN?$CFd?$AA@ 00611af4     jerror.obj
 0003:00012b18       ??_C@_0BN@BLOOHNC@Start?5Of?5Scan?3?5?$CFd?5components?$AA@ 00611b18     jerror.obj
 0003:00012b3c       ??_C@_0P@JLCHJELA@Start?5of?5Image?$AA@ 00611b3c     jerror.obj
 0003:00012b50       ??_C@_0BP@EDCAMHHE@?5?5?5?5Component?5?$CFd?3?5?$CFdhx?$CFdv?5q?$DN?$CFd?$AA@ 00611b50     jerror.obj
 0003:00012b78       ??_C@_0DK@DMINKOGN@Start?5Of?5Frame?50x?$CF02x?3?5width?$DN?$CFu?0@ 00611b78     jerror.obj
 0003:00012bc0       ??_C@_0DJ@PCBCLFML@Smoothing?5not?5supported?5with?5non@ 00611bc0     jerror.obj
 0003:00012c04       ??_C@_05LLAPAOG@RST?$CFd?$AA@ 00611c04     jerror.obj
 0003:00012c0c       ??_C@_0CF@NIMOLBCP@At?5marker?50x?$CF02x?0?5recovery?5actio@ 00611c0c     jerror.obj
 0003:00012c38       ??_C@_0CE@FDPBEAOO@Selected?5?$CFd?5colors?5for?5quantizat@ 00611c38     jerror.obj
 0003:00012c64       ??_C@_0BI@NEIBNACE@Quantizing?5to?5?$CFd?5colors?$AA@ 00611c64     jerror.obj
 0003:00012c80       ??_C@_0CD@CNNAOOFA@Quantizing?5to?5?$CFd?5?$DN?5?$CFd?$CK?$CFd?$CK?$CFd?5colo@ 00611c80     jerror.obj
 0003:00012cac       ??_C@_0CI@GHPOCOCL@?5?5?5?5?5?5?5?5?$CF4u?5?$CF4u?5?$CF4u?5?$CF4u?5?$CF4u?5?$CF4u?5@ 00611cac     jerror.obj
 0003:00012cdc       ??_C@_0BJ@COPODLDN@Unexpected?5marker?50x?$CF02x?$AA@ 00611cdc     jerror.obj
 0003:00012cfc       ??_C@_0CH@EHHJCMGA@Miscellaneous?5marker?50x?$CF02x?0?5len@ 00611cfc     jerror.obj
 0003:00012d2c       ??_C@_0CB@BADBMAAB@?5?5?5?5with?5?$CFd?5x?5?$CFd?5thumbnail?5image@ 00611d2c     jerror.obj
 0003:00012d54       ??_C@_0CO@KKPHGHBA@JFIF?5extension?5marker?3?5type?50x?$CF0@ 00611d54     jerror.obj
 0003:00012d8c       ??_C@_0DM@JLHNPIBE@Warning?3?5thumbnail?5image?5size?5do@ 00611d8c     jerror.obj
 0003:00012dd4       ??_C@_0DF@LOKNABIG@JFIF?5APP0?5marker?3?5version?5?$CFd?4?$CF02@ 00611dd4     jerror.obj
 0003:00012e14       ??_C@_0CI@FKGPAJC@?5?5?5?5?5?5?5?5?$CF3d?5?$CF3d?5?$CF3d?5?$CF3d?5?$CF3d?5?$CF3d?5@ 00611e14     jerror.obj
 0003:00012e44       ??_C@_0N@HJHFKELG@End?5Of?5Image?$AA@ 00611e44     jerror.obj
 0003:00012e54       ??_C@_0BH@GIPOLIGC@Obtained?5EMS?5handle?5?$CFu?$AA@ 00611e54     jerror.obj
 0003:00012e70       ??_C@_0BE@IPCOOGDJ@Freed?5EMS?5handle?5?$CFu?$AA@ 00611e70     jerror.obj
 0003:00012e88       ??_C@_0BL@EMFIKBEK@Define?5Restart?5Interval?5?$CFu?$AA@ 00611e88     jerror.obj
 0003:00012ea8       ??_C@_0CL@KLDOJIKN@Define?5Quantization?5Table?5?$CFd?5?5pr@ 00611ea8     jerror.obj
 0003:00012edc       ??_C@_0BM@MDIEILCE@Define?5Huffman?5Table?50x?$CF02x?$AA@ 00611edc     jerror.obj
 0003:00012f00       ??_C@_0CH@KIJGKPAA@Define?5Arithmetic?5Table?50x?$CF02x?3?5@ 00611f00     jerror.obj
 0003:00012f30       ??_C@_0CM@CAEPHFAA@Unknown?5APP14?5marker?5?$CInot?5Adobe?$CJ@ 00611f30     jerror.obj
 0003:00012f64       ??_C@_0CK@HCPFFNKJ@Unknown?5APP0?5marker?5?$CInot?5JFIF?$CJ?0?5@ 00611f64     jerror.obj
 0003:00012f98       ??_C@_0EC@EHPKAOHA@Adobe?5APP14?5marker?3?5version?5?$CFd?0?5@ 00611f98     jerror.obj
 0003:00012fe8       ??_C@_0DO@EGLODMBB@Caution?3?5quantization?5tables?5are@ 00611fe8     jerror.obj
 0003:00013034       ??_C@_0BA@LIJBPGPA@6b?5?527?9Mar?91998?$AA@ 00612034     jerror.obj
 0003:00013048       ??_C@_0CD@IMBKIDCD@Copyright?5?$CIC?$CJ?51998?0?5Thomas?5G?4?5La@ 00612048     jerror.obj
 0003:00013074       ??_C@_0BE@FDPDCBIN@Write?5to?5XMS?5failed?$AA@ 00612074     jerror.obj
 0003:0001308c       ??_C@_0BF@EKLGFGNM@Read?5from?5XMS?5failed?$AA@ 0061208c     jerror.obj
 0003:000130a8       ??_C@_0CH@LJLHCCHC@Image?5too?5wide?5for?5this?5implemen@ 006120a8     jerror.obj
 0003:000130d8       ??_C@_0CD@GCLFJCHC@Virtual?5array?5controller?5messed?5@ 006120d8     jerror.obj
 0003:00013104       ??_C@_0BP@BPKOBOIP@Unsupported?5marker?5type?50x?$CF02x?$AA@ 00612104     jerror.obj
 0003:0001312c       ??_C@_0CK@EPADOAKC@Application?5transferred?5too?5few?5@ 0061212c     jerror.obj
 0003:00013160       ??_C@_0DG@KALDLIJB@Write?5failed?5on?5temporary?5file?5?9@ 00612160     jerror.obj
 0003:000131a0       ??_C@_0BO@GOBJOAAI@Seek?5failed?5on?5temporary?5file?$AA@ 006121a0     jerror.obj
 0003:000131c4       ??_C@_0BO@EEPJGHHI@Read?5failed?5on?5temporary?5file?$AA@ 006121c4     jerror.obj
 0003:000131e8       ??_C@_0CD@POKNOPOF@Failed?5to?5create?5temporary?5file?5@ 006121e8     jerror.obj
 0003:00013214       ??_C@_0CM@HONLBDPH@Invalid?5JPEG?5file?5structure?3?5SOS@ 00612214     jerror.obj
 0003:00013248       ??_C@_0CN@HGJCMLNE@Invalid?5JPEG?5file?5structure?3?5two@ 00612248     jerror.obj
 0003:00013280       ??_C@_0CK@HMKECJK@Unsupported?5JPEG?5process?3?5SOF?5ty@ 00612280     jerror.obj
 0003:000132b4       ??_C@_0DA@GJIJGINK@Invalid?5JPEG?5file?5structure?3?5mis@ 006122b4     jerror.obj
 0003:000132f0       ??_C@_0CN@IHJJJAFJ@Invalid?5JPEG?5file?5structure?3?5two@ 006122f0     jerror.obj
 0003:00013328       ??_C@_0CH@NHMNHHIB@Cannot?5quantize?5to?5more?5than?5?$CFd?5@ 00612328     jerror.obj
 0003:00013358       ??_C@_0CI@PLMPLCNO@Cannot?5quantize?5to?5fewer?5than?5?$CFd@ 00612358     jerror.obj
 0003:00013388       ??_C@_0CO@HPDBAEEA@Cannot?5quantize?5more?5than?5?$CFd?5col@ 00612388     jerror.obj
 0003:000133c0       ??_C@_0BO@DJPLELIB@Insufficient?5memory?5?$CIcase?5?$CFd?$CJ?$AA@ 006123c0     jerror.obj
 0003:000133e4       ??_C@_0CL@GNLFDFCL@Not?5a?5JPEG?5file?3?5starts?5with?50x?$CF@ 006123e4     jerror.obj
 0003:00013418       ??_C@_0CK@CCHKIENB@Quantization?5table?50x?$CF02x?5was?5no@ 00612418     jerror.obj
 0003:0001344c       ??_C@_0CC@BKPLBDLJ@JPEG?5datastream?5contains?5no?5imag@ 0061244c     jerror.obj
 0003:00013474       ??_C@_0CF@BKANFCCL@Huffman?5table?50x?$CF02x?5was?5not?5def@ 00612474     jerror.obj
 0003:000134a0       ??_C@_0BM@HJHFKLAF@Backing?5store?5not?5supported?$AA@ 006124a0     jerror.obj
 0003:000134c4       ??_C@_0CO@BEHINNOI@Requested?5feature?5was?5omitted?5at@ 006124c4     jerror.obj
 0003:000134fc       ??_C@_0BE@EOAAHHJ@Not?5implemented?5yet?$AA@ 006124fc     jerror.obj
 0003:00013514       ??_C@_0CH@EFBBPPCK@Invalid?5color?5quantization?5mode?5@ 00612514     jerror.obj
 0003:00013544       ??_C@_0CH@NIBDNILP@Scan?5script?5does?5not?5transmit?5al@ 00612544     jerror.obj
 0003:00013574       ??_C@_0DO@OPNPKGO@Cannot?5transcode?5due?5to?5multiple@ 00612574     jerror.obj
 0003:000135c0       ??_C@_0BM@KEKMMNGA@Premature?5end?5of?5input?5file?$AA@ 006125c0     jerror.obj
 0003:000135e4       ??_C@_0BB@JJAIKFBB@Empty?5input?5file?$AA@ 006125e4     jerror.obj
 0003:000135f8       ??_C@_0CP@EKFPGPNP@Maximum?5supported?5image?5dimensio@ 006125f8     jerror.obj
 0003:00013630       ??_C@_0CB@LFBMFPHI@Missing?5Huffman?5code?5table?5entry@ 00612630     jerror.obj
 0003:00013658       ??_C@_0CB@LLDOGNPJ@Huffman?5code?5size?5table?5overflow@ 00612658     jerror.obj
 0003:00013680       ??_C@_0CI@EKDDDHFF@Fractional?5sampling?5not?5implemen@ 00612680     jerror.obj
 0003:000136b0       ??_C@_0CP@IDOBLGGD@Output?5file?5write?5error?5?9?9?9?5out?5@ 006126b0     jerror.obj
 0003:000136e8       ??_C@_0BG@BALCKDNL@Input?5file?5read?5error?$AA@ 006126e8     jerror.obj
 0003:00013704       ??_C@_0CB@DMGINPNE@Didn?8t?5expect?5more?5than?5one?5scan@ 00612704     jerror.obj
 0003:0001372c       ??_C@_0BE@DGJBKIEB@Write?5to?5EMS?5failed?$AA@ 0061272c     jerror.obj
 0003:00013744       ??_C@_0BF@CPNENPBA@Read?5from?5EMS?5failed?$AA@ 00612744     jerror.obj
 0003:00013760       ??_C@_0CF@DAGGEAPM@Empty?5JPEG?5image?5?$CIDNL?5not?5suppor@ 00612760     jerror.obj
 0003:0001378c       ??_C@_0BD@DIMECAOP@Bogus?5DQT?5index?5?$CFd?$AA@ 0061278c     jerror.obj
 0003:000137a4       ??_C@_0BD@KJHFPHIC@Bogus?5DHT?5index?5?$CFd?$AA@ 006127a4     jerror.obj
 0003:000137bc       ??_C@_0BF@CLIOOJFM@Bogus?5DAC?5value?50x?$CFx?$AA@ 006127bc     jerror.obj
 0003:000137d8       ??_C@_0BD@LDBBBMFL@Bogus?5DAC?5index?5?$CFd?$AA@ 006127d8     jerror.obj
 0003:000137f0       ??_C@_0CF@JDLOPNGO@Unsupported?5color?5conversion?5req@ 006127f0     jerror.obj
 0003:0001381c       ??_C@_0CG@BEBDNOCG@Too?5many?5color?5components?3?5?$CFd?0?5m@ 0061281c     jerror.obj
 0003:0001384c       ??_C@_0CF@LAEFHNAH@CCIR601?5sampling?5not?5implemented@ 0061284c     jerror.obj
 0003:00013878       ??_C@_0BM@PKHCPJDH@Suspension?5not?5allowed?5here?$AA@ 00612878     jerror.obj
 0003:0001389c       ??_C@_0CL@JKHIPJLJ@Buffer?5passed?5to?5JPEG?5library?5is@ 0061289c     jerror.obj
 0003:000138d0       ??_C@_0BL@CBOEEPLK@Bogus?5virtual?5array?5access?$AA@ 006128d0     jerror.obj
 0003:000138f0       ??_C@_0EN@DKAEGIBH@JPEG?5parameter?5struct?5mismatch?3?5@ 006128f0     jerror.obj
 0003:0001394c       ??_C@_0CK@BAMFIBMM@Improper?5call?5to?5JPEG?5library?5in@ 0061294c     jerror.obj
 0003:00013980       ??_C@_0CA@MJDDICLK@Invalid?5scan?5script?5at?5entry?5?$CFd?$AA@ 00612980     jerror.obj
 0003:000139a8       ??_C@_0BH@HMMHPOPE@Bogus?5sampling?5factors?$AA@ 006129a8     jerror.obj
 0003:000139c4       ??_C@_0DH@HIKEGPKP@Invalid?5progressive?5parameters?5a@ 006129c4     jerror.obj
 0003:00013a08       ??_C@_0DH@LNGGEGOL@Invalid?5progressive?5parameters?5S@ 00612a08     jerror.obj
 0003:00013a4c       ??_C@_0CD@LDBDNLHK@Unsupported?5JPEG?5data?5precision?5@ 00612a4c     jerror.obj
 0003:00013a78       ??_C@_0BM@OEMICEFD@Invalid?5memory?5pool?5code?5?$CFd?$AA@ 00612a78     jerror.obj
 0003:00013a9c       ??_C@_0DA@HLEOHNPA@Sampling?5factors?5too?5large?5for?5i@ 00612a9c     jerror.obj
 0003:00013ad8       ??_C@_0DN@ELFKFKL@Wrong?5JPEG?5library?5version?3?5libr@ 00612ad8     jerror.obj
 0003:00013b24       ??_C@_0BE@OGLAEMOG@Bogus?5marker?5length?$AA@ 00612b24     jerror.obj
 0003:00013b3c       ??_C@_0BG@NEGIHEMC@Bogus?5JPEG?5colorspace?$AA@ 00612b3c     jerror.obj
 0003:00013b58       ??_C@_0BH@BGDIGLHC@Bogus?5input?5colorspace?$AA@ 00612b58     jerror.obj
 0003:00013b74       ??_C@_0BP@EOFJNLFD@Bogus?5Huffman?5table?5definition?$AA@ 00612b74     jerror.obj
 0003:00013b9c       ??_C@_0CI@MBJANLAP@IDCT?5output?5block?5size?5?$CFd?5not?5su@ 00612b9c     jerror.obj
 0003:00013bcc       ??_C@_0BN@OJEJKKDL@DCT?5coefficient?5out?5of?5range?$AA@ 00612bcc     jerror.obj
 0003:00013bf0       ??_C@_0BP@ONFLCDHG@Invalid?5component?5ID?5?$CFd?5in?5SOS?$AA@ 00612bf0     jerror.obj
 0003:00013c18       ??_C@_0BK@DKALDNKG@Bogus?5buffer?5control?5mode?$AA@ 00612c18     jerror.obj
 0003:00013c38       ??_C@_0CF@DENLILGA@MAX_ALLOC_CHUNK?5is?5wrong?0?5please@ 00612c38     jerror.obj
 0003:00013c64       ??_C@_0CA@FDMPGPNI@ALIGN_TYPE?5is?5wrong?0?5please?5fix?$AA@ 00612c64     jerror.obj
 0003:00013c8c       ??_C@_0DJ@KONAFFHE@Sorry?0?5there?5are?5legal?5restricti@ 00612c8c     jerror.obj
 0003:00013cd0       ??_C@_0BG@MIBALFBH@Bogus?5message?5code?5?$CFd?$AA@ 00612cd0     jerror.obj
 0003:00013cf0       _jpeg_std_message_table    00612cf0     jerror.obj
 0003:00013f48       __real@3ff4e7aea0000000    00612f48     jfdctflt.obj
 0003:00013f58       __real@3fe1517a80000000    00612f58     jfdctflt.obj
 0003:00013f68       __real@3fd87de2a0000000    00612f68     jfdctflt.obj
 0003:00013f78       __real@3fe6a09e60000000    00612f78     jfdctflt.obj
 0003:00013f88       __real@c004e7aea0000000    00612f88     jidctflt.obj
 0003:00013f98       __real@3ff1517a80000000    00612f98     jidctflt.obj
 0003:00013fa8       __real@3ffd906bc0000000    00612fa8     jidctflt.obj
 0003:00013fb8       __real@3ff6a09e60000000    00612fb8     jidctflt.obj
 0003:00013fd8       ??_C@_05IBIMIMKO@?$CFld?$CFc?$AA@ 00612fd8     jmemmgr.obj
 0003:00013fe0       ??_C@_07OOOLPGAB@JPEGMEM?$AA@ 00612fe0     jmemmgr.obj
 0003:00013ff0       _jpeg_natural_order        00612ff0     jutils.obj
 0003:00014170       ??_C@_0BJ@JBOKGNLE@bsp?5entity?5out?5of?5range?6?$AA@ 00613170     be_aas_bspq3.obj
 0003:00014190       ??_C@_0M@HBEEPJK@?$CFlf?5?$CFlf?5?$CFlf?$AA@ 00613190     be_aas_bspq3.obj
 0003:000141a0       ??_C@_0L@MIANKDAD@missing?5?$HN?6?$AA@ 006131a0     be_aas_bspq3.obj
 0003:000141b0       ??_C@_01CELHOKLL@?$HN?$AA@ 006131b0     be_aas_bspq3.obj
 0003:000141b4       ??_C@_0BP@POHMEOEC@too?5many?5entities?5in?5BSP?5file?6?$AA@ 006131b4     be_aas_bspq3.obj
 0003:000141dc       ??_C@_0M@HDEGANAK@invalid?5?$CFs?6?$AA@ 006131dc     be_aas_bspq3.obj
 0003:000141ec       ??_C@_01HCONENDN@?$HL?$AA@ 006131ec     be_aas_bspq3.obj
 0003:000141f0       ??_C@_07IJNKCNKH@entdata?$AA@ 006131f0     be_aas_bspq3.obj
 0003:000141fc       ??_C@_0BI@KOKCMCHN@AAS_MAX_PORTALINDEXSIZE?$AA@ 006131fc     be_aas_cluster.obj
 0003:00014218       ??_C@_0DG@OCGFOOPH@portal?5area?5?$CFd?5is?5seperating?5mor@ 00613218     be_aas_cluster.obj
 0003:00014258       ??_C@_0BF@NHJNBHCO@no?5portal?5of?5area?5?$CFd?$AA@ 00613258     be_aas_cluster.obj
 0003:00014274       ??_C@_0CL@KPDIAOMF@cluster?5?$CFd?5touched?5cluster?5?$CFd?5at@ 00613274     be_aas_cluster.obj
 0003:000142a8       ??_C@_0CO@OFKPJKFO@AAS_FloodClusterAreas_r?3?5areanum@ 006132a8     be_aas_cluster.obj
 0003:000142e0       ??_C@_0BB@KELFLMDE@AAS_MAX_CLUSTERS?$AA@ 006132e0     be_aas_cluster.obj
 0003:000142f4       ??_C@_0BA@ILOODELG@AAS_MAX_PORTALS?$AA@ 006132f4     be_aas_cluster.obj
 0003:00014308       ??_C@_0BA@DKADLPCK@MAX_PORTALAREAS?$AA@ 00613308     be_aas_cluster.obj
 0003:0001431c       ??_C@_0BG@IDPPIMFG@possible?5portal?3?5?$CFd?$AN?6?$AA@ 0061331c     be_aas_cluster.obj
 0003:00014338       ??_C@_0BM@COFAHJCM@?$AN?$CF6d?5possible?5portal?5areas?6?$AA@ 00613338     be_aas_cluster.obj
 0003:0001435c       ??_C@_0CF@HNGHLOBA@portal?5area?5?$CFd?5has?5no?5back?5clust@ 0061335c     be_aas_cluster.obj
 0003:00014388       ??_C@_0CG@PPPPLOAP@portal?5area?5?$CFd?5has?5no?5front?5clus@ 00613388     be_aas_cluster.obj
 0003:000143b8       ??_C@_0BJ@EOFLMLFD@?$CF6d?5forced?5portal?5areas?6?$AA@ 006133b8     be_aas_cluster.obj
 0003:000143d8       ??_C@_0CC@ECEDAPMJ@area?5?$CFd?5is?5a?5forced?5portal?5area?$AN@ 006133d8     be_aas_cluster.obj
 0003:00014400       ??_C@_0DB@NFDNPBEJ@?$CF6i?5AAS?5memory?1CPU?5usage?5?$CIthe?5lo@ 00613400     be_aas_cluster.obj
 0003:0001443c       ??_C@_0BO@NNGLPCLI@?$CF6i?5total?5reachability?5areas?6?$AA@ 0061343c     be_aas_cluster.obj
 0003:00014460       ??_C@_0CG@PPPOPFBK@cluster?5?$CFd?5has?5?$CFd?5reachability?5a@ 00613460     be_aas_cluster.obj
 0003:00014490       ??_C@_0BG@IEMHKDCK@?$CF6d?5clusters?5created?6?$AA@ 00613490     be_aas_cluster.obj
 0003:000144ac       ??_C@_0BF@HJCLOJDI@?$CF6d?5portals?5created?6?$AA@ 006134ac     be_aas_cluster.obj
 0003:000144c8       ??_C@_0BF@LLJPMAL@portal?5?$CFd?3?5area?5?$CFd?$AN?6?$AA@ 006134c8     be_aas_cluster.obj
 0003:000144e4       ??_C@_04HHNGKENO@?$AN?$CF6d?$AA@ 006134e4     be_aas_cluster.obj
 0003:000144ec       ??_C@_0BK@CDJHMKCM@?$AN?$CF6d?5removed?5portal?5areas?$AA@ 006134ec     be_aas_cluster.obj
 0003:0001450c       ??_C@_0BC@HJNNPMHF@forcereachability?$AA@ 0061350c     be_aas_cluster.obj
 0003:00014524       ??_C@_0BA@BADKHCEE@forceclustering?$AA@ 00613524     be_aas_cluster.obj
 0003:00014538       __real@4018000000000000    00613538     be_aas_debug.obj
 0003:00014548       __real@4034000000000000    00613548     be_aas_debug.obj
 0003:00014554       ??_C@_0BJ@MGMOCNCM@edgenum?5?$CFd?5out?5of?5range?6?$AA@ 00613554     be_aas_debug.obj
 0003:00014574       ??_C@_0BJ@BLFMMBJE@facenum?5?$CFd?5out?5of?5range?6?$AA@ 00613574     be_aas_debug.obj
 0003:00014594       ??_C@_0BO@EKJMENEL@area?5?$CFd?5out?5of?5range?5?$FL0?0?5?$CFd?$FN?6?$AA@ 00613594     be_aas_debug.obj
 0003:000145b8       __real@c018000000000000    006135b8     be_aas_debug.obj
 0003:000145c4       __real@40800000            006135c4     be_aas_debug.obj
 0003:000145c8       __real@3ff8000000000000    006135c8     be_aas_debug.obj
 0003:000145d4       ??_C@_0BO@MBNJNHCC@AAS_UpdateEntity?3?5not?5loaded?6?$AA@ 006135d4     be_aas_entity.obj
 0003:000145f8       ??_C@_0CI@DHABDHGE@AAS_EntityInfo?3?5entnum?5?$CFd?5out?5of@ 006135f8     be_aas_entity.obj
 0003:00014628       ??_C@_0CK@IABHHEBM@AAS_EntityInfo?3?5aasworld?5not?5ini@ 00613628     be_aas_entity.obj
 0003:0001465c       ??_C@_0CK@DFLNBMPC@AAS_EntityOrigin?3?5entnum?5?$CFd?5out?5@ 0061365c     be_aas_entity.obj
 0003:00014690       ??_C@_0CO@GOHMBDIM@AAS_EntityModelindex?3?5entnum?5?$CFd?5@ 00613690     be_aas_entity.obj
 0003:000146c8       ??_C@_0CI@MHKPMBGB@AAS_EntityType?3?5entnum?5?$CFd?5out?5of@ 006136c8     be_aas_entity.obj
 0003:000146f8       ??_C@_0CM@KBCKFNEI@AAS_EntityModelNum?3?5entnum?5?$CFd?5ou@ 006136f8     be_aas_entity.obj
 0003:0001472c       ??_C@_0CI@PKIBPHIO@AAS_EntitySize?3?5entnum?5?$CFd?5out?5of@ 0061372c     be_aas_entity.obj
 0003:0001475c       ??_C@_0BI@DBJMMGKJ@can?8t?5seek?5to?5aas?5lump?6?$AA@ 0061375c     be_aas_file.obj
 0003:00014778       ??_C@_0CA@GEEFHEDJ@AAS?5file?5not?5sequentially?5read?6?$AA@ 00613778     be_aas_file.obj
 0003:000147a0       ??_C@_0BM@NDIFACPH@aas?5file?5?$CFs?5is?5out?5of?5date?6?$AA@ 006137a0     be_aas_file.obj
 0003:000147c4       ??_C@_0CD@IPFFEFDG@aas?5file?5?$CFs?5is?5version?5?$CFi?0?5not?5?$CF@ 006137c4     be_aas_file.obj
 0003:000147f0       ??_C@_0BH@HDNIDKDF@?$CFs?5is?5not?5an?5AAS?5file?6?$AA@ 006137f0     be_aas_file.obj
 0003:0001480c       ??_C@_0P@MNCIOHOD@can?8t?5open?5?$CFs?6?$AA@ 0061380c     be_aas_file.obj
 0003:00014820       ??_C@_0BD@DAIGMAGG@trying?5to?5load?5?$CFs?6?$AA@ 00613820     be_aas_file.obj
 0003:00014838       ??_C@_0BC@CBHACCGB@error?5opening?5?$CFs?6?$AA@ 00613838     be_aas_file.obj
 0003:00014850       ??_C@_0M@JKCPKPL@writing?5?$CFs?6?$AA@ 00613850     be_aas_file.obj
 0003:00014860       ??_C@_0CC@NOMCHAJ@?$CFs?3?5reference?5to?5unused?5index?5?$CFd@ 00613860     be_aas_main.obj
 0003:00014888       ??_C@_0BL@LKJOCOEM@?$CFs?3?5index?5?$CFd?5out?5of?5range?6?$AA@ 00613888     be_aas_main.obj
 0003:000148a8       ??_C@_0BI@OOMOACGM@?$CFs?3?5index?5?$CFd?5not?5setup?6?$AA@ 006138a8     be_aas_main.obj
 0003:000148c4       ??_C@_0BK@IEPMPCKO@?$CFs?3?5index?5not?5setup?5?$CC?$CFs?$CC?6?$AA@ 006138c4     be_aas_main.obj
 0003:000148e4       ??_C@_0P@FNFFGKPG@ModelFromIndex?$AA@ 006138e4     be_aas_main.obj
 0003:000148f8       ??_C@_0P@NMFGOFFJ@IndexFromModel?$AA@ 006138f8     be_aas_main.obj
 0003:0001490c       ??_C@_0BC@CLICPINC@AAS?5initialized?4?6?$AA@ 0061390c     be_aas_main.obj
 0003:00014924       ??_C@_0BD@KNDGFCCN@couldn?8t?5write?5?$CFs?6?$AA@ 00613924     be_aas_main.obj
 0003:0001493c       ??_C@_0BI@PECGHGFB@?$CFs?5written?5succesfully?6?$AA@ 0061393c     be_aas_main.obj
 0003:00014958       ??_C@_0M@MFMPGCMK@aasoptimize?$AA@ 00613958     be_aas_main.obj
 0003:00014968       ??_C@_0L@MNCDALON@forcewrite?$AA@ 00613968     be_aas_main.obj
 0003:00014978       ??_C@_0BB@GMCJAANP@saveroutingcache?$AA@ 00613978     be_aas_main.obj
 0003:0001498c       ??_C@_0L@JEKILDFB@memorydump?$AA@ 0061398c     be_aas_main.obj
 0003:0001499c       ??_C@_0BA@OBLODKFG@showmemoryusage?$AA@ 0061399c     be_aas_main.obj
 0003:000149b0       ??_C@_0BB@FOPILIHM@showcacheupdates?$AA@ 006139b0     be_aas_main.obj
 0003:000149c4       ??_C@_0L@EBHNEODC@loaded?5?$CFs?6?$AA@ 006139c4     be_aas_main.obj
 0003:000149d4       ??_C@_0M@BMODPEIJ@maps?1?$CFs?4aas?$AA@ 006139d4     be_aas_main.obj
 0003:000149e4       ??_C@_0M@KCCINJFC@maxentities?$AA@ 006139e4     be_aas_main.obj
 0003:000149f4       ??_C@_0L@JKCONGEA@maxclients?$AA@ 006139f4     be_aas_main.obj
 0003:00014a04       ??_C@_03KGFMDCCC@128?$AA@  00613a04     be_aas_main.obj
 0003:00014a08       ??_C@_0P@MCFJEJDN@AAS?5shutdown?4?6?$AA@ 00613a08     be_aas_main.obj
 0003:00014a1c       ??_C@_0BF@BABOLIN@rs_maxjumpfallheight?$AA@ 00613a1c     be_aas_move.obj
 0003:00014a38       ??_C@_03FMBEFOJN@450?$AA@  00613a38     be_aas_move.obj
 0003:00014a3c       ??_C@_0BB@EFAOPOH@rs_maxfallheight?$AA@ 00613a3c     be_aas_move.obj
 0003:00014a50       ??_C@_0BA@EIMKLMOE@rs_falldamage10?$AA@ 00613a50     be_aas_move.obj
 0003:00014a64       ??_C@_0P@DKDPFKAP@rs_falldamage5?$AA@ 00613a64     be_aas_move.obj
 0003:00014a78       ??_C@_0BB@CHLHBMFH@rs_startelevator?$AA@ 00613a78     be_aas_move.obj
 0003:00014a8c       ??_C@_0L@EDHEJKKK@rs_funcbob?$AA@ 00613a8c     be_aas_move.obj
 0003:00014a9c       ??_C@_0BI@BFCKOPFL@rs_aircontrolledjumppad?$AA@ 00613a9c     be_aas_move.obj
 0003:00014ab8       ??_C@_0L@BDNLAFIB@rs_jumppad?$AA@ 00613ab8     be_aas_move.obj
 0003:00014ac8       ??_C@_03HJHPABEB@250?$AA@  00613ac8     be_aas_move.obj
 0003:00014acc       ??_C@_0L@NKJOKCB@rs_bfgjump?$AA@ 00613acc     be_aas_move.obj
 0003:00014adc       ??_C@_0O@KLDHKDPG@rs_rocketjump?$AA@ 00613adc     be_aas_move.obj
 0003:00014aec       ??_C@_0N@DFNGJGCB@rs_startjump?$AA@ 00613aec     be_aas_move.obj
 0003:00014afc       ??_C@_0BF@EEBNNHGL@rs_startwalkoffledge?$AA@ 00613afc     be_aas_move.obj
 0003:00014b18       ??_C@_02PONMODAL@70?$AA@   00613b18     be_aas_move.obj
 0003:00014b1c       ??_C@_0BA@GKDMJAIB@rs_startgrapple?$AA@ 00613b1c     be_aas_move.obj
 0003:00014b30       ??_C@_03OCGDPLBD@500?$AA@  00613b30     be_aas_move.obj
 0003:00014b34       ??_C@_0P@LHMFFEKL@rs_startcrouch?$AA@ 00613b34     be_aas_move.obj
 0003:00014b48       ??_C@_03MHAIKEMP@300?$AA@  00613b48     be_aas_move.obj
 0003:00014b4c       ??_C@_0P@PHELIMLJ@rs_barrierjump?$AA@ 00613b4c     be_aas_move.obj
 0003:00014b60       ??_C@_0M@MEFOEMOE@rs_teleport?$AA@ 00613b60     be_aas_move.obj
 0003:00014b70       ??_C@_02PNFIDHGF@50?$AA@   00613b70     be_aas_move.obj
 0003:00014b74       ??_C@_0N@JKBBEPHH@rs_waterjump?$AA@ 00613b74     be_aas_move.obj
 0003:00014b84       ??_C@_0BB@HAKLBAKB@phys_falldelta10?$AA@ 00613b84     be_aas_move.obj
 0003:00014b98       ??_C@_02PPBOIJDM@60?$AA@   00613b98     be_aas_move.obj
 0003:00014b9c       ??_C@_0BA@IDFBNLKN@phys_falldelta5?$AA@ 00613b9c     be_aas_move.obj
 0003:00014bb0       ??_C@_02PMJKFNFC@40?$AA@   00613bb0     be_aas_move.obj
 0003:00014bb4       ??_C@_0N@CKBIGONB@phys_jumpvel?$AA@ 00613bb4     be_aas_move.obj
 0003:00014bc4       ??_C@_03HKPLNFCP@270?$AA@  00613bc4     be_aas_move.obj
 0003:00014bc8       ??_C@_0BA@MNKPJHJN@phys_maxbarrier?$AA@ 00613bc8     be_aas_move.obj
 0003:00014bdc       ??_C@_02NCPIBIBE@33?$AA@   00613bdc     be_aas_move.obj
 0003:00014be0       ??_C@_0BC@BGLDKCMB@phys_maxwaterjump?$AA@ 00613be0     be_aas_move.obj
 0003:00014bf8       ??_C@_02DCIIBFLB@18?$AA@   00613bf8     be_aas_move.obj
 0003:00014bfc       ??_C@_0BC@JMNKLJNN@phys_maxsteepness?$AA@ 00613bfc     be_aas_move.obj
 0003:00014c14       ??_C@_03IMEEBDJM@0?47?$AA@ 00613c14     be_aas_move.obj
 0003:00014c18       ??_C@_0N@OLIJKDDL@phys_maxstep?$AA@ 00613c18     be_aas_move.obj
 0003:00014c28       ??_C@_02CLJDCEPA@19?$AA@   00613c28     be_aas_move.obj
 0003:00014c2c       ??_C@_0BE@LDJBDLBF@phys_swimaccelerate?$AA@ 00613c2c     be_aas_move.obj
 0003:00014c44       ??_C@_0BD@NNGBBLHI@phys_airaccelerate?$AA@ 00613c44     be_aas_move.obj
 0003:00014c5c       ??_C@_0BE@FFIPDPFP@phys_walkaccelerate?$AA@ 00613c5c     be_aas_move.obj
 0003:00014c74       ??_C@_0BF@PMDEEHNA@phys_maxswimvelocity?$AA@ 00613c74     be_aas_move.obj
 0003:00014c90       ??_C@_03GLMKKOKP@150?$AA@  00613c90     be_aas_move.obj
 0003:00014c94       ??_C@_0BH@IOAMOCDB@phys_maxcrouchvelocity?$AA@ 00613c94     be_aas_move.obj
 0003:00014cb0       ??_C@_0BF@KDOBLJFP@phys_maxwalkvelocity?$AA@ 00613cb0     be_aas_move.obj
 0003:00014ccc       ??_C@_0BB@IJKKLCCL@phys_maxvelocity?$AA@ 00613ccc     be_aas_move.obj
 0003:00014ce0       ??_C@_03MEIMHAKB@320?$AA@  00613ce0     be_aas_move.obj
 0003:00014ce4       ??_C@_0BC@IMACIKDE@phys_watergravity?$AA@ 00613ce4     be_aas_move.obj
 0003:00014cfc       ??_C@_03FKNPJMHG@400?$AA@  00613cfc     be_aas_move.obj
 0003:00014d00       ??_C@_0BD@IPGBHKKJ@phys_waterfriction?$AA@ 00613d00     be_aas_move.obj
 0003:00014d18       ??_C@_0N@KOBDBIMP@phys_gravity?$AA@ 00613d18     be_aas_move.obj
 0003:00014d28       ??_C@_0P@HGIEEKKG@phys_stopspeed?$AA@ 00613d28     be_aas_move.obj
 0003:00014d3c       ??_C@_0O@KFCMEAKP@phys_friction?$AA@ 00613d3c     be_aas_move.obj
 0003:00014d4c       ??_C@_01DHDKHMHF@6?$AA@    00613d4c     be_aas_move.obj
 0003:00014d50       __real@4079000000000000    00613d50     be_aas_move.obj
 0003:00014d60       __real@4099000000000000    00613d60     be_aas_move.obj
 0003:00014d6c       __real@43480000            00613d6c     be_aas_move.obj
 0003:00014d70       __real@407f400000000000    00613d70     be_aas_move.obj
 0003:00014d7c       __real@42000000            00613d7c     be_aas_move.obj
 0003:00014d80       __real@c1c00000            00613d80     be_aas_move.obj
 0003:00014d84       __real@c1800000            00613d84     be_aas_move.obj
 0003:00014d88       __real@c1000000            00613d88     be_aas_move.obj
 0003:00014d8c       __real@42f00000            00613d8c     be_aas_move.obj
 0003:00014d90       __real@4048000000000000    00613d90     be_aas_move.obj
 0003:00014da0       __real@4036000000000000    00613da0     be_aas_move.obj
 0003:00014db0       __real@4044000000000000    00613db0     be_aas_move.obj
 0003:00014dc0       __real@bfd0000000000000    00613dc0     be_aas_move.obj
 0003:00014dcc       ??_C@_0BO@BLKMJPOB@PredictMovement?3?5start?5solid?6?$AA@ 00613dcc     be_aas_move.obj
 0003:00014df0       __real@c072c00000000000    00613df0     be_aas_move.obj
 0003:00014dfc       ??_C@_0O@IMGOLFOH@leave?5ground?6?$AA@ 00613dfc     be_aas_move.obj
 0003:00014e0c       __real@43600000            00613e0c     be_aas_move.obj
 0003:00014e10       ??_C@_0BF@OFBIEKCH@AAS?5data?5optimized?4?6?$AA@ 00613e10     be_aas_optimize.obj
 0003:00014e30       __real@3ff19999a0000000    00613e30     be_aas_reach.obj
 0003:00014e3c       ??_C@_0BL@CJDBHLDC@trigger_push?5without?5time?6?$AA@ 00613e3c     be_aas_reach.obj
 0003:00014e5c       ??_C@_06NHCMNMEH@origin?$AA@ 00613e5c     be_aas_reach.obj
 0003:00014e64       ??_C@_0CH@FACFDAAG@trigger_push?5without?5target?5enti@ 00613e64     be_aas_reach.obj
 0003:00014e94       ??_C@_0L@FEPNPAJD@targetname?$AA@ 00613e94     be_aas_reach.obj
 0003:00014ea4       ??_C@_06JJLAMBGK@target?$AA@ 00613ea4     be_aas_reach.obj
 0003:00014eac       ??_C@_0BK@JKILNG@trigger_push?5start?5solid?6?$AA@ 00613eac     be_aas_reach.obj
 0003:00014ed0       __real@4050000000000000    00613ed0     be_aas_reach.obj
 0003:00014edc       ??_C@_0CH@EKLAGLOI@trigger_push?5not?5in?5any?5jump?5pad@ 00613edc     be_aas_reach.obj
 0003:00014f0c       ??_C@_0N@CCJDLJOF@trigger_push?$AA@ 00613f0c     be_aas_reach.obj
 0003:00014f1c       ??_C@_09CNJINBGN@classname?$AA@ 00613f1c     be_aas_reach.obj
 0003:00014f28       ??_C@_0CH@PFPOMNKK@AAS_BestReachableArea?3?5aas?5not?5l@ 00613f28     be_aas_reach.obj
 0003:00014f58       ??_C@_0BJ@PIPGKHBD@AAS_MAX_REACHABILITYSIZE?$AA@ 00613f58     be_aas_reach.obj
 0003:00014f78       ??_C@_0CO@CAIPEICN@AAS_AreaReachability?3?5areanum?5?$CFd@ 00613f78     be_aas_reach.obj
 0003:00014fb0       __real@41124f8000000000    00613fb0     be_aas_reach.obj
 0003:00014fc0       __real@4089000000000000    00613fc0     be_aas_reach.obj
 0003:00014fd0       __real@402e000000000000    00613fd0     be_aas_reach.obj
 0003:00014fe0       __real@4038000000000000    00613fe0     be_aas_reach.obj
 0003:00014ff0       __real@3fe6666666666666    00613ff0     be_aas_reach.obj
 0003:00015000       __real@406e000000000000    00614000     be_aas_reach.obj
 0003:00015010       __real@c050000000000000    00614010     be_aas_reach.obj
 0003:00015020       __real@3ff0ccccc0000000    00614020     be_aas_reach.obj
 0003:00015030       __real@3ff3333340000000    00614030     be_aas_reach.obj
 0003:0001503c       __real@43c80000            0061403c     be_aas_reach.obj
 0003:00015040       __real@497423f0            00614040     be_aas_reach.obj
 0003:00015048       __real@c014000000000000    00614048     be_aas_reach.obj
 0003:00015058       __real@c02e000000000000    00614058     be_aas_reach.obj
 0003:00015068       __real@c008000000000000    00614068     be_aas_reach.obj
 0003:00015078       __real@c040000000000000    00614078     be_aas_reach.obj
 0003:00015084       __real@c61c3c00            00614084     be_aas_reach.obj
 0003:00015088       ??_C@_0M@GAOGDGCN@bot_notteam?$AA@ 00614088     be_aas_reach.obj
 0003:00015098       ??_C@_0CC@HLGOOKDO@trigger_multiple?5not?5in?5any?5area@ 00614098     be_aas_reach.obj
 0003:000150c0       ??_C@_0CK@HGLAMBGC@teleported?5into?5slime?5or?5lava?5at@ 006140c0     be_aas_reach.obj
 0003:000150f4       ??_C@_05FECBCJJD@angle?$AA@ 006140f4     be_aas_reach.obj
 0003:000150fc       ??_C@_0CG@CEMGMOAN@teleporter?5destination?5?$CI?$CFs?$CJ?5in?5s@ 006140fc     be_aas_reach.obj
 0003:0001512c       ??_C@_0CM@CLBMAOHE@teleporter?5destination?5?$CI?$CFs?$CJ?5with@ 0061412c     be_aas_reach.obj
 0003:00015160       ??_C@_0CO@NOOGBJFD@teleporter?5without?5misc_teleport@ 00614160     be_aas_reach.obj
 0003:00015198       ??_C@_0DG@PNPCBHNC@trigger_teleport?5at?5?$CF1?40f?5?$CF1?40f?5@ 00614198     be_aas_reach.obj
 0003:000151d8       ??_C@_0BP@MFGNJEFC@trigger_teleport?5model?5?$DN?5?$CC?$CFs?$CC?6?$AA@ 006141d8     be_aas_reach.obj
 0003:00015200       ??_C@_0BB@COMMHECA@trigger_teleport?$AA@ 00614200     be_aas_reach.obj
 0003:00015214       ??_C@_0CC@NGDNGGBL@target_teleporter?5without?5target@ 00614214     be_aas_reach.obj
 0003:0001523c       ??_C@_0BC@GJLLMIEM@target_teleporter?$AA@ 0061423c     be_aas_reach.obj
 0003:00015254       ??_C@_0DG@BADEBAMF@trigger_multiple?5at?5?$CF1?40f?5?$CF1?40f?5@ 00614254     be_aas_reach.obj
 0003:00015294       ??_C@_0BP@HIGEPBIN@trigger_multiple?5model?5?$DN?5?$CC?$CFs?$CC?6?$AA@ 00614294     be_aas_reach.obj
 0003:000152bc       ??_C@_0BB@LKHFHPEP@trigger_multiple?$AA@ 006142bc     be_aas_reach.obj
 0003:000152d0       ??_C@_06LNLHEAAG@height?$AA@ 006142d0     be_aas_reach.obj
 0003:000152d8       ??_C@_03MHHCOBAB@lip?$AA@  006142d8     be_aas_reach.obj
 0003:000152dc       ??_C@_0CF@BDBFALFG@func_plat?5with?5invalid?5model?5num@ 006142dc     be_aas_reach.obj
 0003:00015308       ??_C@_0BJ@LDMJPEKH@func_plat?5without?5model?6?$AA@ 00614308     be_aas_reach.obj
 0003:00015328       ??_C@_09HCDLIOGG@func_plat?$AA@ 00614328     be_aas_reach.obj
 0003:00015338       __real@4060000000000000    00614338     be_aas_reach.obj
 0003:00015348       __real@4068000000000000    00614348     be_aas_reach.obj
 0003:00015354       ??_C@_0CC@PCNLLMDF@funcbob?5reach?5from?5area?5?$CFd?5to?5?$CFd@ 00614354     be_aas_reach.obj
 0003:00015380       ??_C@_0EN@JGFDJKIH@funcbob?5model?5?$CFd?0?5start?5?$DN?5?$HL?$CF1?41f@ 00614380     be_aas_reach.obj
 0003:000153dc       ??_C@_0L@HLIKNEFC@spawnflags?$AA@ 006143dc     be_aas_reach.obj
 0003:000153ec       ??_C@_0CI@BJOEBEBE@func_bobbing?5with?5invalid?5model?5@ 006143ec     be_aas_reach.obj
 0003:0001541c       ??_C@_0BM@HGBLGKHA@func_bobbing?5without?5model?6?$AA@ 0061441c     be_aas_reach.obj
 0003:00015440       ??_C@_0N@BAMIHEIF@func_bobbing?$AA@ 00614440     be_aas_reach.obj
 0003:00015450       __real@4062c00000000000    00614450     be_aas_reach.obj
 0003:0001545c       ??_C@_0CN@NDLDAEHG@found?5a?5trigger_push?5with?5veloci@ 0061445c     be_aas_reach.obj
 0003:00015498       __real@c07f400000000000    00614498     be_aas_reach.obj
 0003:000154a8       __real@401921fb60000000    006144a8     be_aas_reach.obj
 0003:000154b8       __real@409f400000000000    006144b8     be_aas_reach.obj
 0003:000154c4       ??_C@_0CE@GGDNMGF@area?5?$CFd?5center?5?$CFf?5?$CFf?5?$CFf?5in?5solid@ 006144c4     be_aas_reach.obj
 0003:000154f0       ??_C@_0BG@HCGBEFOB@?$CFd?5weapon?5jump?5areas?6?$AA@ 006144f0     be_aas_reach.obj
 0003:0001550c       ??_C@_0CE@GABHNCEE@?$CFs?5in?5solid?5at?5?$CI?$CF1?41f?5?$CF1?41f?5?$CF1?41@ 0061450c     be_aas_reach.obj
 0003:00015538       ??_C@_0BF@ILDMGFED@item_invulnerability?$AA@ 00614538     be_aas_reach.obj
 0003:00015554       ??_C@_0L@MMGPPPDM@item_regen?$AA@ 00614554     be_aas_reach.obj
 0003:00015564       ??_C@_09MDKNIFFH@item_quad?$AA@ 00614564     be_aas_reach.obj
 0003:00015570       ??_C@_0L@JBGNLNGG@weapon_bfg?$AA@ 00614570     be_aas_reach.obj
 0003:00015580       ??_C@_0P@FEPBKEBF@weapon_railgun?$AA@ 00614580     be_aas_reach.obj
 0003:00015594       ??_C@_0BB@LBHAKENA@weapon_plasmagun?$AA@ 00614594     be_aas_reach.obj
 0003:000155a8       ??_C@_0BB@OCCEAFCD@weapon_lightning?$AA@ 006145a8     be_aas_reach.obj
 0003:000155bc       ??_C@_0BG@HJKONAJE@weapon_rocketlauncher?$AA@ 006145bc     be_aas_reach.obj
 0003:000155d8       ??_C@_0BH@DGCCJPLM@weapon_grenadelauncher?$AA@ 006145d8     be_aas_reach.obj
 0003:000155f4       ??_C@_0BB@PBGAONGH@item_health_mega?$AA@ 006145f4     be_aas_reach.obj
 0003:00015608       ??_C@_0BC@FPPLPJIL@item_armor_combat?$AA@ 00614608     be_aas_reach.obj
 0003:00015620       ??_C@_0BA@EKKMHIH@item_armor_body?$AA@ 00614620     be_aas_reach.obj
 0003:00015638       __real@4072c00000000000    00614638     be_aas_reach.obj
 0003:00015644       ??_C@_0BJ@MGEPEAF@calculating?5clusters?4?4?4?6?$AA@ 00614644     be_aas_reach.obj
 0003:00015664       ??_C@_0CM@JBJKNNFH@?6please?5wait?5while?5storing?5reach@ 00614664     be_aas_reach.obj
 0003:00015698       ??_C@_08PLEDPJBP@?$AN?$CF6?41f?$CF?$CF?$AA@ 00614698     be_aas_reach.obj
 0003:000156a4       __real@44fa0000            006146a4     be_aas_reach.obj
 0003:000156a8       ??_C@_0BN@PENKEBEJ@calculating?5reachability?4?4?4?6?$AA@ 006146a8     be_aas_reach.obj
 0003:000156cc       ??_C@_0N@PBBHPDFE@grapplereach?$AA@ 006146cc     be_aas_reach.obj
 0003:000156dc       ??_C@_0BI@PLPAKMFI@?$CFd?5bytes?5routing?5cache?6?$AA@ 006146dc     be_aas_route.obj
 0003:000156f8       ??_C@_0BJ@FFMFFMFH@?$CFd?5portal?5cache?5updates?6?$AA@ 006146f8     be_aas_route.obj
 0003:00015718       ??_C@_0BH@IMJGLBBE@?$CFd?5area?5cache?5updates?6?$AA@ 00614718     be_aas_route.obj
 0003:00015734       ??_C@_0DA@BGBJJEEH@AAS_EnableRoutingArea?3?5areanum?5?$CF@ 00614734     be_aas_route.obj
 0003:00015770       ??_C@_0CK@NIAJBAAO@area?5?$CFd?5has?5more?5than?5128?5reacha@ 00614770     be_aas_route.obj
 0003:000157a8       __real@3fd51eb860000000    006147a8     be_aas_route.obj
 0003:000157b8       __real@3ff4ccccc0000000    006147b8     be_aas_route.obj
 0003:000157c4       ??_C@_0BL@PJMGPMOB@AAS_CreateAllRoutingCache?6?$AA@ 006147c4     be_aas_route.obj
 0003:000157e4       ??_C@_0CD@PPPFMKKL@written?5?$CFd?5bytes?5of?5routing?5cach@ 006147e4     be_aas_route.obj
 0003:00015810       ??_C@_0BM@DAFGPIEG@?6route?5cache?5written?5to?5?$CFs?6?$AA@ 00614810     be_aas_route.obj
 0003:00015834       ??_C@_0BJ@HCPGIGFI@Unable?5to?5open?5file?3?5?$CFs?6?$AA@ 00614834     be_aas_route.obj
 0003:00015854       ??_C@_0M@FIEIFMAA@maps?1?$CFs?4rcd?$AA@ 00614854     be_aas_route.obj
 0003:00015864       ??_C@_0DE@BIPEEDLP@route?5cache?5dump?5has?5wrong?5versi@ 00614864     be_aas_route.obj
 0003:000158a4       ??_C@_0BO@JKLJGLEA@?$CFs?5is?5not?5a?5route?5cache?5dump?6?$AA@ 006148a4     be_aas_route.obj
 0003:000158c8       ??_C@_0BB@KOMOOHGO@max_routingcache?$AA@ 006148c8     be_aas_route.obj
 0003:000158dc       ??_C@_04DPPBKBGP@4096?$AA@ 006148dc     be_aas_route.obj
 0003:000158e4       ??_C@_0DL@EBFGAMIN@AAS_AreaTravelTimeToGoalArea?3?5go@ 006148e4     be_aas_route.obj
 0003:0001592c       ??_C@_0DH@NEAPKHCH@AAS_AreaTravelTimeToGoalArea?3?5ar@ 0061492c     be_aas_route.obj
 0003:00015970       ??_C@_0EB@MCKKKILC@AAS_NextAreaReachability?3?5reachn@ 00614970     be_aas_route.obj
 0003:000159c0       ??_C@_0DD@INGMKBAA@AAS_NextAreaReachability?3?5areanu@ 006149c0     be_aas_route.obj
 0003:00015a00       ??_C@_0CC@HHIKNNJF@area?5?$CFd?5center?5?$CFf?5?$CFf?5?$CFf?5in?5solid@ 00614a00     be_aas_route.obj
 0003:00015a28       ??_C@_0BE@ICPCLNOB@?$CFd?5midrange?5area?5?$CFd?$AA@ 00614a28     be_aas_routealt.obj
 0003:00015a40       __real@3fe99999a0000000    00614a40     be_aas_routealt.obj
 0003:00015a4c       ??_C@_0DE@DAMFACPE@AAS_PresenceTypeBoundingBox?3?5unk@ 00614a4c     be_aas_sample.obj
 0003:00015a8c       ??_C@_0N@PMPJOGOE@max_aaslinks?$AA@ 00614a8c     be_aas_sample.obj
 0003:00015a9c       ??_C@_04MHGDGELL@6144?$AA@ 00614a9c     be_aas_sample.obj
 0003:00015aa4       ??_C@_0BF@KNNPFKDB@empty?5aas?5link?5heap?6?$AA@ 00614aa4     be_aas_sample.obj
 0003:00015ac0       ??_C@_0CC@DPIPPCFJ@AAS_PointAreaNum?3?5aas?5not?5loaded@ 00614ac0     be_aas_sample.obj
 0003:00015ae8       ??_C@_0CG@BJGNCCMO@AAS_AreaCluster?3?5invalid?5area?5nu@ 00614ae8     be_aas_sample.obj
 0003:00015b18       ??_C@_0CL@HEHPOKDE@AAS_AreaPresenceType?3?5invalid?5ar@ 00614b18     be_aas_sample.obj
 0003:00015b50       __real@bf50624dd2f1a9fc    00614b50     be_aas_sample.obj
 0003:00015b5c       __real@3f7fbe77            00614b5c     be_aas_sample.obj
 0003:00015b60       __real@3f50624de0000000    00614b60     be_aas_sample.obj
 0003:00015b6c       ??_C@_0CG@KBEHGJIJ@AAS_TraceBoundingBox?3?5stack?5over@ 00614b6c     be_aas_sample.obj
 0003:00015ba0       __real@bfc0000000000000    00614ba0     be_aas_sample.obj
 0003:00015bac       ??_C@_0CA@MKOIMAGJ@AAS_TraceAreas?3?5stack?5overflow?6?$AA@ 00614bac     be_aas_sample.obj
 0003:00015bd4       __real@3c23d70a            00614bd4     be_aas_sample.obj
 0003:00015bd8       ??_C@_0CA@CLALHCAJ@AAS_LinkEntity?3?5stack?5overflow?6?$AA@ 00614bd8     be_aas_sample.obj
 0003:00015c00       ??_C@_0CA@PMAJPFFP@AAS_LinkEntity?3?5aas?5not?5loaded?6?$AA@ 00614c00     be_aas_sample.obj
 0003:00015c28       ??_C@_0CH@FGLCKOMK@AAS_AreaInfo?3?5areanum?5?$CFd?5out?5of?5@ 00614c28     be_aas_sample.obj
 0003:00015c58       ??_C@_0BG@MOINIJPL@invalid?5character?5?$CFd?6?$AA@ 00614c58     be_ai_char.obj
 0003:00015c74       ??_C@_0CC@MOFCJGCF@character?5handle?5?$CFd?5out?5of?5range@ 00614c74     be_ai_char.obj
 0003:00015c9c       ??_C@_02KGHIDFGE@?$HN?6?$AA@ 00614c9c     be_ai_char.obj
 0003:00015ca0       ??_C@_08BPKNIHEG@?5?$CF4d?5?$CFs?6?$AA@ 00614ca0     be_ai_char.obj
 0003:00015cac       ??_C@_08FEAOGNN@?5?$CF4d?5?$CFf?6?$AA@ 00614cac     be_ai_char.obj
 0003:00015cb8       ??_C@_08GMEDCLD@?5?$CF4d?5?$CFd?6?$AA@ 00614cb8     be_ai_char.obj
 0003:00015cc4       ??_C@_02KCPFEJNG@?$HL?6?$AA@ 00614cc4     be_ai_char.obj
 0003:00015cc8       ??_C@_0M@KMOFGPLG@skill?5?$CF?41f?6?$AA@ 00614cc8     be_ai_char.obj
 0003:00015cd8       ??_C@_0BH@JEMDOFNP@unknown?5definition?5?$CFs?6?$AA@ 00614cd8     be_ai_char.obj
 0003:00015cf4       ??_C@_0CN@FGECCABF@expected?5integer?0?5float?5or?5strin@ 00614cf4     be_ai_char.obj
 0003:00015d2c       ??_C@_0CH@LHHMLMDG@characteristic?5?$CFd?5already?5initia@ 00614d2c     be_ai_char.obj
 0003:00015d5c       ??_C@_0CL@PPLBNLNK@characteristic?5index?5out?5of?5rang@ 00614d5c     be_ai_char.obj
 0003:00015d90       ??_C@_0CC@HINMPLM@expected?5integer?5index?0?5found?5?$CFs@ 00614d90     be_ai_char.obj
 0003:00015db8       ??_C@_05ODMCMJAJ@skill?$AA@ 00614db8     be_ai_char.obj
 0003:00015dc0       ??_C@_0BD@IJKNLBNC@counldn?8t?5load?5?$CFs?6?$AA@ 00614dc0     be_ai_char.obj
 0003:00015dd8       ??_C@_08LPOJGGC@botfiles?$AA@ 00614dd8     be_ai_char.obj
 0003:00015de4       ??_C@_0CB@MKGIENMG@couldn?8t?5load?5any?5skill?5from?5?$CFs?6@ 00614de4     be_ai_char.obj
 0003:00015e0c       ??_C@_0CB@OBHKNOIO@loaded?5default?5skill?5?$CFf?5from?5?$CFs?6@ 00614e0c     be_ai_char.obj
 0003:00015e34       ??_C@_0CI@NPODPODE@loaded?5cached?5default?5skill?5?$CFf?5f@ 00614e34     be_ai_char.obj
 0003:00015e64       ??_C@_0BJ@EMLEGOCJ@loaded?5skill?5?$CFf?5from?5?$CFs?6?$AA@ 00614e64     be_ai_char.obj
 0003:00015e84       ??_C@_0CB@LJBGGHEP@loaded?5default?5skill?5?$CFd?5from?5?$CFs?6@ 00614e84     be_ai_char.obj
 0003:00015eac       ??_C@_0CI@IHIPEHPF@loaded?5cached?5default?5skill?5?$CFd?5f@ 00614eac     be_ai_char.obj
 0003:00015edc       ??_C@_0BB@OCLCLNLB@bots?1default_c?4c?$AA@ 00614edc     be_ai_char.obj
 0003:00015ef0       ??_C@_0BO@KHBDCBON@couldn?8t?5find?5skill?5?$CFd?5in?5?$CFs?6?$AA@ 00614ef0     be_ai_char.obj
 0003:00015f14       ??_C@_0BJ@BENINHOI@loaded?5skill?5?$CFd?5from?5?$CFs?6?$AA@ 00614f14     be_ai_char.obj
 0003:00015f34       ??_C@_0CA@CAABAEMN@loaded?5cached?5skill?5?$CFf?5from?5?$CFs?6?$AA@ 00614f34     be_ai_char.obj
 0003:00015f5c       __real@40a00000            00614f5c     be_ai_char.obj
 0003:00015f60       ??_C@_0CG@PKODDELM@characteristic?5?$CFd?5is?5not?5initial@ 00614f60     be_ai_char.obj
 0003:00015f90       ??_C@_0CC@FCGCALKF@characteristic?5?$CFd?5does?5not?5exist@ 00614f90     be_ai_char.obj
 0003:00015fb8       ??_C@_0CC@DHDJPPBG@characteristic?5?$CFd?5is?5not?5a?5float@ 00614fb8     be_ai_char.obj
 0003:00015fe0       ??_C@_0DC@DHJFBIJH@cannot?5bound?5characteristic?5?$CFd?5b@ 00614fe0     be_ai_char.obj
 0003:0001601c       ??_C@_0CE@LLNBHBFO@characteristic?5?$CFd?5is?5not?5a?5integ@ 0061501c     be_ai_char.obj
 0003:00016048       ??_C@_0DC@DAOEBMME@cannot?5bound?5characteristic?5?$CFd?5b@ 00615048     be_ai_char.obj
 0003:00016084       ??_C@_0CD@JOPFDMMO@characteristic?5?$CFd?5is?5not?5a?5strin@ 00615084     be_ai_char.obj
 0003:000160b0       ??_C@_0BH@BOBFFKKN@invalid?5chat?5state?5?$CFd?6?$AA@ 006150b0     be_ai_chat.obj
 0003:000160cc       ??_C@_0CD@PNOBECBL@chat?5state?5handle?5?$CFd?5out?5of?5rang@ 006150cc     be_ai_chat.obj
 0003:000160f8       ??_C@_0N@CLOBICAF@max_messages?$AA@ 006150f8     be_ai_chat.obj
 0003:00016108       ??_C@_0BM@BPJKPONG@empty?5console?5message?5heap?6?$AA@ 00615108     be_ai_chat.obj
 0003:0001612c       ??_C@_02JODFHDIE@?$FN?6?$AA@ 0061512c     be_ai_chat.obj
 0003:00016130       ??_C@_02KEGNLNML@?0?5?$AA@ 00615130     be_ai_chat.obj
 0003:00016134       ??_C@_0O@EMHOANHL@?$CI?$CC?$CFs?$CC?0?5?$CF1?42f?$CJ?$AA@ 00615134     be_ai_chat.obj
 0003:00016144       ??_C@_07MLGNNCMH@?$CFld?5?3?5?$FL?$AA@ 00615144     be_ai_chat.obj
 0003:00016150       ??_C@_09DKCHGKCM@missing?5?$HN?$AA@ 00615150     be_ai_chat.obj
 0003:0001615c       ??_C@_0O@EIFOHJCH@unexpected?5?$CFs?$AA@ 0061515c     be_ai_chat.obj
 0003:0001616c       ??_C@_0CI@PKNFOMEN@synonym?5must?5have?5at?5least?5two?5e@ 0061516c     be_ai_chat.obj
 0003:0001619c       ??_C@_01LBDDMOBJ@?$FN?$AA@ 0061519c     be_ai_chat.obj
 0003:000161a0       ??_C@_01IHBHIGKO@?0?$AA@   006151a0     be_ai_chat.obj
 0003:000161a4       ??_C@_0N@BBKGEIBC@empty?5string?$AA@ 006151a4     be_ai_chat.obj
 0003:000161b4       ??_C@_01OHGJGJJP@?$FL?$AA@ 006151b4     be_ai_chat.obj
 0003:000161b8       ??_C@_0L@DLODIKAH@too?5many?5?$HN?$AA@ 006151b8     be_ai_chat.obj
 0003:000161c8       ??_C@_0BM@OMAMOJNI@more?5than?532?5context?5levels?$AA@ 006151c8     be_ai_chat.obj
 0003:000161ec       ??_C@_01ICJEACDI@?$DL?$AA@ 006151ec     be_ai_chat.obj
 0003:000161f0       ??_C@_0BO@IKGHDNCH@unknown?5message?5component?5?$CFs?6?$AA@ 006151f0     be_ai_chat.obj
 0003:00016214       ??_C@_07NHACKFHP@?$CFcr?$CFs?$CFc?$AA@ 00615214     be_ai_chat.obj
 0003:00016220       ??_C@_08MPPNLMAG@?$CFcv?$CFld?$CFc?$AA@ 00615220     be_ai_chat.obj
 0003:0001622c       ??_C@_0BH@MIBABKMH@chat?5message?5too?5long?6?$AA@ 0061522c     be_ai_chat.obj
 0003:00016248       ??_C@_04OEDFLLKD@?$CC?$CFs?$CC?$AA@ 00615248     be_ai_chat.obj
 0003:00016250       ??_C@_06EFKGKAHA@?$CFs?5?$DN?5?$HL?$AA@ 00615250     be_ai_chat.obj
 0003:00016258       ??_C@_01NEMOKFLO@?$DN?$AA@ 00615258     be_ai_chat.obj
 0003:0001625c       ??_C@_0BC@BAMLPFKF@unknown?5random?5?$CFs?$AA@ 0061525c     be_ai_chat.obj
 0003:00016274       ??_C@_0P@OACPPOMP@?5?$DN?5?$CI?$CFd?0?5?$CFd?$CJ?$DL?$HN?6?$AA@ 00615274     be_ai_chat.obj
 0003:00016288       ??_C@_01DNKMNLPK@?$HM?$AA@ 00615288     be_ai_chat.obj
 0003:0001628c       ??_C@_02MNJOIFPO@?$HL?5?$AA@ 0061528c     be_ai_chat.obj
 0003:00016290       ??_C@_0BC@KAKFIJOK@invalid?5token?5?$CFs?6?$AA@ 00615290     be_ai_chat.obj
 0003:000162a8       ??_C@_0CI@ELCFAGFH@not?5allowed?5to?5have?5adjacent?5var@ 006152a8     be_ai_chat.obj
 0003:000162d8       ??_C@_0CJ@LJIMHIAM@can?8t?5have?5more?5than?5?$CFd?5match?5va@ 006152d8     be_ai_chat.obj
 0003:0001630c       ??_C@_0BM@HHFBANAI@expected?5integer?0?5found?5?$CFs?6?$AA@ 0061530c     be_ai_chat.obj
 0003:00016330       ??_C@_1FG@GHJHNHMJ@?$AAm?$AAa?$AAt?$AAc?$AAh?$AA?9?$AA?$DO?$AAv?$AAa?$AAr?$AAi?$AAa?$AAb?$AAl?$AAe?$AAs?$AA?$FL?$AAl?$AAa?$AAs?$AAt?$AAv?$AAa?$AAr?$AAi?$AAa?$AAb?$AAl?$AAe?$AA?$FN?$AA?4?$AAo@ 00615330     be_ai_chat.obj
 0003:00016398       ??_C@_1IA@MHJODDCG@?$AAc?$AA?3?$AA?2?$AAw?$AAe?$AAb?$AA?2?$AAt?$AAr?$AAe?$AAp?$AAd?$AAe?$AAv?$AA?2?$AAt?$AAr?$AAe?$AAp?$AAi?$AAd?$AAa?$AAt?$AAi?$AAo?$AAn?$AA?2?$AAt?$AAr?$AAe?$AAp?$AA?9@ 00615398     be_ai_chat.obj
 0003:00016438       ??_C@_1EO@FCMBPCOM@?$AAm?$AAa?$AAt?$AAc?$AAh?$AA?9?$AA?$DO?$AAv?$AAa?$AAr?$AAi?$AAa?$AAb?$AAl?$AAe?$AAs?$AA?$FL?$AAv?$AAa?$AAr?$AAi?$AAa?$AAb?$AAl?$AAe?$AA?$FN?$AA?4?$AAo?$AAf?$AAf?$AAs?$AAe@ 00615438     be_ai_chat.obj
 0003:00016498       ??_C@_0CJ@BGCLGFPJ@BotMatchVariable?3?5variable?5out?5o@ 00615498     be_ai_chat.obj
 0003:000164d0       ??_C@_0EA@MFJADLPG@BotCheckChatMessageIntegrety?3?5me@ 006154d0     be_ai_chat.obj
 0003:0001651c       ??_C@_0BP@IFMKLFPG@?$CFs?5?$DN?5?$HL?$CC?$CFs?$CC?$HN?5?1?1MISSING?5RANDOM?$AN?6?$AA@ 0061551c     be_ai_chat.obj
 0003:00016544       ??_C@_07OMEJJINM@?7?$CC?$CFs?$CC?$DL?6?$AA@ 00615544     be_ai_chat.obj
 0003:00016550       ??_C@_0L@CEMLGMNM@?$FN?5?$DN?5?$CF1?40f?6?$AA@ 00615550     be_ai_chat.obj
 0003:00016560       ??_C@_02MOLGKLA@it?$AA@    00615560     be_ai_chat.obj
 0003:00016564       ??_C@_06GJLDEJIL@female?$AA@ 00615564     be_ai_chat.obj
 0003:0001656c       ??_C@_01DCLJPIOD@?$CB?$AA@ 0061556c     be_ai_chat.obj
 0003:00016570       ??_C@_01HNPIGOCE@?$CG?$AA@ 00615570     be_ai_chat.obj
 0003:00016574       ??_C@_0BD@FIJOIEDC@BotDumpReplyChat?3?6?$AA@ 00615574     be_ai_chat.obj
 0003:00016590       ??_C@_0FP@CMPNKFLO@variables?5from?5the?5match?5templat@ 00615590     be_ai_chat.obj
 0003:00016604       ??_C@_0BO@PNMCIEEB@all?5keys?5have?5a?5?$CG?5or?5?$CB?5prefix?$AA@ 00615604     be_ai_chat.obj
 0003:00016628       ??_C@_0EA@FPBKDDJB@the?5key?5?$CFs?5with?5prefix?5?$CB?5is?5insi@ 00615628     be_ai_chat.obj
 0003:00016674       ??_C@_0CO@FOMEJLFB@the?5key?5?$CFs?5with?5prefix?5?$CB?5is?5insi@ 00615674     be_ai_chat.obj
 0003:000166b0       ??_C@_0FB@GIBDPBLM@one?5of?5the?5match?5templates?5does?5@ 006156b0     be_ai_chat.obj
 0003:00016714       ??_C@_0L@GIBMDEGE@no?5rchats?6?$AA@ 00615714     be_ai_chat.obj
 0003:00016724       __real@c2200000            00615724     be_ai_chat.obj
 0003:00016728       ??_C@_01PPODPGHN@?$DO?$AA@ 00615728     be_ai_chat.obj
 0003:0001672c       ??_C@_01MNNFJEPP@?$DM?$AA@ 0061572c     be_ai_chat.obj
 0003:00016730       ??_C@_0BF@NHLDPIBI@expected?5?$FL?0?5found?5?$CFs?$AA@ 00615730     be_ai_chat.obj
 0003:0001674c       ??_C@_02KCGCGHLG@?5?$HN?$AA@ 0061574c     be_ai_chat.obj
 0003:00016750       ??_C@_06HHGKKPGK@?5?5?$CC?$CFs?$CC?$AA@ 00615750     be_ai_chat.obj
 0003:00016758       ??_C@_0BH@BCOGOEDC@?5?5numchatmessages?5?$DN?5?$CFd?$AA@ 00615758     be_ai_chat.obj
 0003:00016774       ??_C@_02PEDIMADA@?5?$HL?$AA@ 00615774     be_ai_chat.obj
 0003:00016778       ??_C@_0L@BONMNFAN@?5type?5?$CC?$CFs?$CC?$AA@ 00615778     be_ai_chat.obj
 0003:00016788       ??_C@_0BD@KLGBKGBL@loaded?5?$CFs?5from?5?$CFs?6?$AA@ 00615788     be_ai_chat.obj
 0003:000167a0       ??_C@_0BN@OAGFKFDD@couldn?8t?5find?5chat?5?$CFs?5in?5?$CFs?6?$AA@ 006157a0     be_ai_chat.obj
 0003:000167c4       ??_C@_0BI@CHLNDHKD@expected?5type?5found?5?$CFs?6?$AA@ 006157c4     be_ai_chat.obj
 0003:000167e0       ??_C@_04GPMDFGEJ@type?$AA@ 006157e0     be_ai_chat.obj
 0003:000167e8       ??_C@_04BLJLMHHG@chat?$AA@ 006157e8     be_ai_chat.obj
 0003:000167f0       ??_C@_0BP@MBDJBKIB@couldn?8t?5load?5chat?5?$CFs?5from?5?$CFs?6?$AA@ 006157f0     be_ai_chat.obj
 0003:00016818       ??_C@_0DF@IIKAMBDG@ichatdata?5table?5full?$DL?5couldn?8t?5l@ 00615818     be_ai_chat.obj
 0003:00016858       ??_C@_0DE@BBIMJEKM@BotConstructChat?3?5message?5?$CC?$CFs?$CC?5i@ 00615858     be_ai_chat.obj
 0003:00016898       ??_C@_0CJ@EDLCIPGI@BotConstructChat?3?5message?5?$CC?$CFs?$CC?5t@ 00615898     be_ai_chat.obj
 0003:000168cc       ??_C@_0CM@GBHEGLKK@BotConstructChat?3?5unknown?5random@ 006158cc     be_ai_chat.obj
 0003:00016900       ??_C@_0CH@JOHLJANI@BotConstructChat?3?5message?5?$CFs?5too@ 00615900     be_ai_chat.obj
 0003:00016930       ??_C@_1EE@NIHDDICO@?$AAm?$AAa?$AAt?$AAc?$AAh?$AA?9?$AA?$DO?$AAv?$AAa?$AAr?$AAi?$AAa?$AAb?$AAl?$AAe?$AAs?$AA?$FL?$AAn?$AAu?$AAm?$AA?$FN?$AA?4?$AAo?$AAf?$AAf?$AAs?$AAe?$AAt?$AA?5?$AA?$DO?$AA?$DN?$AA?5@ 00615930     be_ai_chat.obj
 0003:00016984       ??_C@_0DH@JNLFODLL@BotConstructChat?3?5message?5?$CFs?5var@ 00615984     be_ai_chat.obj
 0003:000169c8       ??_C@_0CF@FFFEONNP@too?5many?5expansions?5in?5chat?5mess@ 006159c8     be_ai_chat.obj
 0003:000169f4       ??_C@_0BF@JOLBPMPB@?9?9?9?9?9?9?9?9?9?9?9?9?9?9?9?9?9?9?9?6?$AA@ 006159f4     be_ai_chat.obj
 0003:00016a10       ??_C@_0BG@DAIPIBLI@?$CFs?5has?5?$CFd?5chat?5lines?6?$AA@ 00615a10     be_ai_chat.obj
 0003:00016a2c       ??_C@_06BCNPLFHG@say?5?$CFs?$AA@ 00615a2c     be_ai_chat.obj
 0003:00016a34       ??_C@_0L@LOJGBKIG@tell?5?$CFd?5?$CFs?$AA@ 00615a34     be_ai_chat.obj
 0003:00016a44       ??_C@_0M@CICLJBLC@say_team?5?$CFs?$AA@ 00615a44     be_ai_chat.obj
 0003:00016a54       ??_C@_09DMEAFLAH@rchatfile?$AA@ 00615a54     be_ai_chat.obj
 0003:00016a60       ??_C@_07BGFNFHIM@rchat?4c?$AA@ 00615a60     be_ai_chat.obj
 0003:00016a6c       ??_C@_06GCPOGFCC@nochat?$AA@ 00615a6c     be_ai_chat.obj
 0003:00016a74       ??_C@_09MIMFOEJ@matchfile?$AA@ 00615a74     be_ai_chat.obj
 0003:00016a80       ??_C@_07DAECBMIF@match?4c?$AA@ 00615a80     be_ai_chat.obj
 0003:00016a8c       ??_C@_07DFFPFLEN@rndfile?$AA@ 00615a8c     be_ai_chat.obj
 0003:00016a98       ??_C@_05OGJCAIGA@rnd?4c?$AA@ 00615a98     be_ai_chat.obj
 0003:00016aa0       ??_C@_07PKBHNKPF@synfile?$AA@ 00615aa0     be_ai_chat.obj
 0003:00016aac       ??_C@_05JALDHADD@syn?4c?$AA@ 00615aac     be_ai_chat.obj
 0003:00016ab4       ??_C@_0DF@LNJENCAM@GeneticParentsAndChildSelection?3@ 00615ab4     be_ai_gen.obj
 0003:00016af4       ??_C@_0DA@GJMCOLIK@GeneticParentsAndChildSelection?3@ 00615af4     be_ai_gen.obj
 0003:00016b30       ??_C@_04IFBFDIKF@maxs?$AA@ 00615b30     be_ai_goal.obj
 0003:00016b38       ??_C@_04FIAKMPII@mins?$AA@ 00615b38     be_ai_goal.obj
 0003:00016b40       ??_C@_0M@JFIMPIHC@respawntime?$AA@ 00615b40     be_ai_goal.obj
 0003:00016b50       ??_C@_05FKHKFDID@index?$AA@ 00615b50     be_ai_goal.obj
 0003:00016b58       ??_C@_0BH@PLLAAOAM@invalid?5goal?5state?5?$CFd?6?$AA@ 00615b58     be_ai_goal.obj
 0003:00016b74       ??_C@_0CD@HELJPMIG@goal?5state?5handle?5?$CFd?5out?5of?5rang@ 00615b74     be_ai_goal.obj
 0003:00016ba0       ??_C@_0BF@PNCKGICK@no?5item?5info?5loaded?6?$AA@ 00615ba0     be_ai_goal.obj
 0003:00016bbc       ??_C@_0CA@FLCFPAIO@more?5than?5?$CFd?5item?5info?5defined?6?$AA@ 00615bbc     be_ai_goal.obj
 0003:00016be4       ??_C@_08ENCMGJPE@iteminfo?$AA@ 00615be4     be_ai_goal.obj
 0003:00016bf0       ??_C@_0BD@IBDAAGDO@max_iteminfo?5?$DN?5?$CFd?6?$AA@ 00615bf0     be_ai_goal.obj
 0003:00016c08       ??_C@_0N@FCIHMPOM@max_iteminfo?$AA@ 00615c08     be_ai_goal.obj
 0003:00016c18       ??_C@_03CPCFKGMH@256?$AA@  00615c18     be_ai_goal.obj
 0003:00016c1c       ??_C@_0CI@LHHPPLNO@item?5info?5?$CFd?5?$CC?$CFs?$CC?5has?5no?5fuzzy?5w@ 00615c1c     be_ai_goal.obj
 0003:00016c4c       ??_C@_0P@HIDOFLAM@max_levelitems?$AA@ 00615c4c     be_ai_goal.obj
 0003:00016c60       ??_C@_0BE@OPAGCKFM@out?5of?5level?5items?6?$AA@ 00615c60     be_ai_goal.obj
 0003:00016c78       ??_C@_0P@NDPOMACK@?$CFd?5camp?5spots?6?$AA@ 00615c78     be_ai_goal.obj
 0003:00016c8c       ??_C@_0BC@GDDPKONG@?$CFd?5map?5locations?6?$AA@ 00615c8c     be_ai_goal.obj
 0003:00016ca4       ??_C@_0CJ@BCICAJAI@camp?5spot?5at?5?$CF1?41f?5?$CF1?41f?5?$CF1?41f?5i@ 00615ca4     be_ai_goal.obj
 0003:00016cd8       ??_C@_06NLFCANPD@random?$AA@ 00615cd8     be_ai_goal.obj
 0003:00016ce0       ??_C@_06CMCBKMCB@weight?$AA@ 00615ce0     be_ai_goal.obj
 0003:00016ce8       ??_C@_05CCGOGOBM@range?$AA@ 00615ce8     be_ai_goal.obj
 0003:00016cf0       ??_C@_09BLMHBGJ@info_camp?$AA@ 00615cf0     be_ai_goal.obj
 0003:00016cfc       ??_C@_07ONPBMBOP@message?$AA@ 00615cfc     be_ai_goal.obj
 0003:00016d08       ??_C@_0BA@BFKBOHOP@target_location?$AA@ 00615d08     be_ai_goal.obj
 0003:00016d1c       ??_C@_0BG@FGIAGNA@found?5?$CFd?5level?5items?6?$AA@ 00615d1c     be_ai_goal.obj
 0003:00016d38       ??_C@_0DC@LLNGFMLL@?$CFs?5not?5reachable?5for?5bots?5at?5?$CI?$CF1@ 00615d38     be_ai_goal.obj
 0003:00016d74       ??_C@_0N@PAECNMEH@item_botroam?$AA@ 00615d74     be_ai_goal.obj
 0003:00016d84       ??_C@_06NFBNODNO@notbot?$AA@ 00615d84     be_ai_goal.obj
 0003:00016d8c       ??_C@_09FDFEENEB@notsingle?$AA@ 00615d8c     be_ai_goal.obj
 0003:00016d98       ??_C@_07CLBNBEAH@notteam?$AA@ 00615d98     be_ai_goal.obj
 0003:00016da4       ??_C@_07DDCDJNBH@notfree?$AA@ 00615da4     be_ai_goal.obj
 0003:00016db0       ??_C@_0CJ@NOFKLOEA@item?5?$CFs?5reachable?5from?5jumppad?5a@ 00615db0     be_ai_goal.obj
 0003:00016de4       ??_C@_0BI@INFPJMMC@item?5?$CFs?5without?5origin?6?$AA@ 00615de4     be_ai_goal.obj
 0003:00016e00       ??_C@_0BJ@KFHJJGAI@entity?5?$CFs?5unknown?5item?$AN?6?$AA@ 00615e00     be_ai_goal.obj
 0003:00016e20       ??_C@_0BJ@GPKBNKNM@item?5?$CFs?5has?5modelindex?50?$AA@ 00615e20     be_ai_goal.obj
 0003:00016e40       ??_C@_0CI@HLDADGI@avoid?5goal?5?$CFs?0?5number?5?$CFd?5for?5?$CFf?5@ 00615e40     be_ai_goal.obj
 0003:00016e70       __real@41200000            00615e70     be_ai_goal.obj
 0003:00016e74       __real@41f00000            00615e74     be_ai_goal.obj
 0003:00016e78       __real@403e000000000000    00615e78     be_ai_goal.obj
 0003:00016e84       ??_C@_06BNEENKNB@?$CFd?3?5?$CFs?$AA@ 00615e84     be_ai_goal.obj
 0003:00016e8c       ??_C@_0BE@BBIKOMDL@goal?5heap?5overflow?6?$AA@ 00615e8c     be_ai_goal.obj
 0003:00016ea8       __real@3f826e978d4fdf3b    00615ea8     be_ai_goal.obj
 0003:00016eb4       ??_C@_0BH@LPPOHIHL@couldn?8t?5load?5weights?6?$AA@ 00615eb4     be_ai_goal.obj
 0003:00016ed0       ??_C@_0BO@OFOCDAPF@invalid?5goal?5state?5handle?5?$CFd?6?$AA@ 00615ed0     be_ai_goal.obj
 0003:00016ef4       ??_C@_0O@DPNHINNN@droppedweight?$AA@ 00615ef4     be_ai_goal.obj
 0003:00016f04       ??_C@_0BL@DEFNFIDM@couldn?8t?5load?5item?5config?6?$AA@ 00615f04     be_ai_goal.obj
 0003:00016f24       ??_C@_0L@LFADFAG@itemconfig?$AA@ 00615f24     be_ai_goal.obj
 0003:00016f34       ??_C@_07HBEMBONH@items?4c?$AA@ 00615f34     be_ai_goal.obj
 0003:00016f40       ??_C@_0BH@MIGCOJAJ@invalid?5move?5state?5?$CFd?6?$AA@ 00615f40     be_ai_move.obj
 0003:00016f5c       ??_C@_0CD@LBGJLEMH@move?5state?5handle?5?$CFd?5out?5of?5rang@ 00615f5c     be_ai_move.obj
 0003:00016f88       ??_C@_0BJ@OFCFCBJP@no?5entity?5with?5model?5?$CFd?6?$AA@ 00615f88     be_ai_move.obj
 0003:00016fa8       ??_C@_0M@OOBMECJN@func_static?$AA@ 00615fa8     be_ai_move.obj
 0003:00016fb8       ??_C@_09KJCKJKEG@func_door?$AA@ 00615fb8     be_ai_move.obj
 0003:00016fc4       ??_C@_0CF@KPCLGMGH@entity?5?$CFs?5model?5number?5out?5of?5ra@ 00615fc4     be_ai_move.obj
 0003:00016ff0       __real@404e000000000000    00615ff0     be_ai_move.obj
 0003:00017000       __real@4069000000000000    00616000     be_ai_move.obj
 0003:0001700c       __real@42c80000            0061600c     be_ai_move.obj
 0003:00017010       __real@42700000            00616010     be_ai_move.obj
 0003:00017018       __real@4022000000000000    00616018     be_ai_move.obj
 0003:00017028       __real@406f400000000000    00616028     be_ai_move.obj
 0003:00017038       __real@4051800000000000    00616038     be_ai_move.obj
 0003:00017044       __real@42800000            00616044     be_ai_move.obj
 0003:00017048       __real@402a000000000000    00616048     be_ai_move.obj
 0003:00017054       __real@42a00000            00616054     be_ai_move.obj
 0003:00017058       __real@44160000            00616058     be_ai_move.obj
 0003:00017060       __real@bfe999999999999a    00616060     be_ai_move.obj
 0003:0001706c       __real@44480000            0061606c     be_ai_move.obj
 0003:00017070       __real@bfe0000000000000    00616070     be_ai_move.obj
 0003:0001707c       __real@43960000            0061607c     be_ai_move.obj
 0003:00017080       ??_C@_0CN@FCEPHGNO@BotFuncBobStartEnd?3?5no?5entity?5wi@ 00616080     be_ai_move.obj
 0003:000170b8       __real@3fd999999999999a    006160b8     be_ai_move.obj
 0003:000170c4       ??_C@_0CE@HLPLILDO@travel?5type?5?$CFd?5not?5implemented?5y@ 006160c4     be_ai_move.obj
 0003:000170f0       ??_C@_0CL@OINLALFH@?$CIlast?$CJ?5travel?5type?5?$CFd?5not?5implem@ 006160f0     be_ai_move.obj
 0003:00017124       ??_C@_0CM@EECBHCFO@client?5?$CFd?5didn?8t?5find?5jumppad?5re@ 00616124     be_ai_move.obj
 0003:00017158       __real@40c00000            00616158     be_ai_move.obj
 0003:0001715c       ??_C@_0DB@HHOLNPFB@client?5?$CFd?3?5on?5func_bobbing?5witho@ 0061615c     be_ai_move.obj
 0003:00017198       ??_C@_0CO@IHIDPMNN@client?5?$CFd?3?5on?5func_plat?5without?5@ 00616198     be_ai_move.obj
 0003:000171d0       ??_C@_0P@HCMCPAPN@cmd_grappleoff?$AA@ 006161d0     be_ai_move.obj
 0003:000171e4       ??_C@_0L@CGFHOHKL@grappleoff?$AA@ 006161e4     be_ai_move.obj
 0003:000171f4       ??_C@_0O@KJJPDGKD@cmd_grappleon?$AA@ 006161f4     be_ai_move.obj
 0003:00017204       ??_C@_09OCNPEJFF@grappleon?$AA@ 00616204     be_ai_move.obj
 0003:00017210       ??_C@_0P@DMONFFLF@offhandgrapple?$AA@ 00616210     be_ai_move.obj
 0003:00017224       ??_C@_0BC@GDFOAKDA@entitytypemissile?$AA@ 00616224     be_ai_move.obj
 0003:0001723c       ??_C@_0BC@JLHLAKEN@weapindex_grapple?$AA@ 0061623c     be_ai_move.obj
 0003:00017254       ??_C@_0BB@HLFMNGMC@weapindex_bfg10k?$AA@ 00616254     be_ai_move.obj
 0003:00017268       ??_C@_01LAKCGALK@9?$AA@    00616268     be_ai_move.obj
 0003:0001726c       ??_C@_0BJ@HPPOPPGN@weapindex_rocketlauncher?$AA@ 0061626c     be_ai_move.obj
 0003:0001728c       ??_C@_0L@FKMMBKBD@sv_gravity?$AA@ 0061628c     be_ai_move.obj
 0003:0001729c       ??_C@_0O@GNGGPGPK@sv_maxbarrier?$AA@ 0061629c     be_ai_move.obj
 0003:000172ac       ??_C@_07PBGODEDP@sv_step?$AA@ 006162ac     be_ai_move.obj
 0003:000172b8       ??_C@_0L@BHIFJKKK@bouncestop?$AA@ 006162b8     be_ai_weap.obj
 0003:000172c8       ??_C@_0L@PPIMOAKE@bouncefric?$AA@ 006162c8     be_ai_weap.obj
 0003:000172d8       ??_C@_06DPMIMFNG@bounce?$AA@ 006162d8     be_ai_weap.obj
 0003:000172e0       ??_C@_0L@NJHJLKG@detonation?$AA@ 006162e0     be_ai_weap.obj
 0003:000172f0       ??_C@_04GHHNIPCF@push?$AA@ 006162f0     be_ai_weap.obj
 0003:000172f8       ??_C@_09OLKAIEMO@healthinc?$AA@ 006162f8     be_ai_weap.obj
 0003:00017304       ??_C@_0L@LLALLABI@damagetype?$AA@ 00616304     be_ai_weap.obj
 0003:00017314       ??_C@_09DOEGBGAO@visdamage?$AA@ 00616314     be_ai_weap.obj
 0003:00017320       ??_C@_06KGHINEPG@radius?$AA@ 00616320     be_ai_weap.obj
 0003:00017328       ??_C@_06GJOIPFFF@damage?$AA@ 00616328     be_ai_weap.obj
 0003:00017330       ??_C@_08PFGPOMOJ@spindown?$AA@ 00616330     be_ai_weap.obj
 0003:0001733c       ??_C@_06IGOPKBLH@spinup?$AA@ 0061633c     be_ai_weap.obj
 0003:00017344       ??_C@_06DGFOANMH@reload?$AA@ 00616344     be_ai_weap.obj
 0003:0001734c       ??_C@_08IFCMKJCD@activate?$AA@ 0061634c     be_ai_weap.obj
 0003:00017358       ??_C@_09KNCLBKIN@ammoindex?$AA@ 00616358     be_ai_weap.obj
 0003:00017364       ??_C@_0L@FCOOONPA@ammoamount?$AA@ 00616364     be_ai_weap.obj
 0003:00017374       ??_C@_0P@NJBBMHGK@extrazvelocity?$AA@ 00616374     be_ai_weap.obj
 0003:00017388       ??_C@_0M@ONPMIPEC@angleoffset?$AA@ 00616388     be_ai_weap.obj
 0003:00017398       ??_C@_06KLHHMIGM@offset?$AA@ 00616398     be_ai_weap.obj
 0003:000173a0       ??_C@_06HCMEEBKG@recoil?$AA@ 006163a0     be_ai_weap.obj
 0003:000173a8       ??_C@_0N@OKFAMOHD@acceleration?$AA@ 006163a8     be_ai_weap.obj
 0003:000173b8       ??_C@_07OBCOMENM@vspread?$AA@ 006163b8     be_ai_weap.obj
 0003:000173c4       ??_C@_07IIBPOHMF@hspread?$AA@ 006163c4     be_ai_weap.obj
 0003:000173d0       ??_C@_0P@NGONDBIO@numprojectiles?$AA@ 006163d0     be_ai_weap.obj
 0003:000173e4       ??_C@_0L@BOMCPGNF@projectile?$AA@ 006163e4     be_ai_weap.obj
 0003:000173f4       ??_C@_05GECEPKB@flags?$AA@ 006163f4     be_ai_weap.obj
 0003:000173fc       ??_C@_0M@PNPIEPHK@weaponindex?$AA@ 006163fc     be_ai_weap.obj
 0003:0001740c       ??_C@_05KJNJLLGA@level?$AA@ 0061640c     be_ai_weap.obj
 0003:00017414       ??_C@_06EBGNBFIA@number?$AA@ 00616414     be_ai_weap.obj
 0003:0001741c       ??_C@_0BH@BCLPAAIH@no?5weapon?5info?5loaded?6?$AA@ 0061641c     be_ai_weap.obj
 0003:00017438       ??_C@_0CL@PNIBMIGN@weapon?5?$CFs?5uses?5undefined?5project@ 00616438     be_ai_weap.obj
 0003:0001746c       ??_C@_0CD@BOCMCBMN@weapon?5?$CFs?5has?5no?5projectile?5in?5?$CF@ 0061646c     be_ai_weap.obj
 0003:00017498       ??_C@_0BN@NFAIFCED@weapon?5?$CFd?5has?5no?5name?5in?5?$CFs?6?$AA@ 00616498     be_ai_weap.obj
 0003:000174bc       ??_C@_0BN@CDKNOAJI@unknown?5definition?5?$CFs?5in?5?$CFs?6?$AA@ 006164bc     be_ai_weap.obj
 0003:000174e0       ??_C@_0CI@CKKHFCFJ@more?5than?5?$CFd?5projectiles?5defined@ 006164e0     be_ai_weap.obj
 0003:00017510       ??_C@_0P@ECOEJLJA@projectileinfo?$AA@ 00616510     be_ai_weap.obj
 0003:00017524       ??_C@_0CK@BMAKINJL@weapon?5info?5number?5?$CFd?5out?5of?5ran@ 00616524     be_ai_weap.obj
 0003:00017558       ??_C@_0L@DNADMFPA@weaponinfo?$AA@ 00616558     be_ai_weap.obj
 0003:00017568       ??_C@_0BJ@DEOLMOJN@max_projectileinfo?5?$DN?5?$CFd?6?$AA@ 00616568     be_ai_weap.obj
 0003:00017588       ??_C@_0BD@NPBGALBJ@max_projectileinfo?$AA@ 00616588     be_ai_weap.obj
 0003:000175a0       ??_C@_0BF@IEGKFMLK@max_weaponinfo?5?$DN?5?$CFd?6?$AA@ 006165a0     be_ai_weap.obj
 0003:000175bc       ??_C@_0P@IAKNEENP@max_weaponinfo?$AA@ 006165bc     be_ai_weap.obj
 0003:000175d0       ??_C@_0CA@KGGEKGMG@couldn?8t?5load?5weapon?5config?5?$CFs?6?$AA@ 006165d0     be_ai_weap.obj
 0003:000175f8       ??_C@_0CB@OGKBNMGI@couldn?8t?5load?5the?5weapon?5config?6@ 006165f8     be_ai_weap.obj
 0003:00017620       ??_C@_0N@LAFMGPOO@weaponconfig?$AA@ 00616620     be_ai_weap.obj
 0003:00017630       ??_C@_09DEBEJFNC@weapons?4c?$AA@ 00616630     be_ai_weap.obj
 0003:0001763c       ??_C@_0BJ@GLODEBJK@invalid?5return?5value?5?$CFs?6?$AA@ 0061663c     be_ai_weight.obj
 0003:0001765c       ??_C@_0BG@LLJLHOOK@Missing?5return?5value?6?$AA@ 0061665c     be_ai_weight.obj
 0003:00017678       ??_C@_0BM@HDMBEFIO@negative?5value?5set?5to?5zero?6?$AA@ 00616678     be_ai_weight.obj
 0003:0001769c       ??_C@_01JOAMLHOP@?9?$AA@   0061669c     be_ai_weight.obj
 0003:000176a0       ??_C@_07HHFEDLHG@balance?$AA@ 006166a0     be_ai_weight.obj
 0003:000176ac       ??_C@_0BI@OGAGPDGB@switch?5without?5default?6?$AA@ 006166ac     be_ai_weight.obj
 0003:000176c8       ??_C@_0BB@EGNLBCLO@invalid?5name?5?$CFs?6?$AA@ 006166c8     be_ai_weight.obj
 0003:000176dc       ??_C@_06DOPOGBGP@switch?$AA@ 006166dc     be_ai_weight.obj
 0003:000176e4       ??_C@_06LNOFJDNM@return?$AA@ 006166e4     be_ai_weight.obj
 0003:000176ec       ??_C@_0BO@EHFJJING@switch?5already?5has?5a?5default?6?$AA@ 006166ec     be_ai_weight.obj
 0003:00017710       ??_C@_04CKOINMPC@case?$AA@ 00616710     be_ai_weight.obj
 0003:00017718       ??_C@_07DLHCIBDH@default?$AA@ 00616718     be_ai_weight.obj
 0003:00017724       ??_C@_0BI@EPKIMGGL@too?5many?5fuzzy?5weights?6?$AA@ 00616724     be_ai_weight.obj
 0003:00017740       ??_C@_0CL@HHMEIDHK@weightFileList?5was?5full?5trying?5t@ 00616740     be_ai_weight.obj
 0003:00017774       ??_C@_0DA@LJPOKDON@cannot?5interbreed?5weight?5configs@ 00616774     be_ai_weight.obj
 0003:000177b0       ??_C@_0DD@CNDDMNEB@cannot?5interbreed?5weight?5configs@ 006167b0     be_ai_weight.obj
 0003:000177f0       ??_C@_0DB@HDMANNJK@cannot?5interbreed?5weight?5configs@ 006167f0     be_ai_weight.obj
 0003:0001782c       ??_C@_0DG@IEMEEKLE@cannot?5interbreed?5weight?5configs@ 0061682c     be_ai_weight.obj
 0003:0001786c       ??_C@_0M@JKGINFAL@tell?5?$CFd?0?5?$CFs?$AA@ 0061686c     be_ea.obj
 0003:0001787c       ??_C@_06JKABFJFP@use?5?$CFs?$AA@ 0061687c     be_ea.obj
 0003:00017884       ??_C@_07CPFNBDJF@drop?5?$CFs?$AA@ 00616884     be_ea.obj
 0003:00017890       ??_C@_09DHILADMM@invuse?5?$CFs?$AA@ 00616890     be_ea.obj
 0003:0001789c       ??_C@_0L@EGPGFLDB@invdrop?5?$CFs?$AA@ 0061689c     be_ea.obj
 0003:000178ac       __real@c3c80000            006168ac     be_ea.obj
 0003:000178b0       __real@c079000000000000    006168b0     be_ea.obj
 0003:000178bc       ??_C@_0CH@HHAFFDBM@?$CFs?3?5invalid?5client?5number?5?$CFd?0?5?$FL0@ 006168bc     be_interface.obj
 0003:000178ec       ??_C@_0CH@FBKAEODK@?$CFs?3?5invalid?5entity?5number?5?$CFd?0?5?$FL0@ 006168ec     be_interface.obj
 0003:0001791c       ??_C@_0CJ@LEPGCBMF@?$CFs?3?5bot?5library?5used?5before?5bein@ 0061691c     be_interface.obj
 0003:00017950       ??_C@_0CH@HACDNLAK@?9?9?9?9?9?9?9?5BotLib?5Initialization?5?9?9@ 00616950     be_interface.obj
 0003:00017980       ??_C@_0L@KLADBGPO@botlib?4log?$AA@ 00616980     be_interface.obj
 0003:00017990       ??_C@_0BF@DAHBPEFK@?$CFs?$CFcbase?$CFcbotlib?4log?$AA@ 00616990     be_interface.obj
 0003:000179ac       ??_C@_0BD@DHDJGLGP@?$CFs?$CFc?$CFs?$CFcbotlib?4log?$AA@ 006169ac     be_interface.obj
 0003:000179c4       ??_C@_07GGMBKBFD@gamedir?$AA@ 006169c4     be_interface.obj
 0003:000179d0       ??_C@_07OPNOMIKC@homedir?$AA@ 006169d0     be_interface.obj
 0003:000179dc       ??_C@_0P@OCLCOFHK@BotLibShutdown?$AA@ 006169dc     be_interface.obj
 0003:000179f0       ??_C@_0O@KCOEGEFI@BotStartFrame?$AA@ 006169f0     be_interface.obj
 0003:00017a00       ??_C@_0CH@GPCMCKNF@?9?9?9?9?9?9?9?9?9?9?9?9?9?9?9?9?9?9?9?9?9?9?9?9?9?9?9?9?9?9?9?9@ 00616a00     be_interface.obj
 0003:00017a30       ??_C@_0CH@NEJLIBNP@?9?9?9?9?9?9?9?9?9?9?9?9?5Map?5Loading?5?9?9?9?9?9?9?9@ 00616a30     be_interface.obj
 0003:00017a60       ??_C@_0L@DEHNJNME@BotLoadMap?$AA@ 00616a60     be_interface.obj
 0003:00017a70       ??_C@_0BA@EHNIKGDG@BotUpdateEntity?$AA@ 00616a70     be_interface.obj
 0003:00017a84       ??_C@_0DE@FKKHEABJ@Mismatched?5BOTLIB_API_VERSION?3?5e@ 00616a84     be_interface.obj
 0003:00017ac4       ??_C@_1CA@BGJEBNBN@?$AAb?$AAo?$AAt?$AAi?$AAm?$AAp?$AAo?$AAr?$AAt?$AA?4?$AAP?$AAr?$AAi?$AAn?$AAt?$AA?$AA@ 00616ac4     be_interface.obj
 0003:00017aec       ??_C@_1O@OHAHDHDJ@?$AAi?$AAm?$AAp?$AAo?$AAr?$AAt?$AA?$AA@ 00616aec     be_interface.obj
 0003:00017b00       ??_C@_1IE@ICGMCDAG@?$AAc?$AA?3?$AA?2?$AAw?$AAe?$AAb?$AA?2?$AAt?$AAr?$AAe?$AAp?$AAd?$AAe?$AAv?$AA?2?$AAt?$AAr?$AAe?$AAp?$AAi?$AAd?$AAa?$AAt?$AAi?$AAo?$AAn?$AA?2?$AAt?$AAr?$AAe?$AAp?$AA?9@ 00616b00     be_interface.obj
 0003:00017ba0       ??_C@_0P@OAMPMFKE@Opened?5log?5?$CFs?6?$AA@ 00616ba0     l_log.obj
 0003:00017bb4       ??_C@_0BM@MCGFOLNG@can?8t?5open?5the?5log?5file?5?$CFs?6?$AA@ 00616bb4     l_log.obj
 0003:00017bd8       ??_C@_0BP@DENECPGL@log?5file?5?$CFs?5is?5already?5opened?6?$AA@ 00616bd8     l_log.obj
 0003:00017c00       ??_C@_0BE@DPLJFOML@openlog?5?$DMfilename?$DO?6?$AA@ 00616c00     l_log.obj
 0003:00017c18       ??_C@_03MGHMBJCF@log?$AA@  00616c18     l_log.obj
 0003:00017c1c       ??_C@_0P@EBJFELDF@Closed?5log?5?$CFs?6?$AA@ 00616c1c     l_log.obj
 0003:00017c30       ??_C@_0BJ@GMGFLNFJ@can?8t?5close?5log?5file?5?$CFs?6?$AA@ 00616c30     l_log.obj
 0003:00017c50       ??_C@_02PCIJFNDE@?$AN?6?$AA@ 00616c50     l_log.obj
 0003:00017c54       ??_C@_0BM@IGDCFNDJ@?$CFd?5?5?5?$CF02d?3?$CF02d?3?$CF02d?3?$CF02d?5?5?5?$AA@ 00616c54     l_log.obj
 0003:00017c78       ??_C@_07FNDAMPLK@evalint?$AA@ 00616c78     l_precomp.obj
 0003:00017c84       ??_C@_09BLDJOION@evalfloat?$AA@ 00616c84     l_precomp.obj
 0003:00017c90       ??_C@_04KGAGIKCD@eval?$AA@ 00616c90     l_precomp.obj
 0003:00017c98       ??_C@_06PGFLMPLC@pragma?$AA@ 00616c98     l_precomp.obj
 0003:00017ca0       ??_C@_04HJPCFDOP@line?$AA@ 00616ca0     l_precomp.obj
 0003:00017ca8       ??_C@_05PKCPKOLM@undef?$AA@ 00616ca8     l_precomp.obj
 0003:00017cb0       ??_C@_06EPMMJFDC@define?$AA@ 00616cb0     l_precomp.obj
 0003:00017cb8       ??_C@_07FHOHOHLG@include?$AA@ 00616cb8     l_precomp.obj
 0003:00017cc4       ??_C@_05PAODFFED@endif?$AA@ 00616cc4     l_precomp.obj
 0003:00017ccc       ??_C@_04FHMCPBIP@else?$AA@ 00616ccc     l_precomp.obj
 0003:00017cd4       ??_C@_04GNFOIEOK@elif?$AA@ 00616cd4     l_precomp.obj
 0003:00017cdc       ??_C@_06ENONKJGC@ifndef?$AA@ 00616cdc     l_precomp.obj
 0003:00017ce4       ??_C@_05LOELCHJN@ifdef?$AA@ 00616ce4     l_precomp.obj
 0003:00017cec       ??_C@_02HEBPBKGD@if?$AA@   00616cec     l_precomp.obj
 0003:00017cf0       ??_C@_0BG@GBKGLIDE@file?5?$CFs?0?5line?5?$CFd?3?5?$CFs?6?$AA@ 00616cf0     l_precomp.obj
 0003:00017d0c       ??_C@_0BI@DBGANKKJ@?$CFs?5recursively?5included?$AA@ 00616d0c     l_precomp.obj
 0003:00017d28       ??_C@_0BE@PFGKJJGH@out?5of?5token?5space?6?$AA@ 00616d28     l_precomp.obj
 0003:00017d40       ??_C@_0P@IFDFMCIL@missing?5?$CDendif?$AA@ 00616d40     l_precomp.obj
 0003:00017d54       ??_C@_0BF@GHJFDBAE@too?5few?5define?5parms?$AA@ 00616d54     l_precomp.obj
 0003:00017d70       ??_C@_0BB@HBCKCGHH@too?5many?5comma?8s?$AA@ 00616d70     l_precomp.obj
 0003:00017d84       ??_C@_0BF@PPHAFKBJ@define?5?$CFs?5incomplete?$AA@ 00616d84     l_precomp.obj
 0003:00017da0       ??_C@_0BN@LKHLCMOF@define?5?$CFs?5has?5too?5many?5parms?$AA@ 00616da0     l_precomp.obj
 0003:00017dc4       ??_C@_0BO@CIDPMME@define?5?$CFs?5with?5too?5many?5parms?$AA@ 00616dc4     l_precomp.obj
 0003:00017de8       ??_C@_0CE@LBMAFIHE@define?5with?5more?5than?5?$CFd?5paramet@ 00616de8     l_precomp.obj
 0003:00017e14       ??_C@_0BI@CAHOPMH@define?5?$CFs?5missing?5parms?$AA@ 00616e14     l_precomp.obj
 0003:00017e30       ??_C@_03EEBNCBOD@?5?$CFs?$AA@ 00616e30     l_precomp.obj
 0003:00017e34       ??_C@_04CFMCHKOF@?$CF4d?3?$AA@ 00616e34     l_precomp.obj
 0003:00017e3c       ??_C@_08JBLMAOHN@__TIME__?$AA@ 00616e3c     l_precomp.obj
 0003:00017e48       ??_C@_08HHMBOFCN@__DATE__?$AA@ 00616e48     l_precomp.obj
 0003:00017e54       ??_C@_08FMJNKKCK@__FILE__?$AA@ 00616e54     l_precomp.obj
 0003:00017e60       ??_C@_08ICCNKGAE@__LINE__?$AA@ 00616e60     l_precomp.obj
 0003:00017e6c       ??_C@_0BH@DDBOIAKK@can?8t?5merge?5?$CFs?5with?5?$CFs?$AA@ 00616e6c     l_precomp.obj
 0003:00017e88       ??_C@_0CO@FIAHGJJO@stringizing?5operator?5without?5def@ 00616e88     l_precomp.obj
 0003:00017ec0       ??_C@_0BH@FGJBFJMP@can?8t?5stringize?5tokens?$AA@ 00616ec0     l_precomp.obj
 0003:00017edc       ??_C@_0BC@ELACKGMC@file?5?$CFs?5not?5found?$AA@ 00616edc     l_precomp.obj
 0003:00017ef4       ??_C@_0CH@BILCEFJF@?$CDinclude?5without?5file?5name?5betwe@ 00616ef4     l_precomp.obj
 0003:00017f24       ??_C@_0BM@MKHAAFFA@?$CDinclude?5missing?5trailing?5?$DO?$AA@ 00616f24     l_precomp.obj
 0003:00017f48       ??_C@_0BL@MDEODINB@?$CDinclude?5without?5file?5name?$AA@ 00616f48     l_precomp.obj
 0003:00017f68       ??_C@_0P@CHOGDKAE@can?8t?5undef?5?$CFs?$AA@ 00616f68     l_precomp.obj
 0003:00017f7c       ??_C@_0BI@LCFFDKMI@expected?5name?0?5found?5?$CFs?$AA@ 00616f7c     l_precomp.obj
 0003:00017f98       ??_C@_0BD@IELPOLI@undef?5without?5name?$AA@ 00616f98     l_precomp.obj
 0003:00017fb0       ??_C@_0BJ@FCHLMCOB@define?5with?5misplaced?5?$CD?$CD?$AA@ 00616fb0     l_precomp.obj
 0003:00017fd0       ??_C@_02IEBMKJDF@?$CD?$CD?$AA@ 00616fd0     l_precomp.obj
 0003:00017fd4       ??_C@_0CF@FNOAJAKF@recursive?5define?5?$CIremoved?5recurs@ 00616fd4     l_precomp.obj
 0003:00018000       ??_C@_0BG@PHCEBIF@define?5not?5terminated?$AA@ 00617000     l_precomp.obj
 0003:0001801c       ??_C@_0CB@JHGJFPBB@define?5parameters?5not?5terminated@ 0061701c     l_precomp.obj
 0003:00018044       ??_C@_0BP@HPJAJOKD@two?5the?5same?5define?5parameters?$AA@ 00617044     l_precomp.obj
 0003:0001806c       ??_C@_0BJ@CDAIKNHD@invalid?5define?5parameter?$AA@ 0061706c     l_precomp.obj
 0003:0001808c       ??_C@_0BK@OHINAMCG@expected?5define?5parameter?$AA@ 0061708c     l_precomp.obj
 0003:000180ac       ??_C@_0BD@PFJBIMHG@redefinition?5of?5?$CFs?$AA@ 006170ac     l_precomp.obj
 0003:000180c4       ??_C@_0BC@PNHKPGCD@can?8t?5redefine?5?$CFs?$AA@ 006170c4     l_precomp.obj
 0003:000180dc       ??_C@_0CG@PGNFJILG@expected?5name?5after?5?$CDdefine?0?5fou@ 006170dc     l_precomp.obj
 0003:0001810c       ??_C@_0BF@EDHDDJPD@?$CDdefine?5without?5name?$AA@ 0061710c     l_precomp.obj
 0003:00018128       ??_C@_07GADFAJMP@?$CKextern?$AA@ 00617128     l_precomp.obj
 0003:00018134       ??_C@_0CF@NLPAJGLD@expected?5name?5after?5?$CDifdef?0?5foun@ 00617134     l_precomp.obj
 0003:00018160       ??_C@_0BE@IMBJDEPK@?$CDifdef?5without?5name?$AA@ 00617160     l_precomp.obj
 0003:00018178       ??_C@_0BC@LGACBGNI@?$CDelse?5after?5?$CDelse?$AA@ 00617178     l_precomp.obj
 0003:00018190       ??_C@_0BA@NPOEMJCD@misplaced?5?$CDelse?$AA@ 00617190     l_precomp.obj
 0003:000181a4       ??_C@_0BB@CPALJMLI@misplaced?5?$CDendif?$AA@ 006171a4     l_precomp.obj
 0003:000181b8       ??_C@_0BH@CHBBNAOH@?$DP?5after?5?$DP?5in?5?$CDif?1?$CDelif?$AA@ 006171b8     l_precomp.obj
 0003:000181d4       ??_C@_0BJ@JILHHGIH@?3?5without?5?$DP?5in?5?$CDif?1?$CDelif?$AA@ 006171d4     l_precomp.obj
 0003:000181f4       ??_C@_0BN@HMNACNG@divide?5by?5zero?5in?5?$CDif?1?$CDelif?6?$AA@ 006171f4     l_precomp.obj
 0003:00018218       ??_C@_0BL@BNPPJONA@mising?5values?5in?5?$CDif?1?$CDelif?$AA@ 00617218     l_precomp.obj
 0003:00018238       ??_C@_0BI@MJMEGLFD@too?5many?5?$CI?5in?5?$CDif?1?$CDelif?$AA@ 00617238     l_precomp.obj
 0003:00018254       ??_C@_0BP@NIBGGAAE@trailing?5operator?5in?5?$CDif?1?$CDelif?$AA@ 00617254     l_precomp.obj
 0003:0001827c       ??_C@_0BI@ONNIJHPK@unknown?5?$CFs?5in?5?$CDif?1?$CDelif?$AA@ 0061727c     l_precomp.obj
 0003:00018298       ??_C@_0BH@OFGCJCOE@out?5of?5operator?5space?6?$AA@ 00617298     l_precomp.obj
 0003:000182b4       ??_C@_0CB@PFAFLJI@invalid?5operator?5?$CFs?5in?5?$CDif?1?$CDelif@ 006172b4     l_precomp.obj
 0003:000182dc       ??_C@_0CI@GGOHGOKI@operator?5?$CFs?5after?5operator?5in?5?$CDi@ 006172dc     l_precomp.obj
 0003:0001830c       ??_C@_0BL@GBPPHEGE@?$CL?$CL?5or?5?9?9?5used?5in?5?$CDif?1?$CDelif?$AA@ 0061730c     l_precomp.obj
 0003:0001832c       ??_C@_0CA@FEDLLKBK@?$CB?5or?5?$HO?5after?5value?5in?5?$CDif?1?$CDelif?$AA@ 0061732c     l_precomp.obj
 0003:00018354       ??_C@_0DA@OGPMIBNF@illigal?5operator?5?$CFs?5on?5floating?5@ 00617354     l_precomp.obj
 0003:00018390       ??_C@_0BJ@FLJMGJFD@too?5many?5?$CJ?5in?5?$CDif?1?$CDelsif?$AA@ 00617390     l_precomp.obj
 0003:000183b0       ??_C@_0CC@DNHHPAPI@misplaced?5minus?5sign?5in?5?$CDif?1?$CDeli@ 006173b0     l_precomp.obj
 0003:000183d8       ??_C@_0BP@FNAPCIDI@defined?5without?5?$CJ?5in?5?$CDif?1?$CDelif?$AA@ 006173d8     l_precomp.obj
 0003:00018400       ??_C@_0BE@PAMHPFIE@out?5of?5value?5space?6?$AA@ 00617400     l_precomp.obj
 0003:00018418       ??_C@_0CC@OHHFNCNF@defined?5without?5name?5in?5?$CDif?1?$CDeli@ 00617418     l_precomp.obj
 0003:00018440       ??_C@_0BP@FCIAONAD@undefined?5name?5?$CFs?5in?5?$CDif?1?$CDelif?$AA@ 00617440     l_precomp.obj
 0003:00018468       ??_C@_07MJAJDDLG@defined?$AA@ 00617468     l_precomp.obj
 0003:00018474       ??_C@_0BK@PKFCEECE@syntax?5error?5in?5?$CDif?1?$CDelif?$AA@ 00617474     l_precomp.obj
 0003:00018494       ??_C@_0BC@JLPCHENH@can?8t?5evaluate?5?$CFs?$AA@ 00617494     l_precomp.obj
 0003:000184ac       ??_C@_0BP@GDBMMIIP@can?8t?5evaluate?5?$CFs?0?5not?5defined?$AA@ 006174ac     l_precomp.obj
 0003:000184d4       ??_C@_0BJ@GGKGDEMC@no?5value?5after?5?$CDif?1?$CDelif?$AA@ 006174d4     l_precomp.obj
 0003:000184f4       ??_C@_0BE@NEDCJHGJ@nothing?5to?5evaluate?$AA@ 006174f4     l_precomp.obj
 0003:0001850c       ??_C@_0CH@DDGJDDBD@no?5leading?5?$CI?5after?5$evalint?1$eva@ 0061750c     l_precomp.obj
 0003:0001853c       ??_C@_0BA@OFHILMEG@misplaced?5?$CDelif?$AA@ 0061753c     l_precomp.obj
 0003:00018550       ??_C@_0BO@PLIOJNDH@?$CDline?5directive?5not?5supported?$AA@ 00617550     l_precomp.obj
 0003:00018574       ??_C@_0BF@PIGJJAAO@?$CDerror?5directive?3?5?$CFs?$AA@ 00617574     l_precomp.obj
 0003:00018590       ??_C@_0CA@KICMIAFO@?$CDpragma?5directive?5not?5supported?$AA@ 00617590     l_precomp.obj
 0003:000185b8       ??_C@_05NBLIHODN@?$CF1?42f?$AA@ 006175b8     l_precomp.obj
 0003:000185c0       ??_C@_0CB@OMHFNJIL@unknown?5precompiler?5directive?5?$CFs@ 006175c0     l_precomp.obj
 0003:000185e8       ??_C@_0BH@CKLPJCIG@found?5?$CD?5at?5end?5of?5line?$AA@ 006175e8     l_precomp.obj
 0003:00018604       ??_C@_0BF@PIJDPBJF@found?5?$CD?5without?5name?$AA@ 00617604     l_precomp.obj
 0003:00018620       ??_C@_0BH@KCNOOMN@found?5$?5at?5end?5of?5line?$AA@ 00617620     l_precomp.obj
 0003:0001863c       ??_C@_0BF@GDJCPOIP@found?5$?5without?5name?$AA@ 0061763c     l_precomp.obj
 0003:00018658       ??_C@_0CB@GIDBGAHO@string?5longer?5than?5MAX_TOKEN?5?$CFd?6@ 00617658     l_precomp.obj
 0003:00018680       ??_C@_0BG@PHOMHNKB@expected?5?$CFs?0?5found?5?$CFs?$AA@ 00617680     l_precomp.obj
 0003:0001869c       ??_C@_0BK@JEDPJDDM@couldn?8t?5find?5expected?5?$CFs?$AA@ 0061769c     l_precomp.obj
 0003:000186bc       ??_C@_08EFPOOAED@found?5?$CFs?$AA@ 006176bc     l_precomp.obj
 0003:000186c8       ??_C@_08LLKPIPDF@?5integer?$AA@ 006176c8     l_precomp.obj
 0003:000186d4       ??_C@_06EOECJFKG@?5float?$AA@ 006176d4     l_precomp.obj
 0003:000186dc       ??_C@_09GBGALIGL@?5unsigned?$AA@ 006176dc     l_precomp.obj
 0003:000186e8       ??_C@_05BOODDNDJ@?5long?$AA@ 006176e8     l_precomp.obj
 0003:000186f0       ??_C@_06FNFBAEBE@binary?$AA@ 006176f0     l_precomp.obj
 0003:000186f8       ??_C@_05NANFMDJ@octal?$AA@ 006176f8     l_precomp.obj
 0003:00018700       ??_C@_03IJNDAFDK@hex?$AA@  00617700     l_precomp.obj
 0003:00018704       ??_C@_07EEKBCPDP@decimal?$AA@ 00617704     l_precomp.obj
 0003:00018710       ??_C@_0BI@DOMAOFAI@expected?5a?5?$CFs?0?5found?5?$CFs?$AA@ 00617710     l_precomp.obj
 0003:0001872c       ??_C@_0M@CCLOEHNM@punctuation?$AA@ 0061772c     l_precomp.obj
 0003:0001873c       ??_C@_07IDLNMGBF@literal?$AA@ 0061773c     l_precomp.obj
 0003:00018748       ??_C@_06ICGJLFIM@string?$AA@ 00617748     l_precomp.obj
 0003:00018750       ??_C@_0BN@ECGBICMG@couldn?8t?5read?5expected?5token?$AA@ 00617750     l_precomp.obj
 0003:00018774       ??_C@_0CD@DCDKNJKM@file?5?$CFs?5still?5open?5in?5precompile@ 00617774     l_precomp.obj
 0003:000187a0       ??_C@_01EPMOAMKG@$?$AA@    006177a0     l_script.obj
 0003:000187a4       ??_C@_01IPJKGB@?$CD?$AA@   006177a4     l_script.obj
 0003:000187a8       ??_C@_01PJKLJHI@?$HO?$AA@  006177a8     l_script.obj
 0003:000187ac       ??_C@_01JKBOJNNK@?$FO?$AA@ 006177ac     l_script.obj
 0003:000187b0       ??_C@_01MIFGBAGJ@?$CL?$AA@ 006177b0     l_script.obj
 0003:000187b4       ??_C@_01FGNFDNOH@?$CF?$AA@ 006177b4     l_script.obj
 0003:000187b8       ??_C@_01NBENCBCI@?$CK?$AA@ 006177b8     l_script.obj
 0003:000187bc       ??_C@_02FNAGIBCP@?4?$CK?$AA@ 006177bc     l_script.obj
 0003:000187c0       ??_C@_02HBOOOICD@?9?$DO?$AA@ 006177c0     l_script.obj
 0003:000187c4       ??_C@_02FODMEDOG@?$DM?$DM?$AA@ 006177c4     l_script.obj
 0003:000187c8       ??_C@_02GPIOPFAK@?$DO?$DO?$AA@ 006177c8     l_script.obj
 0003:000187cc       ??_C@_02MHEGNOJ@?$FO?$DN?$AA@ 006177cc     l_script.obj
 0003:000187d0       ??_C@_02DHLNPPGH@?$HM?$DN?$AA@ 006177d0     l_script.obj
 0003:000187d4       ??_C@_02FGJGFEAB@?$CG?$DN?$AA@ 006177d4     l_script.obj
 0003:000187d8       ??_C@_02BAABKJLB@?9?9?$AA@ 006177d8     l_script.obj
 0003:000187dc       ??_C@_02ECNGHCIF@?$CL?$CL?$AA@ 006177dc     l_script.obj
 0003:000187e0       ??_C@_02FKMDLLOA@?9?$DN?$AA@ 006177e0     l_script.obj
 0003:000187e4       ??_C@_02FOEOMHFC@?$CL?$DN?$AA@ 006177e4     l_script.obj
 0003:000187e8       ??_C@_02FENAOKFI@?$CF?$DN?$AA@ 006177e8     l_script.obj
 0003:000187ec       ??_C@_02FJEHGPIO@?1?$DN?$AA@ 006177ec     l_script.obj
 0003:000187f0       ??_C@_02FPIMKNGF@?$CK?$DN?$AA@ 006177f0     l_script.obj
 0003:000187f4       ??_C@_02FDNJECIE@?$CB?$DN?$AA@ 006177f4     l_script.obj
 0003:000187f8       ??_C@_02EGOFBIJA@?$DN?$DN?$AA@ 006177f8     l_script.obj
 0003:000187fc       ??_C@_02EHCHHCKH@?$DM?$DN?$AA@ 006177fc     l_script.obj
 0003:00018800       ??_C@_02EEKDKGMJ@?$DO?$DN?$AA@ 00617800     l_script.obj
 0003:00018804       ??_C@_02NONPIBCD@?$HM?$HM?$AA@ 00617804     l_script.obj
 0003:00018808       ??_C@_02PPKAJPJL@?$CG?$CG?$AA@ 00617808     l_script.obj
 0003:0001880c       ??_C@_03KHICJKCI@?4?4?4?$AA@ 0061780c     l_script.obj
 0003:00018810       ??_C@_03CDNPDDLA@?$DM?$DM?$DN?$AA@ 00617810     l_script.obj
 0003:00018814       ??_C@_03IKFCCPFF@?$DO?$DO?$DN?$AA@ 00617814     l_script.obj
 0003:00018818       ??_C@_0BD@CDGAFDMK@unkown?5punctuation?$AA@ 00617818     l_script.obj
 0003:00018830       ??_C@_0BE@LNBHEDIG@unknown?5escape?5char?$AA@ 00617830     l_script.obj
 0003:00018848       ??_C@_0CE@DDEEFDJP@too?5large?5value?5in?5escape?5charac@ 00617848     l_script.obj
 0003:00018874       ??_C@_0BJ@FPJNGGBK@newline?5inside?5string?5?$CFs?$AA@ 00617874     l_script.obj
 0003:00018894       ??_C@_0BH@PEPCDKK@missing?5trailing?5quote?$AA@ 00617894     l_script.obj
 0003:000188b0       ??_C@_0CC@MBLDNBAM@string?5longer?5than?5MAX_TOKEN?5?$DN?5?$CF@ 006178b0     l_script.obj
 0003:000188d8       ??_C@_0CA@MNDCIFOG@name?5longer?5than?5MAX_TOKEN?5?$DN?5?$CFd?$AA@ 006178d8     l_script.obj
 0003:00018900       ??_C@_0CC@HHKGPIHJ@number?5longer?5than?5MAX_TOKEN?5?$DN?5?$CF@ 00617900     l_script.obj
 0003:00018928       ??_C@_0CJ@GOJFKF@binary?5number?5longer?5than?5MAX_TO@ 00617928     l_script.obj
 0003:0001895c       ??_C@_0CO@IEAAEMOC@hexadecimal?5number?5longer?5than?5M@ 0061795c     l_script.obj
 0003:00018994       ??_C@_0CI@KHNHEENA@too?5many?5characters?5in?5literal?0?5@ 00617994     l_script.obj
 0003:000189c4       ??_C@_0BO@LNDMFPAB@end?5of?5file?5before?5trailing?5?8?$AA@ 006179c4     l_script.obj
 0003:000189e8       ??_C@_0CL@IOHHDOB@primitive?5token?5longer?5than?5MAX_@ 006179e8     l_script.obj
 0003:00018a1c       ??_C@_0BB@HHMOOKCN@can?8t?5read?5token?$AA@ 00617a1c     l_script.obj
 0003:00018a30       ??_C@_0BP@BHDDOFIL@BUG?3?5wrong?5punctuation?5subtype?$AA@ 00617a30     l_script.obj
 0003:00018a58       ??_C@_0CA@NFDKBKI@expected?5float?5value?0?5found?5?$CFs?6?$AA@ 00617a58     l_script.obj
 0003:00018a80       ??_C@_0BF@HANLCM@Missing?5float?5value?6?$AA@ 00617a80     l_script.obj
 0003:00018a9c       ??_C@_0CC@CKEDEGB@expected?5integer?5value?0?5found?5?$CFs@ 00617a9c     l_script.obj
 0003:00018ac4       ??_C@_0BH@OLBEAIBC@Missing?5integer?5value?6?$AA@ 00617ac4     l_script.obj
 0003:00018ae0       ??_C@_0BP@LFCOICHJ@value?5?$CFd?5out?5of?5range?5?$FL?$CFf?0?5?$CFf?$FN?$AA@ 00617ae0     l_struct.obj
 0003:00018b08       ??_C@_0BP@CBDFEHDO@value?5?$CFd?5out?5of?5range?5?$FL?$CFd?0?5?$CFd?$FN?$AA@ 00617b08     l_struct.obj
 0003:00018b30       ??_C@_0BM@MDDDOOGF@float?5out?5of?5range?5?$FL?$CFf?0?5?$CFf?$FN?$AA@ 00617b30     l_struct.obj
 0003:00018b54       ??_C@_0BB@EFFDGMEA@unexpected?5float?$AA@ 00617b54     l_struct.obj
 0003:00018b68       ??_C@_0BK@IFJFBCJ@expected?5number?0?5found?5?$CFs?$AA@ 00617b68     l_struct.obj
 0003:00018b88       ??_C@_0BK@KDOFCJEJ@unexpected?5punctuation?5?$CFs?$AA@ 00617b88     l_struct.obj
 0003:00018ba8       ??_C@_0CC@POKHHIP@expected?5unsigned?5value?0?5found?5?$CF@ 00617ba8     l_struct.obj
 0003:00018bd0       ??_C@_0BL@DCLIMJHG@expected?5a?5comma?0?5found?5?$CFs?$AA@ 00617bd0     l_struct.obj
 0003:00018bf0       ??_C@_0BO@KOGKDPOB@BUG?3?5no?5sub?5structure?5defined?$AA@ 00617bf0     l_struct.obj
 0003:00018c14       ??_C@_0BL@GLPBJIMC@unknown?5structure?5field?5?$CFs?$AA@ 00617c14     l_struct.obj
 0003:00018c34       ??_C@_01GPOEFGEJ@?7?$AA@   00617c34     l_struct.obj
 0003:00018c38       ??_C@_03LFNJCDHL@?$HN?$AN?6?$AA@ 00617c38     l_struct.obj
 0003:00018c3c       ??_C@_03MOCCBCKP@?$CFs?7?$AA@ 00617c3c     l_struct.obj
 0003:00018c40       ??_C@_03JALCHMKH@?$HL?$AN?6?$AA@ 00617c40     l_struct.obj
 0003:00018c44       ??_C@_0BF@OHALGONN@GL_Bind?3?5NULL?5image?6?$AA@ 00617c44     tr_backend.obj
 0003:00018c60       ??_C@_0BM@MKDPKBLD@GL_SelectTexture?3?5unit?5?$DN?5?$CFi?$AA@ 00617c60     tr_backend.obj
 0003:00018c84       ??_C@_0CN@JJAMLFKM@glClientActiveTextureARB?$CI?5GL_TEX@ 00617c84     tr_backend.obj
 0003:00018cbc       ??_C@_0CH@EBJBHDDO@glActiveTextureARB?$CI?5GL_TEXTURE1_@ 00617cbc     tr_backend.obj
 0003:00018cec       ??_C@_0CN@IOHHKBOP@glClientActiveTextureARB?$CI?5GL_TEX@ 00617cec     tr_backend.obj
 0003:00018d24       ??_C@_0CH@FGOKGHHN@glActiveTextureARB?$CI?5GL_TEXTURE0_@ 00617d24     tr_backend.obj
 0003:00018d54       ??_C@_0CE@DIKCONAP@GL_TexEnv?3?5invalid?5env?5?8?$CFd?8?5pass@ 00617d54     tr_backend.obj
 0003:00018d80       __real@43820000            00617d80     tr_backend.obj
 0003:00018d84       __real@46040400            00617d84     tr_backend.obj
 0003:00018d88       __real@45f00800            00617d88     tr_backend.obj
 0003:00018d8c       __real@46040000            00617d8c     tr_backend.obj
 0003:00018d90       ??_C@_1IE@CJKEEPCA@?$AAc?$AA?3?$AA?2?$AAw?$AAe?$AAb?$AA?2?$AAt?$AAr?$AAe?$AAp?$AAd?$AAe?$AAv?$AA?2?$AAt?$AAr?$AAe?$AAp?$AAi?$AAd?$AAa?$AAt?$AAi?$AAo?$AAn?$AA?2?$AAt?$AAr?$AAe?$AAp?$AA?9@ 00617d90     tr_backend.obj
 0003:00018e30       ??_C@_0CI@MPNHLHAM@GL_State?3?5invalid?5dst?5blend?5stat@ 00617e30     tr_backend.obj
 0003:00018e60       ??_C@_0CI@JNKBENCF@GL_State?3?5invalid?5src?5blend?5stat@ 00617e60     tr_backend.obj
 0003:00018e90       __real@3f4ccccd            00617e90     tr_backend.obj
 0003:00018e94       __real@3f333333            00617e94     tr_backend.obj
 0003:00018e98       __real@3ecccccd            00617e98     tr_backend.obj
 0003:00018ea0       __real@3fd3333333333333    00617ea0     tr_backend.obj
 0003:00018eac       ??_C@_0CC@BHAIMEHO@qglTexSubImage2D?5?$CFi?0?5?$CFi?3?5?$CFi?5msec@ 00617eac     tr_backend.obj
 0003:00018ed4       __real@47012f00            00617ed4     tr_backend.obj
 0003:00018ed8       __real@46180400            00617ed8     tr_backend.obj
 0003:00018edc       ??_C@_0DB@BADIHKNP@Draw_StretchRaw?3?5size?5not?5a?5powe@ 00617edc     tr_backend.obj
 0003:00018f18       ??_C@_0BM@CDGHDPNH@?$CFi?5msec?5to?5draw?5all?5images?6?$AA@ 00617f18     tr_backend.obj
 0003:00018f40       __real@4080000000000000    00617f40     tr_backend.obj
 0003:00018f4c       ??_C@_0DG@CHHALGE@?$CK?$CK?$CK?$CK?$CK?$CK?$CK?$CK?$CK?$CK?$CK?$CK?$CK?$CK?$CK?$CK?$CK?5RB_SwapBuffers@ 00617f4c     tr_backend.obj
 0003:00018f8c       ??_C@_0BI@IDNDEPDA@stitched?5?$CFd?5LoD?5cracks?6?$AA@ 00617f8c     tr_bsp.obj
 0003:00018fa8       ??_C@_0BB@MHCCJBFK@grid?9?$DOheight?5?$CK?54?$AA@ 00617fa8     tr_bsp.obj
 0003:00018fbc       ??_C@_0BA@KIDIHLNB@grid?9?$DOwidth?5?$CK?54?$AA@ 00617fbc     tr_bsp.obj
 0003:00018fd0       ??_C@_0DO@CLBOJHLN@c?3?2web?2trepdev?2trepidation?2trep?9@ 00617fd0     tr_bsp.obj
 0003:0001901c       ??_C@_0BO@IHAFNPEE@WARNING?3?5light?5grid?5mismatch?6?$AA@ 0061801c     tr_bsp.obj
 0003:00019040       ??_C@_08OEKJENGB@?$CFf?5?$CFf?5?$CFf?$AA@ 00618040     tr_bsp.obj
 0003:0001904c       ??_C@_08PLHKIFFJ@gridsize?$AA@ 0061804c     tr_bsp.obj
 0003:00019058       ??_C@_0CM@EJOCAFMB@WARNING?3?5no?5semi?5colon?5in?5shader@ 00618058     tr_bsp.obj
 0003:0001908c       ??_C@_0M@NEKNPMKB@remapshader?$AA@ 0061808c     tr_bsp.obj
 0003:0001909c       ??_C@_0DC@JPJBKBBA@WARNING?3?5no?5semi?5colon?5in?5vertex@ 0061809c     tr_bsp.obj
 0003:000190d8       ??_C@_0BC@LEFDABNE@vertexremapshader?$AA@ 006180d8     tr_bsp.obj
 0003:000190f0       ??_C@_0P@LNOJEGLG@l?9?$DOfilelen?5?$CL?51?$AA@ 006180f0     tr_bsp.obj
 0003:00019104       __real@43000000            00618104     tr_bsp.obj
 0003:00019108       ??_C@_0DP@JCKGEGMK@RE_LoadWorldMap?3?5?$CFs?5has?5wrong?5ve@ 00618108     tr_bsp.obj
 0003:00019154       ??_C@_0BO@FKKONKDO@RE_LoadWorldMap?3?5?$CFs?5not?5found?$AA@ 00618154     tr_bsp.obj
 0003:00019178       __real@3f666666            00618178     tr_bsp.obj
 0003:0001917c       __real@3e99999a            0061817c     tr_bsp.obj
 0003:00019180       __real@3ee66666            00618180     tr_bsp.obj
 0003:00019184       ??_C@_0DA@HFMADLDH@ERROR?3?5attempted?5to?5redundantly?5@ 00618184     tr_bsp.obj
 0003:000191c0       ??_C@_0BO@HMCELCP@Brightest?5lightmap?5value?3?5?$CFd?6?$AA@ 006181c0     tr_bsp.obj
 0003:000191e4       ??_C@_0M@GGCLEKFK@?$CKlightmap?$CFd?$AA@ 006181e4     tr_bsp.obj
 0003:000191f8       __real@3fb020c4a0000000    006181f8     tr_bsp.obj
 0003:00019208       __real@3fe5eb8520000000    00618208     tr_bsp.obj
 0003:00019214       ??_C@_0CO@PHJNIIMK@WARNING?3?5number?5of?5lightmaps?5?$DO?5M@ 00618214     tr_bsp.obj
 0003:0001924c       ??_C@_07EKKCDKPG@len?5?9?58?$AA@ 0061824c     tr_bsp.obj
 0003:00019258       ??_C@_0DH@BPCGGBHH@?4?4?4loaded?5?$CFd?5faces?0?5?$CFi?5meshes?0?5?$CF@ 00618258     tr_bsp.obj
 0003:0001929c       ??_C@_0BA@PMNKLNK@Bad?5surfaceType?$AA@ 0061829c     tr_bsp.obj
 0003:000192b0       ??_C@_0BF@GJFINFGB@count?5?$CK?5sizeof?$CI?$CKout?$CJ?$AA@ 006182b0     tr_bsp.obj
 0003:000192cc       ??_C@_0BP@LNMBABNB@LoadMap?3?5funny?5lump?5size?5in?5?$CFs?$AA@ 006182cc     tr_bsp.obj
 0003:000192f4       ??_C@_09KICFEGHO@sfaceSize?$AA@ 006182f4     tr_bsp.obj
 0003:00019300       ??_C@_0CH@FEFMAIEG@WARNING?3?5MAX_FACE_POINTS?5exceede@ 00618300     tr_bsp.obj
 0003:00019330       ??_C@_0BP@JJDMICKK@ShaderForShaderNum?3?5bad?5num?5?$CFi?$AA@ 00618330     tr_bsp.obj
 0003:00019358       ??_C@_0BO@KFEJELLI@Bad?5index?5in?5triangle?5surface?$AA@ 00618358     tr_bsp.obj
 0003:00019380       ??_C@_0FN@ECLPCIDE@sizeof?$CI?5?$CKtri?5?$CJ?5?$CL?5numVerts?5?$CK?5size@ 00618380     tr_bsp.obj
 0003:000193f0       ??_C@_0BB@GMMDMDCJ@sizeof?$CI?5?$CKflare?5?$CJ?$AA@ 006183f0     tr_bsp.obj
 0003:00019404       ??_C@_03COCDEFBB@?$CK?$CFd?$AA@ 00618404     tr_bsp.obj
 0003:00019408       ??_C@_0CH@KHNCCOMJ@R_LoadSubmodels?3?5R_AllocModel?$CI?$CJ?5@ 00618408     tr_bsp.obj
 0003:00019438       ??_C@_1BM@HIOAEHDF@?$AAm?$AAo?$AAd?$AAe?$AAl?$AA?5?$AA?$CB?$AA?$DN?$AA?5?$AAN?$AAU?$AAL?$AAL?$AA?$AA@ 00618438     tr_bsp.obj
 0003:00019460       ??_C@_1HM@PMDJKBML@?$AAc?$AA?3?$AA?2?$AAw?$AAe?$AAb?$AA?2?$AAt?$AAr?$AAe?$AAp?$AAd?$AAe?$AAv?$AA?2?$AAt?$AAr?$AAe?$AAp?$AAi?$AAd?$AAa?$AAt?$AAi?$AAo?$AAn?$AA?2?$AAt?$AAr?$AAe?$AAp?$AA?9@ 00618460     tr_bsp.obj
 0003:000194f4       ??_C@_0CF@OFLKIJAN@?$CInumNodes?5?$CL?5numLeafs?$CJ?5?$CK?5sizeof?$CI?$CK@ 006184f4     tr_bsp.obj
 0003:00019520       ??_C@_0BD@OALDNIEF@count?$CKsizeof?$CI?$CKout?$CJ?$AA@ 00618520     tr_bsp.obj
 0003:00019538       ??_C@_0BF@MEDHOGBO@count?$CK2?$CKsizeof?$CI?$CKout?$CJ?$AA@ 00618538     tr_bsp.obj
 0003:00019554       ??_C@_0CC@KODOEMIA@fog?5brush?5sideNumber?5out?5of?5rang@ 00618554     tr_bsp.obj
 0003:0001957c       ??_C@_0BN@GDFIOGDD@fog?5brushNumber?5out?5of?5range?$AA@ 0061857c     tr_bsp.obj
 0003:000195a0       ??_C@_0CB@DHLNPGCF@s_worldData?4numfogs?$CKsizeof?$CI?$CKout?$CJ@ 006185a0     tr_bsp.obj
 0003:000195c8       ??_C@_0CD@NLAAGEFK@flare?5adds?3?$CFi?5tests?3?$CFi?5renders?3?$CF@ 006185c8     tr_cmds.obj
 0003:000195f4       ??_C@_0M@CAGENDME@zFar?3?5?$CF?40f?6?$AA@ 006185f4     tr_cmds.obj
 0003:00019604       ??_C@_0CN@IIFCDMCN@dlight?5srf?3?$CFi?5?5culled?3?$CFi?5?5verts?3@ 00618604     tr_cmds.obj
 0003:0001963c       ??_C@_0BB@ODENPAFM@viewcluster?3?5?$CFi?6?$AA@ 0061863c     tr_cmds.obj
 0003:00019650       ??_C@_0DI@CLNINGCE@?$CImd3?$CJ?5?$CFi?5sin?5?$CFi?5sclip?5?5?$CFi?5sout?5?$CF@ 00618650     tr_cmds.obj
 0003:00019694       ??_C@_0DK@PDABEOHF@?$CIpatch?$CJ?5?$CFi?5sin?5?$CFi?5sclip?5?5?$CFi?5sout@ 00618694     tr_cmds.obj
 0003:000196e0       ??_C@_0EE@IJFCGEK@?$CFi?1?$CFi?5shaders?1surfs?5?$CFi?5leafs?5?$CFi?5@ 006186e0     tr_cmds.obj
 0003:00019734       ??_C@_0M@IPNOCDNB@?4?4?4failed?4?6?$AA@ 00618734     tr_cmds.obj
 0003:00019744       ??_C@_0P@HOCIIEJB@?4?4?4succeeded?4?6?$AA@ 00618744     tr_cmds.obj
 0003:00019758       ??_C@_0BM@JMNGBMDE@Trying?5SMP?5acceleration?4?4?4?6?$AA@ 00618758     tr_cmds.obj
 0003:0001977c       ??_C@_1BA@DBHHDBMA@?$AAc?$AAm?$AAd?$AAL?$AAi?$AAs?$AAt?$AA?$AA@ 0061877c     tr_cmds.obj
 0003:00019790       ??_C@_1HO@ILMKDIIM@?$AAc?$AA?3?$AA?2?$AAw?$AAe?$AAb?$AA?2?$AAt?$AAr?$AAe?$AAp?$AAd?$AAe?$AAv?$AA?2?$AAt?$AAr?$AAe?$AAp?$AAi?$AAd?$AAa?$AAt?$AAi?$AAo?$AAn?$AA?2?$AAt?$AAr?$AAe?$AAp?$AA?9@ 00618790     tr_cmds.obj
 0003:00019828       ??_C@_0CA@BOMALFJA@R_GetCommandBuffer?3?5bad?5size?5?$CFi?$AA@ 00618828     tr_cmds.obj
 0003:00019850       ??_C@_0DK@NPPAJLCP@RE_BeginFrame?3?5Stereo?5is?5disable@ 00618850     tr_cmds.obj
 0003:00019898       ??_C@_0DJ@HLGALEHO@RE_BeginFrame?3?5Stereo?5is?5enabled@ 00618898     tr_cmds.obj
 0003:000198dc       ??_C@_0CP@PGCGPPGN@RE_BeginFrame?$CI?$CJ?5?9?5glGetError?$CI?$CJ?5f@ 006188dc     tr_cmds.obj
 0003:00019918       ??_C@_0EK@OFLLHINH@Warning?3?5stencil?5shadows?5and?5ove@ 00618918     tr_cmds.obj
 0003:00019970       ??_C@_0BC@NCGFPEJB@r_measureOverdraw?$AA@ 00618970     tr_cmds.obj
 0003:00019988       ??_C@_0DK@JPMHOIDD@Warning?3?5not?5enough?5stencil?5bits@ 00618988     tr_cmds.obj
 0003:000199d0       __real@408f380000000000    006189d0     tr_curve.obj
 0003:000199dc       __real@4479c000            006189dc     tr_curve.obj
 0003:000199e0       __real@c0f869f000000000    006189e0     tr_flares.obj
 0003:000199f0       __real@40f869f000000000    006189f0     tr_flares.obj
 0003:000199fc       ??_C@_0CO@EOJAGHCM@RE_RegisterFont?3?5FreeType?5code?5n@ 006189fc     tr_font.obj
 0003:00019a34       ??_C@_0BH@EJJGLAMJ@fonts?1fontImage_?$CFi?4dat?$AA@ 00618a34     tr_font.obj
 0003:00019a50       ??_C@_0DF@KGACFLBL@RE_RegisterFont?3?5Too?5many?5fonts?5@ 00618a50     tr_font.obj
 0003:00019a90       ??_C@_0CJ@CANNINDI@RE_RegisterFont?3?5called?5with?5emp@ 00618a90     tr_font.obj
 0003:00019ac8       __real@4052000000000000    00618ac8     tr_font.obj
 0003:00019ad4       __real@42900000            00618ad4     tr_font.obj
 0003:00019ad8       ??_C@_03CAKEDOOO@bmp?$AA@  00618ad8     tr_image.obj
 0003:00019adc       ??_C@_03BIPDAGPI@pcx?$AA@  00618adc     tr_image.obj
 0003:00019ae0       ??_C@_03NNHBJLDF@png?$AA@  00618ae0     tr_image.obj
 0003:00019ae4       ??_C@_04OFMADDDJ@jpeg?$AA@ 00618ae4     tr_image.obj
 0003:00019aec       ??_C@_03PEGNKCLE@jpg?$AA@  00618aec     tr_image.obj
 0003:00019af0       ??_C@_03LJIJAGL@tga?$AA@   00618af0     tr_image.obj
 0003:00019af4       ??_C@_0BI@EMKCPMIG@GL_LINEAR_MIPMAP_LINEAR?$AA@ 00618af4     tr_image.obj
 0003:00019b10       ??_C@_0BJ@HEAOEMHH@GL_NEAREST_MIPMAP_LINEAR?$AA@ 00618b10     tr_image.obj
 0003:00019b30       ??_C@_0BJ@PCPDHFJH@GL_LINEAR_MIPMAP_NEAREST?$AA@ 00618b30     tr_image.obj
 0003:00019b50       ??_C@_0BK@DIHBBLKN@GL_NEAREST_MIPMAP_NEAREST?$AA@ 00618b50     tr_image.obj
 0003:00019b70       ??_C@_09MNJDEIIG@GL_LINEAR?$AA@ 00618b70     tr_image.obj
 0003:00019b7c       ??_C@_0L@PCHCEECD@GL_NEAREST?$AA@ 00618b7c     tr_image.obj
 0003:00019b8c       ??_C@_0BB@GBGIGKBA@bad?5filter?5name?6?$AA@ 00618b8c     tr_image.obj
 0003:00019ba0       ??_C@_0CI@FNBBMLKI@Refusing?5to?5set?5trilinear?5on?5a?5v@ 00618ba0     tr_image.obj
 0003:00019bd0       ??_C@_0BD@GJNNOEIC@?5?$CFi?5total?5images?6?6?$AA@ 00618bd0     tr_image.obj
 0003:00019be8       ??_C@_0CK@EIAOBKGB@?5?$CFi?5total?5texels?5?$CInot?5including?5@ 00618be8     tr_image.obj
 0003:00019c1c       ??_C@_0M@MOFGFFHA@?5?9?9?9?9?9?9?9?9?9?6?$AA@ 00618c1c     tr_image.obj
 0003:00019c2c       ??_C@_04MDKIEGGJ@?5?$CFs?6?$AA@ 00618c2c     tr_image.obj
 0003:00019c34       ??_C@_05JEKGNKMI@clmp?5?$AA@ 00618c34     tr_image.obj
 0003:00019c3c       ??_C@_05PEEGEOBJ@rept?5?$AA@ 00618c3c     tr_image.obj
 0003:00019c44       ??_C@_05IKJLKKIL@?$DP?$DP?$DP?$DP?5?$AA@ 00618c44     tr_image.obj
 0003:00019c4c       ??_C@_05GDJBOAJG@RGB5?5?$AA@ 00618c4c     tr_image.obj
 0003:00019c54       ??_C@_05BOMHPHEP@RGBA4?$AA@ 00618c54     tr_image.obj
 0003:00019c5c       ??_C@_05IBJBGJJN@S3TC?5?$AA@ 00618c5c     tr_image.obj
 0003:00019c64       ??_C@_04BJEMBBJI@RGB8?$AA@ 00618c64     tr_image.obj
 0003:00019c6c       ??_C@_05LCHCLIED@RGBA8?$AA@ 00618c6c     tr_image.obj
 0003:00019c74       ??_C@_05DAGJCABK@RGBA?5?$AA@ 00618c74     tr_image.obj
 0003:00019c7c       ??_C@_05HJHMIBAN@RGB?5?5?$AA@ 00618c7c     tr_image.obj
 0003:00019c84       ??_C@_05OACLJHN@IA?5?5?5?$AA@ 00618c84     tr_image.obj
 0003:00019c8c       ??_C@_05KKFAOHIA@I?5?5?5?5?$AA@ 00618c8c     tr_image.obj
 0003:00019c94       ??_C@_0BJ@LLKIDIMA@?$CF4i?3?5?$CF4i?5?$CF4i?5?5?$CFs?5?5?5?$CFd?5?5?5?$AA@ 00618c94     tr_image.obj
 0003:00019cb4       ??_C@_0DG@JCJHFFAO@?6?5?5?5?5?5?5?9w?9?9?5?9h?9?9?5?9mm?9?5?9TMU?9?5?9if?9@ 00618cb4     tr_image.obj
 0003:00019cf4       ??_C@_03ICICOMAL@yes?$AA@  00618cf4     tr_image.obj
 0003:00019cf8       ??_C@_03NDENAIGM@no?5?$AA@ 00618cf8     tr_image.obj
 0003:00019cfc       ??_C@_0BC@LHGJPHKP@sizeof?$CI?5image_t?5?$CJ?$AA@ 00618cfc     tr_image.obj
 0003:00019d18       ??_C@_0EA@JBIKOBJN@c?3?2web?2trepdev?2trepidation?2trep?9@ 00618d18     tr_image.obj
 0003:00019d64       ??_C@_0CD@JDGPJFMH@R_CreateImage?3?5MAX_DRAWIMAGES?5hi@ 00618d64     tr_image.obj
 0003:00019d90       ??_C@_09DIHLIDNM@?$CKlightmap?$AA@ 00618d90     tr_image.obj
 0003:00019d9c       ??_C@_0CB@COPOFLLF@R_CreateImage?3?5?$CC?$CFs?$CC?5is?5too?5long?6@ 00618d9c     tr_image.obj
 0003:00019dc8       __real@3fe8000000000000    00618dc8     tr_image.obj
 0003:00019dd4       ??_C@_0BL@CFNJBMFH@ResampleTexture?3?5max?5width?$AA@ 00618dd4     tr_image.obj
 0003:00019df4       ??_C@_0CL@FLNNNIOP@WARNING?3?5?$CFs?5not?5present?0?5using?5?$CF@ 00618df4     tr_image.obj
 0003:00019e28       ??_C@_05NNFHCGPF@?$CFs?4?$CFs?$AA@ 00618e28     tr_image.obj
 0003:00019e30       ??_C@_0DK@MNCNIICN@WARNING?3?5reused?5image?5?$CFs?5with?5mi@ 00618e30     tr_image.obj
 0003:00019e78       ??_C@_0DG@MEFHLIGB@WARNING?3?5reused?5image?5?$CFs?5with?5mi@ 00618e78     tr_image.obj
 0003:00019eb8       ??_C@_0DB@JBEOHFBI@WARNING?3?5reused?5image?5?$CFs?5with?5mi@ 00618eb8     tr_image.obj
 0003:00019ef4       ??_C@_06LLGHKAEB@?$CKwhite?$AA@ 00618ef4     tr_image.obj
 0003:00019f00       __real@3fee000000000000    00618f00     tr_image.obj
 0003:00019f10       __real@3fef000000000000    00618f10     tr_image.obj
 0003:00019f20       __real@3fa0000000000000    00618f20     tr_image.obj
 0003:00019f30       __real@3f60000000000000    00618f30     tr_image.obj
 0003:00019f3c       ??_C@_08HHPIHCEN@?$CKscratch?$AA@ 00618f3c     tr_image.obj
 0003:00019f48       ??_C@_0P@IACCPHGD@?$CKidentityLight?$AA@ 00618f48     tr_image.obj
 0003:00019f5c       ??_C@_07MNOAAFDD@?$CKdlight?$AA@ 00618f5c     tr_image.obj
 0003:00019f68       __real@40af400000000000    00618f68     tr_image.obj
 0003:00019f78       __real@401e000000000000    00618f78     tr_image.obj
 0003:00019f84       ??_C@_04MFNGOGOF@?$CKfog?$AA@ 00618f84     tr_image.obj
 0003:00019f8c       ??_C@_08KPIGECMN@?$CKdefault?$AA@ 00618f8c     tr_image.obj
 0003:00019f98       ??_C@_03NBLACKLF@3?40?$AA@ 00618f98     tr_image.obj
 0003:00019f9c       ??_C@_07OFDDGDHB@r_gamma?$AA@ 00618f9c     tr_image.obj
 0003:00019fa8       ??_C@_03LOHCHBBO@0?45?$AA@ 00618fa8     tr_image.obj
 0003:00019fac       ??_C@_0M@IIHNMIDC@r_intensity?$AA@ 00618fac     tr_image.obj
 0003:00019fbc       ??_C@_0BN@MKKJEINF@sizeof?$CI?5?$CKskin?9?$DOsurfaces?$FL0?$FN?5?$CJ?$AA@ 00618fbc     tr_image.obj
 0003:00019fe0       ??_C@_04MGKOECLF@tag_?$AA@ 00618fe0     tr_image.obj
 0003:00019fe8       ??_C@_0BK@LMMJHLEP@sizeof?$CIskin?9?$DOsurfaces?$FL0?$FN?$CJ?$AA@ 00618fe8     tr_image.obj
 0003:0001a008       ??_C@_05JNLGGGIB@?4skin?$AA@ 00619008     tr_image.obj
 0003:0001a010       ??_C@_0BB@FLKNGHOI@sizeof?$CI?5skin_t?5?$CJ?$AA@ 00619010     tr_image.obj
 0003:0001a024       ??_C@_0DA@INLCLALN@WARNING?3?5RE_RegisterSkin?$CI?5?8?$CFs?8?5?$CJ@ 00619024     tr_image.obj
 0003:0001a060       ??_C@_0BN@KCHDLGKI@Skin?5name?5exceeds?5MAX_QPATH?6?$AA@ 00619060     tr_image.obj
 0003:0001a084       ??_C@_0CG@DBBAHOML@Empty?5name?5passed?5to?5RE_Register@ 00619084     tr_image.obj
 0003:0001a0b4       ??_C@_0BK@HCIFDDIP@sizeof?$CI?5?$CKskin?9?$DOsurfaces?5?$CJ?$AA@ 006190b4     tr_image.obj
 0003:0001a0d4       ??_C@_0P@BKIAPLDF@?$DMdefault?5skin?$DO?$AA@ 006190d4     tr_image.obj
 0003:0001a0e8       ??_C@_0BA@EEMBKHGA@?5?5?5?5?5?5?5?$CFs?5?$DN?5?$CFs?6?$AA@ 006190e8     tr_image.obj
 0003:0001a0fc       ??_C@_0BO@OBJOPFBI@LoadBMP?3?5file?5truncated?5?$CI?$CFs?$CJ?6?$AA@ 006190fc     tr_image_bmp.obj
 0003:0001a120       ??_C@_0CH@NINAMPNP@LoadBMP?3?5?$CFs?5has?5an?5invalid?5image@ 00619120     tr_image_bmp.obj
 0003:0001a150       ??_C@_0DA@BBNAIDKC@LoadBMP?3?5illegal?5pixel_size?5?8?$CFhu@ 00619150     tr_image_bmp.obj
 0003:0001a18c       ??_C@_0DM@FILABPHO@LoadBMP?3?5monochrome?5and?54?9bit?5BM@ 0061918c     tr_image_bmp.obj
 0003:0001a1d4       ??_C@_0DF@KOIMKIGD@LoadBMP?3?5only?5uncompressed?5BMP?5f@ 006191d4     tr_image_bmp.obj
 0003:0001a218       ??_C@_0EA@CFAFOPOK@LoadBMP?3?5header?5size?5does?5not?5ma@ 00619218     tr_image_bmp.obj
 0003:0001a264       ??_C@_0DG@EEIFLDDF@LoadBMP?3?5only?5Windows?9style?5BMP?5@ 00619264     tr_image_bmp.obj
 0003:0001a2a4       ??_C@_0CO@CJGHCGAE@LoadBMP?3?5invalid?5offset?5value?5in@ 006192a4     tr_image_bmp.obj
 0003:0001a2dc       ??_C@_0CA@HEHPMFJ@LoadBMP?3?5header?5too?5short?5?$CI?$CFs?$CJ?6?$AA@ 006192dc     tr_image_bmp.obj
 0003:0001a308       ??_C@_0ED@DKHLIADO@LoadJPG?3?5?$CFs?5has?5an?5invalid?5image@ 00619308     tr_image_jpg.obj
 0003:0001a358       ??_C@_0BJ@JLOHMMIC@PCX?5missing?5palette?3?5?$CFs?6?$AA@ 00619358     tr_image_pcx.obj
 0003:0001a378       ??_C@_0BI@ENJJPIOJ@PCX?5file?5truncated?3?5?$CFs?6?$AA@ 00619378     tr_image_pcx.obj
 0003:0001a394       ??_C@_0CL@IBBNOEC@Bad?5or?5unsupported?5pcx?5file?5?$CFs?5?$CI@ 00619394     tr_image_pcx.obj
 0003:0001a3c8       ??_C@_0BD@JDCNJNLL@PCX?5truncated?3?5?$CFs?6?$AA@ 006193c8     tr_image_pcx.obj
 0003:0001a3e0       ??_C@_0BK@IPLHNPJA@?$FO3?$CFs?3?5invalid?5image?5size?6?$AA@ 006193e0     tr_image_png.obj
 0003:0001a400       ??_C@_08PMDMHAIK@?$IJPNG?$AN?6?$BK?6?$AA@ 00619400     tr_image_png.obj
 0003:0001a410       ??_C@_0EB@OLGCIND@WARNING?3?5?8?$CFs?8?5TGA?5file?5header?5de@ 00619410     tr_image_tga.obj
 0003:0001a460       ??_C@_0CP@LECNENMO@LoadTGA?3?5illegal?5pixel_size?5?8?$CFd?8@ 00619460     tr_image_tga.obj
 0003:0001a498       ??_C@_0BO@DGDBNMCB@LoadTGA?3?5file?5truncated?5?$CI?$CFs?$CJ?6?$AA@ 00619498     tr_image_tga.obj
 0003:0001a4bc       ??_C@_0CH@CKDEPDL@LoadTGA?3?5?$CFs?5has?5an?5invalid?5image@ 006194bc     tr_image_tga.obj
 0003:0001a4ec       ??_C@_0DM@DMKLIHNL@LoadTGA?3?5Only?532?5or?524?5bit?5image@ 006194ec     tr_image_tga.obj
 0003:0001a534       ??_C@_0CC@LANFMKPP@LoadTGA?3?5colormaps?5not?5supported@ 00619534     tr_image_tga.obj
 0003:0001a560       ??_C@_0EJ@MFOPHNJO@LoadTGA?3?5Only?5type?52?5?$CIRGB?$CJ?0?53?5?$CIg@ 00619560     tr_image_tga.obj
 0003:0001a5b8       ??_C@_0CA@ELHBDOCA@LoadTGA?3?5header?5too?5short?5?$CI?$CFs?$CJ?6?$AA@ 006195b8     tr_image_tga.obj
 0003:0001a5e0       ??_C@_0BI@OEAPLIMI@Mode?511?3?5856x480?5?$CIwide?$CJ?$AA@ 006195e0     tr_init.obj
 0003:0001a5fc       ??_C@_0BD@HLKNJPO@Mode?510?3?52048x1536?$AA@ 006195fc     tr_init.obj
 0003:0001a614       ??_C@_0BD@JNNBKNHO@Mode?5?59?3?51600x1200?$AA@ 00619614     tr_init.obj
 0003:0001a62c       ??_C@_0BD@DKPOHKD@Mode?5?58?3?51280x1024?$AA@ 0061962c     tr_init.obj
 0003:0001a644       ??_C@_0BC@MHGKJHNA@Mode?5?57?3?51152x864?$AA@ 00619644     tr_init.obj
 0003:0001a65c       ??_C@_0BC@HHENFJOI@Mode?5?56?3?51024x768?$AA@ 0061965c     tr_init.obj
 0003:0001a674       ??_C@_0BB@IJBLHFE@Mode?5?55?3?5960x720?$AA@ 00619674     tr_init.obj
 0003:0001a688       ??_C@_0BB@NNFNOODL@Mode?5?54?3?5800x600?$AA@ 00619688     tr_init.obj
 0003:0001a69c       ??_C@_0BB@LBLJFEKK@Mode?5?53?3?5640x480?$AA@ 0061969c     tr_init.obj
 0003:0001a6b0       ??_C@_0BB@BIPDPPJI@Mode?5?52?3?5512x384?$AA@ 006196b0     tr_init.obj
 0003:0001a6c4       ??_C@_0BB@MMHLKHAE@Mode?5?51?3?5400x300?$AA@ 006196c4     tr_init.obj
 0003:0001a6d8       ??_C@_0BB@CPBKKPEN@Mode?5?50?3?5320x240?$AA@ 006196d8     tr_init.obj
 0003:0001a6ec       ??_C@_0BD@GFONGFHN@GL_CheckErrors?3?5?$CFs?$AA@ 006196ec     tr_init.obj
 0003:0001a704       ??_C@_0BB@JMBJBKGI@GL_OUT_OF_MEMORY?$AA@ 00619704     tr_init.obj
 0003:0001a718       ??_C@_0BD@KAJAFKFC@GL_STACK_UNDERFLOW?$AA@ 00619718     tr_init.obj
 0003:0001a730       ??_C@_0BC@DLCDMCHH@GL_STACK_OVERFLOW?$AA@ 00619730     tr_init.obj
 0003:0001a748       ??_C@_0BF@NFNGKHIL@GL_INVALID_OPERATION?$AA@ 00619748     tr_init.obj
 0003:0001a764       ??_C@_0BB@HDIPJELP@GL_INVALID_VALUE?$AA@ 00619764     tr_init.obj
 0003:0001a778       ??_C@_0BA@LLPLHEDK@GL_INVALID_ENUM?$AA@ 00619778     tr_init.obj
 0003:0001a78c       ??_C@_0BN@MIOHCEKC@screenshots?1shot?$CFi?$CFi?$CFi?$CFi?4tga?$AA@ 0061978c     tr_init.obj
 0003:0001a7b0       ??_C@_0BJ@GLPJAIDL@screenshots?1shot9999?4tga?$AA@ 006197b0     tr_init.obj
 0003:0001a7d0       ??_C@_0BN@DHBCBGHN@screenshots?1shot?$CFi?$CFi?$CFi?$CFi?4jpg?$AA@ 006197d0     tr_init.obj
 0003:0001a7f4       ??_C@_0BJ@JEAMDKOE@screenshots?1shot9999?4jpg?$AA@ 006197f4     tr_init.obj
 0003:0001a814       ??_C@_09CKEIHHKG@Wrote?5?$CFs?6?$AA@ 00619814     tr_init.obj
 0003:0001a820       __real@4078000000000000    00619820     tr_init.obj
 0003:0001a82c       ??_C@_0BC@PIIMIPAI@levelshots?1?$CFs?4tga?$AA@ 0061982c     tr_init.obj
 0003:0001a844       ??_C@_0CE@KCEHNJII@ScreenShot?3?5Couldn?8t?5create?5a?5fi@ 00619844     tr_init.obj
 0003:0001a870       ??_C@_0BD@HBDKKBCK@screenshots?1?$CFs?4tga?$AA@ 00619870     tr_init.obj
 0003:0001a888       ??_C@_06MJMIHDAA@silent?$AA@ 00619888     tr_init.obj
 0003:0001a890       ??_C@_09EFOFPGPE@levelshot?$AA@ 00619890     tr_init.obj
 0003:0001a89c       ??_C@_0BD@IOMPJDPF@screenshots?1?$CFs?4jpg?$AA@ 0061989c     tr_init.obj
 0003:0001a8b4       ??_C@_07KOAACKLB@gfxinfo?$AA@ 006198b4     tr_init.obj
 0003:0001a8c0       ??_C@_0P@HMAPNEDH@screenshotJPEG?$AA@ 006198c0     tr_init.obj
 0003:0001a8d4       ??_C@_0L@CMHOPIGK@screenshot?$AA@ 006198d4     tr_init.obj
 0003:0001a8e4       ??_C@_08JNNJIBJE@modelist?$AA@ 006198e4     tr_init.obj
 0003:0001a8f0       ??_C@_09EOKHBMCA@modellist?$AA@ 006198f0     tr_init.obj
 0003:0001a8fc       ??_C@_08HGIBIHIO@skinlist?$AA@ 006198fc     tr_init.obj
 0003:0001a908       ??_C@_0L@LGFNICHF@shaderlist?$AA@ 00619908     tr_init.obj
 0003:0001a918       ??_C@_09JBMKNKFJ@imagelist?$AA@ 00619918     tr_init.obj
 0003:0001a924       ??_C@_0P@NIPCLOBB@r_maxpolyverts?$AA@ 00619924     tr_init.obj
 0003:0001a938       ??_C@_0L@CKEBPMHC@r_maxpolys?$AA@ 00619938     tr_init.obj
 0003:0001a948       ??_C@_0BI@CIBBJBEL@r_marksOnTriangleMeshes?$AA@ 00619948     tr_init.obj
 0003:0001a964       ??_C@_0L@MAOLAFLC@cg_shadows?$AA@ 00619964     tr_init.obj
 0003:0001a974       ??_C@_0M@LGLKLKOB@r_noportals?$AA@ 00619974     tr_init.obj
 0003:0001a984       ??_C@_09OGELGAJA@r_lockpvs?$AA@ 00619984     tr_init.obj
 0003:0001a990       ??_C@_0N@EIKBMIBB@r_drawBuffer?$AA@ 00619990     tr_init.obj
 0003:0001a9a0       ??_C@_07KHDMNPGL@GL_BACK?$AA@ 006199a0     tr_init.obj
 0003:0001a9ac       ??_C@_0O@BAMKGKDI@r_offsetunits?$AA@ 006199ac     tr_init.obj
 0003:0001a9bc       ??_C@_02NNFLKHCP@?92?$AA@  006199bc     tr_init.obj
 0003:0001a9c0       ??_C@_0P@MNPHBPLD@r_offsetfactor?$AA@ 006199c0     tr_init.obj
 0003:0001a9d4       ??_C@_07CLHDHFMP@r_clear?$AA@ 006199d4     tr_init.obj
 0003:0001a9e0       ??_C@_0O@FPMANPKI@r_shownormals?$AA@ 006199e0     tr_init.obj
 0003:0001a9f0       ??_C@_09KIABLACG@r_showsky?$AA@ 006199f0     tr_init.obj
 0003:0001a9fc       ??_C@_0L@FFKAMJAN@r_showtris?$AA@ 006199fc     tr_init.obj
 0003:0001aa0c       ??_C@_08IPIKLPHC@r_nobind?$AA@ 00619a0c     tr_init.obj
 0003:0001aa18       ??_C@_09GELDECFH@r_logFile?$AA@ 00619a18     tr_init.obj
 0003:0001aa24       ??_C@_09HIPDJBIH@r_verbose?$AA@ 00619a24     tr_init.obj
 0003:0001aa30       ??_C@_08ILOBJANK@r_speeds?$AA@ 00619a30     tr_init.obj
 0003:0001aa3c       ??_C@_0O@EGPFGENM@r_showcluster?$AA@ 00619a3c     tr_init.obj
 0003:0001aa4c       ??_C@_07IFOJIEEJ@r_novis?$AA@ 00619a4c     tr_init.obj
 0003:0001aa58       ??_C@_08GDHICAID@r_nocull?$AA@ 00619a58     tr_init.obj
 0003:0001aa64       ??_C@_08EKMCNKBJ@r_ignore?$AA@ 00619a64     tr_init.obj
 0003:0001aa70       ??_C@_0P@JAKGJBEE@r_drawentities?$AA@ 00619a70     tr_init.obj
 0003:0001aa84       ??_C@_0M@HGMGOPHP@r_norefresh?$AA@ 00619a84     tr_init.obj
 0003:0001aa94       ??_C@_0L@DPLFJPIH@r_lodscale?$AA@ 00619a94     tr_init.obj
 0003:0001aaa4       ??_C@_0O@DPCGOEGM@r_skipBackEnd?$AA@ 00619aa4     tr_init.obj
 0003:0001aab4       ??_C@_09NNHMNIOD@r_showSmp?$AA@ 00619ab4     tr_init.obj
 0003:0001aac0       ??_C@_0N@IKDOIJNO@r_flareCoeff?$AA@ 00619ac0     tr_init.obj
 0003:0001aad0       ??_C@_0M@PNEBDHMB@r_flareFade?$AA@ 00619ad0     tr_init.obj
 0003:0001aae0       ??_C@_01COCBENDE@7?$AA@    00619ae0     tr_init.obj
 0003:0001aae4       ??_C@_0M@IGENIJKG@r_flareSize?$AA@ 00619ae4     tr_init.obj
 0003:0001aaf4       ??_C@_0N@KANAPLNL@r_portalOnly?$AA@ 00619af4     tr_init.obj
 0003:0001ab04       ??_C@_0L@GFIPPKI@r_lightmap?$AA@ 00619b04     tr_init.obj
 0003:0001ab14       ??_C@_0M@BIOFCHNF@r_drawworld?$AA@ 00619b14     tr_init.obj
 0003:0001ab24       ??_C@_0L@IBLKDFNO@r_nocurves?$AA@ 00619b24     tr_init.obj
 0003:0001ab34       ??_C@_0P@IMHHMLJH@r_saveFontData?$AA@ 00619b34     tr_init.obj
 0003:0001ab48       ??_C@_0P@FPGBOPOJ@r_printShaders?$AA@ 00619b48     tr_init.obj
 0003:0001ab5c       ??_C@_0M@FAFKFKNC@r_debugSort?$AA@ 00619b5c     tr_init.obj
 0003:0001ab6c       ??_C@_0N@CLEJOIDB@r_debuglight?$AA@ 00619b6c     tr_init.obj
 0003:0001ab7c       ??_C@_0N@MJCHINNC@r_showImages?$AA@ 00619b7c     tr_init.obj
 0003:0001ab8c       ??_C@_0P@NCPLCANG@r_anaglyphMode?$AA@ 00619b8c     tr_init.obj
 0003:0001aba0       ??_C@_0BA@JKEOFBGN@r_directedScale?$AA@ 00619ba0     tr_init.obj
 0003:0001abb4       ??_C@_0P@PCFMEOGO@r_ambientScale?$AA@ 00619bb4     tr_init.obj
 0003:0001abc8       ??_C@_03JFFPCCNN@0?46?$AA@ 00619bc8     tr_init.obj
 0003:0001abcc       ??_C@_0N@MNJJLPGP@r_primitives?$AA@ 00619bcc     tr_init.obj
 0003:0001abdc       ??_C@_0BE@JCAJHBHI@r_railSegmentLength?$AA@ 00619bdc     tr_init.obj
 0003:0001abf4       ??_C@_0BA@KIFPEIFH@r_railCoreWidth?$AA@ 00619bf4     tr_init.obj
 0003:0001ac08       ??_C@_0M@FCDKDOFO@r_railWidth?$AA@ 00619c08     tr_init.obj
 0003:0001ac18       ??_C@_0BA@BPCDNPON@r_facePlaneCull?$AA@ 00619c18     tr_init.obj
 0003:0001ac2c       ??_C@_0P@HNMDPIEI@r_swapInterval?$AA@ 00619c2c     tr_init.obj
 0003:0001ac40       ??_C@_0O@BGKNIDHM@r_textureMode?$AA@ 00619c40     tr_init.obj
 0003:0001ac50       ??_C@_08BHIHIACG@r_finish?$AA@ 00619c50     tr_init.obj
 0003:0001ac5c       ??_C@_0O@PLDNGPHO@r_dlightBacks?$AA@ 00619c5c     tr_init.obj
 0003:0001ac6c       ??_C@_0P@CEODIJEF@r_dynamiclight?$AA@ 00619c6c     tr_init.obj
 0003:0001ac80       ??_C@_09JENCIPDG@r_drawSun?$AA@ 00619c80     tr_init.obj
 0003:0001ac8c       ??_C@_09DKHGHCIK@r_fastsky?$AA@ 00619c8c     tr_init.obj
 0003:0001ac98       ??_C@_0BB@FAMAENF@r_ignoreGLErrors?$AA@ 00619c98     tr_init.obj
 0003:0001acac       ??_C@_0BD@DEKBFLDE@r_stereoSeparation?$AA@ 00619cac     tr_init.obj
 0003:0001acc4       ??_C@_07OPPBIGGK@r_zproj?$AA@ 00619cc4     tr_init.obj
 0003:0001acd0       ??_C@_07HFGKHFPM@r_znear?$AA@ 00619cd0     tr_init.obj
 0003:0001acdc       ??_C@_08PDJPECIC@r_flares?$AA@ 00619cdc     tr_init.obj
 0003:0001ace8       ??_C@_09MCCGJPLJ@r_lodbias?$AA@ 00619ce8     tr_init.obj
 0003:0001acf4       ??_C@_0BA@EEHBLFFN@r_lodCurveError?$AA@ 00619cf4     tr_init.obj
 0003:0001ad08       ??_C@_0P@ODPAICMO@r_singleShader?$AA@ 00619d08     tr_init.obj
 0003:0001ad1c       ??_C@_0BE@MNKOGJGK@r_mapOverBrightBits?$AA@ 00619d1c     tr_init.obj
 0003:0001ad34       ??_C@_0N@JEFJGNMG@r_fullbright?$AA@ 00619d34     tr_init.obj
 0003:0001ad44       ??_C@_0M@CCHBIPFG@r_greyscale?$AA@ 00619d44     tr_init.obj
 0003:0001ad54       ??_C@_0BB@JLILKIBL@r_ignoreFastPath?$AA@ 00619d54     tr_init.obj
 0003:0001ad68       ??_C@_0BA@HLKIBIKI@r_stereoEnabled?$AA@ 00619d68     tr_init.obj
 0003:0001ad7c       ??_C@_05KECOIEHL@r_smp?$AA@ 00619d7c     tr_init.obj
 0003:0001ad84       ??_C@_0P@CEFBGCNE@r_subdivisions?$AA@ 00619d84     tr_init.obj
 0003:0001ad98       ??_C@_0P@BJDDOIJN@r_uifullscreen?$AA@ 00619d98     tr_init.obj
 0003:0001adac       ??_C@_0O@LOOKMMOO@r_vertexLight?$AA@ 00619dac     tr_init.obj
 0003:0001adbc       ??_C@_0BA@MPIFMBGH@r_simpleMipMaps?$AA@ 00619dbc     tr_init.obj
 0003:0001add0       ??_C@_0BE@GEFCGPCJ@r_customPixelAspect?$AA@ 00619dd0     tr_init.obj
 0003:0001ade8       ??_C@_04ILPBONMK@1600?$AA@ 00619de8     tr_init.obj
 0003:0001adf0       ??_C@_0L@GGILLBMC@r_noborder?$AA@ 00619df0     tr_init.obj
 0003:0001ae00       ??_C@_0BA@EIFIPMEJ@r_ignorehwgamma?$AA@ 00619e00     tr_init.obj
 0003:0001ae14       ??_C@_0BB@FCPGIIJJ@r_overBrightBits?$AA@ 00619e14     tr_init.obj
 0003:0001ae28       ??_C@_0BC@FCHDGOOK@r_ext_multisample?$AA@ 00619e28     tr_init.obj
 0003:0001ae40       ??_C@_0M@MLADPBHK@r_depthbits?$AA@ 00619e40     tr_init.obj
 0003:0001ae50       ??_C@_0O@HILFODLB@r_stencilbits?$AA@ 00619e50     tr_init.obj
 0003:0001ae60       ??_C@_0M@FAHBKNDA@r_colorbits?$AA@ 00619e60     tr_init.obj
 0003:0001ae70       ??_C@_0O@HAOJHCNC@r_texturebits?$AA@ 00619e70     tr_init.obj
 0003:0001ae80       ??_C@_0BB@OJJFINJB@r_detailtextures?$AA@ 00619e80     tr_init.obj
 0003:0001ae94       ??_C@_0BB@PCBDDBLH@r_colorMipLevels?$AA@ 00619e94     tr_init.obj
 0003:0001aea8       ??_C@_0BC@PNEOFHC@r_roundImagesDown?$AA@ 00619ea8     tr_init.obj
 0003:0001aec0       ??_C@_08PHNBMEML@r_picmip?$AA@ 00619ec0     tr_init.obj
 0003:0001aecc       ??_C@_0BF@CLOEDDKD@r_ext_max_anisotropy?$AA@ 00619ecc     tr_init.obj
 0003:0001aee8       ??_C@_0CB@BLHNHEMJ@r_ext_texture_filter_anisotropic@ 00619ee8     tr_init.obj
 0003:0001af10       ??_C@_0BG@OKHMCNAA@r_ext_texture_env_add?$AA@ 00619f10     tr_init.obj
 0003:0001af2c       ??_C@_0BM@FKPHHJJN@r_ext_compiled_vertex_array?$AA@ 00619f2c     tr_init.obj
 0003:0001af50       ??_C@_0BD@DEGOFCOI@r_ext_multitexture?$AA@ 00619f50     tr_init.obj
 0003:0001af68       ??_C@_0BK@GPIDLLEE@r_ext_compressed_textures?$AA@ 00619f68     tr_init.obj
 0003:0001af88       ??_C@_0BC@HJALDEG@r_allowExtensions?$AA@ 00619f88     tr_init.obj
 0003:0001afa0       ??_C@_0BC@IFPCCECI@Forcing?5glFinish?6?$AA@ 00619fa0     tr_init.obj
 0003:0001afb8       ??_C@_0CD@ECDDMNLK@Using?5dual?5processor?5acceleratio@ 00619fb8     tr_init.obj
 0003:0001afe4       ??_C@_0BO@MIJCEOJG@HACK?3?5riva128?5approximations?6?$AA@ 00619fe4     tr_init.obj
 0003:0001b008       ??_C@_0BO@BGGGCGOF@HACK?3?5ragePro?5approximations?6?$AA@ 0061a008     tr_init.obj
 0003:0001b02c       ??_C@_0CL@DPDADBAH@HACK?3?5using?5vertex?5lightmap?5appr@ 0061a02c     tr_init.obj
 0003:0001b060       ??_C@_0BJ@OONJCCFB@compressed?5textures?3?5?$CFs?6?$AA@ 0061a060     tr_init.obj
 0003:0001b080       ??_C@_0BA@EDNGJAE@texenv?5add?3?5?$CFs?6?$AA@ 0061a080     tr_init.obj
 0003:0001b094       ??_C@_0BM@JNLAHAFE@compiled?5vertex?5arrays?3?5?$CFs?6?$AA@ 0061a094     tr_init.obj
 0003:0001b0b8       ??_C@_0BC@IPPCAGDE@multitexture?3?5?$CFs?6?$AA@ 0061a0b8     tr_init.obj
 0003:0001b0d0       ??_C@_0BC@OJIGLCBE@texture?5bits?3?5?$CFd?6?$AA@ 0061a0d0     tr_init.obj
 0003:0001b0e8       ??_C@_0M@HJDEHNFH@picmip?3?5?$CFd?6?$AA@ 0061a0e8     tr_init.obj
 0003:0001b0f8       ??_C@_0BB@GDPDBBGK@texturemode?3?5?$CFs?6?$AA@ 0061a0f8     tr_init.obj
 0003:0001b10c       ??_C@_0DE@COMDCGLO@multiple?5glColor4ubv?5?$CL?5glTexCoor@ 0061a10c     tr_init.obj
 0003:0001b14c       ??_C@_0BJ@OLJGLICH@multiple?5glArrayElement?6?$AA@ 0061a14c     tr_init.obj
 0003:0001b16c       ??_C@_0BH@GKJMINED@single?5glDrawElements?6?$AA@ 0061a16c     tr_init.obj
 0003:0001b188       ??_C@_05IKLLBJL@none?6?$AA@ 0061a188     tr_init.obj
 0003:0001b190       ??_C@_0BH@MKBIGIHK@rendering?5primitives?3?5?$AA@ 0061a190     tr_init.obj
 0003:0001b1ac       ??_C@_0CH@DOFMLBBC@GAMMA?3?5software?5w?1?5?$CFd?5overbright@ 0061a1ac     tr_init.obj
 0003:0001b1dc       ??_C@_0CH@FPMGOKFJ@GAMMA?3?5hardware?5w?1?5?$CFd?5overbright@ 0061a1dc     tr_init.obj
 0003:0001b20c       ??_C@_04KNPIFONP@N?1A?6?$AA@ 0061a20c     tr_init.obj
 0003:0001b214       ??_C@_0BJ@PKACHHCP@MODE?3?5?$CFd?0?5?$CFd?5x?5?$CFd?5?$CFs?5hz?3?$AA@ 0061a214     tr_init.obj
 0003:0001b234       ??_C@_0DJ@HCPGCGMA@?6PIXELFORMAT?3?5color?$CI?$CFd?9bits?$CJ?5Z?$CI?$CF@ 0061a234     tr_init.obj
 0003:0001b278       ??_C@_0BO@NBNKLMFE@GL_MAX_TEXTURE_UNITS_ARB?3?5?$CFd?6?$AA@ 0061a278     tr_init.obj
 0003:0001b29c       ??_C@_0BJ@DOKOKCEC@GL_MAX_TEXTURE_SIZE?3?5?$CFd?6?$AA@ 0061a29c     tr_init.obj
 0003:0001b2bc       ??_C@_0BD@KJCGIEGA@GL_EXTENSIONS?3?5?$CFs?6?$AA@ 0061a2bc     tr_init.obj
 0003:0001b2d4       ??_C@_0BA@IECAGHEM@GL_VERSION?3?5?$CFs?6?$AA@ 0061a2d4     tr_init.obj
 0003:0001b2e8       ??_C@_0BA@JPIMJDLP@?6GL_VENDOR?3?5?$CFs?6?$AA@ 0061a2e8     tr_init.obj
 0003:0001b2fc       ??_C@_0L@GIACNHMO@fullscreen?$AA@ 0061a2fc     tr_init.obj
 0003:0001b30c       ??_C@_08KIHLFLPI@windowed?$AA@ 0061a30c     tr_init.obj
 0003:0001b318       ??_C@_07MHHIKOPA@enabled?$AA@ 0061a318     tr_init.obj
 0003:0001b324       ??_C@_08BEHKFNNO@disabled?$AA@ 0061a324     tr_init.obj
 0003:0001b330       ??_C@_0BN@PMHALLBM@?9?9?9?9?9?5finished?5R_Init?5?9?9?9?9?9?6?$AA@ 0061a330     tr_init.obj
 0003:0001b354       ??_C@_0BF@GNBIIAHE@glGetError?$CI?$CJ?5?$DN?50x?$CFx?6?$AA@ 0061a354     tr_init.obj
 0003:0001b370       ??_C@_0FP@BGOINDMH@sizeof?$CI?5?$CKbackEndData?$FL1?$FN?5?$CJ?5?$CL?5size@ 0061a370     tr_init.obj
 0003:0001b3e8       ??_C@_0FP@PBKHDCJM@sizeof?$CI?5?$CKbackEndData?$FL0?$FN?5?$CJ?5?$CL?5size@ 0061a3e8     tr_init.obj
 0003:0001b45c       ??_C@_0DP@PHGGKINL@c?3?2web?2trepdev?2trepidation?2trep?9@ 0061a45c     tr_init.obj
 0003:0001b4a8       __real@408ff80000000000    0061a4a8     tr_init.obj
 0003:0001b4b4       ??_C@_0CH@LEDEAOCO@WARNING?3?5tess?4xyz?5not?516?5byte?5al@ 0061a4b4     tr_init.obj
 0003:0001b4e4       ??_C@_0DJ@MLMHNJOH@Mod?5ABI?5incompatible?3?5sizeof?$CIglc@ 0061a4e4     tr_init.obj
 0003:0001b528       ??_C@_0BE@MDHPNILD@?9?9?9?9?9?5R_Init?5?9?9?9?9?9?6?$AA@ 0061a528     tr_init.obj
 0003:0001b540       ??_C@_0M@KILDDLLK@shaderstate?$AA@ 0061a540     tr_init.obj
 0003:0001b550       ??_C@_0BD@IGCMANBD@RE_Shutdown?$CI?5?$CFi?5?$CJ?6?$AA@ 0061a550     tr_init.obj
 0003:0001b568       ??_C@_0DB@JNEJBLCB@Mismatched?5REF_API_VERSION?3?5expe@ 0061a568     tr_init.obj
 0003:0001b5a4       ??_C@_1DA@FAJKIAOJ@?$AAt?$AAr?$AA?4?$AAw?$AAo?$AAr?$AAl?$AAd?$AA?9?$AA?$DO?$AAl?$AAi?$AAg?$AAh?$AAt?$AAG?$AAr?$AAi?$AAd?$AAD?$AAa?$AAt?$AAa?$AA?$AA@ 0061a5a4     tr_light.obj
 0003:0001b5e0       ??_C@_1IA@NOBBAKIM@?$AAc?$AA?3?$AA?2?$AAw?$AAe?$AAb?$AA?2?$AAt?$AAr?$AAe?$AAp?$AAd?$AAe?$AAv?$AA?2?$AAt?$AAr?$AAe?$AAp?$AAi?$AAd?$AAa?$AAt?$AAi?$AAo?$AAn?$AA?2?$AAt?$AAr?$AAe?$AAp?$AA?9@ 0061a5e0     tr_light.obj
 0003:0001b67c       ??_C@_0BA@MBJODGEL@amb?3?$CFi?5?5dir?3?$CFi?6?$AA@ 0061a67c     tr_light.obj
 0003:0001b690       __real@3f689374c0000000    0061a690     tr_main.obj
 0003:0001b69c       ??_C@_0CI@MGFPEFGD@WARNING?3?5recursive?5mirror?1portal@ 0061a69c     tr_main.obj
 0003:0001b6cc       ??_C@_1CO@PPAHCOMN@?$AAt?$AAe?$AAs?$AAs?$AA?4?$AAn?$AAu?$AAm?$AAV?$AAe?$AAr?$AAt?$AAe?$AAx?$AAe?$AAs?$AA?5?$AA?$DM?$AA?5?$AA1?$AA2?$AA8?$AA?$AA@ 0061a6cc     tr_main.obj
 0003:0001b708       ??_C@_1HO@FHBLIPMH@?$AAc?$AA?3?$AA?2?$AAw?$AAe?$AAb?$AA?2?$AAt?$AAr?$AAe?$AAp?$AAd?$AAe?$AAv?$AA?2?$AAt?$AAr?$AAe?$AAp?$AAi?$AAd?$AAa?$AAt?$AAi?$AAo?$AAn?$AA?2?$AAt?$AAr?$AAe?$AAp?$AA?9@ 0061a708     tr_main.obj
 0003:0001b7a0       __real@4cbebc20            0061a7a0     tr_main.obj
 0003:0001b7a4       ??_C@_0BP@DEDPBGDJ@Shader?5?8?$CFs?8with?5sort?5?$DN?$DN?5SS_BAD?$AA@ 0061a7a4     tr_main.obj
 0003:0001b7cc       ??_C@_0CA@HFCHICEL@R_AddEntitySurfaces?3?5Bad?5reType?$AA@ 0061a7cc     tr_main.obj
 0003:0001b7f4       ??_C@_0CD@MFJALMLM@R_AddEntitySurfaces?3?5Bad?5modelty@ 0061a7f4     tr_main.obj
 0003:0001b820       __real@bfa999999999999a    0061a820     tr_marks.obj
 0003:0001b830       __real@c034000000000000    0061a830     tr_marks.obj
 0003:0001b83c       __real@41a00000            0061a83c     tr_mesh.obj
 0003:0001b840       ??_C@_0CJ@IAOLBLPF@WARNING?3?5shader?5?$CFs?5in?5skin?5?$CFs?5no@ 0061a840     tr_mesh.obj
 0003:0001b874       ??_C@_0CO@IEHCNJOK@WARNING?3?5no?5shader?5for?5surface?5?$CF@ 0061a874     tr_mesh.obj
 0003:0001b8ac       ??_C@_0DD@DEGFOKKF@R_AddMD3Surfaces?3?5no?5such?5frame?5@ 0061a8ac     tr_mesh.obj
 0003:0001b8ec       ??_C@_0CD@OFFHEFJ@sizeof?$CI?5?$CKtr?4models?$FLtr?4numModels?$FN@ 0061a8ec     tr_model.obj
 0003:0001b918       ??_C@_0EA@NFFKHDBH@c?3?2web?2trepdev?2trepidation?2trep?9@ 0061a918     tr_model.obj
 0003:0001b964       ??_C@_0CE@DDDGBMHL@RE_RegisterModel?3?5couldn?8t?5load?5@ 0061a964     tr_model.obj
 0003:0001b990       ??_C@_0CJ@CAIMAAFD@RE_RegisterModel?3?5unknown?5fileid@ 0061a990     tr_model.obj
 0003:0001b9c4       ??_C@_08GHHIBAKL@?$CFs_?$CFd?4?$CFs?$AA@ 0061a9c4     tr_model.obj
 0003:0001b9d0       ??_C@_0DC@CLACIFFN@RE_RegisterModel?3?5R_AllocModel?$CI?$CJ@ 0061a9d0     tr_model.obj
 0003:0001ba0c       ??_C@_0BO@FCMCBBHN@Model?5name?5exceeds?5MAX_QPATH?6?$AA@ 0061aa0c     tr_model.obj
 0003:0001ba30       ??_C@_0BN@KFFAINND@RE_RegisterModel?3?5NULL?5name?6?$AA@ 0061aa30     tr_model.obj
 0003:0001ba54       ??_C@_03KMECAJPB@md3?$AA@  0061aa54     tr_model.obj
 0003:0001ba58       ??_C@_0DL@BKDLJMAM@R_LoadMD3?3?5?$CFs?5has?5more?5than?5?$CFi?5t@ 0061aa58     tr_model.obj
 0003:0001baa0       ??_C@_0DH@KLLOOHPD@R_LoadMD3?3?5?$CFs?5has?5more?5than?5?$CFi?5v@ 0061aaa0     tr_model.obj
 0003:0001bae4       ??_C@_0BN@JENBICHP@R_LoadMD3?3?5?$CFs?5has?5no?5frames?6?$AA@ 0061aae4     tr_model.obj
 0003:0001bb08       ??_C@_0DD@KHJJKPOK@R_LoadMD3?3?5?$CFs?5has?5wrong?5version?5@ 0061ab08     tr_model.obj
 0003:0001bb48       ??_C@_0BN@PNDGAECH@R_LoadMD4?3?5?$CFs?5has?5no?5frames?6?$AA@ 0061ab48     tr_model.obj
 0003:0001bb6c       ??_C@_0DD@KJJDGJEK@R_LoadMD4?3?5?$CFs?5has?5wrong?5version?5@ 0061ab6c     tr_model.obj
 0003:0001bbac       ??_C@_0BE@IACJADAH@?$CF8i?5?3?5Total?5models?6?$AA@ 0061abac     tr_model.obj
 0003:0001bbc4       ??_C@_0P@FDGJGCED@?$CF8i?5?3?5?$CI?$CFi?$CJ?5?$CFs?6?$AA@ 0061abc4     tr_model.obj
 0003:0001bbd8       ??_C@_0EE@FBLEADKI@WARNING?3?5RE_AddPolyToScene?3?5r_ma@ 0061abd8     tr_scene.obj
 0003:0001bc2c       ??_C@_0CO@ICFMIPOA@WARNING?3?5RE_AddPolyToScene?3?5NULL@ 0061ac2c     tr_scene.obj
 0003:0001bc64       ??_C@_0CG@DEMNJENN@RE_AddRefEntityToScene?3?5bad?5reTy@ 0061ac64     tr_scene.obj
 0003:0001bc98       ??_C@_0FP@BIMDHKME@?$FO3WARNING?3?5RE_AddRefEntityToScen@ 0061ac98     tr_scene.obj
 0003:0001bd0c       ??_C@_0BP@KOPNJDAJ@R_RenderScene?3?5NULL?5worldmodel?$AA@ 0061ad0c     tr_scene.obj
 0003:0001bd34       ??_C@_0BN@KPIPFFIJ@?$DN?$DN?$DN?$DN?$DN?$DN?5RE_RenderScene?5?$DN?$DN?$DN?$DN?$DN?6?$AA@ 0061ad34     tr_scene.obj
 0003:0001bd58       ??_C@_0BD@LDKOPICD@glUnlockArraysEXT?6?$AA@ 0061ad58     tr_shade.obj
 0003:0001bd70       ??_C@_0BB@JIGCEAGB@glLockArraysEXT?6?$AA@ 0061ad70     tr_shade.obj
 0003:0001bd84       ??_C@_0CH@KLPBLGIL@?9?9?9?5RB_StageIteratorGeneric?$CI?5?$CFs?5@ 0061ad84     tr_shade.obj
 0003:0001bdb8       ??_C@_1EA@OJLPLAJL@?$AAi?$AAn?$AAd?$AAe?$AAx?$AAe?$AAs?$AA?$FL?$AAi?$AA?$CL?$AA2?$AA?$FN?$AA?5?$AA?$DM?$AA?5?$AAt?$AAe?$AAs?$AAs?$AA?4?$AAn?$AAu?$AAm?$AAV?$AAe?$AAr?$AAt?$AAe?$AAx?$AAe?$AAs?$AA?$AA@ 0061adb8     tr_shade.obj
 0003:0001be08       ??_C@_1IA@GOMDMGIF@?$AAc?$AA?3?$AA?2?$AAw?$AAe?$AAb?$AA?2?$AAt?$AAr?$AAe?$AAp?$AAd?$AAe?$AAv?$AA?2?$AAt?$AAr?$AAe?$AAp?$AAi?$AAd?$AAa?$AAt?$AAi?$AAo?$AAn?$AA?2?$AAt?$AAr?$AAe?$AAp?$AA?9@ 0061ae08     tr_shade.obj
 0003:0001bea4       ??_C@_0CL@KIMCIKPC@ERROR?3?5unknown?5texmod?5?8?$CFd?8?5in?5sh@ 0061aea4     tr_shade.obj
 0003:0001bed8       ??_C@_0DJ@BJEEMKDD@?9?9?9?5RB_StageIteratorVertexLitTex@ 0061aed8     tr_shade.obj
 0003:0001bf1c       ??_C@_0DH@IFGPEEH@?9?9?9?5RB_StageIteratorLightmappedM@ 0061af1c     tr_shade.obj
 0003:0001bf60       ??_C@_0M@FAPJFEJO@?9?9?9?9?9?9?9?9?9?9?6?$AA@ 0061af60     tr_shade.obj
 0003:0001bf70       ??_C@_0CK@MBNGEIEM@RB_EndSurface?$CI?$CJ?5?9?5SHADER_MAX_VER@ 0061af70     tr_shade.obj
 0003:0001bfa4       ??_C@_0CJ@GNPNENL@RB_EndSurface?$CI?$CJ?5?9?5SHADER_MAX_IND@ 0061afa4     tr_shade.obj
 0003:0001bfd8       ??_C@_0DP@KCJNMMFJ@TableForFunc?5called?5with?5invalid@ 0061afd8     tr_shade_calc.obj
 0003:0001c024       __real@3f7ae148            0061b024     tr_shade_calc.obj
 0003:0001c028       __real@40645f3060000000    0061b028     tr_shade_calc.obj
 0003:0001c038       __real@bfe8000000000000    0061b038     tr_shade_calc.obj
 0003:0001c044       __real@c97423f0            0061b044     tr_shade_calc.obj
 0003:0001c048       __real@3fe69fbe80000000    0061b048     tr_shade_calc.obj
 0003:0001c054       ??_C@_0CK@FCDAGGKO@Autosprite?5shader?5?$CFs?5had?5odd?5ind@ 0061b054     tr_shade_calc.obj
 0003:0001c088       ??_C@_0CL@DPLPABKO@Autosprite?5shader?5?$CFs?5had?5odd?5ver@ 0061b088     tr_shade_calc.obj
 0003:0001c0bc       ??_C@_0CK@NPHOOAGM@Autosprite2?5shader?5?$CFs?5had?5odd?5in@ 0061b0bc     tr_shade_calc.obj
 0003:0001c0f0       ??_C@_0CL@GNGEHAP@Autosprite2?5shader?5?$CFs?5had?5odd?5ve@ 0061b0f0     tr_shade_calc.obj
 0003:0001c124       __real@3f780000            0061b124     tr_shade_calc.obj
 0003:0001c128       __real@3d000000            0061b128     tr_shade_calc.obj
 0003:0001c130       __real@4006c16c20000000    0061b130     tr_shade_calc.obj
 0003:0001c13c       ??_C@_04BEGKODDK@dust?$AA@ 0061b13c     tr_shader.obj
 0003:0001c144       ??_C@_08LLBHFIEL@nodlight?$AA@ 0061b144     tr_shader.obj
 0003:0001c150       ??_C@_0L@MKEHCLJM@nolightmap?$AA@ 0061b150     tr_shader.obj
 0003:0001c160       ??_C@_0L@CHECABJO@pointlight?$AA@ 0061b160     tr_shader.obj
 0003:0001c170       ??_C@_06MEFHFNAK@nodraw?$AA@ 0061b170     tr_shader.obj
 0003:0001c178       ??_C@_07PPLNNCCH@nosteps?$AA@ 0061b178     tr_shader.obj
 0003:0001c184       ??_C@_05DLDJBIMA@flesh?$AA@ 0061b184     tr_shader.obj
 0003:0001c18c       ??_C@_0L@BIBBDCEB@metalsteps?$AA@ 0061b18c     tr_shader.obj
 0003:0001c19c       ??_C@_08IPOHNGKE@nodamage?$AA@ 0061b19c     tr_shader.obj
 0003:0001c1a8       ??_C@_06GGMOHJIJ@ladder?$AA@ 0061b1a8     tr_shader.obj
 0003:0001c1b0       ??_C@_07LDNMIKIJ@nomarks?$AA@ 0061b1b0     tr_shader.obj
 0003:0001c1bc       ??_C@_08FFFCKPOA@noimpact?$AA@ 0061b1bc     tr_shader.obj
 0003:0001c1c8       ??_C@_05BFPPMEOD@slick?$AA@ 0061b1c8     tr_shader.obj
 0003:0001c1d0       ??_C@_04NPKLNGDP@hint?$AA@ 0061b1d0     tr_shader.obj
 0003:0001c1d8       ??_C@_0M@GKGEABAN@alphashadow?$AA@ 0061b1d8     tr_shader.obj
 0003:0001c1e8       ??_C@_0M@FCGGILAO@lightfilter?$AA@ 0061b1e8     tr_shader.obj
 0003:0001c1f8       ??_C@_03BNEOMJOP@sky?$AA@  0061b1f8     tr_shader.obj
 0003:0001c1fc       ??_C@_03KJMBPJEB@fog?$AA@  0061b1fc     tr_shader.obj
 0003:0001c200       ??_C@_0L@BIKHJKPM@donotenter?$AA@ 0061b200     tr_shader.obj
 0003:0001c210       ??_C@_0O@GEGDJGOB@clusterportal?$AA@ 0061b210     tr_shader.obj
 0003:0001c220       ??_C@_0L@PPDFKPM@areaportal?$AA@ 0061b220     tr_shader.obj
 0003:0001c230       ??_C@_0L@GMELLABP@structural?$AA@ 0061b230     tr_shader.obj
 0003:0001c240       ??_C@_06EENFNEPD@detail?$AA@ 0061b240     tr_shader.obj
 0003:0001c248       ??_C@_05JIFNPOFN@trans?$AA@ 0061b248     tr_shader.obj
 0003:0001c250       ??_C@_08POKGLNIM@nonsolid?$AA@ 0061b250     tr_shader.obj
 0003:0001c25c       ??_C@_06IBIIOGMH@nodrop?$AA@ 0061b25c     tr_shader.obj
 0003:0001c264       ??_C@_0M@IHNOGBMG@monsterclip?$AA@ 0061b264     tr_shader.obj
 0003:0001c274       ??_C@_0L@BLJOELF@playerclip?$AA@ 0061b274     tr_shader.obj
 0003:0001c284       ??_C@_04MKBPEMMM@lava?$AA@ 0061b284     tr_shader.obj
 0003:0001c28c       ??_C@_05IBOCMEGH@slime?$AA@ 0061b28c     tr_shader.obj
 0003:0001c294       ??_C@_05ELAABIKM@water?$AA@ 0061b294     tr_shader.obj
 0003:0001c29c       ??_C@_02LEBOADDI@dn?$AA@   0061b29c     tr_shader.obj
 0003:0001c2a0       ??_C@_02HNLLPFKA@up?$AA@   0061b2a0     tr_shader.obj
 0003:0001c2a4       ??_C@_02HLHCNIN@ft?$AA@    0061b2a4     tr_shader.obj
 0003:0001c2a8       ??_C@_02HCNENIII@lf?$AA@   0061b2a8     tr_shader.obj
 0003:0001c2ac       ??_C@_02MNOEILMP@bk?$AA@   0061b2ac     tr_shader.obj
 0003:0001c2b0       ??_C@_02BMJICGCB@rt?$AA@   0061b2b0     tr_shader.obj
 0003:0001c2b4       ??_C@_0DB@FEBDLGIJ@WARNING?3?5R_RemapShader?3?5new?5shad@ 0061b2b4     tr_shader.obj
 0003:0001c2f0       ??_C@_0CN@KBGEEHMK@WARNING?3?5R_RemapShader?3?5shader?5?$CF@ 0061b2f0     tr_shader.obj
 0003:0001c328       ??_C@_0L@DDGNHNOE@underwater?$AA@ 0061b328     tr_shader.obj
 0003:0001c338       ??_C@_07NHJEPDMH@nearest?$AA@ 0061b338     tr_shader.obj
 0003:0001c344       ??_C@_08FEMHJDBF@additive?$AA@ 0061b344     tr_shader.obj
 0003:0001c350       ??_C@_06BDPMPKBB@banner?$AA@ 0061b350     tr_shader.obj
 0003:0001c358       ??_C@_0L@FKGCKOHC@seeThrough?$AA@ 0061b358     tr_shader.obj
 0003:0001c368       ??_C@_05CFEEDGHM@decal?$AA@ 0061b368     tr_shader.obj
 0003:0001c370       __real@40400000            0061b370     tr_shader.obj
 0003:0001c374       ??_C@_06CJCOLNBB@opaque?$AA@ 0061b374     tr_shader.obj
 0003:0001c37c       ??_C@_06JAELEMPN@portal?$AA@ 0061b37c     tr_shader.obj
 0003:0001c384       ??_C@_0DA@IOEIMDIA@WARNING?3?5missing?5sort?5parameter?5@ 0061b384     tr_shader.obj
 0003:0001c3c0       ??_C@_0CI@IFGMCBHP@Couldn?8t?5find?5image?5file?5for?5sha@ 0061b3c0     tr_shader.obj
 0003:0001c3f0       ??_C@_0N@CFLHIGKB@?$CKSHADER?$CK?5?$CFs?6?$AA@ 0061b3f0     tr_shader.obj
 0003:0001c400       ??_C@_0DH@BMDGJANO@WARNING?3?5shader?5?8?$CFs?8?5has?5invalid@ 0061b400     tr_shader.obj
 0003:0001c444       ??_C@_0DI@PJHAFAJB@WARNING?3?5unknown?5general?5shader?5@ 0061b444     tr_shader.obj
 0003:0001c488       ??_C@_04PIMMHFGE@sort?$AA@ 0061b488     tr_shader.obj
 0003:0001c490       ??_C@_0DA@HDFMABOL@WARNING?3?5invalid?5cull?5parm?5?8?$CFs?8?5@ 0061b490     tr_shader.obj
 0003:0001c4cc       ??_C@_09LHPHMEAL@backsided?$AA@ 0061b4cc     tr_shader.obj
 0003:0001c4d8       ??_C@_08EHJFDP@backside?$AA@ 0061b4d8     tr_shader.obj
 0003:0001c4e4       ??_C@_04JFCNHLLM@back?$AA@ 0061b4e4     tr_shader.obj
 0003:0001c4ec       ??_C@_07DBNODEFN@disable?$AA@ 0061b4ec     tr_shader.obj
 0003:0001c4f8       ??_C@_08INIPHAGC@twosided?$AA@ 0061b4f8     tr_shader.obj
 0003:0001c504       ??_C@_0CM@CKHAANCG@WARNING?3?5missing?5cull?5parms?5in?5s@ 0061b504     tr_shader.obj
 0003:0001c538       ??_C@_04DDCLEDDO@cull?$AA@ 0061b538     tr_shader.obj
 0003:0001c540       ??_C@_05OEPGNJB@light?$AA@ 0061b540     tr_shader.obj
 0003:0001c548       ??_C@_08OPCHEDJ@skyparms?$AA@ 0061b548     tr_shader.obj
 0003:0001c554       ??_C@_0DN@BCDJHKBE@WARNING?3?5missing?5parm?5for?5?8fogPa@ 0061b554     tr_shader.obj
 0003:0001c5a0       ??_C@_08FMKCJPFI@fogParms?$AA@ 0061b5a0     tr_shader.obj
 0003:0001c5ac       ??_C@_0P@CACIGKMN@entityMergable?$AA@ 0061b5ac     tr_shader.obj
 0003:0001c5c0       ??_C@_0O@DGEGEFGN@polygonOffset?$AA@ 0061b5c0     tr_shader.obj
 0003:0001c5d0       ??_C@_08DIOICGND@nopicmip?$AA@ 0061b5d0     tr_shader.obj
 0003:0001c5dc       ??_C@_09LMLIDNFN@nomipmaps?$AA@ 0061b5dc     tr_shader.obj
 0003:0001c5e8       ??_C@_0M@EHMHKHGD@surfaceParm?$AA@ 0061b5e8     tr_shader.obj
 0003:0001c5f8       ??_C@_05MHKELFFB@q3map?$AA@ 0061b5f8     tr_shader.obj
 0003:0001c600       ??_C@_09LCMIMMJI@clampTime?$AA@ 0061b600     tr_shader.obj
 0003:0001c60c       ??_C@_08MFDEDCHM@tesssize?$AA@ 0061b60c     tr_shader.obj
 0003:0001c618       ??_C@_0P@FJMHOEJC@deformVertexes?$AA@ 0061b618     tr_shader.obj
 0003:0001c62c       ??_C@_09BFMCMBDI@q3map_sun?$AA@ 0061b62c     tr_shader.obj
 0003:0001c638       ??_C@_03FOCNPFKF@qer?$AA@  0061b638     tr_shader.obj
 0003:0001c63c       ??_C@_0CH@CGCCIMEF@WARNING?3?5too?5many?5stages?5in?5shad@ 0061b63c     tr_shader.obj
 0003:0001c66c       ??_C@_0CJ@CFIAOEJP@WARNING?3?5no?5concluding?5?8?$HN?8?5in?5sh@ 0061b66c     tr_shader.obj
 0003:0001c6a0       ??_C@_0DL@HHKDKKCO@WARNING?3?5expecting?5?8?$HL?8?0?5found?5?8?$CF@ 0061b6a0     tr_shader.obj
 0003:0001c6e8       ??_C@_0DA@MPCOKHDD@WARNING?3?5missing?5vector?5element?5@ 0061b6e8     tr_shader.obj
 0003:0001c724       ??_C@_0CN@BPDNDCOG@WARNING?3?5missing?5parenthesis?5in?5@ 0061b724     tr_shader.obj
 0003:0001c75c       ??_C@_0DA@LHNAOODG@WARNING?3?5unknown?5parameter?5?8?$CFs?8?5@ 0061b75c     tr_shader.obj
 0003:0001c798       ??_C@_0L@LLDCFDJB@depthwrite?$AA@ 0061b798     tr_shader.obj
 0003:0001c7a8       ??_C@_05CLHILOEI@tcMod?$AA@ 0061b7a8     tr_shader.obj
 0003:0001c7b0       ??_C@_0CN@BFINHNOM@WARNING?3?5unknown?5texgen?5parm?5in?5@ 0061b7b0     tr_shader.obj
 0003:0001c7e8       ??_C@_06NBFPPGEG@vector?$AA@ 0061b7e8     tr_shader.obj
 0003:0001c7f0       ??_C@_07JDHEGGGP@texture?$AA@ 0061b7f0     tr_shader.obj
 0003:0001c7fc       ??_C@_08GFIHGMBN@lightmap?$AA@ 0061b7fc     tr_shader.obj
 0003:0001c808       ??_C@_0M@PINLHHEI@environment?$AA@ 0061b808     tr_shader.obj
 0003:0001c818       ??_C@_0CN@NPBJMNFM@WARNING?3?5missing?5texgen?5parm?5in?5@ 0061b818     tr_shader.obj
 0003:0001c850       ??_C@_05LDLNDDHA@tcGen?$AA@ 0061b850     tr_shader.obj
 0003:0001c858       ??_C@_06PILMGBAG@texgen?$AA@ 0061b858     tr_shader.obj
 0003:0001c860       ??_C@_0DJ@CNPGHDHL@WARNING?3?5unknown?5alphaGen?5parame@ 0061b860     tr_shader.obj
 0003:0001c8a8       ??_C@_0FI@HDECGDLN@WARNING?3?5missing?5range?5parameter@ 0061b8a8     tr_shader.obj
 0003:0001c914       __real@43800000            0061b914     tr_shader.obj
 0003:0001c918       ??_C@_0BB@IPMOEOM@lightingSpecular?$AA@ 0061b918     tr_shader.obj
 0003:0001c92c       ??_C@_0DJ@COAGBCFB@WARNING?3?5missing?5parameters?5for?5@ 0061b92c     tr_shader.obj
 0003:0001c970       ??_C@_08MKJGOHMF@alphaGen?$AA@ 0061b970     tr_shader.obj
 0003:0001c97c       ??_C@_0DH@IFLDHGBE@WARNING?3?5unknown?5rgbGen?5paramete@ 0061b97c     tr_shader.obj
 0003:0001c9c0       ??_C@_0P@GOBJMPDO@oneMinusVertex?$AA@ 0061b9c0     tr_shader.obj
 0003:0001c9d4       ??_C@_0BA@JGIIOMOF@lightingDiffuse?$AA@ 0061b9d4     tr_shader.obj
 0003:0001c9e8       ??_C@_0M@NFGCOAEO@exactVertex?$AA@ 0061b9e8     tr_shader.obj
 0003:0001c9f8       ??_C@_06HLKHCFCI@vertex?$AA@ 0061b9f8     tr_shader.obj
 0003:0001ca00       ??_C@_0P@HLCEDLEK@oneMinusEntity?$AA@ 0061ba00     tr_shader.obj
 0003:0001ca14       ??_C@_06GOJKNBFM@entity?$AA@ 0061ba14     tr_shader.obj
 0003:0001ca1c       ??_C@_0BB@LOAKDOL@identityLighting?$AA@ 0061ba1c     tr_shader.obj
 0003:0001ca30       ??_C@_08LBJOIDDC@identity?$AA@ 0061ba30     tr_shader.obj
 0003:0001ca3c       ??_C@_05BNCCCJPP@const?$AA@ 0061ba3c     tr_shader.obj
 0003:0001ca44       ??_C@_04LJEDCPFL@wave?$AA@ 0061ba44     tr_shader.obj
 0003:0001ca4c       ??_C@_0DH@BMDJGBJJ@WARNING?3?5missing?5parameters?5for?5@ 0061ba4c     tr_shader.obj
 0003:0001ca90       ??_C@_06FMMGNFCK@rgbGen?$AA@ 0061ba90     tr_shader.obj
 0003:0001ca98       ??_C@_05BIODCFPJ@blend?$AA@ 0061ba98     tr_shader.obj
 0003:0001caa0       ??_C@_06EOIELIPE@filter?$AA@ 0061baa0     tr_shader.obj
 0003:0001caa8       ??_C@_03BDGOHNNK@add?$AA@  0061baa8     tr_shader.obj
 0003:0001caac       ??_C@_0DE@LHICOKDF@WARNING?3?5missing?5parm?5for?5blendF@ 0061baac     tr_shader.obj
 0003:0001caec       ??_C@_09OFNNOJFC@blendfunc?$AA@ 0061baec     tr_shader.obj
 0003:0001caf8       ??_C@_0DA@BIDNCEP@WARNING?3?5unknown?5depthfunc?5?8?$CFs?8?5@ 0061baf8     tr_shader.obj
 0003:0001cb34       ??_C@_05OAKNMNI@equal?$AA@ 0061bb34     tr_shader.obj
 0003:0001cb3c       ??_C@_06GOLCIEJE@lequal?$AA@ 0061bb3c     tr_shader.obj
 0003:0001cb48       ??_C@_0ED@GFKIPHND@WARNING?3?5missing?5parameter?5for?5?8@ 0061bb48     tr_shader.obj
 0003:0001cb98       ??_C@_09MEFHBDPK@depthfunc?$AA@ 0061bb98     tr_shader.obj
 0003:0001cba8       ??_C@_0ED@OOIKPLLE@WARNING?3?5missing?5parameter?5for?5?8@ 0061bba8     tr_shader.obj
 0003:0001cbf8       ??_C@_09MIGNOGJD@alphaFunc?$AA@ 0061bbf8     tr_shader.obj
 0003:0001cc08       ??_C@_0ED@JEBNHGPN@WARNING?3?5missing?5parameter?5for?5?8@ 0061bc08     tr_shader.obj
 0003:0001cc58       ??_C@_08GGBNKEBM@videoMap?$AA@ 0061bc58     tr_shader.obj
 0003:0001cc68       ??_C@_0EC@PDBNEELC@WARNING?3?5missing?5parameter?5for?5?8@ 0061bc68     tr_shader.obj
 0003:0001ccb8       ??_C@_07BMBIACGE@animMap?$AA@ 0061bcb8     tr_shader.obj
 0003:0001ccc8       ??_C@_0EC@FAEJMGED@WARNING?3?5missing?5parameter?5for?5?8@ 0061bcc8     tr_shader.obj
 0003:0001cd18       ??_C@_08DEEDKPOB@clampmap?$AA@ 0061bd18     tr_shader.obj
 0003:0001cd24       ??_C@_0DN@EAKLECLL@WARNING?3?5R_FindImageFile?5could?5n@ 0061bd24     tr_shader.obj
 0003:0001cd70       ??_C@_09CGLCLDGP@$lightmap?$AA@ 0061bd70     tr_shader.obj
 0003:0001cd7c       ??_C@_0M@BDLBCOHL@$whiteimage?$AA@ 0061bd7c     tr_shader.obj
 0003:0001cd8c       ??_C@_0DN@CLBKOKJO@WARNING?3?5missing?5parameter?5for?5?8@ 0061bd8c     tr_shader.obj
 0003:0001cdd8       ??_C@_0CA@OOLPPJGG@WARNING?3?5no?5matching?5?8?$HN?8?5found?6?$AA@ 0061bdd8     tr_shader.obj
 0003:0001ce00       ??_C@_0DF@FIOFMDKK@WARNING?3?5invalid?5alphaFunc?5name?5@ 0061be00     tr_shader.obj
 0003:0001ce40       ??_C@_05LEJEKBHA@GE128?$AA@ 0061be40     tr_shader.obj
 0003:0001ce48       ??_C@_05IDNDOPIB@LT128?$AA@ 0061be48     tr_shader.obj
 0003:0001ce50       ??_C@_03GMILPAPI@GT0?$AA@  0061be50     tr_shader.obj
 0003:0001ce58       ??_C@_0EG@NFEMCCHE@WARNING?3?5unknown?5blend?5mode?5?8?$CFs?8@ 0061be58     tr_shader.obj
 0003:0001ceac       ??_C@_0BG@GMACLBML@GL_SRC_ALPHA_SATURATE?$AA@ 0061beac     tr_shader.obj
 0003:0001cec8       ??_C@_0BH@BIGHMICL@GL_ONE_MINUS_DST_ALPHA?$AA@ 0061bec8     tr_shader.obj
 0003:0001cee4       ??_C@_0N@DDMEICAJ@GL_DST_ALPHA?$AA@ 0061bee4     tr_shader.obj
 0003:0001cef4       ??_C@_0BH@LMBAHOML@GL_ONE_MINUS_SRC_ALPHA?$AA@ 0061bef4     tr_shader.obj
 0003:0001cf10       ??_C@_0N@JHLDDEOJ@GL_SRC_ALPHA?$AA@ 0061bf10     tr_shader.obj
 0003:0001cf20       ??_C@_0BH@GMGAKMMA@GL_ONE_MINUS_DST_COLOR?$AA@ 0061bf20     tr_shader.obj
 0003:0001cf3c       ??_C@_0N@EHMDOGOC@GL_DST_COLOR?$AA@ 0061bf3c     tr_shader.obj
 0003:0001cf4c       ??_C@_07BEGJIDM@GL_ZERO?$AA@ 0061bf4c     tr_shader.obj
 0003:0001cf58       ??_C@_06BFJLKKJK@GL_ONE?$AA@ 0061bf58     tr_shader.obj
 0003:0001cf60       ??_C@_0BH@MIBHBKCA@GL_ONE_MINUS_SRC_COLOR?$AA@ 0061bf60     tr_shader.obj
 0003:0001cf7c       ??_C@_0N@ODLEFAAC@GL_SRC_COLOR?$AA@ 0061bf7c     tr_shader.obj
 0003:0001cf8c       ??_C@_0CP@DKEEEEHD@WARNING?3?5missing?5waveform?5parm?5i@ 0061bf8c     tr_shader.obj
 0003:0001cfc4       ??_C@_0DD@DLNAFJMK@WARNING?3?5invalid?5genfunc?5name?5?8?$CF@ 0061bfc4     tr_shader.obj
 0003:0001d004       ??_C@_05GPLCCBII@noise?$AA@ 0061c004     tr_shader.obj
 0003:0001d00c       ??_C@_0BA@CLNFMHNL@inversesawtooth?$AA@ 0061c00c     tr_shader.obj
 0003:0001d020       ??_C@_08PDBODDPM@sawtooth?$AA@ 0061c020     tr_shader.obj
 0003:0001d02c       ??_C@_08FOPOJBJM@triangle?$AA@ 0061c02c     tr_shader.obj
 0003:0001d038       ??_C@_06ICDKOIFG@square?$AA@ 0061c038     tr_shader.obj
 0003:0001d040       ??_C@_03BLEJJJBH@sin?$AA@  0061c040     tr_shader.obj
 0003:0001d044       ??_C@_0CM@BIKEMJGH@WARNING?3?5unknown?5tcMod?5?8?$CFs?8?5in?5s@ 0061c044     tr_shader.obj
 0003:0001d078       ??_C@_0BA@JHGJPDGP@entityTranslate?$AA@ 0061c078     tr_shader.obj
 0003:0001d08c       ??_C@_0DE@CPIKJPCO@WARNING?3?5missing?5tcMod?5rotate?5pa@ 0061c08c     tr_shader.obj
 0003:0001d0cc       ??_C@_06CEHMNFAL@rotate?$AA@ 0061c0cc     tr_shader.obj
 0003:0001d0d4       ??_C@_0DB@HCGDEMJB@WARNING?3?5missing?5transform?5parms@ 0061c0d4     tr_shader.obj
 0003:0001d110       ??_C@_09IFONHNKG@transform?$AA@ 0061c110     tr_shader.obj
 0003:0001d11c       ??_C@_0CP@GCKFKABP@WARNING?3?5missing?5stretch?5parms?5i@ 0061c11c     tr_shader.obj
 0003:0001d154       ??_C@_07LEPFLFDH@stretch?$AA@ 0061c154     tr_shader.obj
 0003:0001d160       ??_C@_0DE@KNBGFEPJ@WARNING?3?5missing?5scale?5scroll?5pa@ 0061c160     tr_shader.obj
 0003:0001d1a0       ??_C@_06FJKBNFNG@scroll?$AA@ 0061c1a0     tr_shader.obj
 0003:0001d1a8       ??_C@_0CN@BBMLEDFN@WARNING?3?5missing?5scale?5parms?5in?5@ 0061c1a8     tr_shader.obj
 0003:0001d1e0       ??_C@_05MHMEBBGO@scale?$AA@ 0061c1e0     tr_shader.obj
 0003:0001d1e8       ??_C@_0CM@KOGGLEIE@WARNING?3?5missing?5tcMod?5turb?5in?5s@ 0061c1e8     tr_shader.obj
 0003:0001d21c       ??_C@_0DC@NOBDKEOI@WARNING?3?5missing?5tcMod?5turb?5parm@ 0061c21c     tr_shader.obj
 0003:0001d258       ??_C@_04GJNAKLFI@turb?$AA@ 0061c258     tr_shader.obj
 0003:0001d260       ??_C@_0CN@JIBKBGGH@ERROR?3?5too?5many?5tcMod?5stages?5in?5@ 0061c260     tr_shader.obj
 0003:0001d298       ??_C@_0ED@LOPFOKI@WARNING?3?5unknown?5deformVertexes?5@ 0061c298     tr_shader.obj
 0003:0001d2e8       ??_C@_04HDMMNHEL@move?$AA@ 0061c2e8     tr_shader.obj
 0003:0001d2f0       ??_C@_06IKLLLDHL@normal?$AA@ 0061c2f0     tr_shader.obj
 0003:0001d2f8       ??_C@_0EL@ODFGAGPK@WARNING?3?5illegal?5div?5value?5of?50?5@ 0061c2f8     tr_shader.obj
 0003:0001d354       ??_C@_0DF@DFJPIOJM@WARNING?3?5missing?5deformVertexes?5@ 0061c354     tr_shader.obj
 0003:0001d394       ??_C@_0DL@MGCKFNID@WARNING?3?5missing?5deformVertexes?5@ 0061c394     tr_shader.obj
 0003:0001d3dc       ??_C@_05BONBJFEO@bulge?$AA@ 0061c3dc     tr_shader.obj
 0003:0001d3e4       ??_C@_04CIMGMMMG@text?$AA@ 0061c3e4     tr_shader.obj
 0003:0001d3ec       ??_C@_0M@JPJOBJAO@autosprite2?$AA@ 0061c3ec     tr_shader.obj
 0003:0001d3fc       ??_C@_0L@OJCKPKMG@autosprite?$AA@ 0061c3fc     tr_shader.obj
 0003:0001d40c       ??_C@_0BB@OOOFIDJN@projectionShadow?$AA@ 0061c40c     tr_shader.obj
 0003:0001d420       ??_C@_0CF@BCAMFONL@WARNING?3?5MAX_SHADER_DEFORMS?5in?5?8@ 0061c420     tr_shader.obj
 0003:0001d44c       ??_C@_0CN@BAHOFFDJ@WARNING?3?5missing?5deform?5parm?5in?5@ 0061c44c     tr_shader.obj
 0003:0001d484       __real@44000000            0061c484     tr_shader.obj
 0003:0001d488       ??_C@_09ELMIAJNO@?$CFs_?$CFs?4tga?$AA@ 0061c488     tr_shader.obj
 0003:0001d494       ??_C@_0DG@PHBLMGGL@WARNING?3?5?8skyParms?8?5missing?5para@ 0061c494     tr_shader.obj
 0003:0001d4d4       __real@40e00000            0061c4d4     tr_shader.obj
 0003:0001d4d8       ??_C@_0DK@CGNDAAJI@WARNING?3?5shader?5?8?$CFs?8?5has?5lightma@ 0061c4d8     tr_shader.obj
 0003:0001d520       ??_C@_0DC@DIFDHFIH@WARNING?3?5shader?5?8?$CFs?8?5has?5VERTEX?5@ 0061c520     tr_shader.obj
 0003:0001d55c       __real@41100000            0061c55c     tr_shader.obj
 0003:0001d560       ??_C@_0CF@HBDBMHII@Shader?5?$CFs?5has?5a?5stage?5with?5no?5im@ 0061c560     tr_shader.obj
 0003:0001d58c       ??_C@_0BE@KIALPNA@sizeof?$CI?5stages?$FLi?$FN?5?$CJ?$AA@ 0061c58c     tr_shader.obj
 0003:0001d5a4       ??_C@_0BD@GAPKLDAK@sizeof?$CI?5shader_t?5?$CJ?$AA@ 0061c5a4     tr_shader.obj
 0003:0001d5c0       ??_C@_0EB@MOPMEHNA@c?3?2web?2trepdev?2trepidation?2trep?9@ 0061c5c0     tr_shader.obj
 0003:0001d610       ??_C@_0DE@FPIJLKBK@WARNING?3?5GeneratePermanentShader@ 0061c610     tr_shader.obj
 0003:0001d650       ??_C@_0BP@BKKCKGLL@Shader?5name?5exceeds?5MAX_QPATH?6?$AA@ 0061c650     tr_shader.obj
 0003:0001d678       ??_C@_0DA@NIHGGMJL@R_GetShaderByHandle?3?5out?5of?5rang@ 0061c678     tr_shader.obj
 0003:0001d6b4       ??_C@_0BC@OGEMBECL@?$CFi?5total?5shaders?6?$AA@ 0061c6b4     tr_shader.obj
 0003:0001d6cc       ??_C@_05BBKJDEBM@?3?5?$CFs?6?$AA@ 0061c6cc     tr_shader.obj
 0003:0001d6d4       ??_C@_0BC@HCKKJGI@?3?5?$CFs?5?$CIDEFAULTED?$CJ?6?$AA@ 0061c6d4     tr_shader.obj
 0003:0001d6ec       ??_C@_04PFOHOKJK@?5?5?5?5?$AA@ 0061c6ec     tr_shader.obj
 0003:0001d6f4       ??_C@_04PIMDLBBI@vlt?5?$AA@ 0061c6f4     tr_shader.obj
 0003:0001d6fc       ??_C@_04KHAPFJPB@lmmt?$AA@ 0061c6fc     tr_shader.obj
 0003:0001d704       ??_C@_04KFCMJFIC@sky?5?$AA@ 0061c704     tr_shader.obj
 0003:0001d70c       ??_C@_04MJPKGGAG@gen?5?$AA@ 0061c70c     tr_shader.obj
 0003:0001d714       ??_C@_02ODGLENGE@E?5?$AA@  0061c714     tr_shader.obj
 0003:0001d718       ??_C@_06GGLIPOFD@?5?5?5?5?5?5?$AA@ 0061c718     tr_shader.obj
 0003:0001d720       ??_C@_06DHLNCDIF@MT?$CId?$CJ?5?$AA@ 0061c720     tr_shader.obj
 0003:0001d728       ??_C@_06EKLFGMAP@MT?$CIm?$CJ?5?$AA@ 0061c728     tr_shader.obj
 0003:0001d730       ??_C@_06GDNDLH@MT?$CIa?$CJ?5?$AA@ 0061c730     tr_shader.obj
 0003:0001d738       ??_C@_02OMLKHGOL@L?5?$AA@  0061c738     tr_shader.obj
 0003:0001d73c       ??_C@_0BG@IIJFOJD@Initializing?5Shaders?6?$AA@ 0061c73c     tr_shader.obj
 0003:0001d758       ??_C@_0BG@JDILPGKI@size?5?$CK?5sizeof?$CIchar?5?$CK?$CJ?$AA@ 0061c758     tr_shader.obj
 0003:0001d774       ??_C@_0BH@LPFEADFM@sum?5?$CL?5numShaderFiles?$CK2?$AA@ 0061c774     tr_shader.obj
 0003:0001d790       ??_C@_0DD@GAHIEPNL@WARNING?3?5Bad?5shader?5file?5?$CFs?5has?5@ 0061c790     tr_shader.obj
 0003:0001d7d0       ??_C@_0BB@NGOCHMHE@?4?4?4loading?5?8?$CFs?8?6?$AA@ 0061c7d0     tr_shader.obj
 0003:0001d7e4       ??_C@_0L@NIPFIBOE@scripts?1?$CFs?$AA@ 0061c7e4     tr_shader.obj
 0003:0001d7f4       ??_C@_0CA@KEAFAHPN@WARNING?3?5no?5shader?5files?5found?6?$AA@ 0061c7f4     tr_shader.obj
 0003:0001d81c       ??_C@_07OMEBBDEO@scripts?$AA@ 0061c81c     tr_shader.obj
 0003:0001d828       __real@41600000            0061c828     tr_shader.obj
 0003:0001d82c       ??_C@_0BB@GHMCCJHM@?$DMstencil?5shadow?$DO?$AA@ 0061c82c     tr_shader.obj
 0003:0001d840       ??_C@_09IOAPNCJN@?$DMdefault?$DO?$AA@ 0061c840     tr_shader.obj
 0003:0001d84c       ??_C@_03OHFMDAD@sun?$AA@   0061c84c     tr_shader.obj
 0003:0001d850       ??_C@_0M@NEGJIMEO@flareShader?$AA@ 0061c850     tr_shader.obj
 0003:0001d860       __real@3e4ccccd            0061c860     tr_shadows.obj
 0003:0001d868       __real@c080000000000000    0061c868     tr_shadows.obj
 0003:0001d874       __real@c2c80000            0061c874     tr_shadows.obj
 0003:0001d878       __real@c1200000            0061c878     tr_shadows.obj
 0003:0001d87c       __real@3f19999a            0061c87c     tr_shadows.obj
 0003:0001d880       ??_C@_0BP@OIODLEAK@ClipSkyPolygon?3?5MAX_CLIP_VERTS?$AA@ 0061c880     tr_sky.obj
 0003:0001d8a8       __real@461c3c00            0061c8a8     tr_sky.obj
 0003:0001d8ac       __real@3f7f0000            0061c8ac     tr_sky.obj
 0003:0001d8b0       __real@3b800000            0061c8b0     tr_sky.obj
 0003:0001d8b4       ??_C@_1BM@NFJFHILC@?$AAs?$AAh?$AAa?$AAd?$AAe?$AAr?$AA?9?$AA?$DO?$AAi?$AAs?$AAS?$AAk?$AAy?$AA?$AA@ 0061c8b4     tr_sky.obj
 0003:0001d8d8       ??_C@_1HM@EALCNKGP@?$AAc?$AA?3?$AA?2?$AAw?$AAe?$AAb?$AA?2?$AAt?$AAr?$AAe?$AAp?$AAd?$AAe?$AAv?$AA?2?$AAt?$AAr?$AAe?$AAp?$AAi?$AAd?$AAa?$AAt?$AAi?$AAo?$AAn?$AA?2?$AAt?$AAr?$AAe?$AAp?$AA?9@ 0061c8d8     tr_sky.obj
 0003:0001d96c       __real@c0800000            0061c96c     tr_sky.obj
 0003:0001d970       __real@3ffc000000000000    0061c970     tr_sky.obj
 0003:0001d97c       ??_C@_0DA@DJLPNMLL@SHADER_MAX_VERTEXES?5hit?5in?5FillC@ 0061c97c     tr_sky.obj
 0003:0001d9b8       __real@44800000            0061c9b8     tr_sky.obj
 0003:0001d9bc       __real@45800000            0061c9bc     tr_sky.obj
 0003:0001d9c0       ??_C@_0CK@PCOMEKCP@RB_CheckOverflow?3?5indices?5?$DO?5MAX?5@ 0061c9c0     tr_surface.obj
 0003:0001d9f4       ??_C@_0CI@FEFGMFPL@RB_CheckOverflow?3?5verts?5?$DO?5MAX?5?$CI?$CF@ 0061c9f4     tr_surface.obj
 0003:0001da28       __real@3f90000000000000    0061ca28     tr_surface.obj
 0003:0001da34       __real@3e800000            0061ca34     tr_surface.obj
 0003:0001da38       __real@42340000            0061ca38     tr_surface.obj
 0003:0001da3c       ??_C@_0BJ@FAJDOIKM@Bad?5surface?5tesselated?4?6?$AA@ 0061ca3c     tr_surface.obj
 0003:0001da5c       ??_C@_0BJ@ONIEGCNG@R_PointInLeaf?3?5bad?5model?$AA@ 0061ca5c     tr_world.obj
 0003:0001da7c       ??_C@_0BF@BAHPENBA@cluster?3?$CFi?5?5area?3?$CFi?6?$AA@ 0061ca7c     tr_world.obj
 0003:0001da98       ??_C@_0DD@HLOIJDCP@Do?5not?5own?5input?5buffer?3?5truncat@ 0061ca98     bits.obj
 0003:0001dad8       ??_C@_0DA@MPJMFLGI@Could?5not?5resize?5input?5buffer?3?5t@ 0061cad8     bits.obj
 0003:0001db14       ??_C@_0CH@JHNNOEKH@Packet?5is?5larger?5than?5allocated?5@ 0061cb14     bits.obj
 0003:0001db44       ??_C@_0N@MJLPKBGK@warning?3?5?$CFs?6?$AA@ 0061cb44     bits.obj
 0003:0001db54       ??_C@_0BC@FNCFDNHJ@notification?3?5?$CFs?6?$AA@ 0061cb54     bits.obj
 0003:0001db6c       ??_C@_0DJ@MANNLDLB@Could?5not?5resize?5input?5buffer?3?5t@ 0061cb6c     bits.obj
 0003:0001dbb0       ??_C@_0CF@BOBDAKDJ@Do?5not?5own?5input?5buffer?3?5not?5pac@ 0061cbb0     bits.obj
 0003:0001dbdc       ??_C@_0CL@NBHNDCMK@Could?5not?5resize?5input?5buffer?3?5n@ 0061cbdc     bits.obj
 0003:0001dc10       ??_C@_0BO@DBLCIOHH@Buffer?5too?5small?5to?5pack?5bits?$AA@ 0061cc10     bits.obj
 0003:0001dc34       __real@58635fa9            0061cc34     cb_search.obj
 0003:0001dc38       __real@400bb6ae7d566cf4    0061cc38     cb_search.obj
 0003:0001dc48       _exc_10_16_table           0061cc48     exc_10_16_table.obj
 0003:0001dd08       _exc_10_32_table           0061cd08     exc_10_32_table.obj
 0003:0001de88       _exc_20_32_table           0061ce88     exc_20_32_table.obj
 0003:0001e188       _exc_5_256_table           0061d188     exc_5_256_table.obj
 0003:0001e788       _exc_5_64_table            0061d788     exc_5_64_table.obj
 0003:0001e908       _exc_8_128_table           0061d908     exc_8_128_table.obj
 0003:0001edd4       ??_C@_0CA@EIAGMGLH@FFT?5should?5not?5be?5done?5in?9place?$AA@ 0061ddd4     fftwrap.obj
 0003:0001ee00       __real@3f1a36e2e0000000    0061de00     filterbank.obj
 0003:0001ee10       __real@4001eb8520000000    0061de10     filterbank.obj
 0003:0001ee20       __real@3e53dd3dc0000000    0061de20     filterbank.obj
 0003:0001ee30       __real@402a333340000000    0061de30     filterbank.obj
 0003:0001ee40       __real@3f483f91e0000000    0061de40     filterbank.obj
 0003:0001ee4c       __real@3f004dfd            0061de4c     filterbank.obj
 0003:0001ee50       __real@3eaed289            0061de50     filterbank.obj
 0003:0001ee58       _shift_filt                0061de58     filters.obj
 0003:0001eebc       __real@bfe147ae            0061debc     filters.obj
 0003:0001eec0       __real@3f6147ae            0061dec0     filters.obj
 0003:0001eec4       __real@bffc83ba            0061dec4     filters.obj
 0003:0001eec8       __real@3f7c87fd            0061dec8     filters.obj
 0003:0001eecc       __real@bff79c0f            0061decc     filters.obj
 0003:0001eed0       __real@3f779c63            0061ded0     filters.obj
 0003:0001eed4       __real@bff6e297            0061ded4     filters.obj
 0003:0001eed8       __real@3f76e6da            0061ded8     filters.obj
 0003:0001eedc       __real@bff4e022            0061dedc     filters.obj
 0003:0001eee0       __real@3f74dfce            0061dee0     filters.obj
 0003:0001eee4       __real@3ecc49ba            0061dee4     filters.obj
 0003:0001eee8       __real@bfaf5c29            0061dee8     filters.obj
 0003:0001eeec       __real@3f792b80            0061deec     filters.obj
 0003:0001eef0       __real@bffc7304            0061def0     filters.obj
 0003:0001eef4       __real@3f6f7ee5            0061def4     filters.obj
 0003:0001eef8       __real@bff778ff            0061def8     filters.obj
 0003:0001eefc       __real@3f6e4303            0061defc     filters.obj
 0003:0001ef00       __real@bff6a25e            0061df00     filters.obj
 0003:0001ef04       __real@3f6a3c21            0061df04     filters.obj
 0003:0001ef08       __real@bff4a234            0061df08     filters.obj
 0003:0001ef0c       __real@26901d7d            0061df0c     filters.obj
 0003:0001ef10       __real@3fe3333333333333    0061df10     filters.obj
 0003:0001ef20       __real@3ffb851eb851eb85    0061df20     filters.obj
 0003:0001ef30       __real@3fb1eb851eb851ec    0061df30     filters.obj
 0003:0001ef40       _gain_cdbk_nb              0061df40     gain_table.obj
 0003:0001f1a8       _gain_cdbk_lbr             0061e1a8     gain_table_lbr.obj
 0003:0001f248       _hexc_10_32_table          0061e248     hexc_10_32_table.obj
 0003:0001f3c8       _hexc_table                0061e3c8     hexc_table.obj
 0003:0001f898       _high_lsp_cdbk             0061e898     high_lsp_tables.obj
 0003:0001fa98       _high_lsp_cdbk2            0061ea98     high_lsp_tables.obj
 0003:0001fd64       ??_C@_0DJ@BHIIHPOJ@assertion?5failed?3?5pos?5?$DM?$DN?5tb?9?$DOfil@ 0061ed64     jitter.obj
 0003:0001fda8       ??_C@_0DO@CAEMMKDA@c?3?2web?2trepdev?2trepidation?2trep?9@ 0061eda8     jitter.obj
 0003:0001fdf4       ??_C@_0CL@OLCMCGJA@Fatal?5?$CIinternal?$CJ?5error?5in?5?$CFs?0?5li@ 0061edf4     jitter.obj
 0003:0001fe28       ??_C@_0DF@BEPJCOFL@jitter_buffer_get?$CI?$CJ?5discarding?5n@ 0061ee28     jitter.obj
 0003:0001fe68       ??_C@_0DG@PCHCDOHN@jitter_buffer_get?$CI?$CJ?3?5packet?5too?5@ 0061ee68     jitter.obj
 0003:0001fea8       ??_C@_0BA@COIOFF@warning?3?5?$CFs?5?$CFd?6?$AA@ 0061eea8     jitter.obj
 0003:0001fec0       ??_C@_0EM@LGCADIBE@jitter?5buffer?5sees?5negative?5buff@ 0061eec0     jitter.obj
 0003:0001ff1c       ??_C@_0CE@MDMDCDDJ@Unknown?5jitter_buffer_ctl?5reques@ 0061ef1c     jitter.obj
 0003:0001ff48       __real@400921fb54442d18    0061ef48     kiss_fft.obj
 0003:0001ff54       ??_C@_0BL@OEIFCNKH@In?9place?5FFT?5not?5supported?$AA@ 0061ef54     kiss_fft.obj
 0003:0001ff78       ??_C@_0EA@EGMHBDLA@c?3?2web?2trepdev?2trepidation?2trep?9@ 0061ef78     kiss_fft.obj
 0003:0001ffc4       ??_C@_0CD@PLIHIEEJ@KissFFT?3?5max?5radix?5supported?5is?5@ 0061efc4     kiss_fft.obj
 0003:0001fff0       ??_C@_0CF@COAPMBDI@Real?5FFT?5optimization?5must?5be?5ev@ 0061eff0     kiss_fftr.obj
 0003:0002001c       ??_C@_0CG@KNANNLPE@kiss?5fft?5usage?5error?3?5improper?5a@ 0061f01c     kiss_fftr.obj
 0003:00020050       ??_C@_0EB@HMGOOCHC@c?3?2web?2trepdev?2trepidation?2trep?9@ 0061f050     kiss_fftr.obj
 0003:000200a0       __real@3f689374bc6a7efa    0061f0a0     lpc.obj
 0003:000200b0       __real@3fc999999999999a    0061f0b0     lsp.obj
 0003:000200c0       __real@3feccccccccccccd    0061f0c0     lsp.obj
 0003:000200d0       __real@3feffff200000000    0061f0d0     lsp.obj
 0003:000200e0       __real@bfdffe90c0000000    0061f0e0     lsp.obj
 0003:000200f0       __real@3fa53de1c0000000    0061f0f0     lsp.obj
 0003:00020100       __real@bf54d3d6c0000000    0061f100     lsp.obj
 0003:00020110       __real@3ff921fb544486e0    0061f110     lsp.obj
 0003:00020120       _cdbk_nb                   0061f120     lsp_tables_nb.obj
 0003:000203a0       _cdbk_nb_low1              0061f3a0     lsp_tables_nb.obj
 0003:000204e0       _cdbk_nb_low2              0061f4e0     lsp_tables_nb.obj
 0003:00020620       _cdbk_nb_high1             0061f620     lsp_tables_nb.obj
 0003:00020760       _cdbk_nb_high2             0061f760     lsp_tables_nb.obj
 0003:00020a20       __real@41f80000            0061fa20     ltp.obj
 0003:00020a28       __real@4110000000000000    0061fa28     ltp.obj
 0003:00020a34       __real@d8635fa9            0061fa34     ltp.obj
 0003:00020a38       __real@3f733333            0061fa38     ltp.obj
 0003:00020a40       __real@3fee666666666666    0061fa40     ltp.obj
 0003:00020a4c       __real@3f7d70a4            0061fa4c     ltp.obj
 0003:00020a6c       __real@3f7df3b6            0061fa6c     mdf.obj
 0003:00020a70       __real@3f7b645a            0061fa70     mdf.obj
 0003:00020a78       __real@4003333340000000    0061fa78     mdf.obj
 0003:00020a88       __real@401921fb54442d18    0061fa88     mdf.obj
 0003:00020a94       ??_C@_0CF@JGKBANKE@internal?5playback?5buffer?5corrupt@ 0061fa94     mdf.obj
 0003:00020ac0       ??_C@_0EJ@GHABDNKB@No?5playback?5frame?5available?5?$CIyou@ 0061fac0     mdf.obj
 0003:00020b18       ??_C@_0EN@KMLFENGK@Had?5to?5discard?5a?5playback?5frame?5@ 0061fb18     mdf.obj
 0003:00020b78       ??_C@_0EF@JCPCCFEP@Auto?9filling?5the?5buffer?5?$CIyour?5ap@ 0061fb78     mdf.obj
 0003:00020bcc       ??_C@_0BP@HJHBOHLA@discarded?5first?5playback?5frame?$AA@ 0061fbcc     mdf.obj
 0003:00020bf8       __real@3f9eb851e0000000    0061fbf8     mdf.obj
 0003:00020c08       __real@40cfff8000000000    0061fc08     mdf.obj
 0003:00020c18       ??_C@_0FP@LGAMLFHE@The?5echo?5canceller?5started?5actin@ 0061fc18     mdf.obj
 0003:00020c90       __real@40c3880000000000    0061fc90     mdf.obj
 0003:00020ca0       __real@41cdcd6500000000    0061fca0     mdf.obj
 0003:00020cb0       __real@3fc3333340000000    0061fcb0     mdf.obj
 0003:00020cc0       __real@3feb333340000000    0061fcc0     mdf.obj
 0003:00020cd0       __real@3fd99999a0000000    0061fcd0     mdf.obj
 0003:00020ce0       __real@3fe3333340000000    0061fce0     mdf.obj
 0003:00020cf0       __real@3fd6666666666666    0061fcf0     mdf.obj
 0003:00020d00       __real@3fefae1480000000    0061fd00     mdf.obj
 0003:00020d0c       ??_C@_0CB@DEGFPNC@Unknown?5speex_echo_ctl?5request?3?5@ 0061fd0c     mdf.obj
 0003:00020d34       ??_C@_0L@NALGBMGK@narrowband?$AA@ 0061fd34     modes.obj
 0003:00021040       _speex_nb_mode             00620040     modes.obj
 0003:000212c4       _speex_wb_mode             006202c4     modes_wb.obj
 0003:0002139c       _speex_uwb_mode            0062039c     modes_wb.obj
 0003:000213d0       _speex_mode_list           006203d0     modes_wb.obj
 0003:0002146c       ??_C@_0BP@OEPNAOAL@ultra?9wideband?5?$CIsub?9band?5CELP?$CJ?$AA@ 0062046c     modes_wb.obj
 0003:00021494       ??_C@_0BJ@NCPFBLIG@wideband?5?$CIsub?9band?5CELP?$CJ?$AA@ 00620494     modes_wb.obj
 0003:000214b4       ??_C@_0CA@GHCLMKCH@Unknown?5wb_mode_query?5request?3?5?$AA@ 006204b4     modes_wb.obj
 0003:000214dc       _exc_gain_quant_scal3_bound 006204dc     nb_celp.obj
 0003:000214f8       _exc_gain_quant_scal3      006204f8     nb_celp.obj
 0003:00021518       _exc_gain_quant_scal1_bound 00620518     nb_celp.obj
 0003:0002151c       _exc_gain_quant_scal1      0062051c     nb_celp.obj
 0003:00021524       _attenuation               00620524     nb_celp.obj
 0003:00021588       __real@3fdd1743e0000000    00620588     nb_celp.obj
 0003:00021598       __real@40019999a0000000    00620598     nb_celp.obj
 0003:000215a4       ??_C@_0CM@PGGHFKNH@assertion?5failed?3?5SUBMODE?$CIinnova@ 006205a4     nb_celp.obj
 0003:000215d8       ??_C@_0CF@KEPONAKN@assertion?5failed?3?5SUBMODE?$CIltp_qu@ 006205d8     nb_celp.obj
 0003:00021608       ??_C@_0ED@BDOMFGAK@assertion?5failed?3?5st?9?$DOwindowSize@ 00620608     nb_celp.obj
 0003:00021658       ??_C@_0DP@GJLCOJAE@c?3?2web?2trepdev?2trepidation?2trep?9@ 00620658     nb_celp.obj
 0003:000216a8       __real@400c000000000000    006206a8     nb_celp.obj
 0003:000216b8       __real@3fb11116a8b8f14e    006206b8     nb_celp.obj
 0003:000216c4       __real@bd4ccccd            006206c4     nb_celp.obj
 0003:000216c8       __real@3d4ccccd            006206c8     nb_celp.obj
 0003:000216d0       __real@3fa999999999999a    006206d0     nb_celp.obj
 0003:000216e0       __real@bee4f8b588e368f1    006206e0     nb_celp.obj
 0003:000216f0       __real@3ff199999999999a    006206f0     nb_celp.obj
 0003:00021700       __real@3fe999999999999a    00620700     nb_celp.obj
 0003:00021710       __real@3feb333333333333    00620710     nb_celp.obj
 0003:0002171c       __real@3b03126f            0062071c     nb_celp.obj
 0003:00021720       __real@3ff028f5c0000000    00620720     nb_celp.obj
 0003:00021730       __real@3fd3333340000000    00620730     nb_celp.obj
 0003:00021740       __real@3fe6666660000000    00620740     nb_celp.obj
 0003:00021750       __real@3fc99999a0000000    00620750     nb_celp.obj
 0003:0002175c       ??_C@_0CO@IOEICIKD@assertion?5failed?3?5SUBMODE?$CIinnova@ 0062075c     nb_celp.obj
 0003:00021798       __real@3fe570a3d70a3d71    00620798     nb_celp.obj
 0003:000217a4       __real@c6fa0000            006207a4     nb_celp.obj
 0003:000217a8       __real@46fa0000            006207a8     nb_celp.obj
 0003:000217ac       ??_C@_0CH@FGPFIBHI@assertion?5failed?3?5SUBMODE?$CIltp_un@ 006207ac     nb_celp.obj
 0003:000217e0       __real@bfc999999999999a    006207e0     nb_celp.obj
 0003:000217ec       __real@3f6e147b            006207ec     nb_celp.obj
 0003:000217f0       ??_C@_0DO@OMOPNNBK@More?5than?5two?5wideband?5layers?5fo@ 006207f0     nb_celp.obj
 0003:0002183c       ??_C@_0DD@IFFBIDOE@Invalid?5mode?5encountered?4?5The?5st@ 0062083c     nb_celp.obj
 0003:00021880       __real@3cd203afa0000000    00620880     nb_celp.obj
 0003:0002188c       __real@3f59999a            0062088c     nb_celp.obj
 0003:00021890       ??_C@_0BJ@LJJDMLEK@Unknown?5nb_ctl?5request?3?5?$AA@ 00620890     nb_celp.obj
 0003:00021918       __real@c0126bb98c000000    00620918     preprocess.obj
 0003:00021928       __real@3ff61adea8000000    00620928     preprocess.obj
 0003:00021938       __real@3f847ae140000000    00620938     preprocess.obj
 0003:00021948       __real@3fe75c2900000000    00620948     preprocess.obj
 0003:00021958       __real@412b774000000000    00620958     preprocess.obj
 0003:00021968       __real@40adb00000000000    00620968     preprocess.obj
 0003:00021978       __real@40cf400000000000    00620978     preprocess.obj
 0003:00021988       __real@3fd6666660000000    00620988     preprocess.obj
 0003:00021994       __real@45fa0000            00620994     preprocess.obj
 0003:00021998       __real@3eb33333            00620998     preprocess.obj
 0003:000219a0       __real@3ff921fb54442d18    006209a0     preprocess.obj
 0003:000219b0       __real@3ff459b700000000    006209b0     preprocess.obj
 0003:000219c0       __real@40db580000000000    006209c0     preprocess.obj
 0003:000219d0       __real@3fd54fdf40000000    006209d0     preprocess.obj
 0003:000219e0       __real@3fc978d500000000    006209e0     preprocess.obj
 0003:000219f0       __real@3fecc49ba0000000    006209f0     preprocess.obj
 0003:00021a00       __real@3fb3333340000000    00620a00     preprocess.obj
 0003:00021a10       __real@3fec7ae140000000    00620a10     preprocess.obj
 0003:00021a20       __real@3f9eb851eb851eb8    00620a20     preprocess.obj
 0003:00021a30       __real@3fc096bb98c7e282    00620a30     preprocess.obj
 0003:00021a40       __real@3fcd791c40000000    00620a40     preprocess.obj
 0003:00021a50       __real@bfc99999a0000000    00620a50     preprocess.obj
 0003:00021a60       __real@3fa99999a0000000    00620a60     preprocess.obj
 0003:00021a70       __real@3fee666660000000    00620a70     preprocess.obj
 0003:00021a7c       ??_C@_0CH@BPNBAON@Unknown?5speex_preprocess_ctl?5req@ 00620a7c     preprocess.obj
 0003:00021aac       ??_C@_0DP@GLHJBLIP@The?5VAD?5has?5been?5replaced?5by?5a?5h@ 00620aac     preprocess.obj
 0003:00021af8       __real@40215f212d773190    00620af8     preprocess.obj
 0003:00021b08       __real@3fbd7928e0000000    00620b08     preprocess.obj
 0003:00021b14       __real@47000000            00620b14     preprocess.obj
 0003:00021b18       __real@40e0000000000000    00620b18     preprocess.obj
 0003:00021b28       __real@3f4ffffaa19c4774    00620b28     quant_lsp.obj
 0003:00021b38       __real@3fa47ae147ae147b    00620b38     quant_lsp.obj
 0003:00021b48       __real@3f5fffe5280d6543    00620b48     quant_lsp.obj
 0003:00021b58       __real@3f6fffe5280d6543    00620b58     quant_lsp.obj
 0003:00021b68       __real@3fd4000000000000    00620b68     quant_lsp.obj
 0003:00021c80       __real@400921fb5119a314    00620c80     resample.obj
 0003:00021c90       __real@3eb0c6f7a0b5ed8d    00620c90     resample.obj
 0003:00021ca0       __real@bfd55555554c2bb5    00620ca0     resample.obj
 0003:00021cb0       __real@3fc555555567a895    00620cb0     resample.obj
 0003:00021cc0       __real@bfc555555567a895    00620cc0     resample.obj
 0003:00021cd0       __real@bfd5554760000000    00620cd0     resample.obj
 0003:00021ce0       __real@3fc5557140000000    00620ce0     resample.obj
 0003:00021cf0       __real@bfc5557140000000    00620cf0     resample.obj
 0003:00021d00       __real@40dfffa000000000    00620d00     resample.obj
 0003:00021d10       __real@c0dfffe000000000    00620d10     resample.obj
 0003:00021d1c       ??_C@_0DL@NBJMIAOH@Unknown?5error?4?5Bad?5error?5code?5or@ 00620d1c     resample.obj
 0003:00021d64       ??_C@_0CC@FGCCPGBG@Input?5and?5output?5buffers?5overlap@ 00620d64     resample.obj
 0003:00021d8c       ??_C@_0BC@PPKPNKFJ@Invalid?5argument?4?$AA@ 00620d8c     resample.obj
 0003:00021da4       ??_C@_0BF@KBONNHEI@Bad?5resampler?5state?4?$AA@ 00620da4     resample.obj
 0003:00021dc0       ??_C@_0BK@JCLLEHFP@Memory?5allocation?5failed?4?$AA@ 00620dc0     resample.obj
 0003:00021de0       ??_C@_08PHEPAKPA@Success?4?$AA@ 00620de0     resample.obj
 0003:00022010       __real@4004000000000000    00621010     sb_celp.obj
 0003:00022020       __real@3ff6a09020000000    00621020     sb_celp.obj
 0003:00022030       __real@3febf487fcb923a3    00621030     sb_celp.obj
 0003:00022040       __real@3fe6a0a520000000    00621040     sb_celp.obj
 0003:00022050       __real@c010000000000000    00621050     sb_celp.obj
 0003:0002205c       __real@bdcccccd            0062105c     sb_celp.obj
 0003:00022060       __real@3fecccccc0000000    00621060     sb_celp.obj
 0003:0002206c       ??_C@_0CA@ELGIOMID@Unknown?5nb_mode_query?5request?3?5?$AA@ 0062106c     speex.obj
 0003:00022094       ??_C@_0P@CPIKADAF@speex?91?42beta3?$AA@ 00621094     speex.obj
 0003:000220a8       ??_C@_02HAOIJKIC@?$CFc?$AA@ 006210a8     speex_callbacks.obj
 0003:000220ac       ??_C@_0CE@OFPHLGDN@This?5mode?5is?5meant?5to?5be?5used?5al@ 006210ac     speex_header.obj
 0003:000220d8       ??_C@_08LLJHJMKL@Speex?5?5?5?$AA@ 006210d8     speex_header.obj
 0003:000220e4       ??_C@_0BH@GKOEMIPN@Speex?5header?5too?5small?$AA@ 006210e4     speex_header.obj
 0003:00022100       ??_C@_0CE@BKEKGIG@This?5doesn?8t?5look?5like?5a?5Speex?5f@ 00621100     speex_header.obj
 0003:00022150       __real@3f947ae140000000    00621150     stereo.obj
 0003:00022160       __real@3fef5c2900000000    00621160     stereo.obj
 0003:00022170       _vbr_nb_thresh             00621170     vbr.obj
 0003:00022300       _vbr_hb_thresh             00621300     vbr.obj
 0003:000223e0       _vbr_uhb_thresh            006213e0     vbr.obj
 0003:000224c8       __real@40b7700000000000    006214c8     vbr.obj
 0003:000224d8       __real@40ed4c0000000000    006214d8     vbr.obj
 0003:000224e8       __real@400199999999999a    006214e8     vbr.obj
 0003:000224f8       __real@3ff999999999999a    006214f8     vbr.obj
 0003:00022504       __real@c0a00000            00621504     vbr.obj
 0003:00022508       __real@40a7700000000000    00621508     vbr.obj
 0003:00022518       __real@40dd4c0000000000    00621518     vbr.obj
 0003:00022528       __real@3ff3333333333333    00621528     vbr.obj
 0003:00022538       __real@3faeb851eb851eb8    00621538     vbr.obj
 0003:00022548       _lag_window                00621548     window.obj
 0003:00022578       _lpc_window                00621578     window.obj
 0003:00024fb0       ??_C@_0BM@FFFLPBBC@invalid?5literal?1length?5code?$AA@ 00623fb0     inffast.obj
 0003:00024fd4       ??_C@_0BG@LBKINIKP@invalid?5distance?5code?$AA@ 00623fd4     inffast.obj
 0003:00024ff0       ??_C@_0BO@ECPMAOGG@invalid?5distance?5too?5far?5back?$AA@ 00623ff0     inffast.obj
 0003:00025a78       ??_C@_0BH@FGKKJGOC@incorrect?5length?5check?$AA@ 00624a78     inflate.obj
 0003:00025a94       ??_C@_0BF@MEIGEHBE@incorrect?5data?5check?$AA@ 00624a94     inflate.obj
 0003:00025ab0       ??_C@_0BG@GMDFCBGP@invalid?5distances?5set?$AA@ 00624ab0     inflate.obj
 0003:00025acc       ??_C@_0BM@IIMGAINC@invalid?5literal?1lengths?5set?$AA@ 00624acc     inflate.obj
 0003:00025af0       ??_C@_0BK@BMMPFBBH@invalid?5bit?5length?5repeat?$AA@ 00624af0     inflate.obj
 0003:00025b10       ??_C@_0BJ@HDEPPGOH@invalid?5code?5lengths?5set?$AA@ 00624b10     inflate.obj
 0003:00025b30       ??_C@_0CE@GMIGFPBB@too?5many?5length?5or?5distance?5symb@ 00624b30     inflate.obj
 0003:00025b5c       ??_C@_0BN@LGAADGOK@invalid?5stored?5block?5lengths?$AA@ 00624b5c     inflate.obj
 0003:00025b80       ??_C@_0BD@PJCBIDD@invalid?5block?5type?$AA@ 00624b80     inflate.obj
 0003:00025b98       ??_C@_0BE@GONKLEPM@header?5crc?5mismatch?$AA@ 00624b98     inflate.obj
 0003:00025bb0       ??_C@_0BJ@BLBBCOMO@unknown?5header?5flags?5set?$AA@ 00624bb0     inflate.obj
 0003:00025bd0       ??_C@_0BE@EMOGCLGO@invalid?5window?5size?$AA@ 00624bd0     inflate.obj
 0003:00025be8       ??_C@_0BL@IHKGDAEE@unknown?5compression?5method?$AA@ 00624be8     inflate.obj
 0003:00025c08       ??_C@_0BH@LIBMMIGA@incorrect?5header?5check?$AA@ 00624c08     inflate.obj
 0003:00025c28       _inflate_copyright         00624c28     inftrees.obj
 0003:00025d94       ??_C@_0BF@CJFPCCEG@incompatible?5version?$AA@ 00624d94     zutil.obj
 0003:00025db0       ??_C@_0N@DFPGLBGC@buffer?5error?$AA@ 00624db0     zutil.obj
 0003:00025dc0       ??_C@_0BE@OGGJBMCE@insufficient?5memory?$AA@ 00624dc0     zutil.obj
 0003:00025dd8       ??_C@_0L@HAHMBNLP@data?5error?$AA@ 00624dd8     zutil.obj
 0003:00025de8       ??_C@_0N@MKKNPMJD@stream?5error?$AA@ 00624de8     zutil.obj
 0003:00025df8       ??_C@_0L@KIJFAKBJ@file?5error?$AA@ 00624df8     zutil.obj
 0003:00025e08       ??_C@_0L@FNAOCBOG@stream?5end?$AA@ 00624e08     zutil.obj
 0003:00025e18       ??_C@_0BA@MOKMMFOD@need?5dictionary?$AA@ 00624e18     zutil.obj
 0003:00025e2c       _z_errmsg                  00624e2c     zutil.obj
 0003:00025ee4       _eui48_broadcast           00624ee4     ws2_32:indef.obj
 0003:00025eec       _sourceroute_unspecified   00624eec     ws2_32:indef.obj
 0003:00025ef0       _scopeid_unspecified       00624ef0     ws2_32:indef.obj
 0003:00025ef4       _in4addr_any               00624ef4     ws2_32:indef.obj
 0003:00025ef8       _in4addr_loopback          00624ef8     ws2_32:indef.obj
 0003:00025efc       _in4addr_broadcast         00624efc     ws2_32:indef.obj
 0003:00025f00       _in4addr_allnodesonlink    00624f00     ws2_32:indef.obj
 0003:00025f04       _in4addr_allroutersonlink  00624f04     ws2_32:indef.obj
 0003:00025f08       _in4addr_alligmpv3routersonlink 00624f08     ws2_32:indef.obj
 0003:00025f0c       _in4addr_allteredohostsonlink 00624f0c     ws2_32:indef.obj
 0003:00025f10       _in4addr_linklocalprefix   00624f10     ws2_32:indef.obj
 0003:00025f14       _in4addr_multicastprefix   00624f14     ws2_32:indef.obj
 0003:00025f18       _in6addr_any               00624f18     ws2_32:indef.obj
 0003:00025f2c       _in6addr_loopback          00624f2c     ws2_32:indef.obj
 0003:00025f40       _in6addr_allnodesonnode    00624f40     ws2_32:indef.obj
 0003:00025f54       _in6addr_allnodesonlink    00624f54     ws2_32:indef.obj
 0003:00025f68       _in6addr_allroutersonlink  00624f68     ws2_32:indef.obj
 0003:00025f7c       _in6addr_allmldv2routersonlink 00624f7c     ws2_32:indef.obj
 0003:00025f90       _in6addr_teredoinitiallinklocaladdress 00624f90     ws2_32:indef.obj
 0003:00025fa4       _in6addr_linklocalprefix   00624fa4     ws2_32:indef.obj
 0003:00025fb8       _in6addr_multicastprefix   00624fb8     ws2_32:indef.obj
 0003:00025fcc       _in6addr_solicitednodemulticastprefix 00624fcc     ws2_32:indef.obj
 0003:00025fe0       _in6addr_v4mappedprefix    00624fe0     ws2_32:indef.obj
 0003:00025ff4       _in6addr_6to4prefix        00624ff4     ws2_32:indef.obj
 0003:00026008       _in6addr_teredoprefix      00625008     ws2_32:indef.obj
 0003:0002601c       _in6addr_teredoprefix_old  0062501c     ws2_32:indef.obj
 0003:0002603c       ?ProcessDetach@NativeDll@<CrtImplementationDetails>@@0IB 0062503c     msvcrt:unhandld.obj
 0003:00026040       ?ProcessAttach@NativeDll@<CrtImplementationDetails>@@0IB 00625040     msvcrt:unhandld.obj
 0003:00026044       ?ThreadAttach@NativeDll@<CrtImplementationDetails>@@0IB 00625044     msvcrt:unhandld.obj
 0003:00026048       ?ThreadDetach@NativeDll@<CrtImplementationDetails>@@0IB 00625048     msvcrt:unhandld.obj
 0003:0002604c       ?ProcessVerifier@NativeDll@<CrtImplementationDetails>@@0IB 0062504c     msvcrt:unhandld.obj
 0003:00026050       ??_C@_0BA@KMDNPDDA@WinMain?$CI?$CJ?5error?$AA@ 00625050     SDLmain:SDL_win32_main.obj
 0003:00026064       ??_C@_07KJFPOMFC@?$CFs?3?5?$CFs?6?$AA@ 00625064     SDLmain:SDL_win32_main.obj
 0003:00026070       ??_C@_0M@HFFOIJBL@Fatal?5Error?$AA@ 00625070     SDLmain:SDL_win32_main.obj
 0003:00026080       ??_C@_0BJ@HFNMHALN@Out?5of?5memory?5?9?5aborting?$AA@ 00625080     SDLmain:SDL_win32_main.obj
 0003:000260a0       ??_C@_0BD@HMOJNOCB@SDL_STDIO_REDIRECT?$AA@ 006250a0     SDLmain:SDL_win32_main.obj
 0003:000260b8       ??_C@_09KDGFPKMD@DDRAW?4DLL?$AA@ 006250b8     SDLmain:SDL_win32_main.obj
 0003:000260c4       ??_C@_0M@FJGJFMAC@?1stderr?4txt?$AA@ 006250c4     SDLmain:SDL_win32_main.obj
 0003:000260d4       ??_C@_0M@NLFHJNFJ@?1stdout?4txt?$AA@ 006250d4     SDLmain:SDL_win32_main.obj
 0003:000270d0       ___rtc_iaa                 006260d0     msvcrt:_initsect_.obj
 0003:000271d4       ___rtc_izz                 006261d4     msvcrt:_initsect_.obj
 0003:000272d8       ___rtc_taa                 006262d8     msvcrt:_initsect_.obj
 0003:000273dc       ___rtc_tzz                 006263dc     msvcrt:_initsect_.obj
 0004:00000000       ?__LINE__Var@?1??CL_OpenAVIForWriting@@9@9 00627000     cl_avi.obj
 0004:00000004       ?__LINE__Var@?1??CL_CgameSystemCalls@@9@9 00627004     cl_cgame.obj
 0004:00000014       _g_console_field_width     00627014     cl_console.obj
 0004:00000018       _console_color             00627018     cl_console.obj
 0004:00000030       _keynames                  00627030     cl_keys.obj
 0004:00000868       ?__LINE__Var@?1??CL_CaptureVoip@@9@9@bc33cdc2 00627868     cl_main.obj
 0004:0000086c       ?__LINE__Var@?1??CL_RefMalloc@@9@9 0062786c     cl_main.obj
 0004:00000870       _svc_strings               00627870     cl_parse.obj
 0004:00000d3c       ?__LINE__Var@?1??CL_ParseVoip@@9@9@2b3f2705 00627d3c     cl_parse.obj
 0004:00000d40       ?__LINE__Var@?1??SCR_DrawNamedPic@@9@9 00627d40     cl_scrn.obj
 0004:00000d44       ?__LINE__Var@?1??CMod_LoadShaders@@9@9 00627d44     cm_load.obj
 0004:00000d48       ?__LINE__Var@?1??CMod_LoadSubmodels@@9@9 00627d48     cm_load.obj
 0004:00000d4c       ?__LINE__Var@?1??CMod_LoadNodes@@9@9 00627d4c     cm_load.obj
 0004:00000d50       ?__LINE__Var@?1??CMod_LoadBrushes@@9@9 00627d50     cm_load.obj
 0004:00000d54       ?__LINE__Var@?1??CMod_LoadLeafs@@9@9 00627d54     cm_load.obj
 0004:00000d58       ?__LINE__Var@?1??CMod_LoadPlanes@@9@9 00627d58     cm_load.obj
 0004:00000d5c       ?__LINE__Var@?1??CMod_LoadLeafBrushes@@9@9 00627d5c     cm_load.obj
 0004:00000d60       ?__LINE__Var@?1??CMod_LoadLeafSurfaces@@9@9 00627d60     cm_load.obj
 0004:00000d64       ?__LINE__Var@?1??CMod_LoadBrushSides@@9@9 00627d64     cm_load.obj
 0004:00000d68       ?__LINE__Var@?1??CMod_LoadEntityString@@9@9 00627d68     cm_load.obj
 0004:00000d6c       ?__LINE__Var@?1??CMod_LoadVisibility@@9@9 00627d6c     cm_load.obj
 0004:00000d70       ?__LINE__Var@?1??CMod_LoadPatches@@9@9 00627d70     cm_load.obj
 0004:00000d74       ?__LINE__Var@?1??CM_LoadMap@@9@9 00627d74     cm_load.obj
 0004:00000d78       ?__LINE__Var@?1??CM_GeneratePatchCollide@@9@9 00627d78     cm_patch.obj
 0004:00000d7c       ?__LINE__Var@?1??CM_PatchCollideFromGrid@@9@9@8ac2161e 00627d7c     cm_patch.obj
 0004:00000d80       ?__LINE__Var@?1??AllocWinding@@9@9 00627d80     cm_polylib.obj
 0004:00000d84       ?__LINE__Var@?1??CM_Trace@@9@9 00627d84     cm_trace.obj
 0004:00000d88       ?__LINE__Var@?1??Cmd_AddCommand@@9@9 00627d88     cmd.obj
 0004:00000d90       _demo_protocols            00627d90     common.obj
 0004:00000da0       _emptystring               00627da0     common.obj
 0004:00000dc8       _numberstring              00627dc8     common.obj
 0004:00000f58       _cl_cdkey                  00627f58     common.obj
 0004:00000fdc       ?__LINE__Var@?1??CopyString@@9@9 00627fdc     common.obj
 0004:00000fe0       ?__LINE__Var@?1??Hunk_AllocateTempMemory@@9@9 00627fe0     common.obj
 0004:00000fe4       ?__LINE__Var@?1??Com_GetSystemEvent@@9@9 00627fe4     common.obj
 0004:00000fe8       ?__LINE__Var@?1??Com_GetRealEvent@@9@9 00627fe8     common.obj
 0004:00000fec       ?__LINE__Var@?1??Cvar_Update@@9@9 00627fec     cvar.obj
 0004:00000ff0       ?__LINE__Var@?1??FS_LoadZipFile@@9@9@7ea50fd5 00627ff0     files.obj
 0004:00000ff4       ?__LINE__Var@?1??FS_ListFilteredFiles@@9@9 00627ff4     files.obj
 0004:00000ff8       ?__LINE__Var@?1??Sys_ConcatenateFileLists@@9@9@7ea50fd5 00627ff8     files.obj
 0004:00000ffc       ?__LINE__Var@?1??FS_SortFileList@@9@9 00627ffc     files.obj
 0004:00001000       ?__LINE__Var@?1??FS_AddGameDirectory@@9@9 00628000     files.obj
 0004:00001008       _kbitmask                  00628008     msg.obj
 0004:00001088       _entityStateFields         00628088     msg.obj
 0004:000012f8       _playerStateFields         006282f8     msg.obj
 0004:00001538       _msg_hData                 00628538     msg.obj
 0004:00001b10       ?__LINE__Var@?1??MSG_WriteDeltaEntity@@9@9 00628b10     msg.obj
 0004:00001b20       ?__LINE__Var@?1??NET_QueuePacket@@9@9@1f516772 00628b20     net_chan.obj
 0004:00001b50       _axisDefault               00628b50     q_math.obj
 0004:00001b74       _colorBlack                00628b74     q_math.obj
 0004:00001b84       _colorRed                  00628b84     q_math.obj
 0004:00001b94       _colorGreen                00628b94     q_math.obj
 0004:00001ba4       _colorBlue                 00628ba4     q_math.obj
 0004:00001bb4       _colorYellow               00628bb4     q_math.obj
 0004:00001bc4       _colorMagenta              00628bc4     q_math.obj
 0004:00001bd4       _colorCyan                 00628bd4     q_math.obj
 0004:00001be4       _colorWhite                00628be4     q_math.obj
 0004:00001bf4       _colorLtGrey               00628bf4     q_math.obj
 0004:00001c04       _colorMdGrey               00628c04     q_math.obj
 0004:00001c14       _colorDkGrey               00628c14     q_math.obj
 0004:00001c28       _g_color_table             00628c28     q_math.obj
 0004:00001ca8       _bytedirs                  00628ca8     q_math.obj
 0004:0000260c       ?__LINE__Var@?1??ProjectPointOnPlane@@9@9 0062960c     q_math.obj
 0004:000028e8       ?__LINE__Var@?1??S_CodecUtilOpen@@9@9 006298e8     snd_codec.obj
 0004:000028ec       _wav_codec                 006298ec     snd_codec_wav.obj
 0004:00002908       ?__LINE__Var@?1??S_WAV_CodecLoad@@9@9 00629908     snd_codec_wav.obj
 0004:00002914       ?__LINE__Var@?1??S_AL_UpdateEntityPosition@@9@9@768fef85 00629914     snd_openal.obj
 0004:00002918       ?__LINE__Var@?1??S_AL_StartSound@@9@9@768fef85 00629918     snd_openal.obj
 0004:0000291c       ?__LINE__Var@?1??S_AL_SrcLoop@@9@9@768fef85 0062991c     snd_openal.obj
 0004:00002920       ?__LINE__Var@?1??S_AL_Respatialize@@9@9@768fef85 00629920     snd_openal.obj
 0004:00002a5c       ?__LINE__Var@?1??SV_BotInitBotLib@@9@9 00629a5c     sv_bot.obj
 0004:00002a60       ?__LINE__Var@?1??BotImport_GetMemory@@9@9@887d39e9 00629a60     sv_bot.obj
 0004:00002a64       ?__LINE__Var@?1??BotImport_HunkAlloc@@9@9@887d39e9 00629a64     sv_bot.obj
 0004:00002a68       ?__LINE__Var@?1??SV_RehashBans_f@@9@9@5bcf540b 00629a68     sv_ccmds.obj
 0004:00002ad0       ?__LINE__Var@?1??SV_WriteDownloadToClient@@9@9 00629ad0     sv_client.obj
 0004:00002ad4       ?__LINE__Var@?1??SV_UserVoip@@9@9@9504281d 00629ad4     sv_client.obj
 0004:00002ad8       ?__LINE__Var@?1??SV_ChangeMaxClients@@9@9 00629ad8     sv_init.obj
 0004:00002adc       ?__LINE__Var@?1??SV_SpawnServer@@9@9 00629adc     sv_init.obj
 0004:00002ae0       ?__LINE__Var@?1??SV_Startup@@9@9@dccddb18 00629ae0     sv_init.obj
 0004:00002ae4       ?__LINE__Var@?1??SV_Netchan_Transmit@@9@9 00629ae4     sv_net_chan.obj
 0004:00002b10       ?__LINE__Var@?1??Sys_LoadDll@@9@9 00629b10     sys_main.obj
 0004:00002b14       ?__LINE__Var@?1??Sys_GetClipboardData@@9@9 00629b14     sys_win32.obj
 0004:00002b18       ?__LINE__Var@?1??Sys_ListFiles@@9@9 00629b18     sys_win32.obj
 0004:00002b1c       ?__LINE__Var@?1??VM_LoadSymbols@@9@9 00629b1c     vm.obj
 0004:00002b20       ?__LINE__Var@?1??VM_LoadQVM@@9@9 00629b20     vm.obj
 0004:00002b24       ?__LINE__Var@?1??VM_Create@@9@9 00629b24     vm.obj
 0004:00002b28       ?__LINE__Var@?1??VM_VmProfile_f@@9@9 00629b28     vm.obj
 0004:00002b30       ?__LINE__Var@?1??VM_PrepareInterpreter@@9@9 00629b30     vm_interpreted.obj
 0004:00002b38       ?__LINE__Var@?1??VM_Compile@@9@9 00629b38     vm_x86.obj
 0004:00002b3c       _nofaceflood               00629b3c     be_aas_cluster.obj
 0004:00002b7c       ?__LINE__Var@?1??StringsMatch@@9@9 00629b7c     be_ai_chat.obj
 0004:00002b80       ?__LINE__Var@?1??BotMatchVariable@@9@9 00629b80     be_ai_chat.obj
 0004:00002b84       ?__LINE__Var@?1??BotExpandChatMessage@@9@9 00629b84     be_ai_chat.obj
 0004:00002b88       _iteminfo_fields           00629b88     be_ai_goal.obj
 0004:00002c84       _iteminfo_struct           00629c84     be_ai_goal.obj
 0004:000031d4       ?__LINE__Var@?1??GetBotLibAPI@@9@9 0062a1d4     be_interface.obj
 0004:000031d8       _crctable                  0062a1d8     l_crc.obj
 0004:00003440       _directives                0062a440     l_precomp.obj
 0004:000034e0       _dollardirectives          0062a4e0     l_precomp.obj
 0004:000035c0       _default_punctuations      0062a5c0     l_script.obj
 0004:0000390c       ?__LINE__Var@?1??GL_State@@9@9 0062a90c     tr_backend.obj
 0004:00003914       ?__LINE__Var@?1??R_MovePatchSurfacesToHunk@@9@9 0062a914     tr_bsp.obj
 0004:00003918       ?__LINE__Var@?1??R_LoadLightGrid@@9@9 0062a918     tr_bsp.obj
 0004:0000391c       ?__LINE__Var@?1??R_LoadEntities@@9@9 0062a91c     tr_bsp.obj
 0004:00003920       ?__LINE__Var@?1??RE_LoadWorldMap@@9@9 0062a920     tr_bsp.obj
 0004:00003924       ?__LINE__Var@?1??R_LoadVisibility@@9@9@aacd2fba 0062a924     tr_bsp.obj
 0004:00003928       ?__LINE__Var@?1??R_LoadSurfaces@@9@9@aacd2fba 0062a928     tr_bsp.obj
 0004:0000392c       ?__LINE__Var@?1??ParseFace@@9@9@aacd2fba 0062a92c     tr_bsp.obj
 0004:00003930       ?__LINE__Var@?1??ParseTriSurf@@9@9@aacd2fba 0062a930     tr_bsp.obj
 0004:00003934       ?__LINE__Var@?1??ParseFlare@@9@9@aacd2fba 0062a934     tr_bsp.obj
 0004:00003938       ?__LINE__Var@?1??R_LoadSubmodels@@9@9@aacd2fba 0062a938     tr_bsp.obj
 0004:0000393c       ?__LINE__Var@?1??R_LoadNodesAndLeafs@@9@9@aacd2fba 0062a93c     tr_bsp.obj
 0004:00003940       ?__LINE__Var@?1??R_LoadShaders@@9@9@aacd2fba 0062a940     tr_bsp.obj
 0004:00003944       ?__LINE__Var@?1??R_LoadMarksurfaces@@9@9@aacd2fba 0062a944     tr_bsp.obj
 0004:00003948       ?__LINE__Var@?1??R_LoadPlanes@@9@9@aacd2fba 0062a948     tr_bsp.obj
 0004:0000394c       ?__LINE__Var@?1??R_LoadFogs@@9@9@aacd2fba 0062a94c     tr_bsp.obj
 0004:00003964       ?__LINE__Var@?1??R_IssueRenderCommands@@9@9 0062a964     tr_cmds.obj
 0004:000039b8       _gl_filter_min             0062a9b8     tr_image.obj
 0004:000039bc       _gl_filter_max             0062a9bc     tr_image.obj
 0004:000039c0       _modes                     0062a9c0     tr_image.obj
 0004:00003a08       _mipBlendColors            0062aa08     tr_image.obj
 0004:00003aa4       ?__LINE__Var@?1??R_CreateImage@@9@9 0062aaa4     tr_image.obj
 0004:00003aa8       ?__LINE__Var@?1??RE_RegisterSkin@@9@9 0062aaa8     tr_image.obj
 0004:00003aac       ?__LINE__Var@?1??R_InitSkins@@9@9 0062aaac     tr_image.obj
 0004:00003ab0       _r_vidModes                0062aab0     tr_init.obj
 0004:00003ba4       ?__LINE__Var@?1??R_Init@@9@9 0062aba4     tr_init.obj
 0004:00003ba8       ?__LINE__Var@?1??R_SetupEntityLightingGrid@@9@9@ede34b4e 0062aba8     tr_light.obj
 0004:00003bf0       _entitySurface             0062abf0     tr_main.obj
 0004:00003c04       ?__LINE__Var@?1??SurfIsOffscreen@@9@9@0c8f75f5 0062ac04     tr_main.obj
 0004:00003c08       ?__LINE__Var@?1??R_AllocModel@@9@9 0062ac08     tr_model.obj
 0004:00003c0c       ?__LINE__Var@?1??R_LoadMD3@@9@9@3a32f322 0062ac0c     tr_model.obj
 0004:00003c10       ?__LINE__Var@?1??R_LoadMD4@@9@9@3a32f322 0062ac10     tr_model.obj
 0004:00003c18       ?__LINE__Var@?1??R_DrawStripElements@@9@9@6f5bf793 0062ac18     tr_shade.obj
 0004:00003c1c       _edgeVerts                 0062ac1c     tr_shade_calc.obj
 0004:00003c4c       _lightOrigin               0062ac4c     tr_shade_calc.obj
 0004:00003c80       _infoParms                 0062ac80     tr_shader.obj
 0004:00003f98       ?__LINE__Var@?1??GeneratePermanentShader@@9@9@9da34f77 0062af98     tr_shader.obj
 0004:00003f9c       ?__LINE__Var@?1??ScanAndLoadShaderFiles@@9@9@9da34f77 0062af9c     tr_shader.obj
 0004:000040c0       ?__LINE__Var@?1??R_BuildCloudData@@9@9 0062b0c0     tr_sky.obj
 0004:000040c4       _rb_surfaceTable           0062b0c4     tr_surface.obj
 0004:000040f8       ?__LINE__Var@?1??tb_add@@9@9@234f8375 0062b0f8     jitter.obj
 0004:000040fc       ?__LINE__Var@?1??kiss_fft_stride@@9@9 0062b0fc     kiss_fft.obj
 0004:00004100       ?__LINE__Var@?1??kf_bfly_generic@@9@9@aeadc9af 0062b100     kiss_fft.obj
 0004:00004104       ?__LINE__Var@?1??kiss_fftr@@9@9 0062b104     kiss_fftr.obj
 0004:00004108       ?__LINE__Var@?1??kiss_fftri@@9@9 0062b108     kiss_fftr.obj
 0004:0000410c       ?__LINE__Var@?1??kiss_fftr2@@9@9 0062b10c     kiss_fftr.obj
 0004:00004110       ?__LINE__Var@?1??kiss_fftri2@@9@9 0062b110     kiss_fftr.obj
 0004:00004114       ?__LINE__Var@?1??nb_encode@@9@9 0062b114     nb_celp.obj
 0004:00004118       ?__LINE__Var@?1??nb_decode@@9@9 0062b118     nb_celp.obj
 0004:00004814       _AddressFamilyInformation  0062b814     ws2_32:indef.obj
 0004:00004840       ___security_cookie         0062b840     msvcrt:gs_cookie.obj
 0004:00004844       ___security_cookie_complement 0062b844     msvcrt:gs_cookie.obj
 0004:00004850       ___native_dllmain_reason   0062b850     msvcrt:natstart.obj
 0004:00004854       ___native_vcclrit_reason   0062b854     msvcrt:natstart.obj
 0004:00004860       ___globallocalestatus      0062b860     msvcrt:xthdloc.obj
 0004:00004864       ___defaultmatherr          0062b864     msvcrt:merr.obj
 0004:003aa37c       _newsize                   009d137c     cl_net_chan.obj
 0004:0048fd44       _com_errorEntered          00ab6d44     common.obj
 0004:0048fd48       _com_fullyInitialized      00ab6d48     common.obj
 0004:0048fd4c       _com_gameRestarting        00ab6d4c     common.obj
 0004:0049e5d8       _cvar_vars                 00ac55d8     cvar.obj
 0004:004d6f2c       _oldsize                   00afdf2c     msg.obj
 0004:004da40c       _packetQueue               00b0140c     net_chan.obj
 0004:004de794       _vec3_origin               00b05794     q_math.obj
 0004:004f91d0       _snd_inited                00b201d0     sdl_snd.obj
 0004:00507470       _s_backgroundStream        00b2e470     snd_dma.obj
 0004:00507474       _s_numSfx                  00b2e474     snd_dma.obj
 0004:0050a260       _sfxScratchBuffer          00b31260     snd_mem.obj
 0004:0050a264       _sfxScratchPointer         00b31264     snd_mem.obj
 0004:0050a268       _sfxScratchIndex           00b31268     snd_mem.obj
 0004:00659428       _gvm                       00c80428     sv_main.obj
 0004:0065942c       _serverBansCount           00c8042c     sv_main.obj
 0004:0067bd2c       _currentVM                 00ca2d2c     vm.obj
 0004:0067bd30       _lastVM                    00ca2d30     vm.obj
 0004:00685844       _consolemessageheap        00cac844     be_ai_chat.obj
 0004:00685848       _freeconsolemessages       00cac848     be_ai_chat.obj
 0004:0068584c       _matchtemplates            00cac84c     be_ai_chat.obj
 0004:00685850       _synonyms                  00cac850     be_ai_chat.obj
 0004:00685854       _randomstrings             00cac854     be_ai_chat.obj
 0004:00685858       _replychats                00cac858     be_ai_chat.obj
 0004:00685860       _itemconfig                00cac860     be_ai_goal.obj
 0004:00685864       _levelitemheap             00cac864     be_ai_goal.obj
 0004:00685868       _freelevelitems            00cac868     be_ai_goal.obj
 0004:0068586c       _levelitems                00cac86c     be_ai_goal.obj
 0004:00685870       _numlevelitems             00cac870     be_ai_goal.obj
 0004:00685874       _maplocations              00cac874     be_ai_goal.obj
 0004:00685878       _campspots                 00cac878     be_ai_goal.obj
 0004:0068587c       _g_gametype                00cac87c     be_ai_goal.obj
 0004:00685880       _droppedweight             00cac880     be_ai_goal.obj
 0004:006859cc       _botlibsetup               00cac9cc     be_interface.obj
 0004:006859d0       _libvarlist                00cac9d0     l_libvar.obj
 0004:006abdd8       _textureFilterAnisotropic  00cd2dd8     tr_init.obj
 0004:006abddc       _maxAnisotropy             00cd2ddc     tr_init.obj
 0004:006abde0       _displayAspect             00cd2de0     tr_init.obj
 0004:0079c12c       __dowildcard               00dc312c     msvcrt:wildcard.obj
 0004:0079c130       __newmode                  00dc3130     msvcrt:_newmode.obj
 0004:0079c134       __commode                  00dc3134     msvcrt:xncommod.obj
 0004:0079c138       __fmode                    00dc3138     msvcrt:xtxtmode.obj
 0004:0079c3c0       _tess                      00dc33c0     <common>
 0004:007bab74       _r_numentities             00de1b74     <common>
 0004:007bab88       _r_numdlights              00de1b88     <common>
 0004:007bab8c       _r_firstSceneDlight        00de1b8c     <common>
 0004:007bab90       _r_numpolyverts            00de1b90     <common>
 0004:007bab94       _r_firstScenePoly          00de1b94     <common>
 0004:007bab98       _r_firstSceneDrawSurf      00de1b98     <common>
 0004:007bab9c       _r_firstSceneEntity        00de1b9c     <common>
 0004:007baba0       _r_numpolys                00de1ba0     <common>
 0004:007baba4       _loadmodel                 00de1ba4     <common>
 0004:007babc0       _tr                        00de1bc0     <common>
 0004:007ed020       _ri                        00e14020     <common>
 0004:007ed090       _r_nocurves                00e14090     <common>
 0004:007ed9d0       _r_verbose                 00e149d0     <common>
 0004:007ed9d4       _r_picmip                  00e149d4     <common>
 0004:007ed9d8       _r_showImages              00e149d8     <common>
 0004:007ed9dc       _r_norefresh               00e149dc     <common>
 0004:007ed9e0       _r_colorbits               00e149e0     <common>
 0004:007ed9e4       _r_flares                  00e149e4     <common>
 0004:007ed9e8       _r_lightmap                00e149e8     <common>
 0004:007ed9ec       _r_intensity               00e149ec     <common>
 0004:007ed9f0       _r_ext_multitexture        00e149f0     <common>
 0004:007ed9f4       _r_fullscreen              00e149f4     <common>
 0004:007ed9f8       _r_colorMipLevels          00e149f8     <common>
 0004:007ed9fc       _r_drawentities            00e149fc     <common>
 0004:007eda00       _r_shadows                 00e14a00     <common>
 0004:007eda04       _r_printShaders            00e14a04     <common>
 0004:007eda08       _r_showtris                00e14a08     <common>
 0004:007eda0c       _r_measureOverdraw         00e14a0c     <common>
 0004:007eda10       _r_allowExtensions         00e14a10     <common>
 0004:007eda14       _r_gamma                   00e14a14     <common>
 0004:007eda18       _r_portalOnly              00e14a18     <common>
 0004:007eda1c       _r_textureMode             00e14a1c     <common>
 0004:007eda20       _r_dlightBacks             00e14a20     <common>
 0004:007eda24       _r_maxpolyverts            00e14a24     <common>
 0004:007eda28       _r_lodbias                 00e14a28     <common>
 0004:007eda2c       _r_lodCurveError           00e14a2c     <common>
 0004:007eda30       _r_stencilbits             00e14a30     <common>
 0004:007eda34       _r_customwidth             00e14a34     <common>
 0004:007eda38       _r_ignore                  00e14a38     <common>
 0004:007eda3c       _r_flareSize               00e14a3c     <common>
 0004:007eda40       _r_maxpolys                00e14a40     <common>
 0004:007eda44       _r_drawSun                 00e14a44     <common>
 0004:007eda48       _r_nobind                  00e14a48     <common>
 0004:007eda4c       _r_mode                    00e14a4c     <common>
 0004:007eda50       _r_debugLight              00e14a50     <common>
 0004:007eda54       _r_railSegmentLength       00e14a54     <common>
 0004:007eda58       _r_offsetFactor            00e14a58     <common>
 0004:007eda5c       _r_lodscale                00e14a5c     <common>
 0004:007eda60       _r_drawworld               00e14a60     <common>
 0004:007eda64       _r_ext_max_anisotropy      00e14a64     <common>
 0004:007eda68       _r_railCoreWidth           00e14a68     <common>
 0004:007eda6c       _r_showcluster             00e14a6c     <common>
 0004:007eda70       _r_facePlaneCull           00e14a70     <common>
 0004:007eda74       _r_fullbright              00e14a74     <common>
 0004:007eda78       _r_uiFullScreen            00e14a78     <common>
 0004:007eda7c       _r_drawBuffer              00e14a7c     <common>
 0004:007eda80       _r_clear                   00e14a80     <common>
 0004:007eda84       _r_nocull                  00e14a84     <common>
 0004:007eda88       _max_polyverts             00e14a88     <common>
 0004:007eda8c       _max_polys                 00e14a8c     <common>
 0004:007eda90       _r_lockpvs                 00e14a90     <common>
 0004:007eda94       _r_noportals               00e14a94     <common>
 0004:007eda98       _r_mapOverBrightBits       00e14a98     <common>
 0004:007eda9c       _r_vertexLight             00e14a9c     <common>
 0004:007edaa0       _r_flareCoeff              00e14aa0     <common>
 0004:007edaa4       _r_offsetUnits             00e14aa4     <common>
 0004:007edaa8       _r_railWidth               00e14aa8     <common>
 0004:007edaac       _r_flareFade               00e14aac     <common>
 0004:007edab0       _r_novis                   00e14ab0     <common>
 0004:007edab4       _r_dynamiclight            00e14ab4     <common>
 0004:007edab8       _r_ignoreFastPath          00e14ab8     <common>
 0004:007edabc       _r_ext_compressed_textures 00e14abc     <common>
 0004:007edac0       _r_skipBackEnd             00e14ac0     <common>
 0004:007edac4       _r_overBrightBits          00e14ac4     <common>
 0004:007edac8       _r_fastsky                 00e14ac8     <common>
 0004:007edacc       _r_saveFontData            00e14acc     <common>
 0004:007edad0       _r_singleShader            00e14ad0     <common>
 0004:007edae0       _glState                   00e14ae0     <common>
 0004:007edb00       _r_debugSort               00e14b00     <common>
 0004:007edb04       _r_ignoreGLErrors          00e14b04     <common>
 0004:007edb08       _r_showSmp                 00e14b08     <common>
 0004:007edb0c       _r_shownormals             00e14b0c     <common>
 0004:007edb10       _r_inGameVideo             00e14b10     <common>
 0004:007edb14       _r_ext_multisample         00e14b14     <common>
 0004:007edb18       _r_primitives              00e14b18     <common>
 0004:007edb1c       _r_finish                  00e14b1c     <common>
 0004:007edb20       _r_noborder                00e14b20     <common>
 0004:007edb24       _r_showsky                 00e14b24     <common>
 0004:007edb28       _r_texturebits             00e14b28     <common>
 0004:007edb2c       _r_roundImagesDown         00e14b2c     <common>
 0004:007edb30       _r_stereoEnabled           00e14b30     <common>
 0004:007edb34       _r_speeds                  00e14b34     <common>
 0004:007edb38       _r_zproj                   00e14b38     <common>
 0004:007edb3c       _r_customheight            00e14b3c     <common>
 0004:007edb40       _r_ignorehwgamma           00e14b40     <common>
 0004:007edb44       _r_swapInterval            00e14b44     <common>
 0004:007edb48       _r_logFile                 00e14b48     <common>
 0004:007edb4c       _r_ambientScale            00e14b4c     <common>
 0004:007edb50       _r_customPixelAspect       00e14b50     <common>
 0004:007edb54       _r_smp                     00e14b54     <common>
 0004:007edb58       _r_stereoSeparation        00e14b58     <common>
 0004:007edb5c       _r_simpleMipMaps           00e14b5c     <common>
 0004:007edb60       _r_subdivisions            00e14b60     <common>
 0004:007edb80       _glConfig                  00e14b80     <common>
 0004:007f07c4       _r_znear                   00e177c4     <common>
 0004:007f07c8       _r_debugSurface            00e177c8     <common>
 0004:007f07cc       _r_ext_texture_filter_anisotropic 00e177cc     <common>
 0004:007f07d0       _r_ext_texture_env_add     00e177d0     <common>
 0004:007f07d4       _r_depthbits               00e177d4     <common>
 0004:007f07d8       _r_marksOnTriangleMeshes   00e177d8     <common>
 0004:007f07dc       _r_directedScale           00e177dc     <common>
 0004:007f07e0       _r_ext_compiled_vertex_array 00e177e0     <common>
 0004:007f07e4       _r_detailTextures          00e177e4     <common>
 0004:007f07e8       _r_anaglyphMode            00e177e8     <common>
 0004:007f07ec       _r_greyscale               00e177ec     <common>
 0004:007f07f0       _r_activeFlares            00e177f0     <common>
 0004:007f0f34       _flareCoeff                00e17f34     <common>
 0004:007f0f40       _r_flareStructs            00e17f40     <common>
 0004:007f3340       _r_inactiveFlares          00e1a340     <common>
 0004:007f3344       _renderCommandList         00e1a344     <common>
 0004:007f3354       _c_blockedOnMain           00e1a354     <common>
 0004:007f3358       _renderThreadActive        00e1a358     <common>
 0004:007f335c       _c_blockedOnRender         00e1a35c     <common>
 0004:007f3360       _c_gridVerts               00e1a360     <common>
 0004:007f3370       _c_subdivisions            00e1a370     <common>
 0004:007f3378       _backEndData               00e1a378     <common>
 0004:007f34a0       _backEnd                   00e1a4a0     <common>
 0004:007f39c0       _basefolder                00e1a9c0     <common>
 0004:007f3a20       _sourceFiles               00e1aa20     <common>
 0004:007f3b5c       _globaldefines             00e1ab5c     <common>
 0004:007f3b60       _numtokens                 00e1ab60     <common>
 0004:007f3b64       _allocatedmemory           00e1ab64     <common>
 0004:007f3b74       _numblocks                 00e1ab74     <common>
 0004:007f3b78       _totalmemorysize           00e1ab78     <common>
 0004:007f3b80       _botimport                 00e1ab80     <common>
 0004:007f3c60       _be_botlib_export          00e1ac60     <common>
 0004:007f3e80       _botlibglobals             00e1ae80     <common>
 0004:007f3e90       _botDeveloper              00e1ae90     <common>
 0004:007f3e94       _botinputs                 00e1ae94     <common>
 0004:007f3ea0       _weightFileList            00e1aea0     <common>
 0004:007f4110       _weapindex_bfg10k          00e1b110     <common>
 0004:007f4240       _modeltypes                00e1b240     <common>
 0004:007f4640       _weapindex_rocketlauncher  00e1b640     <common>
 0004:007f4644       _cmd_grappleoff            00e1b644     <common>
 0004:007f4648       _sv_gravity                00e1b648     <common>
 0004:007f464c       _sv_maxstep                00e1b64c     <common>
 0004:007f4650       _cmd_grappleon             00e1b650     <common>
 0004:007f4654       _entitytypemissile         00e1b654     <common>
 0004:007f4658       _weapindex_grapple         00e1b658     <common>
 0004:007f465c       _offhandgrapple            00e1b65c     <common>
 0004:007f4660       _botmovestates             00e1b660     <common>
 0004:007f4764       _sv_maxbarrier             00e1b764     <common>
 0004:007f4780       _botgoalstates             00e1b780     <common>
 0004:007f48c0       _botchatstates             00e1b8c0     <common>
 0004:007f4a40       _ichatdata                 00e1ba40     <common>
 0004:007f4b40       _botcharacters             00e1bb40     <common>
 0004:007f4c80       _numaaslinks               00e1bc80     <common>
 0004:007f4c8c       _midrangeareas             00e1bc8c     <common>
 0004:007f4c9c       _numclusterareas           00e1bc9c     <common>
 0004:007f4ca0       _clusterareas              00e1bca0     <common>
 0004:007f4ca4       _numareacacheupdates       00e1bca4     <common>
 0004:007f4cb4       _max_routingcachesize      00e1bcb4     <common>
 0004:007f4cb8       _routingcachesize          00e1bcb8     <common>
 0004:007f4cbc       _numportalcacheupdates     00e1bcbc     <common>
 0004:007f4cc0       _calcgrapplereach          00e1bcc0     <common>
 0004:007f4ce0       _reach_equalfloor          00e1bce0     <common>
 0004:007f4ce4       _reach_bfgjump             00e1bce4     <common>
 0004:007f4ce8       _numlreachabilities        00e1bce8     <common>
 0004:007f4cec       _reach_elevator            00e1bcec     <common>
 0004:007f4cf0       _reach_swim                00e1bcf0     <common>
 0004:007f4cf4       _reach_rocketjump          00e1bcf4     <common>
 0004:007f4cf8       _reach_funcbob             00e1bcf8     <common>
 0004:007f4cfc       _reachabilityheap          00e1bcfc     <common>
 0004:007f4d00       _reach_waterjump           00e1bd00     <common>
 0004:007f4d04       _reach_walkoffledge        00e1bd04     <common>
 0004:007f4d08       _areareachability          00e1bd08     <common>
 0004:007f4d0c       _reach_jumppad             00e1bd0c     <common>
 0004:007f4d10       _reach_rampjump            00e1bd10     <common>
 0004:007f4d14       _reach_step                00e1bd14     <common>
 0004:007f4d18       _reach_doublejump          00e1bd18     <common>
 0004:007f4d1c       _reach_strafejump          00e1bd1c     <common>
 0004:007f4d20       _reach_jump                00e1bd20     <common>
 0004:007f4d24       _reach_ladder              00e1bd24     <common>
 0004:007f4d28       _reach_barrier             00e1bd28     <common>
 0004:007f4d2c       _reach_walk                00e1bd2c     <common>
 0004:007f4d30       _reach_grapple             00e1bd30     <common>
 0004:007f4d34       _nextreachability          00e1bd34     <common>
 0004:007f4d38       _reach_teleport            00e1bd38     <common>
 0004:007f4d40       _aassettings               00e1bd40     <common>
 0004:007f4e04       _saveroutingcache          00e1be04     <common>
 0004:007f51c0       _aasworld                  00e1c1c0     <common>
 0004:007f63a4       _numdebuglines             00e1d3a4     <common>
 0004:007f6a20       _debuglines                00e1da20     <common>
 0004:007f7a20       _debuglinevisible          00e1ea20     <common>
 0004:007f8a20       _bspworld                  00e1fa20     <common>
 0004:007fb0c0       _vmTable                   00e220c0     <common>
 0004:007fb3d4       _vm_debugLevel             00e223d4     <common>
 0004:007fb3d8       _sys_timeBase              00e223d8     <common>
 0004:007fb400       _sv_worldSectors           00e22400     <common>
 0004:007fba08       _sv_numworldSectors        00e22a08     <common>
 0004:007fba0c       _sv_maxPing                00e22a0c     <common>
 0004:008101a0       _sv                        00e371a0     <common>
 0004:0085d5e4       _sv_pure                   00e845e4     <common>
 0004:0085d5e8       _sv_rconPassword           00e845e8     <common>
 0004:0085d600       _svs                       00e84600     <common>
 0004:0086c660       _sv_master                 00e93660     <common>
 0004:0086c674       _sv_privateClients         00e93674     <common>
 0004:0086c678       _sv_maxclients             00e93678     <common>
 0004:0086c67c       _sv_hostname               00e9367c     <common>
 0004:0086c680       _sv_showloss               00e93680     <common>
 0004:0086c684       _sv_reconnectlimit         00e93684     <common>
 0004:0086c688       _sv_floodProtect           00e93688     <common>
 0004:0086c68c       _sv_allowDownload          00e9368c     <common>
 0004:0086c690       _sv_killserver             00e93690     <common>
 0004:0086c694       _sv_gametype               00e93694     <common>
 0004:0086c698       _sv_mapname                00e93698     <common>
 0004:0086c69c       _sv_maxRate                00e9369c     <common>
 0004:0086c6a0       _sv_voip                   00e936a0     <common>
 0004:0086c6a4       _sv_minPing                00e936a4     <common>
 0004:0086c6a8       _sv_zombietime             00e936a8     <common>
 0004:0086c6ac       _sv_privatePassword        00e936ac     <common>
 0004:0086c6b0       _sv_mapChecksum            00e936b0     <common>
 0004:0086c6b4       _sv_timeout                00e936b4     <common>
 0004:0086c6b8       _sv_minRate                00e936b8     <common>
 0004:0086c6bc       _sv_padPackets             00e936bc     <common>
 0004:0086c6c0       _serverBans                00e936c0     <common>
 0004:008766c0       _sv_lanForceRate           00e9d6c0     <common>
 0004:008766c4       _sv_banFile                00e9d6c4     <common>
 0004:008766c8       _sv_fps                    00e9d6c8     <common>
 0004:008766cc       _sv_strictAuth             00e9d6cc     <common>
 0004:008766d0       _sv_serverid               00e9d6d0     <common>
 0004:008766d4       _botlib_export             00e9d6d4     <common>
 0004:008766e0       _bot_enable                00e9d6e0     <common>
 0004:008766f0       _bot_maxdebugpolys         00e9d6f0     <common>
 0004:00876700       _mulawToShort              00e9d700     <common>
 0004:00876970       _s_alSources               00e9d970     <common>
 0004:00876988       _s_alRolloff               00e9d988     <common>
 0004:0087698c       _s_alGraceDistance         00e9d98c     <common>
 0004:00876990       _s_alDopplerFactor         00e9d990     <common>
 0004:00876994       _s_alDevice                00e9d994     <common>
 0004:00876998       _s_alDriver                00e9d998     <common>
 0004:0087699c       _s_alGain                  00e9d99c     <common>
 0004:008769a0       _s_alMaxDistance           00e9d9a0     <common>
 0004:008769a4       _s_alMinDistance           00e9d9a4     <common>
 0004:008769a8       _s_alDopplerSpeed          00e9d9a8     <common>
 0004:008769ac       _s_alPrecache              00e9d9ac     <common>
 0004:008769b0       _s_alAvailableDevices      00e9d9b0     <common>
 0004:008769b4       _snd_p                     00e9d9b4     <common>
 0004:008769c4       _snd_linear_count          00e9d9c4     <common>
 0004:008769c8       _snd_out                   00e9d9c8     <common>
 0004:008769cc       _s_musicVolume             00e9d9cc     <common>
 0004:008769e0       _s_backend                 00e9d9e0     <common>
 0004:008769e4       _s_volume                  00e9d9e4     <common>
 0004:008769e8       _s_muted                   00e9d9e8     <common>
 0004:008769ec       _s_muteWhenMinimized       00e9d9ec     <common>
 0004:008769f0       _s_muteWhenUnfocused       00e9d9f0     <common>
 0004:008769f4       _s_doppler                 00e9d9f4     <common>
 0004:00876a00       _s_rawend                  00e9da00     <common>
 0004:00bbdbe0       _s_rawsamples              011e4be0     <common>
 0004:01bbdbe0       _s_knownSfx                021e4be0     <common>
 0004:01c1dbe0       _s_channels                02244be0     <common>
 0004:01c1f260       _loop_channels             02246260     <common>
 0004:01c208e0       _s_soundtime               022478e0     <common>
 0004:01c208e4       _s_mixahead                022478e4     <common>
 0004:01c208e8       _s_paintedtime             022478e8     <common>
 0004:01c208ec       _numLoopChannels           022478ec     <common>
 0004:01c208f0       _s_testsound               022478f0     <common>
 0004:01c208f4       _s_khz                     022478f4     <common>
 0004:01c208f8       _s_show                    022478f8     <common>
 0004:01c208fc       _s_mixPreStep              022478fc     <common>
 0004:01c20900       _dma                       02247900     <common>
 0004:01c20918       _s_sdlBits                 02247918     <common>
 0004:01c20928       _s_sdlSpeed                02247928     <common>
 0004:01c2092c       _s_sdlMixSamps             0224792c     <common>
 0004:01c20930       _s_sdlDevSamps             02247930     <common>
 0004:01c20934       _s_sdlChannels             02247934     <common>
 0004:01c20940       _stick_state               02247940     <common>
 0004:01c209a0       _r_allowResize             022479a0     <common>
 0004:01c209b4       _r_sdlDriver               022479b4     <common>
 0004:01c209b8       _qglClientActiveTextureARB 022479b8     <common>
 0004:01c209bc       _qglActiveTextureARB       022479bc     <common>
 0004:01c209c0       _qglUnlockArraysEXT        022479c0     <common>
 0004:01c209c4       _qglLockArraysEXT          022479c4     <common>
 0004:01c209c8       _qglMultiTexCoord2fARB     022479c8     <common>
 0004:01c209cc       _r_allowSoftwareGL         022479cc     <common>
 0004:01c209d0       _r_centerWindow            022479d0     <common>
 0004:01c209d4       _qalcIsExtensionPresent    022479d4     <common>
 0004:01c20a1c       _qalIsSource               02247a1c     <common>
 0004:01c20a20       _qalcProcessContext        02247a20     <common>
 0004:01c20a24       _qalGetEnumValue           02247a24     <common>
 0004:01c20a28       _qalSourceUnqueueBuffers   02247a28     <common>
 0004:01c20a2c       _qalGetString              02247a2c     <common>
 0004:01c20a30       _qalSourceRewind           02247a30     <common>
 0004:01c20a34       _qalcSuspendContext        02247a34     <common>
 0004:01c20a38       _qalSourcef                02247a38     <common>
 0004:01c20a3c       _qalSourceQueueBuffers     02247a3c     <common>
 0004:01c20a40       _qalSourcei                02247a40     <common>
 0004:01c20a44       _qalGetDouble              02247a44     <common>
 0004:01c20a48       _qalGetProcAddress         02247a48     <common>
 0004:01c20a4c       _qalcGetIntegerv           02247a4c     <common>
 0004:01c20a50       _qalListeneri              02247a50     <common>
 0004:01c20a54       _qalcMakeContextCurrent    02247a54     <common>
 0004:01c20a58       _qalcCreateContext         02247a58     <common>
 0004:01c20a5c       _qalGetSourcei             02247a5c     <common>
 0004:01c20a60       _qalDopplerVelocity        02247a60     <common>
 0004:01c20a64       _qalSourcePause            02247a64     <common>
 0004:01c20a68       _qalBufferData             02247a68     <common>
 0004:01c20a6c       _qalcGetProcAddress        02247a6c     <common>
 0004:01c20a70       _qalSourcefv               02247a70     <common>
 0004:01c20a74       _qalSourcePlayv            02247a74     <common>
 0004:01c20a78       _qalGenBuffers             02247a78     <common>
 0004:01c20a7c       _qalcGetString             02247a7c     <common>
 0004:01c20a80       _qalGetFloatv              02247a80     <common>
 0004:01c20a84       _qalIsExtensionPresent     02247a84     <common>
 0004:01c20a88       _qalcCloseDevice           02247a88     <common>
 0004:01c20a8c       _qalGetListener3f          02247a8c     <common>
 0004:01c20a90       _qalListenerf              02247a90     <common>
 0004:01c20a94       _qalGenSources             02247a94     <common>
 0004:01c20a98       _qalGetBufferf             02247a98     <common>
 0004:01c20a9c       _qalGetListenerf           02247a9c     <common>
 0004:01c20aa0       _qalcGetError              02247aa0     <common>
 0004:01c20aa4       _qalGetBoolean             02247aa4     <common>
 0004:01c20aa8       _qalcOpenDevice            02247aa8     <common>
 0004:01c20aac       _qalDeleteBuffers          02247aac     <common>
 0004:01c20ab0       _qalSourceStop             02247ab0     <common>
 0004:01c20ab4       _qalGetSourcef             02247ab4     <common>
 0004:01c20ab8       _qalcDestroyContext        02247ab8     <common>
 0004:01c20abc       _qalIsBuffer               02247abc     <common>
 0004:01c20ac0       _qalGetBooleanv            02247ac0     <common>
 0004:01c20ac4       _qalcGetCurrentContext     02247ac4     <common>
 0004:01c20ac8       _qalcGetContextsDevice     02247ac8     <common>
 0004:01c20acc       _qalcCaptureStop           02247acc     <common>
 0004:01c20ad0       _qalcCaptureCloseDevice    02247ad0     <common>
 0004:01c20ad4       _qalDistanceModel          02247ad4     <common>
 0004:01c20ad8       _qalGetInteger             02247ad8     <common>
 0004:01c20adc       _qalDopplerFactor          02247adc     <common>
 0004:01c20ae0       _qalGetIntegerv            02247ae0     <common>
 0004:01c20ae4       _qalSourcePausev           02247ae4     <common>
 0004:01c20ae8       _qalGetDoublev             02247ae8     <common>
 0004:01c20aec       _qalcCaptureStart          02247aec     <common>
 0004:01c20af0       _qalDeleteSources          02247af0     <common>
 0004:01c20af4       _qalGetListenerfv          02247af4     <common>
 0004:01c20af8       _qalGetListeneri           02247af8     <common>
 0004:01c20afc       _qalDisable                02247afc     <common>
 0004:01c20b00       _qalGetSourcefv            02247b00     <common>
 0004:01c20b04       _qalSourceRewindv          02247b04     <common>
 0004:01c20b08       _qalGetError               02247b08     <common>
 0004:01c20b0c       _qalIsEnabled              02247b0c     <common>
 0004:01c20b10       _qalEnable                 02247b10     <common>
 0004:01c20b14       _qalSourcePlay             02247b14     <common>
 0004:01c20b18       _qalSourceStopv            02247b18     <common>
 0004:01c20b1c       _qalListener3f             02247b1c     <common>
 0004:01c20b20       _qalGetFloat               02247b20     <common>
 0004:01c20b24       _qalcGetEnumValue          02247b24     <common>
 0004:01c20b28       _qalGetBufferi             02247b28     <common>
 0004:01c20b2c       _qalListenerfv             02247b2c     <common>
 0004:01c20b30       _qalGetSource3f            02247b30     <common>
 0004:01c20b34       _qalSource3f               02247b34     <common>
 0004:01c20b38       _qalcCaptureSamples        02247b38     <common>
 0004:01c20b3c       _qalcCaptureOpenDevice     02247b3c     <common>
 0004:01c20b40       ?buff@?1??gai_strerrorA@@9@9 02247b40     <common>
 0004:01c21018       _recvfromCount             02248018     <common>
 0004:01c2101c       _showpackets               0224801c     <common>
 0004:01c23348       _qport                     0224a348     <common>
 0004:01c23360       _loopbacks                 0224a360     <common>
 0004:01c2e2f0       _showdrop                  022552f0     <common>
 0004:01c2e2f4       _overflows                 022552f4     <common>
 0004:01c2e3e0       _pcount                    022553e0     <common>
 0004:01c2e7e0       _lastValidBase             022557e0     <common>
 0004:01c2e960       _lastValidGame             02255960     <common>
 0004:01c2ea60       _cvar_cheats               02255a60     <common>
 0004:01c32408       _cvar_modifiedFlags        02259408     <common>
 0004:01c32420       _cvar_indexes              02259420     <common>
 0004:01c44420       _cvar_numIndexes           0226b420     <common>
 0004:01c44424       _com_blood                 0226b424     <common>
 0004:01c447d4       _com_developer             0226b7d4     <common>
 0004:01c447d8       _com_cameraMode            0226b7d8     <common>
 0004:01c447dc       _sv_packetdelay            0226b7dc     <common>
 0004:01c447e0       _com_standalone            0226b7e0     <common>
 0004:01c447e4       _com_fixedtime             0226b7e4     <common>
 0004:01c447e8       _com_minimized             0226b7e8     <common>
 0004:01c447ec       _com_logfile               0226b7ec     <common>
 0004:01c447f0       _com_maxfpsUnfocused       0226b7f0     <common>
 0004:01c447f4       _com_journalDataFile       0226b7f4     <common>
 0004:01c447f8       _cl_paused                 0226b7f8     <common>
 0004:01c447fc       _com_journalFile           0226b7fc     <common>
 0004:01c44800       _com_timescale             0226b800     <common>
 0004:01c44804       _time_backend              0226b804     <common>
 0004:01c44808       _com_timedemo              0226b808     <common>
 0004:01c4480c       _com_buildScript           0226b80c     <common>
 0004:01c44810       _com_altivec               0226b810     <common>
 0004:01c44814       _com_dedicated             0226b814     <common>
 0004:01c44818       _com_sv_running            0226b818     <common>
 0004:01c44820       _abortframe                0226b820     <common>
 0004:01c44860       _com_consoleLines          0226b860     <common>
 0004:01c448e0       _com_ansiColor             0226b8e0     <common>
 0004:01c448e4       _debuglogfile              0226b8e4     <common>
 0004:01c448e8       _com_version               0226b8e8     <common>
 0004:01c44900       _com_argv                  0226b900     <common>
 0004:01c449cc       _mainzone                  0226b9cc     <common>
 0004:01c449e0       _com_errorMessage          0226b9e0     <common>
 0004:01c459e0       _com_numConsoleLines       0226c9e0     <common>
 0004:01c459e4       _com_speeds                0226c9e4     <common>
 0004:01c459e8       _sv_paused                 0226c9e8     <common>
 0004:01c459ec       _time_game                 0226c9ec     <common>
 0004:01c459f0       _smallzone                 0226c9f0     <common>
 0004:01c459f4       _time_frontend             0226c9f4     <common>
 0004:01c459f8       _com_journal               0226c9f8     <common>
 0004:01c459fc       _com_dropsim               0226c9fc     <common>
 0004:01c45a00       _com_unfocused             0226ca00     <common>
 0004:01c45a04       _com_showtrace             0226ca04     <common>
 0004:01c45a08       _cl_packetdelay            0226ca08     <common>
 0004:01c45a0c       _com_frameMsec             0226ca0c     <common>
 0004:01c45a10       _com_cl_running            0226ca10     <common>
 0004:01c45a14       _com_argc                  0226ca14     <common>
 0004:01c45a18       _com_maxfps                0226ca18     <common>
 0004:01c45a1c       _com_frameTime             0226ca1c     <common>
 0004:01c45a20       _com_maxfpsMinimized       0226ca20     <common>
 0004:01c45a24       _com_introPlayed           0226ca24     <common>
 0004:01c45a28       _com_abnormalExit          0226ca28     <common>
 0004:01c45a2c       _com_frameNumber           0226ca2c     <common>
 0004:01c45a30       _cmd_wait                  0226ca30     <common>
 0004:01c46720       _cmd_text_buf              0226d720     <common>
 0004:01c4a720       _cmd_text                  02271720     <common>
 0004:01c4a72c       _c_active_windings         0227172c     <common>
 0004:01c4a73c       _c_removed                 0227173c     <common>
 0004:01c4a740       _c_peak_windings           02271740     <common>
 0004:01c4a744       _c_winding_allocs          02271744     <common>
 0004:01c4a748       _c_winding_points          02271748     <common>
 0004:01c4a74c       _c_totalPatchBlocks        0227174c     <common>
 0004:01c4a75c       _c_totalPatchSurfaces      0227175c     <common>
 0004:01c4a760       _c_totalPatchEdges         02271760     <common>
 0004:01c4a764       _cm_noAreas                02271764     <common>
 0004:01c4a7a8       _cm_noCurves               022717a8     <common>
 0004:01c4a7ac       _c_traces                  022717ac     <common>
 0004:01c4a7c0       _box_model                 022717c0     <common>
 0004:01c4a800       _cm                        02271800     <common>
 0004:01c4a8bc       _c_brush_traces            022718bc     <common>
 0004:01c4a8c0       _box_brush                 022718c0     <common>
 0004:01c4a8c4       _cmod_base                 022718c4     <common>
 0004:01c4a8c8       _cm_playerCurveClip        022718c8     <common>
 0004:01c4a8cc       _c_pointcontents           022718cc     <common>
 0004:01c4a8d0       _c_patch_traces            022718d0     <common>
 0004:01c4a8d4       _box_planes                022718d4     <common>
 0004:01c4a8d8       _uivm                      022718d8     <common>
 0004:01c4a8e4       _cl_debuggraph             022718e4     <common>
 0004:01c4a8f4       _cl_graphscale             022718f4     <common>
 0004:01c4a8f8       _cl_graphshift             022718f8     <common>
 0004:01c4a8fc       _cl_timegraph              022718fc     <common>
 0004:01c4a900       _cl_graphheight            02271900     <common>
 0004:01c4a904       _scr_initialized           02271904     <common>
 0004:01c4a908       _cl_connectedToPureServer  02271908     <common>
 0004:01c4a918       _cl_connectedToVoipServer  02271918     <common>
 0004:01c4a91c       _cl_connectedToCheatServer 0227191c     <common>
 0004:01c4a920       _cl_conXOffset             02271920     <common>
 0004:01ca6f44       _cl_voipCaptureMult        022cdf44     <common>
 0004:01ca6f48       _cl_allowDownload          022cdf48     <common>
 0004:01ca6f4c       _cl_showSend               022cdf4c     <common>
 0004:01ca6f50       _cl_timedemoLog            022cdf50     <common>
 0004:01ca6f54       _cl_autoRecordDemo         022cdf54     <common>
 0004:01ca6f58       _rconAddress               022cdf58     <common>
 0004:01ca6f5c       _cl_voipShowMeter          022cdf5c     <common>
 0004:01ca6f60       _re                        022cdf60     <common>
 0004:01ca6fd8       _cl_nodelta                022cdfd8     <common>
 0004:01ca6fdc       _cl_mouseAccelOffset       022cdfdc     <common>
 0004:01ca6fe0       _cl_voipVADThreshold       022cdfe0     <common>
 0004:01ca6fe4       _cl_trn                    022cdfe4     <common>
 0004:01ca7000       _cl                        022ce000     <common>
 0004:01d4fc48       _cl_sensitivity            02376c48     <common>
 0004:01d4fc4c       _cl_forceavidemo           02376c4c     <common>
 0004:01d4fc50       _cl_timeout                02376c50     <common>
 0004:01d4fc54       _m_yaw                     02376c54     <common>
 0004:01d4fc58       _cl_aviMotionJpeg          02376c58     <common>
 0004:01d4fc5c       _cl_mouseAccelStyle        02376c5c     <common>
 0004:01d4fc60       _cl_voipSend               02376c60     <common>
 0004:01d4fc64       _m_pitch                   02376c64     <common>
 0004:01d4fc68       _cl_activeAction           02376c68     <common>
 0004:01d4fc6c       _cl_shownet                02376c6c     <common>
 0004:01d4fc70       _cl_voipUseVAD             02376c70     <common>
 0004:01d4fc74       _serverStatusCount         02376c74     <common>
 0004:01d4fc80       _cls                       02376c80     <common>
 0004:01e21650       _cl_guidServerUniq         02448650     <common>
 0004:01e21660       _cl_pinglist               02448660     <common>
 0004:01e29b60       _cl_showMouseRate          02450b60     <common>
 0004:01e29b64       _m_forward                 02450b64     <common>
 0004:01e29b68       _cl_packetdup              02450b68     <common>
 0004:01e29b6c       _cl_mouseAccel             02450b6c     <common>
 0004:01e29b80       _clc                       02450b80     <common>
 0004:01e54a54       _cl_maxpackets             0247ba54     <common>
 0004:01e54a58       _cl_motd                   0247ba58     <common>
 0004:01e54a5c       _cl_timedemo               0247ba5c     <common>
 0004:01e54a60       _cl_motdString             0247ba60     <common>
 0004:01e54a64       _cl_freezeDemo             0247ba64     <common>
 0004:01e54a68       _cl_showTimeDelta          0247ba68     <common>
 0004:01e54a80       _cl_serverStatusList       0247ba80     <common>
 0004:01e74dc0       _cl_voipGainDuringCapture  0249bdc0     <common>
 0004:01e74dc4       _cl_timeNudge              0249bdc4     <common>
 0004:01e74dc8       _cl_inGameVideo            0249bdc8     <common>
 0004:01e74dcc       _cl_consoleKeys            0249bdcc     <common>
 0004:01e74dd0       _cl_noprint                0249bdd0     <common>
 0004:01e74dd4       _m_side                    0249bdd4     <common>
 0004:01e74dd8       _cl_serverStatusResendTime 0249bdd8     <common>
 0004:01e74ddc       _m_filter                  0249bddc     <common>
 0004:01e74de0       _cl_voipSendTarget         0249bde0     <common>
 0004:01e74de4       _cl_debugMove              0249bde4     <common>
 0004:01e74de8       _cl_lanForcePackets        0249bde8     <common>
 0004:01e74dec       _cl_voip                   0249bdec     <common>
 0004:01e74df0       _cl_aviFrameRate           0249bdf0     <common>
 0004:01e74df4       _cgvm                      0249bdf4     <common>
 0004:01e74df8       _cl_freelook               0249bdf8     <common>
 0004:01e74dfc       _rcon_client_password      0249bdfc     <common>
 0004:01e74e00       _historyLine               0249be00     <common>
 0004:01e75864       _key_overstrikeMode        0249c864     <common>
 0004:01e75868       _nextHistoryLine           0249c868     <common>
 0004:01e75880       _g_consoleField            0249c880     <common>
 0004:01e7598c       _anykeydown                0249c98c     <common>
 0004:01e75990       _chat_playerNum            0249c990     <common>
 0004:01e759a0       _keys                      0249c9a0     <common>
 0004:01e7699c       _chat_team                 0249d99c     <common>
 0004:01e769a0       _chatField                 0249d9a0     <common>
 0004:01e76ac0       _historyEditLines          0249dac0     <common>
 0004:01e78c40       _in_up                     0249fc40     <common>
 0004:01e78d00       _in_forward                0249fd00     <common>
 0004:01e78d20       _in_buttons                0249fd20     <common>
 0004:01e78ea0       _in_right                  0249fea0     <common>
 0004:01e78ec0       _in_voiprecord             0249fec0     <common>
 0004:01e78ed8       _cl_yawspeed               0249fed8     <common>
 0004:01e78ee0       _in_lookdown               0249fee0     <common>
 0004:01e78f00       _in_left                   0249ff00     <common>
 0004:01e78f20       _in_moveleft               0249ff20     <common>
 0004:01e78f38       _cl_upspeed                0249ff38     <common>
 0004:01e78f3c       _cl_sidespeed              0249ff3c     <common>
 0004:01e78f40       _old_com_frameTime         0249ff40     <common>
 0004:01e78f60       _in_down                   0249ff60     <common>
 0004:01e78f80       _in_strafe                 0249ff80     <common>
 0004:01e78f98       _frame_msec                0249ff98     <common>
 0004:01e78f9c       _in_mlooking               0249ff9c     <common>
 0004:01e78fa0       _in_speed                  0249ffa0     <common>
 0004:01e78fb8       _cl_pitchspeed             0249ffb8     <common>
 0004:01e78fc0       _in_lookup                 0249ffc0     <common>
 0004:01e78fd8       _cl_run                    0249ffd8     <common>
 0004:01e78fdc       _cl_forwardspeed           0249ffdc     <common>
 0004:01e78fe0       _in_moveright              0249ffe0     <common>
 0004:01e78ff8       _cl_anglespeedkey          0249fff8     <common>
 0004:01e79000       _in_back                   024a0000     <common>
 0004:01e79018       _qcurl_easy_init           024a0018     <common>
 0004:01e79034       _qcurl_multi_init          024a0034     <common>
 0004:01e79038       _qcurl_easy_strerror       024a0038     <common>
 0004:01e7903c       _qcurl_version             024a003c     <common>
 0004:01e79040       _qcurl_multi_add_handle    024a0040     <common>
 0004:01e79044       _qcurl_multi_strerror      024a0044     <common>
 0004:01e79048       _qcurl_easy_reset          024a0048     <common>
 0004:01e7904c       _qcurl_multi_info_read     024a004c     <common>
 0004:01e79050       _qcurl_easy_cleanup        024a0050     <common>
 0004:01e79054       _qcurl_multi_perform       024a0054     <common>
 0004:01e79058       _qcurl_easy_duphandle      024a0058     <common>
 0004:01e7905c       _qcurl_multi_remove_handle 024a005c     <common>
 0004:01e79060       _qcurl_multi_fdset         024a0060     <common>
 0004:01e79064       _cl_cURLLib                024a0064     <common>
 0004:01e79068       _qcurl_easy_perform        024a0068     <common>
 0004:01e7906c       _qcurl_multi_cleanup       024a006c     <common>
 0004:01e79070       _qcurl_easy_getinfo        024a0070     <common>
 0004:01e79074       _qcurl_easy_setopt         024a0074     <common>
 0004:01e79078       _con_notifytime            024a0078     <common>
 0004:01e7c3e0       _con                       024a33e0     <common>
 0004:01e8c428       _con_conspeed              024b3428     <common>
 0004:01e8c42c       ___native_startup_state    024b342c     <common>
 0004:01e8c43c       ___native_startup_lock     024b343c     <common>
 0004:01e8c440       ___onexitend               024b3440     <common>
 0004:01e8c450       ___onexitbegin             024b3450     <common>
 0004:01e8c454       ___sse2_available          024b3454     <common>
 0004:01e8c460       __NoHeapEnableTerminationOnCorruption 024b3460     <common>
 0004:01e8c464       ___dyn_tls_init_callback   024b3464     <common>
 0005:00000000       __IMPORT_DESCRIPTOR_USER32 024b4000     user32:USER32.dll
 0005:00000014       __IMPORT_DESCRIPTOR_ADVAPI32 024b4014     advapi32:ADVAPI32.dll
 0005:00000028       __IMPORT_DESCRIPTOR_WINMM  024b4028     winmm:WINMM.dll
 0005:0000003c       __IMPORT_DESCRIPTOR_WSOCK32 024b403c     wsock32:WSOCK32.dll
 0005:00000050       __IMPORT_DESCRIPTOR_WS2_32 024b4050     ws2_32:WS2_32.dll
 0005:00000064       __IMPORT_DESCRIPTOR_SDL    024b4064     SDL:SDL.dll
 0005:00000078       __IMPORT_DESCRIPTOR_OPENGL32 024b4078     OpenGL32:OPENGL32.dll
 0005:0000008c       __IMPORT_DESCRIPTOR_MSVCR100 024b408c     msvcrt:MSVCR100.dll
 0005:000000a0       __IMPORT_DESCRIPTOR_KERNEL32 024b40a0     kernel32:KERNEL32.dll
 0005:000000b4       __NULL_IMPORT_DESCRIPTOR   024b40b4     user32:USER32.dll
 0005:00000810       __imp__CryptAcquireContextA@20 024b4810     advapi32:ADVAPI32.dll
 0005:00000814       __imp__CryptGenRandom@12   024b4814     advapi32:ADVAPI32.dll
 0005:00000818       __imp__CryptReleaseContext@8 024b4818     advapi32:ADVAPI32.dll
 0005:0000081c       __imp__GetUserNameA@8      024b481c     advapi32:ADVAPI32.dll
 0005:00000820       \177ADVAPI32_NULL_THUNK_DATA 024b4820     advapi32:ADVAPI32.dll
 0005:0000084c       __imp__LoadLibraryA@4      024b484c     kernel32:KERNEL32.dll
 0005:00000850       __imp__GetVersionExA@4     024b4850     kernel32:KERNEL32.dll
 0005:00000854       __imp__GetModuleHandleA@4  024b4854     kernel32:KERNEL32.dll
 0005:00000858       __imp__GetCommandLineA@0   024b4858     kernel32:KERNEL32.dll
 0005:0000085c       __imp__GetProcAddress@8    024b485c     kernel32:KERNEL32.dll
 0005:00000860       __imp__FreeLibrary@4       024b4860     kernel32:KERNEL32.dll
 0005:00000864       __imp__GetModuleFileNameA@12 024b4864     kernel32:KERNEL32.dll
 0005:00000868       __imp__GetSystemTimeAsFileTime@4 024b4868     kernel32:KERNEL32.dll
 0005:0000086c       __imp__GetCurrentThreadId@0 024b486c     kernel32:KERNEL32.dll
 0005:00000870       __imp__GetTickCount@0      024b4870     kernel32:KERNEL32.dll
 0005:00000874       __imp__QueryPerformanceCounter@4 024b4874     kernel32:KERNEL32.dll
 0005:00000878       __imp__DecodePointer@4     024b4878     kernel32:KERNEL32.dll
 0005:0000087c       __imp__IsDebuggerPresent@0 024b487c     kernel32:KERNEL32.dll
 0005:00000880       __imp__SetUnhandledExceptionFilter@4 024b4880     kernel32:KERNEL32.dll
 0005:00000884       __imp__UnhandledExceptionFilter@4 024b4884     kernel32:KERNEL32.dll
 0005:00000888       __imp__GetCurrentProcess@0 024b4888     kernel32:KERNEL32.dll
 0005:0000088c       __imp__TerminateProcess@8  024b488c     kernel32:KERNEL32.dll
 0005:00000890       __imp__IsProcessorFeaturePresent@4 024b4890     kernel32:KERNEL32.dll
 0005:00000894       __imp__EncodePointer@4     024b4894     kernel32:KERNEL32.dll
 0005:00000898       __imp__GetStartupInfoW@4   024b4898     kernel32:KERNEL32.dll
 0005:0000089c       __imp__HeapSetInformation@16 024b489c     kernel32:KERNEL32.dll
 0005:000008a0       __imp__InterlockedCompareExchange@12 024b48a0     kernel32:KERNEL32.dll
 0005:000008a4       __imp__InterlockedExchange@8 024b48a4     kernel32:KERNEL32.dll
 0005:000008a8       __imp__VirtualFree@12      024b48a8     kernel32:KERNEL32.dll
 0005:000008ac       __imp__VirtualAlloc@16     024b48ac     kernel32:KERNEL32.dll
 0005:000008b0       __imp__VirtualProtect@16   024b48b0     kernel32:KERNEL32.dll
 0005:000008b4       __imp__GetCurrentProcessId@0 024b48b4     kernel32:KERNEL32.dll
 0005:000008b8       __imp__GlobalAlloc@8       024b48b8     kernel32:KERNEL32.dll
 0005:000008bc       __imp__Sleep@4             024b48bc     kernel32:KERNEL32.dll
 0005:000008c0       __imp__CreateDirectoryA@8  024b48c0     kernel32:KERNEL32.dll
 0005:000008c4       __imp__GetLastError@0      024b48c4     kernel32:KERNEL32.dll
 0005:000008c8       __imp__GlobalMemoryStatus@4 024b48c8     kernel32:KERNEL32.dll
 0005:000008cc       __imp__GlobalLock@4        024b48cc     kernel32:KERNEL32.dll
 0005:000008d0       __imp__GlobalSize@4        024b48d0     kernel32:KERNEL32.dll
 0005:000008d4       __imp__GlobalUnlock@4      024b48d4     kernel32:KERNEL32.dll
 0005:000008d8       __imp__GetTempPathA@8      024b48d8     kernel32:KERNEL32.dll
 0005:000008dc       __imp__FormatMessageA@28   024b48dc     kernel32:KERNEL32.dll
 0005:000008e0       \177KERNEL32_NULL_THUNK_DATA 024b48e0     kernel32:KERNEL32.dll
 0005:00000928       __imp__setbuf              024b4928     msvcrt:MSVCR100.dll
 0005:0000092c       __imp__freopen             024b492c     msvcrt:MSVCR100.dll
 0005:00000930       __imp__fgetc               024b4930     msvcrt:MSVCR100.dll
 0005:00000934       __imp__strrchr             024b4934     msvcrt:MSVCR100.dll
 0005:00000938       __imp___controlfp_s        024b4938     msvcrt:MSVCR100.dll
 0005:0000093c       __imp___invoke_watson      024b493c     msvcrt:MSVCR100.dll
 0005:00000940       __imp___except_handler4_common 024b4940     msvcrt:MSVCR100.dll
 0005:00000944       __imp___onexit             024b4944     msvcrt:MSVCR100.dll
 0005:00000948       __imp___lock               024b4948     msvcrt:MSVCR100.dll
 0005:0000094c       __imp____dllonexit         024b494c     msvcrt:MSVCR100.dll
 0005:00000950       __imp___unlock             024b4950     msvcrt:MSVCR100.dll
 0005:00000954       __imp_?terminate@@YAXXZ    024b4954     msvcrt:MSVCR100.dll
 0005:00000958       __imp___crt_debugger_hook  024b4958     msvcrt:MSVCR100.dll
 0005:0000095c       __imp____set_app_type      024b495c     msvcrt:MSVCR100.dll
 0005:00000960       __imp___fmode              024b4960     msvcrt:MSVCR100.dll
 0005:00000964       __imp___commode            024b4964     msvcrt:MSVCR100.dll
 0005:00000968       __imp____setusermatherr    024b4968     msvcrt:MSVCR100.dll
 0005:0000096c       __imp___configthreadlocale 024b496c     msvcrt:MSVCR100.dll
 0005:00000970       __imp___initterm_e         024b4970     msvcrt:MSVCR100.dll
 0005:00000974       __imp___initterm           024b4974     msvcrt:MSVCR100.dll
 0005:00000978       __imp___acmdln             024b4978     msvcrt:MSVCR100.dll
 0005:0000097c       __imp___ismbblead          024b497c     msvcrt:MSVCR100.dll
 0005:00000980       __imp___XcptFilter         024b4980     msvcrt:MSVCR100.dll
 0005:00000984       __imp___exit               024b4984     msvcrt:MSVCR100.dll
 0005:00000988       __imp___cexit              024b4988     msvcrt:MSVCR100.dll
 0005:0000098c       __imp____getmainargs       024b498c     msvcrt:MSVCR100.dll
 0005:00000990       __imp___amsg_exit          024b4990     msvcrt:MSVCR100.dll
 0005:00000994       __imp__log                 024b4994     msvcrt:MSVCR100.dll
 0005:00000998       __imp__exp                 024b4998     msvcrt:MSVCR100.dll
 0005:0000099c       __imp__atan                024b499c     msvcrt:MSVCR100.dll
 0005:000009a0       __imp__realloc             024b49a0     msvcrt:MSVCR100.dll
 0005:000009a4       __imp___ctime64            024b49a4     msvcrt:MSVCR100.dll
 0005:000009a8       __imp__vfprintf            024b49a8     msvcrt:MSVCR100.dll
 0005:000009ac       __imp__clock               024b49ac     msvcrt:MSVCR100.dll
 0005:000009b0       __imp__tan                 024b49b0     msvcrt:MSVCR100.dll
 0005:000009b4       __imp___ftol               024b49b4     msvcrt:MSVCR100.dll
 0005:000009b8       __imp__ferror              024b49b8     msvcrt:MSVCR100.dll
 0005:000009bc       __imp___putenv             024b49bc     msvcrt:MSVCR100.dll
 0005:000009c0       __imp___findfirst64i32     024b49c0     msvcrt:MSVCR100.dll
 0005:000009c4       __imp___findnext64i32      024b49c4     msvcrt:MSVCR100.dll
 0005:000009c8       __imp___findclose          024b49c8     msvcrt:MSVCR100.dll
 0005:000009cc       __imp___getcwd             024b49cc     msvcrt:MSVCR100.dll
 0005:000009d0       __imp__strtok              024b49d0     msvcrt:MSVCR100.dll
 0005:000009d4       __imp__signal              024b49d4     msvcrt:MSVCR100.dll
 0005:000009d8       __imp___snprintf           024b49d8     msvcrt:MSVCR100.dll
 0005:000009dc       __imp___stat64i32          024b49dc     msvcrt:MSVCR100.dll
 0005:000009e0       __imp__exit                024b49e0     msvcrt:MSVCR100.dll
 0005:000009e4       __imp__fprintf             024b49e4     msvcrt:MSVCR100.dll
 0005:000009e8       __imp__fmod                024b49e8     msvcrt:MSVCR100.dll
 0005:000009ec       __imp__strtod              024b49ec     msvcrt:MSVCR100.dll
 0005:000009f0       __imp__memcmp              024b49f0     msvcrt:MSVCR100.dll
 0005:000009f4       __imp__qsort               024b49f4     msvcrt:MSVCR100.dll
 0005:000009f8       __imp__fflush              024b49f8     msvcrt:MSVCR100.dll
 0005:000009fc       __imp__malloc              024b49fc     msvcrt:MSVCR100.dll
 0005:00000a00       __imp__fread               024b4a00     msvcrt:MSVCR100.dll
 0005:00000a04       __imp__fwrite              024b4a04     msvcrt:MSVCR100.dll
 0005:00000a08       __imp__free                024b4a08     msvcrt:MSVCR100.dll
 0005:00000a0c       __imp__rename              024b4a0c     msvcrt:MSVCR100.dll
 0005:00000a10       __imp__fopen               024b4a10     msvcrt:MSVCR100.dll
 0005:00000a14       __imp__remove              024b4a14     msvcrt:MSVCR100.dll
 0005:00000a18       __imp__ftell               024b4a18     msvcrt:MSVCR100.dll
 0005:00000a1c       __imp__fseek               024b4a1c     msvcrt:MSVCR100.dll
 0005:00000a20       __imp__setvbuf             024b4a20     msvcrt:MSVCR100.dll
 0005:00000a24       __imp____iob_func          024b4a24     msvcrt:MSVCR100.dll
 0005:00000a28       __imp__fclose              024b4a28     msvcrt:MSVCR100.dll
 0005:00000a2c       __imp__fputs               024b4a2c     msvcrt:MSVCR100.dll
 0005:00000a30       __imp__acos                024b4a30     msvcrt:MSVCR100.dll
 0005:00000a34       __imp__srand               024b4a34     msvcrt:MSVCR100.dll
 0005:00000a38       __imp___setjmp3            024b4a38     msvcrt:MSVCR100.dll
 0005:00000a3c       __imp__getenv              024b4a3c     msvcrt:MSVCR100.dll
 0005:00000a40       __imp__calloc              024b4a40     msvcrt:MSVCR100.dll
 0005:00000a44       __imp__toupper             024b4a44     msvcrt:MSVCR100.dll
 0005:00000a48       __imp__longjmp             024b4a48     msvcrt:MSVCR100.dll
 0005:00000a4c       __imp___time64             024b4a4c     msvcrt:MSVCR100.dll
 0005:00000a50       __imp___localtime64        024b4a50     msvcrt:MSVCR100.dll
 0005:00000a54       __imp__asctime             024b4a54     msvcrt:MSVCR100.dll
 0005:00000a58       __imp__strpbrk             024b4a58     msvcrt:MSVCR100.dll
 0005:00000a5c       __imp__printf              024b4a5c     msvcrt:MSVCR100.dll
 0005:00000a60       __imp__strncmp             024b4a60     msvcrt:MSVCR100.dll
 0005:00000a64       __imp__sprintf             024b4a64     msvcrt:MSVCR100.dll
 0005:00000a68       __imp__sscanf              024b4a68     msvcrt:MSVCR100.dll
 0005:00000a6c       __imp__strncat             024b4a6c     msvcrt:MSVCR100.dll
 0005:00000a70       __imp___vsnprintf          024b4a70     msvcrt:MSVCR100.dll
 0005:00000a74       __imp__rand                024b4a74     msvcrt:MSVCR100.dll
 0005:00000a78       __imp__atof                024b4a78     msvcrt:MSVCR100.dll
 0005:00000a7c       __imp__isspace             024b4a7c     msvcrt:MSVCR100.dll
 0005:00000a80       __imp__strchr              024b4a80     msvcrt:MSVCR100.dll
 0005:00000a84       __imp__tolower             024b4a84     msvcrt:MSVCR100.dll
 0005:00000a88       __imp__fabs                024b4a88     msvcrt:MSVCR100.dll
 0005:00000a8c       __imp__pow                 024b4a8c     msvcrt:MSVCR100.dll
 0005:00000a90       __imp__isalnum             024b4a90     msvcrt:MSVCR100.dll
 0005:00000a94       __imp__memmove             024b4a94     msvcrt:MSVCR100.dll
 0005:00000a98       __imp__strstr              024b4a98     msvcrt:MSVCR100.dll
 0005:00000a9c       __imp__strcpy              024b4a9c     msvcrt:MSVCR100.dll
 0005:00000aa0       __imp__abs                 024b4aa0     msvcrt:MSVCR100.dll
 0005:00000aa4       __imp__strncpy             024b4aa4     msvcrt:MSVCR100.dll
 0005:00000aa8       __imp__sin                 024b4aa8     msvcrt:MSVCR100.dll
 0005:00000aac       __imp__cos                 024b4aac     msvcrt:MSVCR100.dll
 0005:00000ab0       __imp__atan2               024b4ab0     msvcrt:MSVCR100.dll
 0005:00000ab4       __imp__sqrt                024b4ab4     msvcrt:MSVCR100.dll
 0005:00000ab8       __imp__floor               024b4ab8     msvcrt:MSVCR100.dll
 0005:00000abc       __imp___wassert            024b4abc     msvcrt:MSVCR100.dll
 0005:00000ac0       __imp__strcat              024b4ac0     msvcrt:MSVCR100.dll
 0005:00000ac4       __imp__atoi                024b4ac4     msvcrt:MSVCR100.dll
 0005:00000ac8       __imp__strcmp              024b4ac8     msvcrt:MSVCR100.dll
 0005:00000acc       __imp__ceil                024b4acc     msvcrt:MSVCR100.dll
 0005:00000ad0       __imp__memset              024b4ad0     msvcrt:MSVCR100.dll
 0005:00000ad4       __imp__strlen              024b4ad4     msvcrt:MSVCR100.dll
 0005:00000ad8       __imp__memcpy              024b4ad8     msvcrt:MSVCR100.dll
 0005:00000adc       \177MSVCR100_NULL_THUNK_DATA 024b4adc     msvcrt:MSVCR100.dll
 0005:00000b5c       __imp__glTexCoordPointer@16 024b4b5c     OpenGL32:OPENGL32.dll
 0005:00000b60       __imp__glColorPointer@16   024b4b60     OpenGL32:OPENGL32.dll
 0005:00000b64       __imp__glDisableClientState@4 024b4b64     OpenGL32:OPENGL32.dll
 0005:00000b68       __imp__glPolygonOffset@8   024b4b68     OpenGL32:OPENGL32.dll
 0005:00000b6c       __imp__glArrayElement@4    024b4b6c     OpenGL32:OPENGL32.dll
 0005:00000b70       __imp__glDrawElements@16   024b4b70     OpenGL32:OPENGL32.dll
 0005:00000b74       __imp__glTexCoord2fv@4     024b4b74     OpenGL32:OPENGL32.dll
 0005:00000b78       __imp__glColor4ubv@4       024b4b78     OpenGL32:OPENGL32.dll
 0005:00000b7c       __imp__glGetBooleanv@8     024b4b7c     OpenGL32:OPENGL32.dll
 0005:00000b80       __imp__glVertex3f@12       024b4b80     OpenGL32:OPENGL32.dll
 0005:00000b84       __imp__glTranslatef@12     024b4b84     OpenGL32:OPENGL32.dll
 0005:00000b88       __imp__glLineWidth@4       024b4b88     OpenGL32:OPENGL32.dll
 0005:00000b8c       __imp__glCallList@4        024b4b8c     OpenGL32:OPENGL32.dll
 0005:00000b90       __imp__glVertexPointer@16  024b4b90     OpenGL32:OPENGL32.dll
 0005:00000b94       __imp__glVertex3fv@4       024b4b94     OpenGL32:OPENGL32.dll
 0005:00000b98       __imp__glClearDepth@8      024b4b98     OpenGL32:OPENGL32.dll
 0005:00000b9c       __imp__glColor4f@16        024b4b9c     OpenGL32:OPENGL32.dll
 0005:00000ba0       __imp__glShadeModel@4      024b4ba0     OpenGL32:OPENGL32.dll
 0005:00000ba4       __imp__glEnableClientState@4 024b4ba4     OpenGL32:OPENGL32.dll
 0005:00000ba8       __imp__glDeleteTextures@8  024b4ba8     OpenGL32:OPENGL32.dll
 0005:00000bac       __imp__glTexParameterfv@12 024b4bac     OpenGL32:OPENGL32.dll
 0005:00000bb0       __imp__glTexParameteri@12  024b4bb0     OpenGL32:OPENGL32.dll
 0005:00000bb4       __imp__glPushMatrix@0      024b4bb4     OpenGL32:OPENGL32.dll
 0005:00000bb8       __imp__glPopMatrix@0       024b4bb8     OpenGL32:OPENGL32.dll
 0005:00000bbc       __imp__glStencilMask@4     024b4bbc     OpenGL32:OPENGL32.dll
 0005:00000bc0       __imp__glClearStencil@4    024b4bc0     OpenGL32:OPENGL32.dll
 0005:00000bc4       __imp__glStencilFunc@12    024b4bc4     OpenGL32:OPENGL32.dll
 0005:00000bc8       __imp__glStencilOp@12      024b4bc8     OpenGL32:OPENGL32.dll
 0005:00000bcc       __imp__glGetError@0        024b4bcc     OpenGL32:OPENGL32.dll
 0005:00000bd0       __imp__glReadPixels@28     024b4bd0     OpenGL32:OPENGL32.dll
 0005:00000bd4       __imp__glColorMask@16      024b4bd4     OpenGL32:OPENGL32.dll
 0005:00000bd8       __imp__glDrawBuffer@4      024b4bd8     OpenGL32:OPENGL32.dll
 0005:00000bdc       __imp__glTexImage2D@36     024b4bdc     OpenGL32:OPENGL32.dll
 0005:00000be0       __imp__glTexParameterf@12  024b4be0     OpenGL32:OPENGL32.dll
 0005:00000be4       __imp__glTexSubImage2D@36  024b4be4     OpenGL32:OPENGL32.dll
 0005:00000be8       __imp__glColor3f@12        024b4be8     OpenGL32:OPENGL32.dll
 0005:00000bec       __imp__glBegin@4           024b4bec     OpenGL32:OPENGL32.dll
 0005:00000bf0       __imp__glTexCoord2f@8      024b4bf0     OpenGL32:OPENGL32.dll
 0005:00000bf4       __imp__glVertex2f@8        024b4bf4     OpenGL32:OPENGL32.dll
 0005:00000bf8       __imp__glEnd@0             024b4bf8     OpenGL32:OPENGL32.dll
 0005:00000bfc       __imp__glLoadIdentity@0    024b4bfc     OpenGL32:OPENGL32.dll
 0005:00000c00       __imp__glOrtho@48          024b4c00     OpenGL32:OPENGL32.dll
 0005:00000c04       __imp__glDepthRange@16     024b4c04     OpenGL32:OPENGL32.dll
 0005:00000c08       __imp__glMatrixMode@4      024b4c08     OpenGL32:OPENGL32.dll
 0005:00000c0c       __imp__glViewport@16       024b4c0c     OpenGL32:OPENGL32.dll
 0005:00000c10       __imp__glScissor@16        024b4c10     OpenGL32:OPENGL32.dll
 0005:00000c14       __imp__glFinish@0          024b4c14     OpenGL32:OPENGL32.dll
 0005:00000c18       __imp__glClearColor@16     024b4c18     OpenGL32:OPENGL32.dll
 0005:00000c1c       __imp__glClear@4           024b4c1c     OpenGL32:OPENGL32.dll
 0005:00000c20       __imp__glLoadMatrixf@4     024b4c20     OpenGL32:OPENGL32.dll
 0005:00000c24       __imp__glClipPlane@8       024b4c24     OpenGL32:OPENGL32.dll
 0005:00000c28       __imp__glDepthFunc@4       024b4c28     OpenGL32:OPENGL32.dll
 0005:00000c2c       __imp__glBlendFunc@8       024b4c2c     OpenGL32:OPENGL32.dll
 0005:00000c30       __imp__glDepthMask@4       024b4c30     OpenGL32:OPENGL32.dll
 0005:00000c34       __imp__glPolygonMode@8     024b4c34     OpenGL32:OPENGL32.dll
 0005:00000c38       __imp__glAlphaFunc@8       024b4c38     OpenGL32:OPENGL32.dll
 0005:00000c3c       __imp__glTexEnvf@12        024b4c3c     OpenGL32:OPENGL32.dll
 0005:00000c40       __imp__glEnable@4          024b4c40     OpenGL32:OPENGL32.dll
 0005:00000c44       __imp__glCullFace@4        024b4c44     OpenGL32:OPENGL32.dll
 0005:00000c48       __imp__glBindTexture@8     024b4c48     OpenGL32:OPENGL32.dll
 0005:00000c4c       __imp__glGetIntegerv@8     024b4c4c     OpenGL32:OPENGL32.dll
 0005:00000c50       __imp__glGetString@4       024b4c50     OpenGL32:OPENGL32.dll
 0005:00000c54       __imp__glDisable@4         024b4c54     OpenGL32:OPENGL32.dll
 0005:00000c58       \177OPENGL32_NULL_THUNK_DATA 024b4c58     OpenGL32:OPENGL32.dll
 0005:00000cb4       __imp__SDL_Linked_Version  024b4cb4     SDL:SDL.dll
 0005:00000cb8       __imp__SDL_HasRDTSC        024b4cb8     SDL:SDL.dll
 0005:00000cbc       __imp__SDL_HasMMX          024b4cbc     SDL:SDL.dll
 0005:00000cc0       __imp__SDL_HasMMXExt       024b4cc0     SDL:SDL.dll
 0005:00000cc4       __imp__SDL_Has3DNow        024b4cc4     SDL:SDL.dll
 0005:00000cc8       __imp__SDL_Has3DNowExt     024b4cc8     SDL:SDL.dll
 0005:00000ccc       __imp__SDL_HasSSE          024b4ccc     SDL:SDL.dll
 0005:00000cd0       __imp__SDL_HasSSE2         024b4cd0     SDL:SDL.dll
 0005:00000cd4       __imp__SDL_HasAltiVec      024b4cd4     SDL:SDL.dll
 0005:00000cd8       __imp__SDL_Quit            024b4cd8     SDL:SDL.dll
 0005:00000cdc       __imp__SDL_LockAudio       024b4cdc     SDL:SDL.dll
 0005:00000ce0       __imp__SDL_UnlockAudio     024b4ce0     SDL:SDL.dll
 0005:00000ce4       __imp__SDL_CloseAudio      024b4ce4     SDL:SDL.dll
 0005:00000ce8       __imp__SDL_AudioDriverName 024b4ce8     SDL:SDL.dll
 0005:00000cec       __imp__SDL_OpenAudio       024b4cec     SDL:SDL.dll
 0005:00000cf0       __imp__SDL_PauseAudio      024b4cf0     SDL:SDL.dll
 0005:00000cf4       __imp__SDL_JoystickClose   024b4cf4     SDL:SDL.dll
 0005:00000cf8       __imp__SDL_NumJoysticks    024b4cf8     SDL:SDL.dll
 0005:00000cfc       __imp__SDL_JoystickName    024b4cfc     SDL:SDL.dll
 0005:00000d00       __imp__SDL_JoystickOpen    024b4d00     SDL:SDL.dll
 0005:00000d04       __imp__SDL_JoystickEventState 024b4d04     SDL:SDL.dll
 0005:00000d08       __imp__SDL_EnableUNICODE   024b4d08     SDL:SDL.dll
 0005:00000d0c       __imp__SDL_GetKeyName      024b4d0c     SDL:SDL.dll
 0005:00000d10       __imp__SDL_EnableKeyRepeat 024b4d10     SDL:SDL.dll
 0005:00000d14       __imp__SDL_PollEvent       024b4d14     SDL:SDL.dll
 0005:00000d18       __imp__SDL_JoystickUpdate  024b4d18     SDL:SDL.dll
 0005:00000d1c       __imp__SDL_JoystickNumBalls 024b4d1c     SDL:SDL.dll
 0005:00000d20       __imp__SDL_JoystickGetBall 024b4d20     SDL:SDL.dll
 0005:00000d24       __imp__SDL_JoystickNumButtons 024b4d24     SDL:SDL.dll
 0005:00000d28       __imp__SDL_JoystickGetButton 024b4d28     SDL:SDL.dll
 0005:00000d2c       __imp__SDL_JoystickNumHats 024b4d2c     SDL:SDL.dll
 0005:00000d30       __imp__SDL_JoystickGetHat  024b4d30     SDL:SDL.dll
 0005:00000d34       __imp__SDL_JoystickNumAxes 024b4d34     SDL:SDL.dll
 0005:00000d38       __imp__SDL_JoystickGetAxis 024b4d38     SDL:SDL.dll
 0005:00000d3c       __imp__SDL_WarpMouse       024b4d3c     SDL:SDL.dll
 0005:00000d40       __imp__SDL_PumpEvents      024b4d40     SDL:SDL.dll
 0005:00000d44       __imp__SDL_PeepEvents      024b4d44     SDL:SDL.dll
 0005:00000d48       __imp__SDL_WM_GrabInput    024b4d48     SDL:SDL.dll
 0005:00000d4c       __imp__SDL_GetAppState     024b4d4c     SDL:SDL.dll
 0005:00000d50       __imp__SDL_GL_SwapBuffers  024b4d50     SDL:SDL.dll
 0005:00000d54       __imp__SDL_GetVideoSurface 024b4d54     SDL:SDL.dll
 0005:00000d58       __imp__SDL_WM_ToggleFullScreen 024b4d58     SDL:SDL.dll
 0005:00000d5c       __imp__SDL_GL_GetProcAddress 024b4d5c     SDL:SDL.dll
 0005:00000d60       __imp__SDL_ListModes       024b4d60     SDL:SDL.dll
 0005:00000d64       __imp__SDL_GetVideoInfo    024b4d64     SDL:SDL.dll
 0005:00000d68       __imp__SDL_GL_SetAttribute 024b4d68     SDL:SDL.dll
 0005:00000d6c       __imp__SDL_CreateRGBSurfaceFrom 024b4d6c     SDL:SDL.dll
 0005:00000d70       __imp__SDL_WM_SetIcon      024b4d70     SDL:SDL.dll
 0005:00000d74       __imp__SDL_FreeSurface     024b4d74     SDL:SDL.dll
 0005:00000d78       __imp__SDL_WM_SetCaption   024b4d78     SDL:SDL.dll
 0005:00000d7c       __imp__SDL_ShowCursor      024b4d7c     SDL:SDL.dll
 0005:00000d80       __imp__SDL_SetVideoMode    024b4d80     SDL:SDL.dll
 0005:00000d84       __imp__SDL_WasInit         024b4d84     SDL:SDL.dll
 0005:00000d88       __imp__SDL_Init            024b4d88     SDL:SDL.dll
 0005:00000d8c       __imp__SDL_GetError        024b4d8c     SDL:SDL.dll
 0005:00000d90       __imp__SDL_VideoDriverName 024b4d90     SDL:SDL.dll
 0005:00000d94       __imp__SDL_SetGamma        024b4d94     SDL:SDL.dll
 0005:00000d98       __imp__SDL_QuitSubSystem   024b4d98     SDL:SDL.dll
 0005:00000d9c       __imp__SDL_SetGammaRamp    024b4d9c     SDL:SDL.dll
 0005:00000da0       __imp__SDL_UnloadObject    024b4da0     SDL:SDL.dll
 0005:00000da4       __imp__SDL_LoadFunction    024b4da4     SDL:SDL.dll
 0005:00000da8       __imp__SDL_LoadObject      024b4da8     SDL:SDL.dll
 0005:00000dac       __imp__SDL_strlcat         024b4dac     SDL:SDL.dll
 0005:00000db0       __imp__SDL_getenv          024b4db0     SDL:SDL.dll
 0005:00000db4       __imp__SDL_strlcpy         024b4db4     SDL:SDL.dll
 0005:00000db8       __imp__SDL_SetModuleHandle 024b4db8     SDL:SDL.dll
 0005:00000dbc       \177SDL_NULL_THUNK_DATA    024b4dbc     SDL:SDL.dll
 0005:00000e1c       __imp__CloseClipboard@0    024b4e1c     user32:USER32.dll
 0005:00000e20       __imp__OpenClipboard@4     024b4e20     user32:USER32.dll
 0005:00000e24       __imp__SetClipboardData@8  024b4e24     user32:USER32.dll
 0005:00000e28       __imp__EmptyClipboard@0    024b4e28     user32:USER32.dll
 0005:00000e2c       __imp__MessageBoxA@16      024b4e2c     user32:USER32.dll
 0005:00000e30       __imp__GetClipboardData@4  024b4e30     user32:USER32.dll
 0005:00000e34       \177USER32_NULL_THUNK_DATA 024b4e34     user32:USER32.dll
 0005:00000e64       __imp__timeGetDevCaps@8    024b4e64     winmm:WINMM.dll
 0005:00000e68       __imp__timeBeginPeriod@4   024b4e68     winmm:WINMM.dll
 0005:00000e6c       __imp__timeGetTime@0       024b4e6c     winmm:WINMM.dll
 0005:00000e70       __imp__timeEndPeriod@4     024b4e70     winmm:WINMM.dll
 0005:00000e74       \177WINMM_NULL_THUNK_DATA  024b4e74     winmm:WINMM.dll
 0005:00000ea0       __imp__freeaddrinfo@4      024b4ea0     ws2_32:WS2_32.dll
 0005:00000ea4       __imp__getaddrinfo@16      024b4ea4     ws2_32:WS2_32.dll
 0005:00000ea8       __imp__getnameinfo@28      024b4ea8     ws2_32:WS2_32.dll
 0005:00000eac       \177WS2_32_NULL_THUNK_DATA 024b4eac     ws2_32:WS2_32.dll
 0005:00000ed8       __imp__recvfrom@24         024b4ed8     wsock32:WSOCK32.dll
 0005:00000edc       __imp__sendto@24           024b4edc     wsock32:WSOCK32.dll
 0005:00000ee0       __imp__WSAGetLastError@0   024b4ee0     wsock32:WSOCK32.dll
 0005:00000ee4       __imp__bind@12             024b4ee4     wsock32:WSOCK32.dll
 0005:00000ee8       __imp__send@16             024b4ee8     wsock32:WSOCK32.dll
 0005:00000eec       __imp__htons@4             024b4eec     wsock32:WSOCK32.dll
 0005:00000ef0       __imp__setsockopt@20       024b4ef0     wsock32:WSOCK32.dll
 0005:00000ef4       __imp__closesocket@4       024b4ef4     wsock32:WSOCK32.dll
 0005:00000ef8       __imp__ioctlsocket@12      024b4ef8     wsock32:WSOCK32.dll
 0005:00000efc       __imp__socket@12           024b4efc     wsock32:WSOCK32.dll
 0005:00000f00       __imp__recv@16             024b4f00     wsock32:WSOCK32.dll
 0005:00000f04       __imp__connect@12          024b4f04     wsock32:WSOCK32.dll
 0005:00000f08       __imp__gethostbyname@4     024b4f08     wsock32:WSOCK32.dll
 0005:00000f0c       __imp__gethostname@8       024b4f0c     wsock32:WSOCK32.dll
 0005:00000f10       __imp__WSAStartup@8        024b4f10     wsock32:WSOCK32.dll
 0005:00000f14       __imp__WSACleanup@0        024b4f14     wsock32:WSOCK32.dll
 0005:00000f18       __imp__select@20           024b4f18     wsock32:WSOCK32.dll
 0005:00000f1c       __imp__ntohs@4             024b4f1c     wsock32:WSOCK32.dll
 0005:00000f20       \177WSOCK32_NULL_THUNK_DATA 024b4f20     wsock32:WSOCK32.dll

 entry point at        0002:00000ae1

