 qagamex86

 Timestamp is 4467cfb0 (Sun May 14 17:47:44 2006)

 Preferred load address is 20000000

 Start         Length     Name                   Class
 0001:00000000 0003a5a0H .text                   CODE
 0002:00000000 000000b0H .idata$5                DATA
 0002:000000b0 000008b7H .rdata                  DATA
 0002:00000968 00000014H .idata$2                DATA
 0002:0000097c 00000014H .idata$3                DATA
 0002:00000990 000000b0H .idata$4                DATA
 0002:00000a40 000002f0H .idata$6                DATA
 0002:00000d30 0000005aH .edata                  DATA
 0003:00000000 00000004H .CRT$XCA                DATA
 0003:00000004 00000004H .CRT$XCZ                DATA
 0003:00000008 00000004H .CRT$XIA                DATA
 0003:0000000c 00000008H .CRT$XIC                DATA
 0003:00000014 00000004H .CRT$XIZ                DATA
 0003:00000018 00000004H .CRT$XPA                DATA
 0003:0000001c 00000004H .CRT$XPX                DATA
 0003:00000020 00000004H .CRT$XPZ                DATA
 0003:00000024 00000004H .CRT$XTA                DATA
 0003:00000028 00000004H .CRT$XTZ                DATA
 0003:00000030 0000862cH .data                   DATA
 0003:00008660 00174ce0H .bss                    DATA

  Address         Publics by Value              Rva+Base     Lib:Object

 0001:00000000       _BotNumActivePlayers       20001000 f   ai_chat.obj
 0001:000000b0       _BotIsFirstInRankings      200010b0 f   ai_chat.obj
 0001:000001b0       _BotIsLastInRankings       200011b0 f   ai_chat.obj
 0001:000002b0       _BotFirstClientInRankings  200012b0 f   ai_chat.obj
 0001:000003b0       _BotLastClientInRankings   200013b0 f   ai_chat.obj
 0001:000004b0       _BotRandomOpponentName     200014b0 f   ai_chat.obj
 0001:00000610       _BotMapTitle               20001610 f   ai_chat.obj
 0001:00000660       _BotWeaponNameForMeansOfDeath 20001660 f   ai_chat.obj
 0001:00000700       _BotRandomWeaponName       20001700 f   ai_chat.obj
 0001:00000790       _BotVisibleEnemies         20001790 f   ai_chat.obj
 0001:00000860       _BotValidChatPosition      20001860 f   ai_chat.obj
 0001:000009f0       _BotChat_EnterGame         200019f0 f   ai_chat.obj
 0001:00000b20       _BotChat_ExitGame          20001b20 f   ai_chat.obj
 0001:00000c40       _BotChat_StartLevel        20001c40 f   ai_chat.obj
 0001:00000d70       _BotChat_EndLevel          20001d70 f   ai_chat.obj
 0001:00000f50       _BotChat_Death             20001f50 f   ai_chat.obj
 0001:000012f0       _BotChat_Kill              200022f0 f   ai_chat.obj
 0001:00001510       _BotChat_EnemySuicide      20002510 f   ai_chat.obj
 0001:00001650       _BotChat_HitTalking        20002650 f   ai_chat.obj
 0001:000017d0       _BotChat_HitNoDeath        200027d0 f   ai_chat.obj
 0001:00001980       _BotChat_HitNoKill         20002980 f   ai_chat.obj
 0001:00001b20       _BotChat_Random            20002b20 f   ai_chat.obj
 0001:00001d90       _BotChatTime               20002d90 f   ai_chat.obj
 0001:00001dc0       _BotChatTest               20002dc0 f   ai_chat.obj
 0001:00002740       _BotGetItemTeamGoal        20003740 f   ai_cmd.obj
 0001:00002780       _BotGetMessageTeamGoal     20003780 f   ai_cmd.obj
 0001:000027d0       _BotGetTime                200037d0 f   ai_cmd.obj
 0001:000028f0       _FindClientByName          200038f0 f   ai_cmd.obj
 0001:000029a0       _FindEnemyByName           200039a0 f   ai_cmd.obj
 0001:00002a80       _NumPlayersOnSameTeam      20003a80 f   ai_cmd.obj
 0001:00002b10       _BotGetPatrolWaypoints     20003b10 f   ai_cmd.obj
 0001:00002cd0       _BotAddressedToBot         20003cd0 f   ai_cmd.obj
 0001:00002f40       _BotMatch_HelpAccompany    20003f40 f   ai_cmd.obj
 0001:000032b0       _BotMatch_DefendKeyArea    200042b0 f   ai_cmd.obj
 0001:000033e0       _BotMatch_GetItem          200043e0 f   ai_cmd.obj
 0001:000034e0       _BotMatch_Camp             200044e0 f   ai_cmd.obj
 0001:000037b0       _BotMatch_Patrol           200047b0 f   ai_cmd.obj
 0001:000038b0       _BotMatch_GetFlag          200048b0 f   ai_cmd.obj
 0001:000039b0       _BotMatch_RushBase         200049b0 f   ai_cmd.obj
 0001:00003aa0       _BotMatch_TaskPreference   20004aa0 f   ai_cmd.obj
 0001:00003ba0       _BotMatch_ReturnFlag       20004ba0 f   ai_cmd.obj
 0001:00003c70       _BotMatch_JoinSubteam      20004c70 f   ai_cmd.obj
 0001:00003d20       _BotMatch_LeaveSubteam     20004d20 f   ai_cmd.obj
 0001:00003db0       _BotMatch_WhichTeam        20004db0 f   ai_cmd.obj
 0001:00003e20       _BotMatch_CheckPoint       20004e20 f   ai_cmd.obj
 0001:00004010       _BotMatch_FormationSpace   20005010 f   ai_cmd.obj
 0001:000040c0       _BotMatch_Dismiss          200050c0 f   ai_cmd.obj
 0001:00004160       _BotMatch_Suicide          20005160 f   ai_cmd.obj
 0001:000041e0       _BotMatch_StartTeamLeaderShip 200051e0 f   ai_cmd.obj
 0001:00004290       _BotMatch_StopTeamLeaderShip 20005290 f   ai_cmd.obj
 0001:00004350       _BotMatch_WhoIsTeamLeader  20005350 f   ai_cmd.obj
 0001:000043b0       _BotMatch_WhatAreYouDoing  200053b0 f   ai_cmd.obj
 0001:00004590       _BotMatch_WhatIsMyCommand  20005590 f   ai_cmd.obj
 0001:000045d0       _BotNearestVisibleItem     200055d0 f   ai_cmd.obj
 0001:000046e0       _BotMatch_WhereAreYou      200056e0 f   ai_cmd.obj
 0001:00004920       _BotMatch_LeadTheWay       20005920 f   ai_cmd.obj
 0001:00004b40       _BotMatch_Kill             20005b40 f   ai_cmd.obj
 0001:00004c50       _BotMatch_CTF              20005c50 f   ai_cmd.obj
 0001:00004db0       _BotMatch_EnterGame        20005db0 f   ai_cmd.obj
 0001:00004df0       _BotMatch_NewLeader        20005df0 f   ai_cmd.obj
 0001:00004e40       _BotMatchMessage           20005e40 f   ai_cmd.obj
 0001:00005310       _BotResetNodeSwitches      20006310 f   ai_dmnet.obj
 0001:00005320       _BotDumpNodeSwitches       20006320 f   ai_dmnet.obj
 0001:000053a0       _BotRecordNodeSwitch       200063a0 f   ai_dmnet.obj
 0001:00005410       _BotGetAirGoal             20006410 f   ai_dmnet.obj
 0001:00005570       _BotGoForAir               20006570 f   ai_dmnet.obj
 0001:00005670       _BotNearbyGoal             20006670 f   ai_dmnet.obj
 0001:00005710       _BotReachedGoal            20006710 f   ai_dmnet.obj
 0001:00005870       _BotGetItemLongTermGoal    20006870 f   ai_dmnet.obj
 0001:00005940       _BotGetLongTermGoal        20006940 f   ai_dmnet.obj
 0001:000070e0       _BotLongTermGoal           200080e0 f   ai_dmnet.obj
 0001:00007510       _AIEnter_Intermission      20008510 f   ai_dmnet.obj
 0001:00007570       _AINode_Intermission       20008570 f   ai_dmnet.obj
 0001:000075d0       _AIEnter_Observer          200085d0 f   ai_dmnet.obj
 0001:00007600       _AINode_Observer           20008600 f   ai_dmnet.obj
 0001:00007630       _AIEnter_Stand             20008630 f   ai_dmnet.obj
 0001:00007670       _AINode_Stand              20008670 f   ai_dmnet.obj
 0001:00007760       _AIEnter_Respawn           20008760 f   ai_dmnet.obj
 0001:00007840       _AINode_Respawn            20008840 f   ai_dmnet.obj
 0001:00007920       _BotSelectActivateWeapon   20008920 f   ai_dmnet.obj
 0001:000079e0       _BotClearPath              200089e0 f   ai_dmnet.obj
 0001:00007d50       _AIEnter_Seek_ActivateEntity 20008d50 f   ai_dmnet.obj
 0001:00007d80       _AINode_Seek_ActivateEntity 20008d80 f   ai_dmnet.obj
 0001:00008360       _AIEnter_Seek_NBG          20009360 f   ai_dmnet.obj
 0001:00008400       _AINode_Seek_NBG           20009400 f   ai_dmnet.obj
 0001:000087d0       _AIEnter_Seek_LTG          200097d0 f   ai_dmnet.obj
 0001:00008870       _AINode_Seek_LTG           20009870 f   ai_dmnet.obj
 0001:00008dd0       _AIEnter_Battle_Fight      20009dd0 f   ai_dmnet.obj
 0001:00008e10       _AIEnter_Battle_SuicidalFight 20009e10 f   ai_dmnet.obj
 0001:00008e60       _AINode_Battle_Fight       20009e60 f   ai_dmnet.obj
 0001:000092b0       _AIEnter_Battle_Chase      2000a2b0 f   ai_dmnet.obj
 0001:000092f0       _AINode_Battle_Chase       2000a2f0 f   ai_dmnet.obj
 0001:00009760       _AIEnter_Battle_Retreat    2000a760 f   ai_dmnet.obj
 0001:00009790       _AINode_Battle_Retreat     2000a790 f   ai_dmnet.obj
 0001:00009c70       _AIEnter_Battle_NBG        2000ac70 f   ai_dmnet.obj
 0001:00009ca0       _AINode_Battle_NBG         2000aca0 f   ai_dmnet.obj
 0001:0000a090       _BotSetUserInfo            2000b090 f   ai_dmq3.obj
 0001:0000a0f0       _BotCTFCarryingFlag        2000b0f0 f   ai_dmq3.obj
 0001:0000a130       _BotTeam                   2000b130 f   ai_dmq3.obj
 0001:0000a1c0       _BotOppositeTeam           2000b1c0 f   ai_dmq3.obj
 0001:0000a1f0       _BotEnemyFlag              2000b1f0 f   ai_dmq3.obj
 0001:0000a210       _BotTeamFlag               2000b210 f   ai_dmq3.obj
 0001:0000a230       _EntityIsDead              2000b230 f   ai_dmq3.obj
 0001:0000a280       _EntityCarriesFlag         2000b280 f   ai_dmq3.obj
 0001:0000a2a0       _EntityIsInvisible         2000b2a0 f   ai_dmq3.obj
 0001:0000a2d0       _EntityIsShooting          2000b2d0 f   ai_dmq3.obj
 0001:0000a2e0       _EntityIsChatting          2000b2e0 f   ai_dmq3.obj
 0001:0000a2f0       _BotRememberLastOrderedTask 2000b2f0 f   ai_dmq3.obj
 0001:0000a340       _BotSetLastOrderedTask     2000b340 f   ai_dmq3.obj
 0001:0000a470       _BotRefuseOrder            2000b470 f   ai_dmq3.obj
 0001:0000a4e0       _BotCTFSeekGoals           2000b4e0 f   ai_dmq3.obj
 0001:0000ac50       _BotCTFRetreatGoals        2000bc50 f   ai_dmq3.obj
 0001:0000acb0       _BotTeamGoals              2000bcb0 f   ai_dmq3.obj
 0001:0000ad20       _BotPointAreaNum           2000bd20 f   ai_dmq3.obj
 0001:0000ad80       _ClientName                2000bd80 f   ai_dmq3.obj
 0001:0000ae10       _ClientFromName            2000be10 f   ai_dmq3.obj
 0001:0000aeb0       _ClientOnSameTeamFromName  2000beb0 f   ai_dmq3.obj
 0001:0000af70       _stristr                   2000bf70 f   ai_dmq3.obj
 0001:0000aff0       _EasyClientName            2000bff0 f   ai_dmq3.obj
 0001:0000b1b0       _BotSynonymContext         2000c1b0 f   ai_dmq3.obj
 0001:0000b1e0       _BotChooseWeapon           2000c1e0 f   ai_dmq3.obj
 0001:0000b250       _BotSetupForMovement       2000c250 f   ai_dmq3.obj
 0001:0000b360       _BotUpdateInventory        2000c360 f   ai_dmq3.obj
 0001:0000b580       _BotUpdateBattleInventory  2000c580 f   ai_dmq3.obj
 0001:0000b5f0       _BotBattleUseItems         2000c5f0 f   ai_dmq3.obj
 0001:0000b650       _BotSetTeleportTime        2000c650 f   ai_dmq3.obj
 0001:0000b680       _BotIsDead                 2000c680 f   ai_dmq3.obj
 0001:0000b690       _BotIsObserver             2000c690 f   ai_dmq3.obj
 0001:0000b6f0       _BotIntermission           2000c6f0 f   ai_dmq3.obj
 0001:0000b720       _BotInLavaOrSlime          2000c720 f   ai_dmq3.obj
 0001:0000b760       _BotCreateWayPoint         2000c760 f   ai_dmq3.obj
 0001:0000b7f0       _BotFindWayPoint           2000c7f0 f   ai_dmq3.obj
 0001:0000b820       _BotFreeWaypoints          2000c820 f   ai_dmq3.obj
 0001:0000b850       _BotInitWaypoints          2000c850 f   ai_dmq3.obj
 0001:0000b870       _TeamPlayIsOn              2000c870 f   ai_dmq3.obj
 0001:0000b880       _BotAggression             2000c880 f   ai_dmq3.obj
 0001:0000b9b0       _BotWantsToRetreat         2000c9b0 f   ai_dmq3.obj
 0001:0000ba50       _BotWantsToChase           2000ca50 f   ai_dmq3.obj
 0001:0000bae0       _BotCanAndWantsToRocketJump 2000cae0 f   ai_dmq3.obj
 0001:0000bb70       _BotHasPersistantPowerupAndWeapon 2000cb70 f   ai_dmq3.obj
 0001:0000bc70       _BotGoCamp                 2000cc70 f   ai_dmq3.obj
 0001:0000bd40       _BotWantsToCamp            2000cd40 f   ai_dmq3.obj
 0001:0000bf00       _BotDontAvoid              2000cf00 f   ai_dmq3.obj
 0001:0000bf60       _BotGoForPowerups          2000cf60 f   ai_dmq3.obj
 0001:0000bfb0       _BotRoamGoal               2000cfb0 f   ai_dmq3.obj
 0001:0000c290       _BotAttackMove             2000d290 f   ai_dmq3.obj
 0001:0000c7d0       _BotSameTeam               2000d7d0 f   ai_dmq3.obj
 0001:0000c890       _InFieldOfVision           2000d890 f   ai_dmq3.obj
 0001:0000c960       _BotEntityVisible          2000d960 f   ai_dmq3.obj
 0001:0000cd60       _BotFindEnemy              2000dd60 f   ai_dmq3.obj
 0001:0000d1d0       _BotTeamFlagCarrierVisible 2000e1d0 f   ai_dmq3.obj
 0001:0000d280       _BotTeamFlagCarrier        2000e280 f   ai_dmq3.obj
 0001:0000d300       _BotEnemyFlagCarrierVisible 2000e300 f   ai_dmq3.obj
 0001:0000d3b0       _BotAimAtEnemy             2000e3b0 f   ai_dmq3.obj
 0001:0000e340       _BotCheckAttack            2000f340 f   ai_dmq3.obj
 0001:0000e7e0       _BotMapScripts             2000f7e0 f   ai_dmq3.obj
 0001:0000eb00       _BotSetMovedir             2000fb00 f   ai_dmq3.obj
 0001:0000ebc0       _BotModelMinsMaxs          2000fbc0 f   ai_dmq3.obj
 0001:0000ecb0       _BotFuncButtonActivateGoal 2000fcb0 f   ai_dmq3.obj
 0001:0000f360       _BotFuncDoorActivateGoal   20010360 f   ai_dmq3.obj
 0001:0000f490       _BotTriggerMultipleActivateGoal 20010490 f   ai_dmq3.obj
 0001:0000f650       _BotPopFromActivateGoalStack 20010650 f   ai_dmq3.obj
 0001:0000f6a0       _BotPushOntoActivateGoalStack 200106a0 f   ai_dmq3.obj
 0001:0000f730       _BotClearActivateGoalStack 20010730 f   ai_dmq3.obj
 0001:0000f760       _BotEnableActivateGoalAreas 20010760 f   ai_dmq3.obj
 0001:0000f7c0       _BotIsGoingToActivateEntity 200107c0 f   ai_dmq3.obj
 0001:0000f840       _BotGetActivateGoal        20010840 f   ai_dmq3.obj
 0001:000100c0       _BotGoForActivateGoal      200110c0 f   ai_dmq3.obj
 0001:00010170       _BotRandomMove             20011170 f   ai_dmq3.obj
 0001:00010200       _BotAIBlocked              20011200 f   ai_dmq3.obj
 0001:000104a0       _BotAIPredictObstacles     200114a0 f   ai_dmq3.obj
 0001:000105e0       _BotCheckConsoleMessages   200115e0 f   ai_dmq3.obj
 0001:00010950       _BotCheckForGrenades       20011950 f   ai_dmq3.obj
 0001:00010990       _BotCheckEvents            20011990 f   ai_dmq3.obj
 0001:00010d30       _BotCheckSnapshot          20011d30 f   ai_dmq3.obj
 0001:00010df0       _BotCheckAir               20011df0 f   ai_dmq3.obj
 0001:00010e20       _BotAlternateRoute         20011e20 f   ai_dmq3.obj
 0001:00010ea0       _BotGetAlternateRouteGoal  20011ea0 f   ai_dmq3.obj
 0001:00010f80       _BotSetupAlternativeRouteGoals 20011f80 f   ai_dmq3.obj
 0001:00010fa0       _BotDeathmatchAI           20011fa0 f   ai_dmq3.obj
 0001:00011270       _BotSetupDeathmatchAI      20012270 f   ai_dmq3.obj
 0001:00011420       _BotAI_Print               20012420 f   ai_main.obj
 0001:00011500       _BotAI_Trace               20012500 f   ai_main.obj
 0001:000115a0       _BotAI_GetClientState      200125a0 f   ai_main.obj
 0001:000115f0       _BotAI_GetEntityState      200125f0 f   ai_main.obj
 0001:00011660       _BotAI_GetSnapshotEntity   20012660 f   ai_main.obj
 0001:000116a0       _BotAI_BotInitialChat      200126a0 f   ai_main.obj
 0001:00011730       _BotTestAAS                20012730 f   ai_main.obj
 0001:00011800       _BotSetInfoConfigString    20012800 f   ai_main.obj
 0001:00011b10       _BotUpdateInfoConfigStrings 20012b10 f   ai_main.obj
 0001:00011bb0       _BotInterbreedBots         20012bb0 f   ai_main.obj
 0001:00011cb0       _BotWriteInterbreeded      20012cb0 f   ai_main.obj
 0001:00011d40       _BotInterbreedEndMatch     20012d40 f   ai_main.obj
 0001:00011db0       _BotInterbreeding          20012db0 f   ai_main.obj
 0001:00011ea0       _BotEntityInfo             20012ea0 f   ai_main.obj
 0001:00011ec0       _NumBots                   20012ec0 f   ai_main.obj
 0001:00011ed0       _BotTeamLeader             20012ed0 f   ai_main.obj
 0001:00011f00       _AngleDifference           20012f00 f   ai_main.obj
 0001:00011f40       _BotChangeViewAngle        20012f40 f   ai_main.obj
 0001:00012010       _BotChangeViewAngles       20013010 f   ai_main.obj
 0001:00012220       _BotInputToUserCommand     20013220 f   ai_main.obj
 0001:00012470       _BotUpdateInput            20013470 f   ai_main.obj
 0001:00012550       _BotAIRegularUpdate        20013550 f   ai_main.obj
 0001:00012580       _RemoveColorEscapeSequences 20013580 f   ai_main.obj
 0001:000125d0       _BotAI                     200135d0 f   ai_main.obj
 0001:000128a0       _BotScheduleBotThink       200138a0 f   ai_main.obj
 0001:000128e0       _BotWriteSessionData       200138e0 f   ai_main.obj
 0001:000129c0       _BotReadSessionData        200139c0 f   ai_main.obj
 0001:00012a80       _BotAISetupClient          20013a80 f   ai_main.obj
 0001:00012dd0       _BotAIShutdownClient       20013dd0 f   ai_main.obj
 0001:00012eb0       _BotResetState             20013eb0 f   ai_main.obj
 0001:00013020       _BotAILoadMap              20014020 f   ai_main.obj
 0001:000130a0       _BotAIStartFrame           200140a0 f   ai_main.obj
 0001:00013550       _BotInitLibrary            20014550 f   ai_main.obj
 0001:00013960       _BotAISetup                20014960 f   ai_main.obj
 0001:00013ac0       _BotAIShutdown             20014ac0 f   ai_main.obj
 0001:00013b10       _BotValidTeamLeader        20014b10 f   ai_team.obj
 0001:00013b40       _BotNumTeamMates           20014b40 f   ai_team.obj
 0001:00013c20       _BotClientTravelTimeToGoal 20014c20 f   ai_team.obj
 0001:00013c80       _BotSortTeamMatesByBaseTravelTime 20014c80 f   ai_team.obj
 0001:00013e40       _BotSetTeamMateTaskPreference 20014e40 f   ai_team.obj
 0001:00013ea0       _BotGetTeamMateTaskPreference 20014ea0 f   ai_team.obj
 0001:00013f00       _BotSortTeamMatesByTaskPreference 20014f00 f   ai_team.obj
 0001:00014000       _BotSayTeamOrderAlways     20015000 f   ai_team.obj
 0001:000140a0       _BotSayTeamOrder           200150a0 f   ai_team.obj
 0001:000140c0       _BotCTFOrders_BothFlagsNotAtBase 200150c0 f   ai_team.obj
 0001:00014410       _BotCTFOrders_FlagNotAtBase 20015410 f   ai_team.obj
 0001:00014930       _BotCTFOrders_EnemyFlagNotAtBase 20015930 f   ai_team.obj
 0001:00014c00       _BotCTFOrders_BothFlagsAtBase 20015c00 f   ai_team.obj
 0001:00015110       _BotCTFOrders              20016110 f   ai_team.obj
 0001:00015190       _BotCreateGroup            20016190 f   ai_team.obj
 0001:00015230       _BotTeamOrders             20016230 f   ai_team.obj
 0001:000153f0       _FindHumanTeamLeader       200163f0 f   ai_team.obj
 0001:00015470       _BotTeamAI                 20016470 f   ai_team.obj
 0001:00015810       _BotVoiceChat_GetFlag      20016810 f   ai_vcmd.obj
 0001:000158d0       _BotVoiceChat_Offense      200168d0 f   ai_vcmd.obj
 0001:00015980       _BotVoiceChat_Defend       20016980 f   ai_vcmd.obj
 0001:00015a50       _BotVoiceChat_DefendFlag   20016a50 f   ai_vcmd.obj
 0001:00015a70       _BotVoiceChat_Patrol       20016a70 f   ai_vcmd.obj
 0001:00015ad0       _BotVoiceChat_Camp         20016ad0 f   ai_vcmd.obj
 0001:00015c40       _BotVoiceChat_FollowMe     20016c40 f   ai_vcmd.obj
 0001:00015dd0       _BotVoiceChat_FollowFlagCarrier 20016dd0 f   ai_vcmd.obj
 0001:00015e00       _BotVoiceChat_ReturnFlag   20016e00 f   ai_vcmd.obj
 0001:00015e90       _BotVoiceChat_StartLeader  20016e90 f   ai_vcmd.obj
 0001:00015eb0       _BotVoiceChat_StopLeader   20016eb0 f   ai_vcmd.obj
 0001:00015f00       _BotVoiceChat_WhoIsLeader  20016f00 f   ai_vcmd.obj
 0001:00015f80       _BotVoiceChat_WantOnDefense 20016f80 f   ai_vcmd.obj
 0001:00016000       _BotVoiceChat_WantOnOffense 20017000 f   ai_vcmd.obj
 0001:00016080       _BG_FindItemForPowerup     20017080 f   bg_misc.obj
 0001:000160d0       _BG_FindItemForWeapon      200170d0 f   bg_misc.obj
 0001:00016110       _BG_FindItem               20017110 f   bg_misc.obj
 0001:00016150       _BG_PlayerTouchesItem      20017150 f   bg_misc.obj
 0001:000161f0       _BG_CanItemBeGrabbed       200171f0 f   bg_misc.obj
 0001:00016390       _BG_EvaluateTrajectory     20017390 f   bg_misc.obj
 0001:000164d0       _BG_EvaluateTrajectoryDelta 200174d0 f   bg_misc.obj
 0001:000165c0       _BG_AddPredictableEventToPlayerstate 200175c0 f   bg_misc.obj
 0001:000165f0       _BG_TouchJumpPad           200175f0 f   bg_misc.obj
 0001:00016690       _BG_PlayerStateToEntityState 20017690 f   bg_misc.obj
 0001:00016880       _PM_AddEvent               20017880 f   bg_pmove.obj
 0001:000168a0       _PM_AddTouchEnt            200178a0 f   bg_pmove.obj
 0001:000168e0       _PM_ClipVelocity           200178e0 f   bg_pmove.obj
 0001:00016940       _PM_UpdateViewAngles       20017940 f   bg_pmove.obj
 0001:000169d0       _CheckLadder               200179d0 f   bg_pmove.obj
 0001:00016a90       _PmoveSingle               20017a90 f   bg_pmove.obj
 0001:00019330       _Pmove                     2001a330 f   bg_pmove.obj
 0001:000193c0       _PM_SlideMove              2001a3c0 f   bg_slidemove.obj
 0001:00019aa0       _PM_StepSlideMove          2001aaa0 f   bg_slidemove.obj
 0001:00019de0       _P_DamageFeedback          2001ade0 f   g_active.obj
 0001:00019f10       _P_WorldEffects            2001af10 f   g_active.obj
 0001:0001a0d0       _G_SetClientSound          2001b0d0 f   g_active.obj
 0001:0001a110       _ClientImpacts             2001b110 f   g_active.obj
 0001:0001a1c0       _G_TouchTriggers           2001b1c0 f   g_active.obj
 0001:0001a3d0       _SpectatorThink            2001b3d0 f   g_active.obj
 0001:0001a4b0       _ClientInactivityTimer     2001b4b0 f   g_active.obj
 0001:0001a5e0       _ClientTimerActions        2001b5e0 f   g_active.obj
 0001:0001a6f0       _ClientIntermissionThink   2001b6f0 f   g_active.obj
 0001:0001a730       _ClientEvents              2001b730 f   g_active.obj
 0001:0001a940       _SendPendingPredictableEvents 2001b940 f   g_active.obj
 0001:0001a9e0       _ClientThink_real          2001b9e0 f   g_active.obj
 0001:0001b070       _ClientThink               2001c070 f   g_active.obj
 0001:0001b0c0       _G_RunClient               2001c0c0 f   g_active.obj
 0001:0001b100       _SpectatorClientEndFrame   2001c100 f   g_active.obj
 0001:0001b200       _ClientEndFrame            2001c200 f   g_active.obj
 0001:0001b340       _UpdateTournamentInfo      2001c340 f   g_arenas.obj
 0001:0001b530       _SpawnModelsOnVictoryPads  2001c530 f   g_arenas.obj
 0001:0001bf50       _Svcmd_AbortPodium_f       2001cf50 f   g_arenas.obj
 0001:0001bf80       _trap_Cvar_VariableValue   2001cf80 f   g_bot.obj
 0001:0001bfb0       _G_ParseInfos              2001cfb0 f   g_bot.obj
 0001:0001c1a0       _G_GetArenaInfoByMap       2001d1a0 f   g_bot.obj
 0001:0001c200       _G_AddRandomBot            2001d200 f   g_bot.obj
 0001:0001c460       _G_RemoveRandomBot         2001d460 f   g_bot.obj
 0001:0001c520       _G_CountHumanPlayers       2001d520 f   g_bot.obj
 0001:0001c590       _G_CountBotPlayers         2001d590 f   g_bot.obj
 0001:0001c610       _G_CheckMinimumPlayers     2001d610 f   g_bot.obj
 0001:0001c790       _G_CheckBotSpawn           2001d790 f   g_bot.obj
 0001:0001c880       _G_RemoveQueuedBotBegin    2001d880 f   g_bot.obj
 0001:0001c8b0       _G_BotConnect              2001d8b0 f   g_bot.obj
 0001:0001c990       _Svcmd_AddBot_f            2001d990 f   g_bot.obj
 0001:0001cef0       _Svcmd_BotList_f           2001def0 f   g_bot.obj
 0001:0001d120       _G_GetBotInfoByName        2001e120 f   g_bot.obj
 0001:0001d170       _G_InitBots                2001e170 f   g_bot.obj
 0001:0001d850       _SP_info_player_deathmatch 2001e850 f   g_client.obj
 0001:0001d8b0       _SP_info_player_start      2001e8b0 f   g_client.obj
 0001:0001d8d0       _SpotWouldTelefrag         2001e8d0 f   g_client.obj
 0001:0001d990       _SelectRandomFurthestSpawnPoint 2001e990 f   g_client.obj
 0001:0001db80       _SelectSpawnPoint          2001eb80 f   g_client.obj
 0001:0001dba0       _SelectInitialSpawnPoint   2001eba0 f   g_client.obj
 0001:0001dc40       _SelectSpectatorSpawnPoint 2001ec40 f   g_client.obj
 0001:0001dc90       _InitBodyQue               2001ec90 f   g_client.obj
 0001:0001dcd0       _BodySink                  2001ecd0 f   g_client.obj
 0001:0001dd20       _CopyToBodyQue             2001ed20 f   g_client.obj
 0001:0001df80       _SetClientViewAngle        2001ef80 f   g_client.obj
 0001:0001e030       _respawn                   2001f030 f   g_client.obj
 0001:0001e070       _TeamCount                 2001f070 f   g_client.obj
 0001:0001e0c0       _TeamLeader                2001f0c0 f   g_client.obj
 0001:0001e110       _PickTeam                  2001f110 f   g_client.obj
 0001:0001e160       _ClientUserinfoChanged     2001f160 f   g_client.obj
 0001:0001e880       _ClientConnect             2001f880 f   g_client.obj
 0001:0001ea90       _ClientBegin               2001fa90 f   g_client.obj
 0001:0001eb90       _ClientSpawn               2001fb90 f   g_client.obj
 0001:0001f110       _ClientDisconnect          20020110 f   g_client.obj
 0001:0001f2b0       _DeathmatchScoreboardMessage 200202b0 f   g_cmds.obj
 0001:0001f490       _Cmd_Score_f               20020490 f   g_cmds.obj
 0001:0001f4a0       _CheatsOk                  200204a0 f   g_cmds.obj
 0001:0001f530       _ConcatArgs                20020530 f   g_cmds.obj
 0001:0001f5d0       _SanitizeString            200205d0 f   g_cmds.obj
 0001:0001f620       _ClientNumberFromString    20020620 f   g_cmds.obj
 0001:0001f780       _Cmd_Give_f                20020780 f   g_cmds.obj
 0001:0001f9e0       _Cmd_God_f                 200209e0 f   g_cmds.obj
 0001:0001fa40       _Cmd_Notarget_f            20020a40 f   g_cmds.obj
 0001:0001faa0       _Cmd_Noclip_f              20020aa0 f   g_cmds.obj
 0001:0001fb10       _Cmd_LevelShot_f           20020b10 f   g_cmds.obj
 0001:0001fb80       _Cmd_TeamTask_f            20020b80 f   g_cmds.obj
 0001:0001fc20       _Cmd_Kill_f                20020c20 f   g_cmds.obj
 0001:0001fc70       _BroadcastTeamChange       20020c70 f   g_cmds.obj
 0001:0001fd10       _SetTeam                   20020d10 f   g_cmds.obj
 0001:00020050       _StopFollowing             20021050 f   g_cmds.obj
 0001:000200c0       _Cmd_Team_f                200210c0 f   g_cmds.obj
 0001:00020230       _Cmd_Follow_f              20021230 f   g_cmds.obj
 0001:00020330       _Cmd_FollowCycle_f         20021330 f   g_cmds.obj
 0001:00020410       _G_Say                     20021410 f   g_cmds.obj
 0001:00020760       _G_Voice                   20021760 f   g_cmds.obj
 0001:000208d0       _Cmd_GameCommand_f         200218d0 f   g_cmds.obj
 0001:00020970       _Cmd_Where_f               20021970 f   g_cmds.obj
 0001:000209b0       _Cmd_CallVote_f            200219b0 f   g_cmds.obj
 0001:00020f10       _Cmd_Vote_f                20021f10 f   g_cmds.obj
 0001:00021050       _Cmd_CallTeamVote_f        20022050 f   g_cmds.obj
 0001:00021580       _Cmd_TeamVote_f            20022580 f   g_cmds.obj
 0001:000216e0       _Cmd_SetViewpos_f          200226e0 f   g_cmds.obj
 0001:00021800       _ClientCommand             20022800 f   g_cmds.obj
 0001:00022190       _ScorePlum                 20023190 f   g_combat.obj
 0001:000221d0       _AddScore                  200231d0 f   g_combat.obj
 0001:00022230       _TossClientItems           20023230 f   g_combat.obj
 0001:00022350       _LookAtKiller              20023350 f   g_combat.obj
 0001:000223e0       _GibEntity                 200233e0 f   g_combat.obj
 0001:00022490       _body_die                  20023490 f   g_combat.obj
 0001:000224c0       _CheckAlmostCapture        200234c0 f   g_combat.obj
 0001:000225b0       _CheckAlmostScored         200235b0 f   g_combat.obj
 0001:00022660       _player_die                20023660 f   g_combat.obj
 0001:00022b50       _CheckArmor                20023b50 f   g_combat.obj
 0001:00022bc0       _G_Damage                  20023bc0 f   g_combat.obj
 0001:00023030       _CanDamage                 20024030 f   g_combat.obj
 0001:00023270       _G_RadiusDamage            20024270 f   g_combat.obj
 0001:00023490       _Pickup_Powerup            20024490 f   g_items.obj
 0001:00023660       _Pickup_Holdable           20024660 f   g_items.obj
 0001:000236c0       _Add_Ammo                  200246c0 f   g_items.obj
 0001:00023700       _Pickup_Ammo               20024700 f   g_items.obj
 0001:00023740       _Pickup_Weapon             20024740 f   g_items.obj
 0001:00023810       _Pickup_Health             20024810 f   g_items.obj
 0001:00023890       _Pickup_Armor              20024890 f   g_items.obj
 0001:000238e0       _RespawnItem               200248e0 f   g_items.obj
 0001:00023a40       _Touch_Item                20024a40 f   g_items.obj
 0001:00023d30       _LaunchItem                20024d30 f   g_items.obj
 0001:00023e70       _Drop_Item                 20024e70 f   g_items.obj
 0001:00023f20       _Use_Item                  20024f20 f   g_items.obj
 0001:00023f30       _FinishSpawningItem        20024f30 f   g_items.obj
 0001:00024120       _G_CheckTeamItems          20025120 f   g_items.obj
 0001:000241c0       _ClearRegisteredItems      200251c0 f   g_items.obj
 0001:00024220       _RegisterItem              20025220 f   g_items.obj
 0001:00024260       _SaveRegisteredItems       20025260 f   g_items.obj
 0001:000242c0       _G_ItemDisabled            200252c0 f   g_items.obj
 0001:00024300       _G_SpawnItem               20025300 f   g_items.obj
 0001:000243c0       _G_BounceItem              200253c0 f   g_items.obj
 0001:00024530       _G_RunItem                 20025530 f   g_items.obj
 0001:00024670       _vmMain                    20025670 f   g_main.obj
 0001:00024770       _G_Printf                  20025770 f   g_main.obj
 0001:000247a0       _G_Error                   200257a0 f   g_main.obj
 0001:000247d0       _G_FindTeams               200257d0 f   g_main.obj
 0001:00024950       _G_RegisterCvars           20025950 f   g_main.obj
 0001:00024a00       _G_UpdateCvars             20025a00 f   g_main.obj
 0001:00024a90       _G_InitGame                20025a90 f   g_main.obj
 0001:00024cd0       _G_ShutdownGame            20025cd0 f   g_main.obj
 0001:00024d30       _Com_Error                 20025d30 f   g_main.obj
 0001:00024d70       _Com_Printf                20025d70 f   g_main.obj
 0001:00024db0       _AddTournamentPlayer       20025db0 f   g_main.obj
 0001:00024e70       _RemoveTournamentLoser     20025e70 f   g_main.obj
 0001:00024ec0       _AdjustTournamentScores    20025ec0 f   g_main.obj
 0001:00024f30       _SortRanks                 20025f30 f   g_main.obj
 0001:00025020       _CalculateRanks            20026020 f   g_main.obj
 0001:00025380       _SendScoreboardMessageToAllClients 20026380 f   g_main.obj
 0001:000253d0       _MoveClientToIntermission  200263d0 f   g_main.obj
 0001:000254c0       _FindIntermissionPoint     200264c0 f   g_main.obj
 0001:00025580       _BeginIntermission         20026580 f   g_main.obj
 0001:00025610       _ExitLevel                 20026610 f   g_main.obj
 0001:00025710       _G_LogPrintf               20026710 f   g_main.obj
 0001:000257f0       _LogExit                   200267f0 f   g_main.obj
 0001:000258c0       _CheckIntermissionExit     200268c0 f   g_main.obj
 0001:000259e0       _ScoreIsTied               200269e0 f   g_main.obj
 0001:00025a50       _CheckExitRules            20026a50 f   g_main.obj
 0001:00025c00       _CheckTournament           20026c00 f   g_main.obj
 0001:00025db0       _CheckVote                 20026db0 f   g_main.obj
 0001:00025e70       _PrintTeam                 20026e70 f   g_main.obj
 0001:00025ec0       _SetLeader                 20026ec0 f   g_main.obj
 0001:00025fc0       _CheckTeamLeader           20026fc0 f   g_main.obj
 0001:00026090       _CheckTeamVote             20027090 f   g_main.obj
 0001:00026180       _CheckCvars                20027180 f   g_main.obj
 0001:000261e0       _G_RunThink                200271e0 f   g_main.obj
 0001:00026240       _G_RunFrame                20027240 f   g_main.obj
 0001:00026490       _G_Alloc                   20027490 f   g_mem.obj
 0001:00026500       _G_InitMemory              20027500 f   g_mem.obj
 0001:00026510       _Svcmd_GameMem_f           20027510 f   g_mem.obj
 0001:00026530       _SP_info_camp              20027530 f   g_misc.obj
 0001:00026530       _SP_info_notnull           20027530 f   g_misc.obj
 0001:00026530       _SP_target_position        20027530 f   g_misc.obj
 0001:00026550       _SP_misc_model             20027550 f   g_misc.obj
 0001:00026550       _SP_info_null              20027550 f   g_misc.obj
 0001:00026550       _SP_light                  20027550 f   g_misc.obj
 0001:00026560       _TeleportPlayer            20027560 f   g_misc.obj
 0001:000266d0       _locateCamera              200276d0 f   g_misc.obj
 0001:000267e0       _SP_misc_portal_surface    200277e0 f   g_misc.obj
 0001:00026860       _SP_misc_portal_camera     20027860 f   g_misc.obj
 0001:000268c0       _Use_Shooter               200278c0 f   g_misc.obj
 0001:00026a90       _InitShooter               20027a90 f   g_misc.obj
 0001:00026b60       _SP_shooter_rocket         20027b60 f   g_misc.obj
 0001:00026b70       _SP_shooter_plasma         20027b70 f   g_misc.obj
 0001:00026b80       _SP_shooter_grenade        20027b80 f   g_misc.obj
 0001:00026b90       _G_BounceMissile           20027b90 f   g_missile.obj
 0001:00026cf0       _G_ExplodeMissile          20027cf0 f   g_missile.obj
 0001:00026df0       _G_MissileImpact           20027df0 f   g_missile.obj
 0001:00027200       _G_RunMissile              20028200 f   g_missile.obj
 0001:00027340       _fire_plasma               20028340 f   g_missile.obj
 0001:00027480       _fire_grenade              20028480 f   g_missile.obj
 0001:000275d0       _fire_flame                200285d0 f   g_missile.obj
 0001:00027720       _fire_altgrenade           20028720 f   g_missile.obj
 0001:00027860       _fire_bfg                  20028860 f   g_missile.obj
 0001:000279b0       _fire_rocket               200289b0 f   g_missile.obj
 0001:00027b00       _G_HomingMissile           20028b00 f   g_missile.obj
 0001:00027e30       _fire_alt_rocket           20028e30 f   g_missile.obj
 0001:00027f90       _fire_grapple              20028f90 f   g_missile.obj
 0001:000280e0       _G_TestEntityPosition      200290e0 f   g_mover.obj
 0001:00028150       _G_CreateRotationMatrix    20029150 f   g_mover.obj
 0001:00028190       _G_TransposeMatrix         20029190 f   g_mover.obj
 0001:000281c0       _G_RotatePoint             200291c0 f   g_mover.obj
 0001:00028210       _G_TryPushingEntity        20029210 f   g_mover.obj
 0001:000285a0       _G_MoverPush               200295a0 f   g_mover.obj
 0001:000289e0       _G_MoverTeam               200299e0 f   g_mover.obj
 0001:00028b80       _G_RunMover                20029b80 f   g_mover.obj
 0001:00028bc0       _SetMoverState             20029bc0 f   g_mover.obj
 0001:00028d30       _MatchTeam                 20029d30 f   g_mover.obj
 0001:00028d60       _ReturnToPos1              20029d60 f   g_mover.obj
 0001:00028da0       _Reached_BinaryMover       20029da0 f   g_mover.obj
 0001:00028e80       _Use_BinaryMover           20029e80 f   g_mover.obj
 0001:00028fc0       _InitMover                 20029fc0 f   g_mover.obj
 0001:00029210       _Blocked_Door              2002a210 f   g_mover.obj
 0001:00029290       _Touch_DoorTrigger         2002a290 f   g_mover.obj
 0001:000293d0       _Think_SpawnNewDoorTrigger 2002a3d0 f   g_mover.obj
 0001:00029550       _Think_MatchTeam           2002a550 f   g_mover.obj
 0001:00029570       _SP_func_door              2002a570 f   g_mover.obj
 0001:000297d0       _Touch_Plat                2002a7d0 f   g_mover.obj
 0001:00029810       _Touch_PlatCenterTrigger   2002a810 f   g_mover.obj
 0001:00029840       _SpawnPlatTrigger          2002a840 f   g_mover.obj
 0001:000299a0       _SP_func_plat              2002a9a0 f   g_mover.obj
 0001:00029b10       _Touch_Button              2002ab10 f   g_mover.obj
 0001:00029b40       _SP_func_button            2002ab40 f   g_mover.obj
 0001:00029cc0       _Think_BeginMoving         2002acc0 f   g_mover.obj
 0001:00029ce0       _Reached_Train             2002ace0 f   g_mover.obj
 0001:00029e50       _Think_SetupTrainTargets   2002ae50 f   g_mover.obj
 0001:00029f60       _SP_path_corner            2002af60 f   g_mover.obj
 0001:00029f90       _SP_func_train             2002af90 f   g_mover.obj
 0001:0002a050       _SP_func_static            2002b050 f   g_mover.obj
 0001:0002a0a0       _SP_func_rotating          2002b0a0 f   g_mover.obj
 0001:0002a180       _SP_func_bobbing           2002b180 f   g_mover.obj
 0001:0002a280       _SP_func_pendulum          2002b280 f   g_mover.obj
 0001:0002a390       _G_WriteClientSessionData  2002b390 f   g_session.obj
 0001:0002a410       _G_ReadSessionData         2002b410 f   g_session.obj
 0001:0002a4c0       _G_InitSessionData         2002b4c0 f   g_session.obj
 0001:0002a580       _G_InitWorldSession        2002b580 f   g_session.obj
 0001:0002a5d0       _G_WriteSessionData        2002b5d0 f   g_session.obj
 0001:0002a630       _G_SpawnString             2002b630 f   g_spawn.obj
 0001:0002a6a0       _G_SpawnFloat              2002b6a0 f   g_spawn.obj
 0001:0002a6d0       _G_SpawnInt                2002b6d0 f   g_spawn.obj
 0001:0002a700       _G_SpawnVector             2002b700 f   g_spawn.obj
 0001:0002a740       _G_CallSpawn               2002b740 f   g_spawn.obj
 0001:0002a830       _G_NewString               2002b830 f   g_spawn.obj
 0001:0002a890       _G_ParseField              2002b890 f   g_spawn.obj
 0001:0002a9d0       _G_SpawnGEntityFromSpawnVars 2002b9d0 f   g_spawn.obj
 0001:0002ab40       _G_AddSpawnVarToken        2002bb40 f   g_spawn.obj
 0001:0002abb0       _G_ParseSpawnVars          2002bbb0 f   g_spawn.obj
 0001:0002acd0       _SP_worldspawn             2002bcd0 f   g_spawn.obj
 0001:0002ae70       _G_SpawnEntitiesFromString 2002be70 f   g_spawn.obj
 0001:0002aec0       _G_FilterPacket            2002bec0 f   g_svcmds.obj
 0001:0002af60       _G_ProcessIPBans           2002bf60 f   g_svcmds.obj
 0001:0002b210       _Svcmd_AddIP_f             2002c210 f   g_svcmds.obj
 0001:0002b260       _Svcmd_RemoveIP_f          2002c260 f   g_svcmds.obj
 0001:0002b320       _Svcmd_EntityList_f        2002c320 f   g_svcmds.obj
 0001:0002b4b0       _ClientForString           2002c4b0 f   g_svcmds.obj
 0001:0002b590       _Svcmd_ForceTeam_f         2002c590 f   g_svcmds.obj
 0001:0002b610       _ConsoleCommand            2002c610 f   g_svcmds.obj
 0001:0002b7f0       _dllEntry                  2002c7f0 f   g_syscalls.obj
 0001:0002b800       _PASSFLOAT                 2002c800 f   g_syscalls.obj
 0001:0002b810       _trap_Printf               2002c810 f   g_syscalls.obj
 0001:0002b830       _trap_Error                2002c830 f   g_syscalls.obj
 0001:0002b850       _trap_Milliseconds         2002c850 f   g_syscalls.obj
 0001:0002b860       _trap_Argc                 2002c860 f   g_syscalls.obj
 0001:0002b870       _trap_Argv                 2002c870 f   g_syscalls.obj
 0001:0002b890       _trap_FS_FOpenFile         2002c890 f   g_syscalls.obj
 0001:0002b8b0       _trap_FS_Read              2002c8b0 f   g_syscalls.obj
 0001:0002b8d0       _trap_FS_Write             2002c8d0 f   g_syscalls.obj
 0001:0002b8f0       _trap_FS_FCloseFile        2002c8f0 f   g_syscalls.obj
 0001:0002b910       _trap_FS_GetFileList       2002c910 f   g_syscalls.obj
 0001:0002b930       _trap_SendConsoleCommand   2002c930 f   g_syscalls.obj
 0001:0002b950       _trap_Cvar_Register        2002c950 f   g_syscalls.obj
 0001:0002b970       _trap_Cvar_Update          2002c970 f   g_syscalls.obj
 0001:0002b990       _trap_Cvar_Set             2002c990 f   g_syscalls.obj
 0001:0002b9b0       _trap_Cvar_VariableIntegerValue 2002c9b0 f   g_syscalls.obj
 0001:0002b9d0       _trap_Cvar_VariableStringBuffer 2002c9d0 f   g_syscalls.obj
 0001:0002b9f0       _trap_LocateGameData       2002c9f0 f   g_syscalls.obj
 0001:0002ba20       _trap_DropClient           2002ca20 f   g_syscalls.obj
 0001:0002ba40       _trap_SendServerCommand    2002ca40 f   g_syscalls.obj
 0001:0002ba60       _trap_SetConfigstring      2002ca60 f   g_syscalls.obj
 0001:0002ba80       _trap_GetConfigstring      2002ca80 f   g_syscalls.obj
 0001:0002baa0       _trap_GetUserinfo          2002caa0 f   g_syscalls.obj
 0001:0002bac0       _trap_SetUserinfo          2002cac0 f   g_syscalls.obj
 0001:0002bae0       _trap_GetServerinfo        2002cae0 f   g_syscalls.obj
 0001:0002bb00       _trap_SetBrushModel        2002cb00 f   g_syscalls.obj
 0001:0002bb20       _trap_Trace                2002cb20 f   g_syscalls.obj
 0001:0002bb50       _trap_PointContents        2002cb50 f   g_syscalls.obj
 0001:0002bb70       _trap_InPVS                2002cb70 f   g_syscalls.obj
 0001:0002bb90       _trap_AdjustAreaPortalState 2002cb90 f   g_syscalls.obj
 0001:0002bbb0       _trap_LinkEntity           2002cbb0 f   g_syscalls.obj
 0001:0002bbd0       _trap_UnlinkEntity         2002cbd0 f   g_syscalls.obj
 0001:0002bbf0       _trap_EntitiesInBox        2002cbf0 f   g_syscalls.obj
 0001:0002bc10       _trap_EntityContact        2002cc10 f   g_syscalls.obj
 0001:0002bc30       _trap_BotAllocateClient    2002cc30 f   g_syscalls.obj
 0001:0002bc40       _trap_GetUsercmd           2002cc40 f   g_syscalls.obj
 0001:0002bc60       _trap_GetEntityToken       2002cc60 f   g_syscalls.obj
 0001:0002bc80       _trap_SnapVector           2002cc80 f   g_syscalls.obj
 0001:0002bca0       _trap_BotLibSetup          2002cca0 f   g_syscalls.obj
 0001:0002bcb0       _trap_BotLibShutdown       2002ccb0 f   g_syscalls.obj
 0001:0002bcc0       _trap_BotLibVarSet         2002ccc0 f   g_syscalls.obj
 0001:0002bce0       _trap_BotLibStartFrame     2002cce0 f   g_syscalls.obj
 0001:0002bd00       _trap_BotLibLoadMap        2002cd00 f   g_syscalls.obj
 0001:0002bd20       _trap_BotLibUpdateEntity   2002cd20 f   g_syscalls.obj
 0001:0002bd40       _trap_BotGetSnapshotEntity 2002cd40 f   g_syscalls.obj
 0001:0002bd60       _trap_BotGetServerCommand  2002cd60 f   g_syscalls.obj
 0001:0002bd80       _trap_BotUserCommand       2002cd80 f   g_syscalls.obj
 0001:0002bda0       _trap_AAS_EntityInfo       2002cda0 f   g_syscalls.obj
 0001:0002bdc0       _trap_AAS_Initialized      2002cdc0 f   g_syscalls.obj
 0001:0002bdd0       _trap_AAS_PresenceTypeBoundingBox 2002cdd0 f   g_syscalls.obj
 0001:0002bdf0       _trap_AAS_Time             2002cdf0 f   g_syscalls.obj
 0001:0002be10       _trap_AAS_PointAreaNum     2002ce10 f   g_syscalls.obj
 0001:0002be30       _trap_AAS_TraceAreas       2002ce30 f   g_syscalls.obj
 0001:0002be60       _trap_AAS_BBoxAreas        2002ce60 f   g_syscalls.obj
 0001:0002be90       _trap_AAS_AreaInfo         2002ce90 f   g_syscalls.obj
 0001:0002beb0       _trap_AAS_PointContents    2002ceb0 f   g_syscalls.obj
 0001:0002bed0       _trap_AAS_NextBSPEntity    2002ced0 f   g_syscalls.obj
 0001:0002bef0       _trap_AAS_ValueForBSPEpairKey 2002cef0 f   g_syscalls.obj
 0001:0002bf20       _trap_AAS_VectorForBSPEpairKey 2002cf20 f   g_syscalls.obj
 0001:0002bf40       _trap_AAS_FloatForBSPEpairKey 2002cf40 f   g_syscalls.obj
 0001:0002bf60       _trap_AAS_IntForBSPEpairKey 2002cf60 f   g_syscalls.obj
 0001:0002bf80       _trap_AAS_AreaReachability 2002cf80 f   g_syscalls.obj
 0001:0002bfa0       _trap_AAS_AreaTravelTimeToGoalArea 2002cfa0 f   g_syscalls.obj
 0001:0002bfd0       _trap_AAS_EnableRoutingArea 2002cfd0 f   g_syscalls.obj
 0001:0002bff0       _trap_AAS_PredictRoute     2002cff0 f   g_syscalls.obj
 0001:0002c040       _trap_AAS_Swimming         2002d040 f   g_syscalls.obj
 0001:0002c060       _trap_AAS_PredictClientMovement 2002d060 f   g_syscalls.obj
 0001:0002c0c0       _trap_EA_SayTeam           2002d0c0 f   g_syscalls.obj
 0001:0002c0e0       _trap_EA_Command           2002d0e0 f   g_syscalls.obj
 0001:0002c100       _trap_EA_Action            2002d100 f   g_syscalls.obj
 0001:0002c120       _trap_EA_Gesture           2002d120 f   g_syscalls.obj
 0001:0002c140       _trap_EA_Talk              2002d140 f   g_syscalls.obj
 0001:0002c160       _trap_EA_Attack            2002d160 f   g_syscalls.obj
 0001:0002c180       _trap_EA_Use               2002d180 f   g_syscalls.obj
 0001:0002c1a0       _trap_EA_Respawn           2002d1a0 f   g_syscalls.obj
 0001:0002c1c0       _trap_EA_Crouch            2002d1c0 f   g_syscalls.obj
 0001:0002c1e0       _trap_EA_SelectWeapon      2002d1e0 f   g_syscalls.obj
 0001:0002c210       _trap_EA_View              2002d210 f   g_syscalls.obj
 0001:0002c230       _trap_EA_GetInput          2002d230 f   g_syscalls.obj
 0001:0002c260       _trap_EA_ResetInput        2002d260 f   g_syscalls.obj
 0001:0002c280       _trap_BotLoadCharacter     2002d280 f   g_syscalls.obj
 0001:0002c2a0       _trap_BotFreeCharacter     2002d2a0 f   g_syscalls.obj
 0001:0002c2c0       _trap_Characteristic_BFloat 2002d2c0 f   g_syscalls.obj
 0001:0002c300       _trap_Characteristic_BInteger 2002d300 f   g_syscalls.obj
 0001:0002c330       _trap_Characteristic_String 2002d330 f   g_syscalls.obj
 0001:0002c360       _trap_BotAllocChatState    2002d360 f   g_syscalls.obj
 0001:0002c370       _trap_BotFreeChatState     2002d370 f   g_syscalls.obj
 0001:0002c390       _trap_BotQueueConsoleMessage 2002d390 f   g_syscalls.obj
 0001:0002c3b0       _trap_BotRemoveConsoleMessage 2002d3b0 f   g_syscalls.obj
 0001:0002c3d0       _trap_BotNextConsoleMessage 2002d3d0 f   g_syscalls.obj
 0001:0002c3f0       _trap_BotNumConsoleMessages 2002d3f0 f   g_syscalls.obj
 0001:0002c410       _trap_BotInitialChat       2002d410 f   g_syscalls.obj
 0001:0002c460       _trap_BotNumInitialChats   2002d460 f   g_syscalls.obj
 0001:0002c480       _trap_BotReplyChat         2002d480 f   g_syscalls.obj
 0001:0002c4d0       _trap_BotEnterChat         2002d4d0 f   g_syscalls.obj
 0001:0002c4f0       _trap_BotGetChatMessage    2002d4f0 f   g_syscalls.obj
 0001:0002c510       _trap_BotFindMatch         2002d510 f   g_syscalls.obj
 0001:0002c530       _trap_BotMatchVariable     2002d530 f   g_syscalls.obj
 0001:0002c560       _trap_UnifyWhiteSpaces     2002d560 f   g_syscalls.obj
 0001:0002c580       _trap_BotReplaceSynonyms   2002d580 f   g_syscalls.obj
 0001:0002c5a0       _trap_BotLoadChatFile      2002d5a0 f   g_syscalls.obj
 0001:0002c5c0       _trap_BotSetChatGender     2002d5c0 f   g_syscalls.obj
 0001:0002c5e0       _trap_BotSetChatName       2002d5e0 f   g_syscalls.obj
 0001:0002c600       _trap_BotResetGoalState    2002d600 f   g_syscalls.obj
 0001:0002c620       _trap_BotResetAvoidGoals   2002d620 f   g_syscalls.obj
 0001:0002c640       _trap_BotRemoveFromAvoidGoals 2002d640 f   g_syscalls.obj
 0001:0002c660       _trap_BotPushGoal          2002d660 f   g_syscalls.obj
 0001:0002c680       _trap_BotPopGoal           2002d680 f   g_syscalls.obj
 0001:0002c6a0       _trap_BotEmptyGoalStack    2002d6a0 f   g_syscalls.obj
 0001:0002c6c0       _trap_BotDumpAvoidGoals    2002d6c0 f   g_syscalls.obj
 0001:0002c6e0       _trap_BotDumpGoalStack     2002d6e0 f   g_syscalls.obj
 0001:0002c700       _trap_BotGoalName          2002d700 f   g_syscalls.obj
 0001:0002c720       _trap_BotGetTopGoal        2002d720 f   g_syscalls.obj
 0001:0002c740       _trap_BotGetSecondGoal     2002d740 f   g_syscalls.obj
 0001:0002c760       _trap_BotChooseLTGItem     2002d760 f   g_syscalls.obj
 0001:0002c790       _trap_BotChooseNBGItem     2002d790 f   g_syscalls.obj
 0001:0002c7d0       _trap_BotTouchingGoal      2002d7d0 f   g_syscalls.obj
 0001:0002c7f0       _trap_BotItemGoalInVisButNotVisible 2002d7f0 f   g_syscalls.obj
 0001:0002c820       _trap_BotGetLevelItemGoal  2002d820 f   g_syscalls.obj
 0001:0002c840       _trap_BotGetNextCampSpotGoal 2002d840 f   g_syscalls.obj
 0001:0002c860       _trap_BotSetAvoidGoalTime  2002d860 f   g_syscalls.obj
 0001:0002c890       _trap_BotUpdateEntityItems 2002d890 f   g_syscalls.obj
 0001:0002c8a0       _trap_BotLoadItemWeights   2002d8a0 f   g_syscalls.obj
 0001:0002c8c0       _trap_BotInterbreedGoalFuzzyLogic 2002d8c0 f   g_syscalls.obj
 0001:0002c8e0       _trap_BotSaveGoalFuzzyLogic 2002d8e0 f   g_syscalls.obj
 0001:0002c900       _trap_BotMutateGoalFuzzyLogic 2002d900 f   g_syscalls.obj
 0001:0002c920       _trap_BotAllocGoalState    2002d920 f   g_syscalls.obj
 0001:0002c940       _trap_BotFreeGoalState     2002d940 f   g_syscalls.obj
 0001:0002c960       _trap_BotResetMoveState    2002d960 f   g_syscalls.obj
 0001:0002c980       _trap_BotAddAvoidSpot      2002d980 f   g_syscalls.obj
 0001:0002c9b0       _trap_BotMoveToGoal        2002d9b0 f   g_syscalls.obj
 0001:0002c9e0       _trap_BotMoveInDirection   2002d9e0 f   g_syscalls.obj
 0001:0002ca10       _trap_BotResetAvoidReach   2002da10 f   g_syscalls.obj
 0001:0002ca30       _trap_BotResetLastAvoidReach 2002da30 f   g_syscalls.obj
 0001:0002ca50       _trap_BotMovementViewTarget 2002da50 f   g_syscalls.obj
 0001:0002ca90       _trap_BotPredictVisiblePosition 2002da90 f   g_syscalls.obj
 0001:0002cac0       _trap_BotAllocMoveState    2002dac0 f   g_syscalls.obj
 0001:0002cad0       _trap_BotFreeMoveState     2002dad0 f   g_syscalls.obj
 0001:0002caf0       _trap_BotInitMoveState     2002daf0 f   g_syscalls.obj
 0001:0002cb10       _trap_BotChooseBestFightWeapon 2002db10 f   g_syscalls.obj
 0001:0002cb30       _trap_BotGetWeaponInfo     2002db30 f   g_syscalls.obj
 0001:0002cb50       _trap_BotLoadWeaponWeights 2002db50 f   g_syscalls.obj
 0001:0002cb70       _trap_BotAllocWeaponState  2002db70 f   g_syscalls.obj
 0001:0002cb80       _trap_BotFreeWeaponState   2002db80 f   g_syscalls.obj
 0001:0002cba0       _trap_BotResetWeaponState  2002dba0 f   g_syscalls.obj
 0001:0002cbc0       _trap_GeneticParentsAndChildSelection 2002dbc0 f   g_syscalls.obj
 0001:0002cbf0       _Use_Target_Give           2002dbf0 f   g_target.obj
 0001:0002cc90       _SP_target_give            2002dc90 f   g_target.obj
 0001:0002cca0       _Use_target_remove_powerups 2002dca0 f   g_target.obj
 0001:0002cd00       _SP_target_remove_powerups 2002dd00 f   g_target.obj
 0001:0002cd10       _Think_Target_Delay        2002dd10 f   g_target.obj
 0001:0002cd30       _Use_Target_Delay          2002dd30 f   g_target.obj
 0001:0002cd90       _SP_target_delay           2002dd90 f   g_target.obj
 0001:0002cdf0       _Use_Target_Score          2002ddf0 f   g_target.obj
 0001:0002ce10       _SP_target_score           2002de10 f   g_target.obj
 0001:0002ce40       _Use_Target_Print          2002de40 f   g_target.obj
 0001:0002cf10       _SP_target_print           2002df10 f   g_target.obj
 0001:0002cf20       _Use_Target_Speaker        2002df20 f   g_target.obj
 0001:0002cfa0       _SP_target_speaker         2002dfa0 f   g_target.obj
 0001:0002d0f0       _target_laser_think        2002e0f0 f   g_target.obj
 0001:0002d280       _target_laser_on           2002e280 f   g_target.obj
 0001:0002d2a0       _target_laser_off          2002e2a0 f   g_target.obj
 0001:0002d2c0       _target_laser_use          2002e2c0 f   g_target.obj
 0001:0002d2f0       _target_laser_start        2002e2f0 f   g_target.obj
 0001:0002d3b0       _SP_target_laser           2002e3b0 f   g_target.obj
 0001:0002d3d0       _target_teleporter_use     2002e3d0 f   g_target.obj
 0001:0002d420       _SP_target_teleporter      2002e420 f   g_target.obj
 0001:0002d460       _target_relay_use          2002e460 f   g_target.obj
 0001:0002d4e0       _SP_target_relay           2002e4e0 f   g_target.obj
 0001:0002d4f0       _target_kill_use           2002e4f0 f   g_target.obj
 0001:0002d510       _SP_target_kill            2002e510 f   g_target.obj
 0001:0002d520       _SP_target_location        2002e520 f   g_target.obj
 0001:0002d600       _Team_InitGame             2002e600 f   g_team.obj
 0001:0002d640       _OtherTeam                 2002e640 f   g_team.obj
 0001:0002d660       _TeamName                  2002e660 f   g_team.obj
 0001:0002d690       _PrintMsg                  2002e690 f   g_team.obj
 0001:0002d740       _AddTeamScore              2002e740 f   g_team.obj
 0001:0002d860       _OnSameTeam                2002e860 f   g_team.obj
 0001:0002d8a0       _Team_SetFlagStatus        2002e8a0 f   g_team.obj
 0001:0002d950       _Team_CheckDroppedItem     2002e950 f   g_team.obj
 0001:0002d9a0       _Team_ForceGesture         2002e9a0 f   g_team.obj
 0001:0002d9e0       _Team_FragBonuses          2002e9e0 f   g_team.obj
 0001:0002df50       _Team_CheckHurtCarrier     2002ef50 f   g_team.obj
 0001:0002dfe0       _Team_ResetFlag            2002efe0 f   g_team.obj
 0001:0002e070       _Team_ResetFlags           2002f070 f   g_team.obj
 0001:0002e090       _Team_ReturnFlagSound      2002f090 f   g_team.obj
 0001:0002e0f0       _Team_TakeFlagSound        2002f0f0 f   g_team.obj
 0001:0002e1b0       _Team_CaptureFlagSound     2002f1b0 f   g_team.obj
 0001:0002e220       _Team_ReturnFlag           2002f220 f   g_team.obj
 0001:0002e270       _Team_FreeEntity           2002f270 f   g_team.obj
 0001:0002e2b0       _Team_DroppedFlagThink     2002f2b0 f   g_team.obj
 0001:0002e320       _Team_TouchOurFlag         2002f320 f   g_team.obj
 0001:0002e5d0       _Team_TouchEnemyFlag       2002f5d0 f   g_team.obj
 0001:0002e660       _Pickup_Team               2002f660 f   g_team.obj
 0001:0002e730       _Team_GetLocation          2002f730 f   g_team.obj
 0001:0002e7e0       _Team_GetLocationMsg       2002f7e0 f   g_team.obj
 0001:0002e880       _SelectRandomTeamSpawnPoint 2002f880 f   g_team.obj
 0001:0002e960       _SelectCTFSpawnPoint       2002f960 f   g_team.obj
 0001:0002e9c0       _TeamplayInfoMessage       2002f9c0 f   g_team.obj
 0001:0002ebd0       _CheckTeamStatus           2002fbd0 f   g_team.obj
 0001:0002ecc0       _Weapon_Gauntlet           2002fcc0 f   g_team.obj
 0001:0002ecc0       _SP_team_CTF_blueplayer    2002fcc0 f   g_team.obj
 0001:0002ecc0       _BotVoiceChat              2002fcc0 f   g_team.obj
 0001:0002ecc0       _BotVoiceChat_Dummy        2002fcc0 f   g_team.obj
 0001:0002ecc0       _SP_team_CTF_bluespawn     2002fcc0 f   g_team.obj
 0001:0002ecc0       _Cmd_Stats_f               2002fcc0 f   g_team.obj
 0001:0002ecc0       _SP_info_player_intermission 2002fcc0 f   g_team.obj
 0001:0002ecc0       _BotCheckItemPickup        2002fcc0 f   g_team.obj
 0001:0002ecc0       _SP_misc_teleporter_dest   2002fcc0 f   g_team.obj
 0001:0002ecc0       _G_RemapTeamShaders        2002fcc0 f   g_team.obj
 0001:0002ecc0       _BotVoiceChatOnly          2002fcc0 f   g_team.obj
 0001:0002ecc0       _SP_team_CTF_redplayer     2002fcc0 f   g_team.obj
 0001:0002ecc0       _SP_team_CTF_redspawn      2002fcc0 f   g_team.obj
 0001:0002ecc0       _BotSayVoiceTeamOrder      2002fcc0 f   g_team.obj
 0001:0002ecc0       _BotSetTeamStatus          2002fcc0 f   g_team.obj
 0001:0002ecc0       _SP_item_botroam           2002fcc0 f   g_team.obj
 0001:0002ecd0       _InitTrigger               2002fcd0 f   g_trigger.obj
 0001:0002ed40       _multi_wait                2002fd40 f   g_trigger.obj
 0001:0002ed50       _multi_trigger             2002fd50 f   g_trigger.obj
 0001:0002ee40       _Use_Multi                 2002fe40 f   g_trigger.obj
 0001:0002ee60       _Touch_Multi               2002fe60 f   g_trigger.obj
 0001:0002ee80       _SP_trigger_multiple       2002fe80 f   g_trigger.obj
 0001:0002ef10       _trigger_always_think      2002ff10 f   g_trigger.obj
 0001:0002ef30       _SP_trigger_always         2002ff30 f   g_trigger.obj
 0001:0002ef50       _trigger_push_touch        2002ff50 f   g_trigger.obj
 0001:0002ef70       _AimAtTarget               2002ff70 f   g_trigger.obj
 0001:0002f080       _SP_trigger_push           20030080 f   g_trigger.obj
 0001:0002f0e0       _Use_target_push           200300e0 f   g_trigger.obj
 0001:0002f160       _SP_target_push            20030160 f   g_trigger.obj
 0001:0002f240       _trigger_teleporter_touch  20030240 f   g_trigger.obj
 0001:0002f2b0       _SP_trigger_teleport       200302b0 f   g_trigger.obj
 0001:0002f310       _hurt_use                  20030310 f   g_trigger.obj
 0001:0002f330       _hurt_touch                20030330 f   g_trigger.obj
 0001:0002f3b0       _SP_trigger_hurt           200303b0 f   g_trigger.obj
 0001:0002f420       _func_timer_think          20030420 f   g_trigger.obj
 0001:0002f480       _func_timer_use            20030480 f   g_trigger.obj
 0001:0002f4b0       _SP_func_timer             200304b0 f   g_trigger.obj
 0001:0002f560       _G_ResetHistory            20030560 f   g_unlagged.obj
 0001:0002f670       _G_StoreHistory            20030670 f   g_unlagged.obj
 0001:0002f7d0       _G_TimeShiftClient         200307d0 f   g_unlagged.obj
 0001:0002fcc0       _G_TimeShiftAllClients     20030cc0 f   g_unlagged.obj
 0001:0002fd50       _G_DoTimeShiftFor          20030d50 f   g_unlagged.obj
 0001:0002fe10       _G_UnTimeShiftClient       20030e10 f   g_unlagged.obj
 0001:0002feb0       _G_UnTimeShiftAllClients   20030eb0 f   g_unlagged.obj
 0001:0002ff00       _G_UndoTimeShiftFor        20030f00 f   g_unlagged.obj
 0001:0002ff30       _G_PredictPlayerClipVelocity 20030f30 f   g_unlagged.obj
 0001:0002ff90       _G_PredictPlayerSlideMove  20030f90 f   g_unlagged.obj
 0001:000304c0       _G_PredictPlayerStepSlideMove 200314c0 f   g_unlagged.obj
 0001:00030640       _G_PredictPlayerMove       20031640 f   g_unlagged.obj
 0001:00030660       _AddRemap                  20031660 f   g_utils.obj
 0001:00030760       _BuildShaderStateConfig    20031760 f   g_utils.obj
 0001:000307e0       _findradius                200317e0 f   g_utils.obj
 0001:000308b0       _visible                   200318b0 f   g_utils.obj
 0001:000308f0       _G_FindConfigstringIndex   200318f0 f   g_utils.obj
 0001:000309d0       _G_ModelIndex              200319d0 f   g_utils.obj
 0001:000309f0       _G_SoundIndex              200319f0 f   g_utils.obj
 0001:00030a10       _G_TeamCommand             20031a10 f   g_utils.obj
 0001:00030a80       _G_Find                    20031a80 f   g_utils.obj
 0001:00030b20       _G_PickTarget              20031b20 f   g_utils.obj
 0001:00030bb0       _G_UseTargets              20031bb0 f   g_utils.obj
 0001:00030c80       _vtos                      20031c80 f   g_utils.obj
 0001:00030cd0       _G_SetMovedir              20031cd0 f   g_utils.obj
 0001:00030da0       _vectoyaw                  20031da0 f   g_utils.obj
 0001:00030e20       _G_InitGentity             20031e20 f   g_utils.obj
 0001:00030e60       _G_Spawn                   20031e60 f   g_utils.obj
 0001:00030f60       _G_FreeEntity              20031f60 f   g_utils.obj
 0001:00030fb0       _G_TempEntity              20031fb0 f   g_utils.obj
 0001:00031050       _G_KillBox                 20032050 f   g_utils.obj
 0001:00031130       _G_AddPredictableEvent     20032130 f   g_utils.obj
 0001:00031160       _G_AddEvent                20032160 f   g_utils.obj
 0001:00031210       _G_Sound                   20032210 f   g_utils.obj
 0001:00031230       _G_SetOrigin               20032230 f   g_utils.obj
 0001:00031280       _CheckGauntletAttack       20032280 f   g_weapon.obj
 0001:00031420       _Weapon_fire_flame         20032420 f   g_weapon.obj
 0001:00031470       _Bullet_Fire               20032470 f   g_weapon.obj
 0001:000316b0       _BFG_Fire                  200326b0 f   g_weapon.obj
 0001:00031700       _ShotgunPellet             20032700 f   g_weapon.obj
 0001:000317d0       _ShotgunPattern            200327d0 f   g_weapon.obj
 0001:00031940       _weapon_supershotgun_fire  20032940 f   g_weapon.obj
 0001:000319f0       _weapon_grenadelauncher_fire 200329f0 f   g_weapon.obj
 0001:00031a60       _weapon_altgrenadelauncher_fire 20032a60 f   g_weapon.obj
 0001:00031ad0       _Weapon_RocketLauncher_Fire 20032ad0 f   g_weapon.obj
 0001:00031b20       _Weapon_RocketLauncher_AltFire 20032b20 f   g_weapon.obj
 0001:00031b70       _Weapon_Plasmagun_Fire     20032b70 f   g_weapon.obj
 0001:00031bc0       _weapon_railgun_fire       20032bc0 f   g_weapon.obj
 0001:00031ec0       _Weapon_GrapplingHook_Fire 20032ec0 f   g_weapon.obj
 0001:00031f30       _Weapon_HookFree           20032f30 f   g_weapon.obj
 0001:00031f70       _Weapon_HookThink          20032f70 f   g_weapon.obj
 0001:00032060       _LogAccuracyHit            20033060 f   g_weapon.obj
 0001:000320c0       _CalcMuzzlePoint           200330c0 f   g_weapon.obj
 0001:00032150       _CalcMuzzlePointOrigin     20033150 f   g_weapon.obj
 0001:000321e0       _FireWeapon                200331e0 f   g_weapon.obj
 0001:00032350       _FireWeapon2               20033350 f   g_weapon.obj
 0001:00032480       _Q_rand                    20033480 f   q_math.obj
 0001:000324a0       _Q_random                  200334a0 f   q_math.obj
 0001:000324d0       _Q_crandom                 200334d0 f   q_math.obj
 0001:000324f0       _DirToByte                 200334f0 f   q_math.obj
 0001:00032550       _tonextint                 20033550 f   q_math.obj
 0001:000325c0       _vectoangles               200335c0 f   q_math.obj
 0001:000326d0       _ProjectPointOnPlane       200336d0 f   q_math.obj
 0001:00032760       _AngleMod                  20033760 f   q_math.obj
 0001:00032760       _AngleNormalize360         20033760 f   q_math.obj
 0001:00032790       _AngleNormalize180         20033790 f   q_math.obj
 0001:000327c0       _RadiusFromBounds          200337c0 f   q_math.obj
 0001:00032830       _AddPointToBounds          20033830 f   q_math.obj
 0001:000328b0       _VectorNormalize           200338b0 f   q_math.obj
 0001:00032900       _VectorNormalize2          20033900 f   q_math.obj
 0001:00032970       _AngleVectors              20033970 f   q_math.obj
 0001:00032ac0       _PerpendicularVector       20033ac0 f   q_math.obj
 0001:00032b40       _COM_Parse                 20033b40 f   q_shared.obj
 0001:00032b50       _COM_ParseExt              20033b50 f   q_shared.obj
 0001:00032cc0       _Q_strrchr                 20033cc0 f   q_shared.obj
 0001:00032cf0       _Q_strncpyz                20033cf0 f   q_shared.obj
 0001:00032d50       _Q_stricmpn                20033d50 f   q_shared.obj
 0001:00032de0       _Q_strncmp                 20033de0 f   q_shared.obj
 0001:00032e30       _Q_stricmp                 20033e30 f   q_shared.obj
 0001:00032e60       _Q_strcat                  20033e60 f   q_shared.obj
 0001:00032eb0       _Q_CleanStr                20033eb0 f   q_shared.obj
 0001:00032f00       _Com_sprintf               20033f00 f   q_shared.obj
 0001:00032f80       _va                        20033f80 f   q_shared.obj
 0001:00032fc0       _Info_ValueForKey          20033fc0 f   q_shared.obj
 0001:000330b0       _Info_RemoveKey            200340b0 f   q_shared.obj
 0001:000331b0       _Info_Validate             200341b0 f   q_shared.obj
 0001:000331e0       _Info_SetValueForKey       200341e0 f   q_shared.obj
 0001:000333b0       _SnapVectorTowards         200343b0 f   q_shared.obj
 0001:00033400       _atol                      20034400 f   LIBC:atox.obj
 0001:0003348b       _atoi                      2003448b f   LIBC:atox.obj
 0001:00033496       _srand                     20034496 f   LIBC:rand.obj
 0001:000334a0       _rand                      200344a0 f   LIBC:rand.obj
 0001:000334be       __fpmath                   200344be f   LIBC:fpinit.obj
 0001:000334d5       __fpclear                  200344d5 f   LIBC:fpinit.obj
 0001:000334d6       __cfltcvt_init             200344d6 f   LIBC:fpinit.obj
 0001:00033510       __ftol                     20034510 f   LIBC:ftol.obj
 0001:00033540       _strncpy                   20034540 f   LIBC:strncpy.obj
 0001:0003363e       _atof                      2003463e f   LIBC:atof.obj
 0001:0003368b       _sscanf                    2003468b f   LIBC:sscanf.obj
 0001:000336bf       _toupper                   200346bf f   LIBC:toupper.obj
 0001:00033790       _memmove                   20034790 f   LIBC:memmove.obj
 0001:00033ad0       _strstr                    20034ad0 f   LIBC:strstr.obj
 0001:00033b50       _vsprintf                  20034b50 f   LIBC:vsprintf.obj
 0001:00033bc0       _strchr                    20034bc0 f   LIBC:strchr.obj
 0001:00033bc6       ___from_strstr_to_strchr   20034bc6 f   LIBC:strchr.obj
 0001:00033c80       __alloca_probe             20034c80 f   LIBC:chkstk.obj
 0001:00033c80       __chkstk                   20034c80 f   LIBC:chkstk.obj
 0001:00033caf       _tolower                   20034caf f   LIBC:tolower.obj
 0001:00033d7a       _ceil                      20034d7a f   LIBC:ceil.obj
 0001:00033e49       _qsort                     20034e49 f   LIBC:qsort.obj
 0001:00034017       __CRT_INIT@12              20035017 f   LIBC:dllcrt0.obj
 0001:000340cf       __DllMainCRTStartup@12     200350cf f   LIBC:dllcrt0.obj
 0001:0003416c       __amsg_exit                2003516c f   LIBC:dllcrt0.obj
 0001:0003419f       __isctype                  2003519f f   LIBC:isctype.obj
 0001:00034220       __allmul                   20035220 f   LIBC:llmul.obj
 0001:00034254       __setdefaultprecision      20035254 f   LIBC:fp8.obj
 0001:00034266       __ms_p5_test_fdiv          20035266 f   LIBC:testfdiv.obj
 0001:000342a4       __ms_p5_mp_test_fdiv       200352a4 f   LIBC:testfdiv.obj
 0001:000342cd       __forcdecpt                200352cd f   LIBC:cvt.obj
 0001:00034327       __cropzeros                20035327 f   LIBC:cvt.obj
 0001:00034375       __positive                 20035375 f   LIBC:cvt.obj
 0001:0003438d       __fassign                  2003538d f   LIBC:cvt.obj
 0001:000343cb       __cftoe                    200353cb f   LIBC:cvt.obj
 0001:000344cf       __cftof                    200354cf f   LIBC:cvt.obj
 0001:000345ad       __cftog                    200355ad f   LIBC:cvt.obj
 0001:00034692       __cfltcvt                  20035692 f   LIBC:cvt.obj
 0001:00034708       __fltin                    20035708 f   LIBC:cfin.obj
 0001:000347a0       _strlen                    200357a0 f   LIBC:strlen.obj
 0001:0003481b       __input                    2003581b f   LIBC:input.obj
 0001:000352cc       ___crtLCMapStringA         200362cc f   LIBC:a_map.obj
 0001:0003551b       __flsbuf                   2003651b f   LIBC:_flsbuf.obj
 0001:00035630       __output                   20036630 f   LIBC:output.obj
 0001:00035e3a       __handle_qnan1             20036e3a f   LIBC:fpexcept.obj
 0001:00035e8d       __except1                  20036e8d f   LIBC:fpexcept.obj
 0001:00035f25       __raise_exc                20036f25 f   LIBC:fpexcept.obj
 0001:000361d8       __handle_exc               200371d8 f   LIBC:fpexcept.obj
 0001:000363ef       __umatherr                 200373ef f   LIBC:fpexcept.obj
 0001:00036477       __set_errno                20037477 f   LIBC:fpexcept.obj
 0001:000364c2       __errcode                  200374c2 f   LIBC:fpexcept.obj
 0001:000364ef       __frnd                     200374ef f   LIBC:frnd.obj
 0001:00036501       __set_exp                  20037501 f   LIBC:util.obj
 0001:0003652a       __sptype                   2003752a f   LIBC:util.obj
 0001:00036584       __decomp                   20037584 f   LIBC:util.obj
 0001:00036645       __statfp                   20037645 f   LIBC:fpctrl.obj
 0001:00036653       __clrfp                    20037653 f   LIBC:fpctrl.obj
 0001:00036662       __ctrlfp                   20037662 f   LIBC:fpctrl.obj
 0001:00036685       __set_statfp               20037685 f   LIBC:fpctrl.obj
 0001:000366db       __cinit                    200376db f   LIBC:crt0dat.obj
 0001:00036708       __exit                     20037708 f   LIBC:crt0dat.obj
 0001:00036719       __cexit                    20037719 f   LIBC:crt0dat.obj
 0001:000367db       __heap_init                200377db f   LIBC:heapinit.obj
 0001:00036817       __heap_term                20037817 f   LIBC:heapinit.obj
 0001:0003688c       __ioinit                   2003788c f   LIBC:ioinit.obj
 0001:00036a37       __ioterm                   20037a37 f   LIBC:ioinit.obj
 0001:00036a5a       __setenvp                  20037a5a f   LIBC:stdenvp.obj
 0001:00036b13       __setargv                  20037b13 f   LIBC:stdargv.obj
 0001:00036d60       ___crtGetEnvironmentStringsA 20037d60 f   LIBC:a_env.obj
 0001:00036e92       _DllMain@12                20037e92 f   LIBC:dllmain.obj
 0001:00036eb2       __FF_MSGBANNER             20037eb2 f   LIBC:crt0msg.obj
 0001:00036eeb       __NMSG_WRITE               20037eeb f   LIBC:crt0msg.obj
 0001:0003703e       ___crtGetStringTypeA       2003803e f   LIBC:a_str.obj
 0001:00037187       __control87                20038187 f   LIBC:ieee87.obj
 0001:000371bc       __controlfp                200381bc f   LIBC:ieee87.obj
 0001:000372ed       __ZeroTail                 200382ed f   LIBC:intrncvt.obj
 0001:00037336       __IncMan                   20038336 f   LIBC:intrncvt.obj
 0001:0003738c       __RoundMan                 2003838c f   LIBC:intrncvt.obj
 0001:00037418       __CopyMan                  20038418 f   LIBC:intrncvt.obj
 0001:00037433       __FillZeroMan              20038433 f   LIBC:intrncvt.obj
 0001:0003743f       __IsZeroMan                2003843f f   LIBC:intrncvt.obj
 0001:0003745a       __ShrMan                   2003845a f   LIBC:intrncvt.obj
 0001:000374e7       __ld12cvt                  200384e7 f   LIBC:intrncvt.obj
 0001:00037653       __ld12tod                  20038653 f   LIBC:intrncvt.obj
 0001:00037669       __ld12tof                  20038669 f   LIBC:intrncvt.obj
 0001:0003767f       __atodbl                   2003867f f   LIBC:intrncvt.obj
 0001:000376ac       __atoflt                   200386ac f   LIBC:intrncvt.obj
 0001:000376e0       _strcpy                    200386e0 f   LIBC:strcat.obj
 0001:000376f0       _strcat                    200386f0 f   LIBC:strcat.obj
 0001:000377d0       __fptostr                  200387d0 f   LIBC:_fptostr.obj
 0001:00037847       __fltout                   20038847 f   LIBC:cfout.obj
 0001:000378ab       ___dtold                   200388ab f   LIBC:cfout.obj
 0001:00037970       _memset                    20038970 f   LIBC:memset.obj
 0001:000379c8       __fptrap                   200389c8 f   LIBC:crt0fp.obj
 0001:000379d1       ___strgtold12              200389d1 f   LIBC:strgtold.obj
 0001:00037ea2       _mbtowc                    20038ea2 f   LIBC:mbtowc.obj
 0001:00037f6a       _isspace                   20038f6a f   LIBC:_ctype.obj
 0001:00037fa0       __allshl                   20038fa0 f   LIBC:llshl.obj
 0001:00037fbf       __filbuf                   20038fbf f   LIBC:_filbuf.obj
 0001:00038098       _ungetc                    20039098 f   LIBC:ungetc.obj
 0001:00038108       __global_unwind2           20039108 f   LIBC:exsup.obj
 0001:0003814a       __local_unwind2            2003914a f   LIBC:exsup.obj
 0001:000381a2       __NLG_Return2              200391a2 f   LIBC:exsup.obj
 0001:000381b2       __abnormal_termination     200391b2 f   LIBC:exsup.obj
 0001:000381d5       __NLG_Notify1              200391d5 f   LIBC:exsup.obj
 0001:000381de       __NLG_Notify               200391de f   LIBC:exsup.obj
 0001:000381f1       __NLG_Dispatch             200391f1 f   LIBC:exsup.obj
 0001:00038200       __except_handler3          20039200 f   LIBC:exsup3.obj
 0001:000382bd       __seh_longjmp_unwind@4     200392bd f   LIBC:exsup3.obj
 0001:000382d8       __lseek                    200392d8 f   LIBC:lseek.obj
 0001:00038372       __write                    20039372 f   LIBC:write.obj
 0001:0003851f       __getbuf                   2003951f f   LIBC:_getbuf.obj
 0001:00038563       __isatty                   20039563 f   LIBC:isatty.obj
 0001:00038589       ___initstdio               20039589 f   LIBC:_file.obj
 0001:0003862e       ___endstdio                2003962e f   LIBC:_file.obj
 0001:00038642       _wctomb                    20039642 f   LIBC:wctomb.obj
 0001:000386b0       __aulldiv                  200396b0 f   LIBC:ulldiv.obj
 0001:00038720       __aullrem                  20039720 f   LIBC:ullrem.obj
 0001:00038795       __matherr                  20039795 f   LIBC:matherr.obj
 0001:00038798       ___sbh_heap_init           20039798 f   LIBC:sbheap.obj
 0001:000387d6       ___sbh_find_block          200397d6 f   LIBC:sbheap.obj
 0001:00038801       ___sbh_free_block          20039801 f   LIBC:sbheap.obj
 0001:00038b2c       ___sbh_alloc_block         20039b2c f   LIBC:sbheap.obj
 0001:00038e35       ___sbh_alloc_new_region    20039e35 f   LIBC:sbheap.obj
 0001:00038ee6       ___sbh_alloc_new_group     20039ee6 f   LIBC:sbheap.obj
 0001:00038fe1       _malloc                    20039fe1 f   LIBC:malloc.obj
 0001:00038ff3       __nh_malloc                20039ff3 f   LIBC:malloc.obj
 0001:0003901f       __heap_alloc               2003a01f f   LIBC:malloc.obj
 0001:00039055       _free                      2003a055 f   LIBC:free.obj
 0001:00039084       __setmbcp                  2003a084 f   LIBC:mbctype.obj
 0001:00039448       ___initmbctable            2003a448 f   LIBC:mbctype.obj
 0001:00039470       _memcpy                    2003a470 f   LIBC:memcpy.obj
 0001:000397a5       ___crtMessageBoxA          2003a7a5 f   LIBC:crtmbox.obj
 0001:0003982e       ___addl                    2003a82e f   LIBC:mantold.obj
 0001:0003984f       ___add_12                  2003a84f f   LIBC:mantold.obj
 0001:000398ad       ___shl_12                  2003a8ad f   LIBC:mantold.obj
 0001:000398db       ___shr_12                  2003a8db f   LIBC:mantold.obj
 0001:00039908       ___mtold12                 2003a908 f   LIBC:mantold.obj
 0001:000399cf       _$I10_OUTPUT               2003a9cf f   LIBC:x10fout.obj
 0001:00039c62       ___ld12mul                 2003ac62 f   LIBC:tenpow.obj
 0001:00039e82       ___multtenpow12            2003ae82 f   LIBC:tenpow.obj
 0001:00039efe       __read                     2003aefe f   LIBC:read.obj
 0001:0003a0f4       __dosmaperr                2003b0f4 f   LIBC:dosmap.obj
 0001:0003a15b       __free_osfhnd              2003b15b f   LIBC:osfinfo.obj
 0001:0003a1d5       __get_osfhandle            2003b1d5 f   LIBC:osfinfo.obj
 0001:0003a212       _calloc                    2003b212 f   LIBC:calloc.obj
 0001:0003a28f       __fcloseall                2003b28f f   LIBC:closeall.obj
 0001:0003a2e7       _fflush                    2003b2e7 f   LIBC:fflush.obj
 0001:0003a322       __flush                    2003b322 f   LIBC:fflush.obj
 0001:0003a37e       __flushall                 2003b37e f   LIBC:fflush.obj
 0001:0003a3f4       __callnewh                 2003b3f4 f   LIBC:handler.obj
 0001:0003a40f       _fclose                    2003b40f f   LIBC:fclose.obj
 0001:0003a465       __commit                   2003b465 f   LIBC:commit.obj
 0001:0003a4bc       __close                    2003b4bc f   LIBC:close.obj
 0001:0003a56f       __freebuf                  2003b56f f   LIBC:_freebuf.obj
 0001:0003a59a       _RtlUnwind@16              2003b59a f   kernel32:KERNEL32.dll
 0002:00000000       __imp__GetEnvironmentStrings@0 2003c000     kernel32:KERNEL32.dll
 0002:00000004       __imp__GetVersion@0        2003c004     kernel32:KERNEL32.dll
 0002:00000008       __imp__GetProcAddress@8    2003c008     kernel32:KERNEL32.dll
 0002:0000000c       __imp__GetModuleHandleA@4  2003c00c     kernel32:KERNEL32.dll
 0002:00000010       __imp__WideCharToMultiByte@32 2003c010     kernel32:KERNEL32.dll
 0002:00000014       __imp__MultiByteToWideChar@24 2003c014     kernel32:KERNEL32.dll
 0002:00000018       __imp__LCMapStringA@24     2003c018     kernel32:KERNEL32.dll
 0002:0000001c       __imp__LCMapStringW@24     2003c01c     kernel32:KERNEL32.dll
 0002:00000020       __imp__RaiseException@16   2003c020     kernel32:KERNEL32.dll
 0002:00000024       __imp__ExitProcess@4       2003c024     kernel32:KERNEL32.dll
 0002:00000028       __imp__TerminateProcess@8  2003c028     kernel32:KERNEL32.dll
 0002:0000002c       __imp__GetCurrentProcess@0 2003c02c     kernel32:KERNEL32.dll
 0002:00000030       __imp__HeapDestroy@4       2003c030     kernel32:KERNEL32.dll
 0002:00000034       __imp__HeapCreate@12       2003c034     kernel32:KERNEL32.dll
 0002:00000038       __imp__VirtualFree@12      2003c038     kernel32:KERNEL32.dll
 0002:0000003c       __imp__HeapFree@12         2003c03c     kernel32:KERNEL32.dll
 0002:00000040       __imp__SetHandleCount@4    2003c040     kernel32:KERNEL32.dll
 0002:00000044       __imp__GetStdHandle@4      2003c044     kernel32:KERNEL32.dll
 0002:00000048       __imp__GetFileType@4       2003c048     kernel32:KERNEL32.dll
 0002:0000004c       __imp__GetStartupInfoA@4   2003c04c     kernel32:KERNEL32.dll
 0002:00000050       __imp__GetModuleFileNameA@12 2003c050     kernel32:KERNEL32.dll
 0002:00000054       __imp__FreeEnvironmentStringsA@4 2003c054     kernel32:KERNEL32.dll
 0002:00000058       __imp__FreeEnvironmentStringsW@4 2003c058     kernel32:KERNEL32.dll
 0002:0000005c       __imp__GetCommandLineA@0   2003c05c     kernel32:KERNEL32.dll
 0002:00000060       __imp__GetEnvironmentStringsW@0 2003c060     kernel32:KERNEL32.dll
 0002:00000064       __imp__DisableThreadLibraryCalls@4 2003c064     kernel32:KERNEL32.dll
 0002:00000068       __imp__WriteFile@20        2003c068     kernel32:KERNEL32.dll
 0002:0000006c       __imp__GetStringTypeA@20   2003c06c     kernel32:KERNEL32.dll
 0002:00000070       __imp__GetStringTypeW@16   2003c070     kernel32:KERNEL32.dll
 0002:00000074       __imp__RtlUnwind@16        2003c074     kernel32:KERNEL32.dll
 0002:00000078       __imp__GetLastError@0      2003c078     kernel32:KERNEL32.dll
 0002:0000007c       __imp__SetFilePointer@16   2003c07c     kernel32:KERNEL32.dll
 0002:00000080       __imp__HeapAlloc@12        2003c080     kernel32:KERNEL32.dll
 0002:00000084       __imp__VirtualAlloc@16     2003c084     kernel32:KERNEL32.dll
 0002:00000088       __imp__HeapReAlloc@16      2003c088     kernel32:KERNEL32.dll
 0002:0000008c       __imp__GetCPInfo@8         2003c08c     kernel32:KERNEL32.dll
 0002:00000090       __imp__GetACP@0            2003c090     kernel32:KERNEL32.dll
 0002:00000094       __imp__GetOEMCP@0          2003c094     kernel32:KERNEL32.dll
 0002:00000098       __imp__LoadLibraryA@4      2003c098     kernel32:KERNEL32.dll
 0002:0000009c       __imp__ReadFile@20         2003c09c     kernel32:KERNEL32.dll
 0002:000000a0       __imp__SetStdHandle@8      2003c0a0     kernel32:KERNEL32.dll
 0002:000000a4       __imp__FlushFileBuffers@4  2003c0a4     kernel32:KERNEL32.dll
 0002:000000a8       __imp__CloseHandle@4       2003c0a8     kernel32:KERNEL32.dll
 0002:000000ac       \177KERNEL32_NULL_THUNK_DATA 2003c0ac     kernel32:KERNEL32.dll
 0002:000000b0       __real@4@3ff08001000200040000 2003c0b0     ai_chat.obj
 0002:000000b8       __real@8@40028e66666666666800 2003c0b8     ai_chat.obj
 0002:000000c0       __real@4@00000000000000000000 2003c0c0     ai_chat.obj
 0002:000000c4       __real@4@4002a000000000000000 2003c0c4     ai_chat.obj
 0002:000000c8       __real@4@3fff8000000000000000 2003c0c8     ai_chat.obj
 0002:000000cc       __real@4@40048000000000000000 2003c0cc     ai_chat.obj
 0002:000000d0       __real@4@4003c000000000000000 2003c0d0     ai_chat.obj
 0002:000000d4       __real@4@4003c800000000000000 2003c0d4     ai_chat.obj
 0002:000000d8       __real@8@3ffe8000000000000000 2003c0d8     ai_chat.obj
 0002:000000e0       __real@8@3ffd8000000000000000 2003c0e0     ai_chat.obj
 0002:000000e8       __real@8@3ffbccccccccccccd000 2003c0e8     ai_chat.obj
 0002:000000f0       __real@4@40008000000000000000 2003c0f0     ai_chat.obj
 0002:000000f8       __real@8@4004f000000000000000 2003c0f8     ai_cmd.obj
 0002:00000100       __real@4@4009e100000000000000 2003c100     ai_cmd.obj
 0002:00000104       __real@4@40089600000000000000 2003c104     ai_cmd.obj
 0002:00000108       __real@4@4019bebc200000000000 2003c108     ai_cmd.obj
 0002:0000010c       __real@4@4004f000000000000000 2003c10c     ai_cmd.obj
 0002:00000110       __real@4@4005f000000000000000 2003c110     ai_cmd.obj
 0002:00000114       __real@4@4006b400000000000000 2003c114     ai_cmd.obj
 0002:00000118       __real@4@4005c800000000000000 2003c118     ai_cmd.obj
 0002:0000011c       __real@4@4007fa00000000000000 2003c11c     ai_cmd.obj
 0002:00000120       __real@4@4004c000000000000000 2003c120     ai_cmd.obj
 0002:00000128       __real@8@40048000000000000000 2003c128     ai_cmd.obj
 0002:00000130       __real@8@40029c0ebedfa43fe800 2003c130     ai_cmd.obj
 0002:00000138       __real@8@3fff8000000000000000 2003c138     ai_cmd.obj
 0002:00000140       __real@8@3ffdccccccccccccd000 2003c140     ai_cmd.obj
 0002:00000148       __real@4@4008fa00000000000000 2003c148     ai_dmnet.obj
 0002:0000014c       __real@4@4001c000000000000000 2003c14c     ai_dmnet.obj
 0002:00000150       __real@4@4003a000000000000000 2003c150     ai_dmnet.obj
 0002:00000154       __real@4@400ae100000000000000 2003c154     ai_dmnet.obj
 0002:00000158       __real@4@4000c000000000000000 2003c158     ai_dmnet.obj
 0002:0000015c       __real@4@400b9920000000000000 2003c15c     ai_dmnet.obj
 0002:00000160       __real@4@40028000000000000000 2003c160     ai_dmnet.obj
 0002:00000168       __real@8@3ffeccccccccccccd000 2003c168     ai_dmnet.obj
 0002:00000170       __real@8@3ffaccccccccccccd000 2003c170     ai_dmnet.obj
 0002:00000178       __real@4@4002f000000000000000 2003c178     ai_dmnet.obj
 0002:0000017c       __real@4@4001a000000000000000 2003c17c     ai_dmnet.obj
 0002:00000180       __real@8@3ffeb333333333333000 2003c180     ai_dmnet.obj
 0002:00000188       __real@4@40018000000000000000 2003c188     ai_dmnet.obj
 0002:0000018c       __real@4@400c9c40000000000000 2003c18c     ai_dmnet.obj
 0002:00000190       __real@4@4010f424000000000000 2003c190     ai_dmnet.obj
 0002:00000198       __real@8@3ff8a3d70a3d70a3d800 2003c198     ai_dmnet.obj
 0002:000001a0       __real@8@3ffcccccccccccccd000 2003c1a0     ai_dmnet.obj
 0002:000001a8       __real@8@40038000000000000000 2003c1a8     ai_dmnet.obj
 0002:000001b0       __real@8@3ffd9999999999999800 2003c1b0     ai_dmnet.obj
 0002:000001b8       __real@4@3ff8a3d70a3d70a3d800 2003c1b8     ai_dmnet.obj
 0002:000001bc       __real@4@40079600000000000000 2003c1bc     ai_dmq3.obj
 0002:000001c0       __real@4@4004c800000000000000 2003c1c0     ai_dmq3.obj
 0002:000001c4       __real@4@40068000000000000000 2003c1c4     ai_dmq3.obj
 0002:000001c8       __real@4@4008f9c0000000000000 2003c1c8     ai_dmq3.obj
 0002:000001cc       __real@4@4003b800000000000000 2003c1cc     ai_dmq3.obj
 0002:000001d0       __real@4@4005a000000000000000 2003c1d0     ai_dmq3.obj
 0002:000001d4       __real@4@4005aa00000000000000 2003c1d4     ai_dmq3.obj
 0002:000001d8       __real@4@4005b400000000000000 2003c1d8     ai_dmq3.obj
 0002:000001dc       __real@4@4005be00000000000000 2003c1dc     ai_dmq3.obj
 0002:000001e0       __real@4@40058c00000000000000 2003c1e0     ai_dmq3.obj
 0002:000001e4       __real@4@400fc34f800000000000 2003c1e4     ai_dmq3.obj
 0002:000001e8       __real@8@3ffefd70a3d70a3d7000 2003c1e8     ai_dmq3.obj
 0002:000001f0       __real@4@4004a000000000000000 2003c1f0     ai_dmq3.obj
 0002:000001f4       __real@4@4006c800000000000000 2003c1f4     ai_dmq3.obj
 0002:000001f8       __real@8@4005c000000000000000 2003c1f8     ai_dmq3.obj
 0002:00000200       __real@8@3ffec000000000000000 2003c200     ai_dmq3.obj
 0002:00000208       __real@4@4008c800000000000000 2003c208     ai_dmq3.obj
 0002:00000210       __real@8@3ffee666666666666800 2003c210     ai_dmq3.obj
 0002:00000218       __real@8@3ffeef5c28f5c28f6000 2003c218     ai_dmq3.obj
 0002:00000220       __real@8@c006b400000000000000 2003c220     ai_dmq3.obj
 0002:00000228       __real@8@4007b400000000000000 2003c228     ai_dmq3.obj
 0002:00000230       __real@8@4006b400000000000000 2003c230     ai_dmq3.obj
 0002:00000238       __real@8@3ffef333333333333000 2003c238     ai_dmq3.obj
 0002:00000240       __real@8@3ff583126e978d4fe000 2003c240     ai_dmq3.obj
 0002:00000248       __real@4@3ff28fd66c04c69e9800 2003c248     ai_dmq3.obj
 0002:0000024c       __real@4@4012a02e400000000000 2003c24c     ai_dmq3.obj
 0002:00000250       __real@8@4008e100000000000000 2003c250     ai_dmq3.obj
 0002:00000258       __real@8@400afa00000000000000 2003c258     ai_dmq3.obj
 0002:00000260       __real@4@4007b400000000000000 2003c260     ai_dmq3.obj
 0002:00000264       __real@4@3ff7da740da740da7800 2003c264     ai_dmq3.obj
 0002:00000268       __real@4@40069600000000000000 2003c268     ai_dmq3.obj
 0002:0000026c       __real@4@400bc800000000000000 2003c26c     ai_dmq3.obj
 0002:00000270       __real@8@4002a000000000000000 2003c270     ai_dmq3.obj
 0002:00000278       __real@8@4003a000000000000000 2003c278     ai_dmq3.obj
 0002:00000280       __real@8@4004c800000000000000 2003c280     ai_dmq3.obj
 0002:00000288       __real@4@40058000000000000000 2003c288     ai_dmq3.obj
 0002:00000290       __real@8@3ffe9999999999999800 2003c290     ai_dmq3.obj
 0002:00000298       __real@4@40098000000000000000 2003c298     ai_dmq3.obj
 0002:0000029c       __real@4@40038000000000000000 2003c29c     ai_dmq3.obj
 0002:000002a0       __real@4@3ffeb333330000000000 2003c2a0     ai_dmq3.obj
 0002:000002a4       __real@4@400a9000000000000000 2003c2a4     ai_dmq3.obj
 0002:000002a8       __real@4@3ffdcccccd0000000000 2003c2a8     ai_dmq3.obj
 0002:000002b0       __real@8@4007fa00000000000000 2003c2b0     ai_dmq3.obj
 0002:000002b8       __real@4@4002c000000000000000 2003c2b8     ai_dmq3.obj
 0002:000002c0       __real@8@40028000000000000000 2003c2c0     ai_dmq3.obj
 0002:000002c8       __real@4@4008e600000000000000 2003c2c8     ai_dmq3.obj
 0002:000002cc       __real@4@4007b000000000000000 2003c2cc     ai_dmq3.obj
 0002:000002d0       __real@4@40079800000000000000 2003c2d0     ai_dmq3.obj
 0002:000002d4       __real@4@4008a800000000000000 2003c2d4     ai_dmq3.obj
 0002:000002d8       __real@4@4007ea00000000000000 2003c2d8     ai_dmq3.obj
 0002:000002dc       __real@4@4006cc00000000000000 2003c2dc     ai_dmq3.obj
 0002:000002e0       __real@4@4008f100000000000000 2003c2e0     ai_dmq3.obj
 0002:000002e4       __real@4@4008af00000000000000 2003c2e4     ai_dmq3.obj
 0002:000002e8       __real@4@40088000000000000000 2003c2e8     ai_dmq3.obj
 0002:000002ec       __real@4@400c9c3c000000000000 2003c2ec     ai_dmq3.obj
 0002:000002f0       __real@8@4001a000000000000000 2003c2f0     ai_dmq3.obj
 0002:000002f8       __real@8@3fffc000000000000000 2003c2f8     ai_dmq3.obj
 0002:00000300       __real@4@bfff8000000000000000 2003c300     ai_main.obj
 0002:00000308       __real@8@3ffde666666666666800 2003c308     ai_main.obj
 0002:00000310       __real@4@c006b400000000000000 2003c310     ai_main.obj
 0002:00000314       __real@4@4006f000000000000000 2003c314     ai_main.obj
 0002:00000318       __real@4@3ffda28f5c28f5c29000 2003c318     ai_main.obj
 0002:0000031c       __real@4@4006b60b60b60b60b800 2003c31c     ai_main.obj
 0002:00000320       __real@4@3ff583126e978d4fe000 2003c320     ai_main.obj
 0002:00000328       __real@8@3ff7b400000000000000 2003c328     ai_main.obj
 0002:00000330       __real@4@c0049000000000000000 2003c330     bg_misc.obj
 0002:00000334       __real@4@40049000000000000000 2003c334     bg_misc.obj
 0002:00000338       __real@4@c004c800000000000000 2003c338     bg_misc.obj
 0002:0000033c       __real@4@4004b000000000000000 2003c33c     bg_misc.obj
 0002:00000340       __real@8@4007c800000000000000 2003c340     bg_misc.obj
 0002:00000348       __real@4@4001c90fdb0000000000 2003c348     bg_misc.obj
 0002:0000034c       __real@4@4004b400000000000000 2003c34c     bg_misc.obj
 0002:00000350       __real@4@c004f000000000000000 2003c350     bg_pmove.obj
 0002:00000358       __real@8@4005fe00000000000000 2003c358     bg_pmove.obj
 0002:00000360       __real@4@4003f000000000000000 2003c360     bg_pmove.obj
 0002:00000364       __real@4@c0038000000000000000 2003c364     bg_pmove.obj
 0002:00000368       __real@8@3ffdaaaaaaaaaaaaa800 2003c368     bg_pmove.obj
 0002:00000370       __real@4@c006c800000000000000 2003c370     bg_pmove.obj
 0002:00000374       __real@4@4001e000000000000000 2003c374     bg_pmove.obj
 0002:00000378       __real@8@3ff1d1b71758e2196800 2003c378     bg_pmove.obj
 0002:00000380       __real@4@3ffe8000000000000000 2003c380     bg_pmove.obj
 0002:00000388       __real@8@3ffec4ec4ec4ec4ec000 2003c388     bg_pmove.obj
 0002:00000390       __real@4@4002b000000000000000 2003c390     bg_slidemove.obj
 0002:00000394       __real@4@40039000000000000000 2003c394     bg_slidemove.obj
 0002:00000398       __real@8@3ffeb60b60b60b60b800 2003c398     g_active.obj
 0002:000003a0       __real@4@4006ff00000000000000 2003c3a0     g_active.obj
 0002:000003a8       __real@8@3fff8cccccccccccd000 2003c3a8     g_active.obj
 0002:000003b0       __real@8@3fffa666666666666800 2003c3b0     g_active.obj
 0002:000003b8       __real@4@40029000000000000000 2003c3b8     g_client.obj
 0002:000003c0       __real@8@3ffea8f5c28f5c28f800 2003c3c0     g_combat.obj
 0002:000003c8       __real@4@3ff7a3d70a3d70a3d800 2003c3c8     g_combat.obj
 0002:000003d0       __real@8@4002f000000000000000 2003c3d0     g_combat.obj
 0002:000003d8       __real@4@4006c000000000000000 2003c3d8     g_items.obj
 0002:000003e0       __real@8@4006c800000000000000 2003c3e0     g_items.obj
 0002:000003e8       __real@8@4004b400000000000000 2003c3e8     g_items.obj
 0002:000003f0       __real@4@400b8000000000000000 2003c3f0     g_items.obj
 0002:000003f4       __real@4@c0008000000000000000 2003c3f4     g_items.obj
 0002:000003f8       __real@4@4007c800000000000000 2003c3f8     g_misc.obj
 0002:000003fc       __real@4@3ff98efa355555555800 2003c3fc     g_misc.obj
 0002:00000400       __real@8@3ffea666666666666800 2003c400     g_missile.obj
 0002:00000408       __real@4@4009fa00000000000000 2003c408     g_missile.obj
 0002:0000040c       __real@4@4008e100000000000000 2003c40c     g_missile.obj
 0002:00000410       __real@8@3fffccccccccccccd000 2003c410     g_missile.obj
 0002:00000418       __real@8@4008fa00000000000000 2003c418     g_mover.obj
 0002:00000420       __real@4@3ffd8000000000000000 2003c420     g_mover.obj
 0002:00000424       __real@4@40048400000000000000 2003c424     g_mover.obj
 0002:00000428       __real@8@3ffca2f9832237cda000 2003c428     g_mover.obj
 0002:00000430       __real@4@400a8000000000000000 2003c430     g_target.obj
 0002:00000434       __real@4@400bfa00000000000000 2003c434     g_team.obj
 0002:00000438       __real@4@3ffeffbe86c313d2d000 2003c438     g_unlagged.obj
 0002:0000043c       __real@4@3fff8020c50000000000 2003c43c     g_unlagged.obj
 0002:00000440       __real@4@40078700000000000000 2003c440     g_utils.obj
 0002:00000448       __real@8@4004e52ee0681e792800 2003c448     g_utils.obj
 0002:00000450       __real@4@400c8000000000000000 2003c450     g_weapon.obj
 0002:00000454       __real@4@40108000000000000000 2003c454     g_weapon.obj
 0002:00000458       __real@4@400caf00000000000000 2003c458     g_weapon.obj
 0002:0000045c       __real@4@3ffccccccd0000000000 2003c45c     g_weapon.obj
 0002:00000460       __real@4@4002e000000000000000 2003c460     g_weapon.obj
 0002:00000464       __real@4@3fef8000000000000000 2003c464     q_math.obj
 0002:00000468       __real@4@bffe8000000000000000 2003c468     q_math.obj
 0002:00000470       __real@8@4006b60b60b60b60b800 2003c470     q_math.obj
 0002:00000478       __real@4@3ff98efa350000000000 2003c478     q_math.obj
 0002:00000480       __real@8@4015800bf60000000000 2003c480     LIBC:testfdiv.obj
 0002:00000488       __real@8@4014bffffc0000000000 2003c488     LIBC:testfdiv.obj
 0002:00000490       ??_C@_0BK@JEGK@IsProcessorFeaturePresent?$AA@ 2003c490     LIBC:testfdiv.obj
 0002:000004ac       ??_C@_08OBID@KERNEL32?$AA@ 2003c4ac     LIBC:testfdiv.obj
 0002:000004b8       __real@8@00000000000000000000 2003c4b8     LIBC:cvt.obj
 0002:000004c0       ??_C@_05OFLO@e?$CL000?$AA@ 2003c4c0     LIBC:cvt.obj
 0002:000004c8       ??_C@_01A@?$AA?$AA@        2003c4c8     LIBC:a_map.obj
 0002:000004cc       ??_C@_13A@?$AA?$AA?$AA?$AA@ 2003c4cc     LIBC:a_map.obj
 0002:000004e8       ___lookuptable             2003c4e8     LIBC:output.obj
 0002:00000544       ??_C@_1O@POHA@?$AA?$CI?$AAn?$AAu?$AAl?$AAl?$AA?$CJ?$AA?$AA@ 2003c544     LIBC:output.obj
 0002:00000554       ??_C@_06ONKE@?$CInull?$CJ?$AA@ 2003c554     LIBC:output.obj
 0002:0000055c       ??_C@_03GAFO@_yn?$AA@      2003c55c     LIBC:fpexcept.obj
 0002:00000560       ??_C@_03GNLD@_y1?$AA@      2003c560     LIBC:fpexcept.obj
 0002:00000564       ??_C@_03MHCE@_y0?$AA@      2003c564     LIBC:fpexcept.obj
 0002:00000568       ??_C@_05PAK@frexp?$AA@     2003c568     LIBC:fpexcept.obj
 0002:00000570       ??_C@_04JKCH@fmod?$AA@     2003c570     LIBC:fpexcept.obj
 0002:00000578       ??_C@_06GGHF@_hypot?$AA@   2003c578     LIBC:fpexcept.obj
 0002:00000580       ??_C@_05JNMC@_cabs?$AA@    2003c580     LIBC:fpexcept.obj
 0002:00000588       ??_C@_05MEKH@ldexp?$AA@    2003c588     LIBC:fpexcept.obj
 0002:00000590       ??_C@_04KAOJ@modf?$AA@     2003c590     LIBC:fpexcept.obj
 0002:00000598       ??_C@_04EHAJ@fabs?$AA@     2003c598     LIBC:fpexcept.obj
 0002:000005a0       ??_C@_05MFBN@floor?$AA@    2003c5a0     LIBC:fpexcept.obj
 0002:000005a8       ??_C@_04JJMP@ceil?$AA@     2003c5a8     LIBC:fpexcept.obj
 0002:000005b0       ??_C@_03JLPI@tan?$AA@      2003c5b0     LIBC:fpexcept.obj
 0002:000005b4       ??_C@_03DLFL@cos?$AA@      2003c5b4     LIBC:fpexcept.obj
 0002:000005b8       ??_C@_03JAMN@sin?$AA@      2003c5b8     LIBC:fpexcept.obj
 0002:000005bc       ??_C@_04LMBE@sqrt?$AA@     2003c5bc     LIBC:fpexcept.obj
 0002:000005c4       ??_C@_05BFPO@atan2?$AA@    2003c5c4     LIBC:fpexcept.obj
 0002:000005cc       ??_C@_04EAGN@atan?$AA@     2003c5cc     LIBC:fpexcept.obj
 0002:000005d4       ??_C@_04OAMO@acos?$AA@     2003c5d4     LIBC:fpexcept.obj
 0002:000005dc       ??_C@_04ELFI@asin?$AA@     2003c5dc     LIBC:fpexcept.obj
 0002:000005e4       ??_C@_04LFAD@tanh?$AA@     2003c5e4     LIBC:fpexcept.obj
 0002:000005ec       ??_C@_04PFKD@cosh?$AA@     2003c5ec     LIBC:fpexcept.obj
 0002:000005f4       ??_C@_04NPAI@sinh?$AA@     2003c5f4     LIBC:fpexcept.obj
 0002:000005fc       ??_C@_05IJHH@log10?$AA@    2003c5fc     LIBC:fpexcept.obj
 0002:00000604       ??_C@_03EGFG@pow?$AA@      2003c604     LIBC:fpexcept.obj
 0002:00000608       ??_C@_03CDGJ@exp?$AA@      2003c608     LIBC:fpexcept.obj
 0002:0000060c       ??_C@_0P@GGKG@runtime?5error?5?$AA@ 2003c60c     LIBC:crt0msg.obj
 0002:0000061c       ??_C@_02PIMC@?$AN?6?$AA@   2003c61c     LIBC:crt0msg.obj
 0002:00000620       ??_C@_0O@DELO@TLOSS?5error?$AN?6?$AA@ 2003c620     LIBC:crt0msg.obj
 0002:00000630       ??_C@_0N@OMLL@SING?5error?$AN?6?$AA@ 2003c630     LIBC:crt0msg.obj
 0002:00000640       ??_C@_0P@OJAK@DOMAIN?5error?$AN?6?$AA@ 2003c640     LIBC:crt0msg.obj
 0002:00000650       ??_C@_0CF@EANP@R6028?$AN?6?9?5unable?5to?5initialize?5he@ 2003c650     LIBC:crt0msg.obj
 0002:00000678       ??_C@_0DF@ECGN@R6027?$AN?6?9?5not?5enough?5space?5for?5lo@ 2003c678     LIBC:crt0msg.obj
 0002:000006b0       ??_C@_0DF@FKAC@R6026?$AN?6?9?5not?5enough?5space?5for?5st@ 2003c6b0     LIBC:crt0msg.obj
 0002:000006e8       ??_C@_0CG@DPMN@R6025?$AN?6?9?5pure?5virtual?5function?5c@ 2003c6e8     LIBC:crt0msg.obj
 0002:00000710       ??_C@_0DF@CKIP@R6024?$AN?6?9?5not?5enough?5space?5for?5_o@ 2003c710     LIBC:crt0msg.obj
 0002:00000748       ??_C@_0CJ@GGOE@R6019?$AN?6?9?5unable?5to?5open?5console?5@ 2003c748     LIBC:crt0msg.obj
 0002:00000774       ??_C@_0CB@LBOB@R6018?$AN?6?9?5unexpected?5heap?5error?$AN?6@ 2003c774     LIBC:crt0msg.obj
 0002:00000798       ??_C@_0CN@FPEG@R6017?$AN?6?9?5unexpected?5multithread?5@ 2003c798     LIBC:crt0msg.obj
 0002:000007c8       ??_C@_0CM@OBIC@R6016?$AN?6?9?5not?5enough?5space?5for?5th@ 2003c7c8     LIBC:crt0msg.obj
 0002:000007f4       ??_C@_0CB@HPAL@?$AN?6abnormal?5program?5termination?$AN?6@ 2003c7f4     LIBC:crt0msg.obj
 0002:00000818       ??_C@_0CM@JOOB@R6009?$AN?6?9?5not?5enough?5space?5for?5en@ 2003c818     LIBC:crt0msg.obj
 0002:00000844       ??_C@_0CK@OIBL@R6008?$AN?6?9?5not?5enough?5space?5for?5ar@ 2003c844     LIBC:crt0msg.obj
 0002:00000870       ??_C@_0CF@LKPB@R6002?$AN?6?9?5floating?5point?5not?5load@ 2003c870     LIBC:crt0msg.obj
 0002:00000898       ??_C@_0CF@JPDF@Microsoft?5Visual?5C?$CL?$CL?5Runtime?5Lib@ 2003c898     LIBC:crt0msg.obj
 0002:000008c0       ??_C@_02JJJH@?6?6?$AA@     2003c8c0     LIBC:crt0msg.obj
 0002:000008c4       ??_C@_0BK@DEOK@Runtime?5Error?$CB?6?6Program?3?5?$AA@ 2003c8c4     LIBC:crt0msg.obj
 0002:000008e0       ??_C@_03NAME@?4?4?4?$AA@   2003c8e0     LIBC:crt0msg.obj
 0002:000008e4       ??_C@_0BH@NNCD@?$DMprogram?5name?5unknown?$DO?$AA@ 2003c8e4     LIBC:crt0msg.obj
 0002:0000090c       ??_C@_0BD@NJFP@GetLastActivePopup?$AA@ 2003c90c     LIBC:crtmbox.obj
 0002:00000920       ??_C@_0BA@GILI@GetActiveWindow?$AA@ 2003c920     LIBC:crtmbox.obj
 0002:00000930       ??_C@_0M@PKCK@MessageBoxA?$AA@ 2003c930     LIBC:crtmbox.obj
 0002:0000093c       ??_C@_0L@HKL@user32?4dll?$AA@ 2003c93c     LIBC:crtmbox.obj
 0002:00000948       ??_C@_06PAPI@1?$CDQNAN?$AA@ 2003c948     LIBC:x10fout.obj
 0002:00000950       ??_C@_05BGNL@1?$CDINF?$AA@ 2003c950     LIBC:x10fout.obj
 0002:00000958       ??_C@_05EDPF@1?$CDIND?$AA@ 2003c958     LIBC:x10fout.obj
 0002:00000960       ??_C@_06LKFM@1?$CDSNAN?$AA@ 2003c960     LIBC:x10fout.obj
 0002:00000968       __IMPORT_DESCRIPTOR_KERNEL32 2003c968     kernel32:KERNEL32.dll
 0002:0000097c       __NULL_IMPORT_DESCRIPTOR   2003c97c     kernel32:KERNEL32.dll
 0003:00000000       ___xc_a                    2003d000     LIBC:crt0init.obj
 0003:00000004       ___xc_z                    2003d004     LIBC:crt0init.obj
 0003:00000008       ___xi_a                    2003d008     LIBC:crt0init.obj
 0003:00000014       ___xi_z                    2003d014     LIBC:crt0init.obj
 0003:00000018       ___xp_a                    2003d018     LIBC:crt0init.obj
 0003:00000020       ___xp_z                    2003d020     LIBC:crt0init.obj
 0003:00000024       ___xt_a                    2003d024     LIBC:crt0init.obj
 0003:00000028       ___xt_z                    2003d028     LIBC:crt0init.obj
 0003:00000030       ??_C@_01PEAM@t?$AA@        2003d030     ai_chat.obj
 0003:00000034       ??_C@_01FMOK@n?$AA@        2003d034     ai_chat.obj
 0003:00000038       ??_C@_0O@KKJL@sv_maxclients?$AA@ 2003d038     ai_chat.obj
 0003:00000048       ??_C@_07DOCO@mapname?$AA@  2003d048     ai_chat.obj
 0003:00000050       ??_C@_0BB@GCDJ@?$FLunknown?5weapon?$FN?$AA@ 2003d050     ai_chat.obj
 0003:00000064       ??_C@_07EGAF@Grapple?$AA@  2003d064     ai_chat.obj
 0003:0000006c       ??_C@_06KEGK@BFG10K?$AA@   2003d06c     ai_chat.obj
 0003:00000074       ??_C@_0O@OOLG@Flame?5Thrower?$AA@ 2003d074     ai_chat.obj
 0003:00000084       ??_C@_07MJPA@Railgun?$AA@  2003d084     ai_chat.obj
 0003:0000008c       ??_C@_09DDMN@Plasmagun?$AA@ 2003d08c     ai_chat.obj
 0003:00000098       ??_C@_0BA@JFMN@Rocket?5Launcher?$AA@ 2003d098     ai_chat.obj
 0003:000000a8       ??_C@_0BB@KEFG@Grenade?5Launcher?$AA@ 2003d0a8     ai_chat.obj
 0003:000000bc       ??_C@_0L@OIKI@Machinegun?$AA@ 2003d0bc     ai_chat.obj
 0003:000000c8       ??_C@_08MFME@Gauntlet?$AA@ 2003d0c8     ai_chat.obj
 0003:000000d4       ??_C@_07GAKK@Shotgun?$AA@  2003d0d4     ai_chat.obj
 0003:000000dc       ??_C@_0L@LNAD@game_enter?$AA@ 2003d0dc     ai_chat.obj
 0003:000000e8       ??_C@_0O@KJIC@?$FLinvalid?5var?$FN?$AA@ 2003d0e8     ai_chat.obj
 0003:000000f8       ??_C@_09CAJJ@game_exit?$AA@ 2003d0f8     ai_chat.obj
 0003:00000104       ??_C@_0M@OGMP@level_start?$AA@ 2003d104     ai_chat.obj
 0003:00000110       ??_C@_06BKGN@vtaunt?$AA@   2003d110     ai_chat.obj
 0003:00000118       ??_C@_09KAIC@level_end?$AA@ 2003d118     ai_chat.obj
 0003:00000124       ??_C@_0P@IJIF@level_end_lose?$AA@ 2003d124     ai_chat.obj
 0003:00000134       ??_C@_0BC@DOAM@level_end_victory?$AA@ 2003d134     ai_chat.obj
 0003:00000148       ??_C@_0O@EGLA@death_suicide?$AA@ 2003d148     ai_chat.obj
 0003:00000158       ??_C@_0N@MDMM@death_praise?$AA@ 2003d158     ai_chat.obj
 0003:00000168       ??_C@_0N@HJMK@death_insult?$AA@ 2003d168     ai_chat.obj
 0003:00000178       ??_C@_09CJMK@death_bfg?$AA@ 2003d178     ai_chat.obj
 0003:00000184       ??_C@_0L@PPAG@death_rail?$AA@ 2003d184     ai_chat.obj
 0003:00000190       ??_C@_0P@PKBC@death_gauntlet?$AA@ 2003d190     ai_chat.obj
 0003:000001a0       ??_C@_0P@NHHG@death_telefrag?$AA@ 2003d1a0     ai_chat.obj
 0003:000001b0       ??_C@_0P@ILFA@death_cratered?$AA@ 2003d1b0     ai_chat.obj
 0003:000001c0       ??_C@_0L@LFIA@death_lava?$AA@ 2003d1c0     ai_chat.obj
 0003:000001cc       ??_C@_0M@PLBB@death_slime?$AA@ 2003d1cc     ai_chat.obj
 0003:000001d8       ??_C@_0M@IMDN@death_drown?$AA@ 2003d1d8     ai_chat.obj
 0003:000001e4       ??_C@_0P@FJMN@death_teammate?$AA@ 2003d1e4     ai_chat.obj
 0003:000001f4       ??_C@_07MKCM@?$FLworld?$FN?$AA@ 2003d1f4     ai_chat.obj
 0003:000001fc       ??_C@_0M@PAKB@kill_praise?$AA@ 2003d1fc     ai_chat.obj
 0003:00000208       ??_C@_0M@EKKH@kill_insult?$AA@ 2003d208     ai_chat.obj
 0003:00000214       ??_C@_0O@IIJJ@kill_telefrag?$AA@ 2003d214     ai_chat.obj
 0003:00000224       ??_C@_09NNCG@kill_rail?$AA@ 2003d224     ai_chat.obj
 0003:00000230       ??_C@_0O@KFPN@kill_gauntlet?$AA@ 2003d230     ai_chat.obj
 0003:00000240       ??_C@_0O@GCC@kill_teammate?$AA@ 2003d240     ai_chat.obj
 0003:00000250       ??_C@_0O@IPLH@enemy_suicide?$AA@ 2003d250     ai_chat.obj
 0003:00000260       ??_C@_0M@NJPI@hit_talking?$AA@ 2003d260     ai_chat.obj
 0003:0000026c       ??_C@_0M@FOPD@hit_nodeath?$AA@ 2003d26c     ai_chat.obj
 0003:00000278       ??_C@_0L@GHMP@hit_nokill?$AA@ 2003d278     ai_chat.obj
 0003:00000284       ??_C@_0O@KCOC@random_insult?$AA@ 2003d284     ai_chat.obj
 0003:00000294       ??_C@_0M@DHAN@random_misc?$AA@ 2003d294     ai_chat.obj
 0003:000002a0       ??_C@_0CC@EELP@I?5need?5more?5key?5points?5to?5patrol@ 2003d2a0     ai_cmd.obj
 0003:000002c4       ??_C@_0BB@KFCH@what?5do?5you?5say?$DP?$AA@ 2003d2c4     ai_cmd.obj
 0003:000002d8       ??_C@_0M@MPGC@whereareyou?$AA@ 2003d2d8     ai_cmd.obj
 0003:000002e4       ??_C@_07EKLN@whereis?$AA@  2003d2e4     ai_cmd.obj
 0003:000002ec       ??_C@_05CPEN@whois?$AA@    2003d2ec     ai_cmd.obj
 0003:000002f4       ??_C@_03LGKI@yes?$AA@      2003d2f4     ai_cmd.obj
 0003:000002f8       ??_C@_0L@KHJK@keepinmind?$AA@ 2003d2f8     ai_cmd.obj
 0003:00000304       ??_C@_0L@LHAO@joinedteam?$AA@ 2003d304     ai_cmd.obj
 0003:00000310       ??_C@_08ILMG@leftteam?$AA@ 2003d310     ai_cmd.obj
 0003:0000031c       ??_C@_06EJHB@noteam?$AA@   2003d31c     ai_cmd.obj
 0003:00000324       ??_C@_06BDE@inteam?$AA@    2003d324     ai_cmd.obj
 0003:0000032c       ??_C@_0BD@ICHC@checkpoint_confirm?$AA@ 2003d32c     ai_cmd.obj
 0003:00000340       ??_C@_0BC@NADC@?$CF1?40f?5?$CF1?40f?5?$CF1?40f?$AA@ 2003d340     ai_cmd.obj
 0003:00000354       ??_C@_0BD@MHPE@checkpoint_invalid?$AA@ 2003d354     ai_cmd.obj
 0003:00000368       ??_C@_08JPAH@?$CFf?5?$CFf?5?$CFf?$AA@ 2003d368     ai_cmd.obj
 0003:00000374       ??_C@_09JMFD@dismissed?$AA@ 2003d374     ai_cmd.obj
 0003:00000380       ??_C@_05OBKC@taunt?$AA@    2003d380     ai_cmd.obj
 0003:00000388       ??_C@_04CHLA@kill?$AA@     2003d388     ai_cmd.obj
 0003:00000390       ??_C@_0BF@BCG@I?8m?5the?5team?5leader?6?$AA@ 2003d390     ai_cmd.obj
 0003:000003a8       ??_C@_07IJBC@roaming?$AA@  2003d3a8     ai_cmd.obj
 0003:000003b0       ??_C@_0O@FGHI@returningflag?$AA@ 2003d3b0     ai_cmd.obj
 0003:000003c0       ??_C@_0M@IJOE@rushingbase?$AA@ 2003d3c0     ai_cmd.obj
 0003:000003cc       ??_C@_0O@CPED@capturingflag?$AA@ 2003d3cc     ai_cmd.obj
 0003:000003dc       ??_C@_0L@MMEH@patrolling?$AA@ 2003d3dc     ai_cmd.obj
 0003:000003e8       ??_C@_07NAAI@camping?$AA@  2003d3e8     ai_cmd.obj
 0003:000003f0       ??_C@_07EDHI@killing?$AA@  2003d3f0     ai_cmd.obj
 0003:000003f8       ??_C@_0M@GPN@gettingitem?$AA@ 2003d3f8     ai_cmd.obj
 0003:00000404       ??_C@_09IGIA@defending?$AA@ 2003d404     ai_cmd.obj
 0003:00000410       ??_C@_0N@PLHM@accompanying?$AA@ 2003d410     ai_cmd.obj
 0003:00000420       ??_C@_07CBLO@helping?$AA@  2003d420     ai_cmd.obj
 0003:00000428       ??_C@_08KGHI@location?$AA@ 2003d428     ai_cmd.obj
 0003:00000434       ??_C@_04FEG@blue?$AA@      2003d434     ai_cmd.obj
 0003:0000043c       ??_C@_0N@DPAO@teamlocation?$AA@ 2003d43c     ai_cmd.obj
 0003:0000044c       ??_C@_03CMLD@red?$AA@      2003d44c     ai_cmd.obj
 0003:00000450       ??_C@_09DHIB@Blue?5Flag?$AA@ 2003d450     ai_cmd.obj
 0003:0000045c       ??_C@_08CLEI@Red?5Flag?$AA@ 2003d45c     ai_cmd.obj
 0003:00000468       ??_C@_0M@LPCG@Heavy?5Armor?$AA@ 2003d468     ai_cmd.obj
 0003:00000474       ??_C@_05KFDN@Armor?$AA@    2003d474     ai_cmd.obj
 0003:0000047c       ??_C@_06CPDM@Flight?$AA@   2003d47c     ai_cmd.obj
 0003:00000484       ??_C@_0N@PHMD@Invisibility?$AA@ 2003d484     ai_cmd.obj
 0003:00000494       ??_C@_05PDDA@Speed?$AA@    2003d494     ai_cmd.obj
 0003:0000049c       ??_C@_0M@LDNA@Battle?5Suit?$AA@ 2003d49c     ai_cmd.obj
 0003:000004a8       ??_C@_0N@KKJF@Regeneration?$AA@ 2003d4a8     ai_cmd.obj
 0003:000004b8       ??_C@_0M@MLLH@Quad?5Damage?$AA@ 2003d4b8     ai_cmd.obj
 0003:000004c4       ??_C@_0BE@HDNL@unknown?5match?5type?6?$AA@ 2003d4c4     ai_cmd.obj
 0003:000004d8       ??_C@_0DL@PLNJ@the?5part?5of?5my?5brain?5to?5create?5f@ 2003d4d8     ai_cmd.obj
 0003:00000514       ??_C@_0CM@GOEL@?$CFs?5at?5?$CF1?41f?5switched?5more?5than?5?$CF@ 2003d514     ai_dmnet.obj
 0003:00000540       ??_C@_0CE@JPJI@?$CFs?5at?5?$CF2?41f?5entered?5?$CFs?3?5?$CFs?5from?5@ 2003d540     ai_dmnet.obj
 0003:00000564       ??_C@_0N@LJHO@onreturnflag?$AA@ 2003d564     ai_dmnet.obj
 0003:00000574       ??_C@_0BB@DJGJ@returnflag_start?$AA@ 2003d574     ai_dmnet.obj
 0003:00000588       ??_C@_09KCFH@ongetflag?$AA@ 2003d588     ai_dmnet.obj
 0003:00000594       ??_C@_0BC@FOOE@captureflag_start?$AA@ 2003d594     ai_dmnet.obj
 0003:000005a8       ??_C@_0M@CPLP@patrol_stop?$AA@ 2003d5a8     ai_dmnet.obj
 0003:000005b4       ??_C@_0N@EALE@patrol_start?$AA@ 2003d5b4     ai_dmnet.obj
 0003:000005c4       ??_C@_04PNBL@?5to?5?$AA@   2003d5c4     ai_dmnet.obj
 0003:000005cc       ??_C@_0L@KDID@inposition?$AA@ 2003d5cc     ai_dmnet.obj
 0003:000005d8       ??_C@_0M@ECNH@camp_arrive?$AA@ 2003d5d8     ai_dmnet.obj
 0003:000005e4       ??_C@_09DPBK@camp_stop?$AA@ 2003d5e4     ai_dmnet.obj
 0003:000005f0       ??_C@_0L@MHKE@camp_start?$AA@ 2003d5f0     ai_dmnet.obj
 0003:000005fc       ??_C@_0O@GBIE@getitem_gotit?$AA@ 2003d5fc     ai_dmnet.obj
 0003:0000060c       ??_C@_0BB@DCFM@getitem_notthere?$AA@ 2003d60c     ai_dmnet.obj
 0003:00000620       ??_C@_0O@CMCH@getitem_start?$AA@ 2003d620     ai_dmnet.obj
 0003:00000630       ??_C@_09LEFD@kill_done?$AA@ 2003d630     ai_dmnet.obj
 0003:0000063c       ??_C@_0L@MEHI@kill_start?$AA@ 2003d63c     ai_dmnet.obj
 0003:00000648       ??_C@_0M@ELND@defend_stop?$AA@ 2003d648     ai_dmnet.obj
 0003:00000654       ??_C@_09EKPP@ondefense?$AA@ 2003d654     ai_dmnet.obj
 0003:00000660       ??_C@_0N@DHNA@defend_start?$AA@ 2003d660     ai_dmnet.obj
 0003:00000670       ??_C@_0BF@JBCB@accompany_cannotfind?$AA@ 2003d670     ai_dmnet.obj
 0003:00000688       ??_C@_0BM@CIDN@BotLongTermGoal?3?5go?5for?5air?$AA@ 2003d688     ai_dmnet.obj
 0003:000006a4       ??_C@_0BB@IPDD@accompany_arrive?$AA@ 2003d6a4     ai_dmnet.obj
 0003:000006b8       ??_C@_0P@KJBP@accompany_stop?$AA@ 2003d6b8     ai_dmnet.obj
 0003:000006c8       ??_C@_0BA@CDDC@accompany_start?$AA@ 2003d6c8     ai_dmnet.obj
 0003:000006d8       ??_C@_0L@GIPO@help_start?$AA@ 2003d6d8     ai_dmnet.obj
 0003:000006e4       ??_C@_08NIBB@followme?$AA@ 2003d6e4     ai_dmnet.obj
 0003:000006f0       ??_C@_09IAGA@lead_stop?$AA@ 2003d6f0     ai_dmnet.obj
 0003:000006fc       ??_C@_0N@HBED@intermission?$AA@ 2003d6fc     ai_dmnet.obj
 0003:0000070c       ??_C@_0BD@JCBP@intermission?3?5chat?$AA@ 2003d70c     ai_dmnet.obj
 0003:00000720       ??_C@_08FLDF@observer?$AA@ 2003d720     ai_dmnet.obj
 0003:0000072c       ??_C@_0BI@LPK@observer?3?5left?5observer?$AA@ 2003d72c     ai_dmnet.obj
 0003:00000744       ??_C@_05KECD@stand?$AA@    2003d744     ai_dmnet.obj
 0003:0000074c       ??_C@_0BA@GMHN@stand?3?5time?5out?$AA@ 2003d74c     ai_dmnet.obj
 0003:0000075c       ??_C@_0BD@LIGN@stand?3?5found?5enemy?$AA@ 2003d75c     ai_dmnet.obj
 0003:00000770       ??_C@_07CFCK@respawn?$AA@  2003d770     ai_dmnet.obj
 0003:00000778       ??_C@_0BD@IMPF@respawn?3?5respawned?$AA@ 2003d778     ai_dmnet.obj
 0003:0000078c       ??_C@_0BA@MHDA@activate?5entity?$AA@ 2003d78c     ai_dmnet.obj
 0003:0000079c       ??_C@_0BN@BLLC@activate?5entity?3?5found?5enemy?$AA@ 2003d79c     ai_dmnet.obj
 0003:000007bc       ??_C@_0BL@ENJK@activate?5entity?3?5activated?$AA@ 2003d7bc     ai_dmnet.obj
 0003:000007d8       ??_C@_0BK@HBCO@activate?5entity?3?5time?5out?$AA@ 2003d7d8     ai_dmnet.obj
 0003:000007f4       ??_C@_0BJ@MDIA@activate?5entity?3?5no?5goal?$AA@ 2003d7f4     ai_dmnet.obj
 0003:00000810       ??_C@_0BK@IDDM@activate?5entity?3?5bot?5dead?$AA@ 2003d810     ai_dmnet.obj
 0003:0000082c       ??_C@_0BO@OLGD@activate?5entity?3?5intermission?$AA@ 2003d82c     ai_dmnet.obj
 0003:0000084c       ??_C@_0BI@FCDK@active?5entity?3?5observer?$AA@ 2003d84c     ai_dmnet.obj
 0003:00000864       ??_C@_07PEIB@no?5goal?$AA@ 2003d864     ai_dmnet.obj
 0003:0000086c       ??_C@_08GAJL@seek?5NBG?$AA@ 2003d86c     ai_dmnet.obj
 0003:00000878       ??_C@_0BG@OHPG@seek?5nbg?3?5found?5enemy?$AA@ 2003d878     ai_dmnet.obj
 0003:00000890       ??_C@_0BD@PNHK@seek?5nbg?3?5time?5out?$AA@ 2003d890     ai_dmnet.obj
 0003:000008a4       ??_C@_0BD@PGI@seek?5nbg?3?5bot?5dead?$AA@ 2003d8a4     ai_dmnet.obj
 0003:000008b8       ??_C@_0BG@LNJO@seek?5nbg?3?5intermision?$AA@ 2003d8b8     ai_dmnet.obj
 0003:000008d0       ??_C@_0BD@FGFG@seek?5nbg?3?5observer?$AA@ 2003d8d0     ai_dmnet.obj
 0003:000008e4       ??_C@_08NJOA@seek?5LTG?$AA@ 2003d8e4     ai_dmnet.obj
 0003:000008f0       ??_C@_0O@NMEC@ltg?5seek?3?5nbg?$AA@ 2003d8f0     ai_dmnet.obj
 0003:00000900       ??_C@_0BG@BLH@seek?5ltg?3?5found?5enemy?$AA@ 2003d900     ai_dmnet.obj
 0003:00000918       ??_C@_0BG@HPPI@seek?5ltg?3?5random?5chat?$AA@ 2003d918     ai_dmnet.obj
 0003:00000930       ??_C@_0BD@BPGE@seek?5ltg?3?5bot?5dead?$AA@ 2003d930     ai_dmnet.obj
 0003:00000944       ??_C@_0BH@LAHJ@seek?5ltg?3?5intermission?$AA@ 2003d944     ai_dmnet.obj
 0003:0000095c       ??_C@_0BD@EGFK@seek?5ltg?3?5observer?$AA@ 2003d95c     ai_dmnet.obj
 0003:00000970       ??_C@_0N@HKMN@battle?5fight?$AA@ 2003d970     ai_dmnet.obj
 0003:00000980       ??_C@_0BP@BIB@battle?5fight?3?5wants?5to?5retreat?$AA@ 2003d980     ai_dmnet.obj
 0003:000009a0       ??_C@_0CB@KOLA@battle?5fight?3?5enemy?5out?5of?5sight@ 2003d9a0     ai_dmnet.obj
 0003:000009c4       ??_C@_0BP@MOAN@battle?5fight?3?5chat?5hit?5someone?$AA@ 2003d9c4     ai_dmnet.obj
 0003:000009e4       ??_C@_0CE@OJJF@battle?5fight?3?5chat?5health?5decrea@ 2003d9e4     ai_dmnet.obj
 0003:00000a08       ??_C@_0BI@LJDA@battle?5fight?3?5invisible?$AA@ 2003da08     ai_dmnet.obj
 0003:00000a20       ??_C@_0BJ@EAON@battle?5fight?3?5enemy?5dead?$AA@ 2003da20     ai_dmnet.obj
 0003:00000a3c       ??_C@_0BH@KJGM@battle?5fight?3?5no?5enemy?$AA@ 2003da3c     ai_dmnet.obj
 0003:00000a54       ??_C@_0BH@PHAE@battle?5fight?3?5bot?5dead?$AA@ 2003da54     ai_dmnet.obj
 0003:00000a6c       ??_C@_0BL@BPDG@battle?5fight?3?5intermission?$AA@ 2003da6c     ai_dmnet.obj
 0003:00000a88       ??_C@_0BH@KODK@battle?5fight?3?5observer?$AA@ 2003da88     ai_dmnet.obj
 0003:00000aa0       ??_C@_0N@HELN@battle?5chase?$AA@ 2003daa0     ai_dmnet.obj
 0003:00000ab0       ??_C@_0BH@MPLK@battle?5chase?3?5time?5out?$AA@ 2003dab0     ai_dmnet.obj
 0003:00000ac8       ??_C@_0BP@CNHA@battle?5chase?3?5wants?5to?5retreat?$AA@ 2003dac8     ai_dmnet.obj
 0003:00000ae8       ??_C@_0BC@PMEG@battle?5chase?3?5nbg?$AA@ 2003dae8     ai_dmnet.obj
 0003:00000afc       ??_C@_0BM@NFIF@battle?5chase?3?5no?5enemy?5area?$AA@ 2003dafc     ai_dmnet.obj
 0003:00000b18       ??_C@_0BL@ICEP@battle?5chase?3?5better?5enemy?$AA@ 2003db18     ai_dmnet.obj
 0003:00000b34       ??_C@_0BH@GDMA@battle?5chase?3?5no?5enemy?$AA@ 2003db34     ai_dmnet.obj
 0003:00000b4c       ??_C@_0BH@DNKI@battle?5chase?3?5bot?5dead?$AA@ 2003db4c     ai_dmnet.obj
 0003:00000b64       ??_C@_0BL@KMJJ@battle?5chase?3?5intermission?$AA@ 2003db64     ai_dmnet.obj
 0003:00000b80       ??_C@_0BH@GEJG@battle?5chase?3?5observer?$AA@ 2003db80     ai_dmnet.obj
 0003:00000b98       ??_C@_0P@IJKP@battle?5retreat?$AA@ 2003db98     ai_dmnet.obj
 0003:00000ba8       ??_C@_0BE@NICC@battle?5retreat?3?5nbg?$AA@ 2003dba8     ai_dmnet.obj
 0003:00000bbc       ??_C@_0BL@JODG@battle?5retreat?3?5no?5way?5out?$AA@ 2003dbbc     ai_dmnet.obj
 0003:00000bd8       ??_C@_0BO@DKAH@battle?5retreat?3?5another?5enemy?$AA@ 2003dbd8     ai_dmnet.obj
 0003:00000bf8       ??_C@_0BL@MDJP@battle?5retreat?3?5lost?5enemy?$AA@ 2003dbf8     ai_dmnet.obj
 0003:00000c14       ??_C@_0BP@MFKK@battle?5retreat?3?5wants?5to?5chase?$AA@ 2003dc14     ai_dmnet.obj
 0003:00000c34       ??_C@_0BL@CAOM@battle?5retreat?3?5enemy?5dead?$AA@ 2003dc34     ai_dmnet.obj
 0003:00000c50       ??_C@_0BJ@KPOJ@battle?5retreat?3?5no?5enemy?$AA@ 2003dc50     ai_dmnet.obj
 0003:00000c6c       ??_C@_0BJ@PBIB@battle?5retreat?3?5bot?5dead?$AA@ 2003dc6c     ai_dmnet.obj
 0003:00000c88       ??_C@_0BN@DFLI@battle?5retreat?3?5intermission?$AA@ 2003dc88     ai_dmnet.obj
 0003:00000ca8       ??_C@_0BJ@KILP@battle?5retreat?3?5observer?$AA@ 2003dca8     ai_dmnet.obj
 0003:00000cc4       ??_C@_0L@KINA@battle?5NBG?$AA@ 2003dcc4     ai_dmnet.obj
 0003:00000cd0       ??_C@_0BF@CJPC@battle?5nbg?3?5time?5out?$AA@ 2003dcd0     ai_dmnet.obj
 0003:00000ce8       ??_C@_0BH@MFEB@battle?5nbg?3?5enemy?5dead?$AA@ 2003dce8     ai_dmnet.obj
 0003:00000d00       ??_C@_0BF@IFII@battle?5nbg?3?5no?5enemy?$AA@ 2003dd00     ai_dmnet.obj
 0003:00000d18       ??_C@_0BF@NLOA@battle?5nbg?3?5bot?5dead?$AA@ 2003dd18     ai_dmnet.obj
 0003:00000d30       ??_C@_0BJ@BGKJ@battle?5nbg?3?5intermission?$AA@ 2003dd30     ai_dmnet.obj
 0003:00000d4c       ??_C@_0BF@ICNO@battle?5nbg?3?5observer?$AA@ 2003dd4c     ai_dmnet.obj
 0003:00000d94       ??_C@_02ELCB@no?$AA@       2003dd94     ai_dmq3.obj
 0003:00000d98       ??_C@_08GAOJ@onfollow?$AA@ 2003dd98     ai_dmq3.obj
 0003:00000da4       ??_C@_09DOOP@ihaveflag?$AA@ 2003dda4     ai_dmq3.obj
 0003:00000db0       ??_C@_08PDLF@teamtask?$AA@ 2003ddb0     ai_dmq3.obj
 0003:00000dbc       ??_C@_02MECO@?$CFd?$AA@    2003ddbc     ai_dmq3.obj
 0003:00000dc0       ??_C@_0BG@NLCE@?$FLclient?5out?5of?5range?$FN?$AA@ 2003ddc0     ai_dmq3.obj
 0003:00000dd8       ??_C@_0CB@HAIP@ClientName?3?5client?5out?5of?5range?6@ 2003ddd8     ai_dmq3.obj
 0003:00000dfc       ??_C@_05LHJL@model?$AA@    2003ddfc     ai_dmq3.obj
 0003:00000e04       ??_C@_01FIMD@?$FN?$AA@     2003de04     ai_dmq3.obj
 0003:00000e08       ??_C@_01KHLB@?$FL?$AA@     2003de08     ai_dmq3.obj
 0003:00000e0c       ??_C@_01FCOA@?5?$AA@       2003de0c     ai_dmq3.obj
 0003:00000e10       ??_C@_0CF@OPMB@BotCreateWayPoint?3?5Out?5of?5waypoi@ 2003de10     ai_dmq3.obj
 0003:00000e38       ??_C@_0N@HAMJ@mpq3tourney6?$AA@ 2003de38     ai_dmq3.obj
 0003:00000e48       ??_C@_0L@FINL@q3tourney6?$AA@ 2003de48     ai_dmq3.obj
 0003:00000e54       ??_C@_06HECL@health?$AA@   2003de54     ai_dmq3.obj
 0003:00000e5c       ??_C@_05LIJM@angle?$AA@    2003de5c     ai_dmq3.obj
 0003:00000e64       ??_C@_03JNMJ@lip?$AA@      2003de64     ai_dmq3.obj
 0003:00000e68       ??_C@_0N@OJKH@target_delay?$AA@ 2003de68     ai_dmq3.obj
 0003:00000e78       ??_C@_0N@CLCN@target_relay?$AA@ 2003de78     ai_dmq3.obj
 0003:00000e88       ??_C@_0L@JLGK@func_timer?$AA@ 2003de88     ai_dmq3.obj
 0003:00000e94       ??_C@_0BB@HNOL@trigger_multiple?$AA@ 2003de94     ai_dmq3.obj
 0003:00000ea8       ??_C@_0DO@DDMN@BotGetActivateGoal?3?5entity?5with?5@ 2003dea8     ai_dmq3.obj
 0003:00000ee8       ??_C@_0DA@GLKL@BotGetActivateGoal?3?5no?5entity?5wi@ 2003dee8     ai_dmq3.obj
 0003:00000f18       ??_C@_06CCPD@target?$AA@   2003df18     ai_dmq3.obj
 0003:00000f20       ??_C@_0DO@KBFM@BotGetActivateGoal?3?5entity?5with?5@ 2003df20     ai_dmq3.obj
 0003:00000f60       ??_C@_0L@PMO@targetname?$AA@ 2003df60     ai_dmq3.obj
 0003:00000f6c       ??_C@_0M@BFDL@func_button?$AA@ 2003df6c     ai_dmq3.obj
 0003:00000f78       ??_C@_06NOHF@origin?$AA@   2003df78     ai_dmq3.obj
 0003:00000f80       ??_C@_0L@CANC@spawnflags?$AA@ 2003df80     ai_dmq3.obj
 0003:00000f8c       ??_C@_09HMCI@func_door?$AA@ 2003df8c     ai_dmq3.obj
 0003:00000f98       ??_C@_0DL@EAEK@BotGetActivateGoal?3?5entity?5with?5@ 2003df98     ai_dmq3.obj
 0003:00000fd4       ??_C@_09JDJH@classname?$AA@ 2003dfd4     ai_dmq3.obj
 0003:00000fe0       ??_C@_0DD@CAHE@BotGetActivateGoal?3?5no?5entity?5fo@ 2003dfe0     ai_dmq3.obj
 0003:00001014       ??_C@_03LCGD@?$CK?$CFd?$AA@ 2003e014     ai_dmq3.obj
 0003:00001018       ??_C@_0BF@KENH@BotGoForActivateGoal?$AA@ 2003e018     ai_dmq3.obj
 0003:00001030       ??_C@_0CE@FFHL@BotCheckConsoleMessages?3?5reply?5c@ 2003e030     ai_dmq3.obj
 0003:00001054       ??_C@_0BK@CEGG@?$CK?$CK?$CK?$CK?5no?5valid?5reply?5?$CK?$CK?$CK?$CK?6?$AA@ 2003e054     ai_dmq3.obj
 0003:00001070       ??_C@_0BK@GDPA@?9?9?9?9?9?9?9?9?9?9?9?9?9?9?9?9?9?9?9?9?9?9?9?9?6?$AA@ 2003e070     ai_dmq3.obj
 0003:0000108c       ??_C@_0O@OJLM@bot_testrchat?$AA@ 2003e08c     ai_dmq3.obj
 0003:0000109c       ??_C@_01FBAH@1?$AA@        2003e09c     ai_dmq3.obj
 0003:000010a0       ??_C@_0CP@IKFA@EV_GENERAL_SOUND?3?5eventParm?5?$CI?$CFd?$CJ@ 2003e0a0     ai_dmq3.obj
 0003:000010d0       ??_C@_0O@IAAP@?$CKfalling1?4wav?$AA@ 2003e0d0     ai_dmq3.obj
 0003:000010e0       ??_C@_0CO@IIPO@EV_GLOBAL_SOUND?3?5eventParm?5?$CI?$CFd?$CJ?5@ 2003e0e0     ai_dmq3.obj
 0003:00001110       ??_C@_0BP@BAMJ@sound?1items?1poweruprespawn?4wav?$AA@ 2003e110     ai_dmq3.obj
 0003:00001130       ??_C@_0CB@HNNA@BotDeathmatchAI?3?5chat?5enter?5game@ 2003e130     ai_dmq3.obj
 0003:00001154       ??_C@_0BM@MCBP@BotDeathmatchAI?3?5no?5ai?5node?$AA@ 2003e154     ai_dmq3.obj
 0003:00001170       ??_C@_07IIAF@team?5?$CFs?$AA@ 2003e170     ai_dmq3.obj
 0003:00001178       ??_C@_03CJDB@sex?$AA@      2003e178     ai_dmq3.obj
 0003:0000117c       ??_C@_0BH@FFNE@CTF?5without?5Blue?5Flag?6?$AA@ 2003e17c     ai_dmq3.obj
 0003:00001194       ??_C@_0BG@FKFD@CTF?5without?5Red?5Flag?6?$AA@ 2003e194     ai_dmq3.obj
 0003:000011ac       ??_C@_09DOO@g_spSkill?$AA@ 2003e1ac     ai_dmq3.obj
 0003:000011b8       ??_C@_01KOLO@2?$AA@        2003e1b8     ai_dmq3.obj
 0003:000011bc       ??_C@_0BF@PKNE@bot_predictobstacles?$AA@ 2003e1bc     ai_dmq3.obj
 0003:000011d4       ??_C@_0O@GMHH@bot_challenge?$AA@ 2003e1d4     ai_dmq3.obj
 0003:000011e4       ??_C@_0L@PHPD@bot_nochat?$AA@ 2003e1e4     ai_dmq3.obj
 0003:000011f0       ??_C@_0N@EJK@bot_fastchat?$AA@ 2003e1f0     ai_dmq3.obj
 0003:00001200       ??_C@_0M@KMHN@bot_grapple?$AA@ 2003e200     ai_dmq3.obj
 0003:0000120c       ??_C@_01PLJA@0?$AA@        2003e20c     ai_dmq3.obj
 0003:00001210       ??_C@_0P@JABN@bot_rocketjump?$AA@ 2003e210     ai_dmq3.obj
 0003:00001220       ??_C@_0L@IEJM@g_gametype?$AA@ 2003e220     ai_dmq3.obj
 0003:0000122c       ??_C@_0BE@FAGB@unknown?5print?5type?6?$AA@ 2003e22c     ai_main.obj
 0003:00001240       ??_C@_0L@PKFH@?$FO1Exit?3?5?$CFs?$AA@ 2003e240     ai_main.obj
 0003:0000124c       ??_C@_0M@PGBK@?$FO1Fatal?3?5?$CFs?$AA@ 2003e24c     ai_main.obj
 0003:00001258       ??_C@_0M@BOEE@?$FO1Error?3?5?$CFs?$AA@ 2003e258     ai_main.obj
 0003:00001264       ??_C@_0O@MADG@?$FO3Warning?3?5?$CFs?$AA@ 2003e264     ai_main.obj
 0003:00001274       ??_C@_02DILL@?$CFs?$AA@    2003e274     ai_main.obj
 0003:00001278       ??_C@_0BM@HKP@?$ANarea?5?$CFd?0?5cluster?5?$CFd?5?5?5?5?5?5?5?$AA@ 2003e278     ai_main.obj
 0003:00001294       ??_C@_0CI@BGOA@?$AN?$FO1Solid?$CB?5?5?5?5?5?5?5?5?5?5?5?5?5?5?5?5?5?5?5?5?5?5?5@ 2003e294     ai_main.obj
 0003:000012bc       ??_C@_0O@CAKJ@?$AN?$FO1SOLID?5area?$AA@ 2003e2bc     ai_main.obj
 0003:000012cc       ??_C@_0M@NBLC@?$ANemtpy?5area?$AA@ 2003e2cc     ai_main.obj
 0003:000012d8       ??_C@_02IHLC@?5?5?$AA@     2003e2d8     ai_main.obj
 0003:000012dc       ??_C@_01FLCE@L?$AA@        2003e2dc     ai_main.obj
 0003:000012e0       ??_C@_0P@EPGP@l?2?$CFs?2c?2?$CFs?2a?2?$CFs?$AA@ 2003e2e0     ai_main.obj
 0003:000012f0       ??_C@_0L@OKJH@roaming?5?$CFs?$AA@ 2003e2f0     ai_main.obj
 0003:000012fc       ??_C@_0L@NOLF@harvesting?$AA@ 2003e2fc     ai_main.obj
 0003:00001308       ??_C@_0BJ@PEAP@attacking?5the?5enemy?5base?$AA@ 2003e308     ai_main.obj
 0003:00001324       ??_C@_0P@ECK@returning?5flag?$AA@ 2003e324     ai_main.obj
 0003:00001334       ??_C@_0N@FOJL@rushing?5base?$AA@ 2003e334     ai_main.obj
 0003:00001344       ??_C@_0P@CJFD@capturing?5flag?$AA@ 2003e344     ai_main.obj
 0003:00001354       ??_C@_0L@GNKG@killing?5?$CFs?$AA@ 2003e354     ai_main.obj
 0003:00001360       ??_C@_0BA@EANM@getting?5item?5?$CFs?$AA@ 2003e360     ai_main.obj
 0003:00001370       ??_C@_0N@JOAO@defending?5?$CFs?$AA@ 2003e370     ai_main.obj
 0003:00001380       ??_C@_0BA@IKOM@accompanying?5?$CFs?$AA@ 2003e380     ai_main.obj
 0003:00001390       ??_C@_0L@MBCA@helping?5?$CFs?$AA@ 2003e390     ai_main.obj
 0003:0000139c       ??_C@_02IPLK@F?5?$AA@      2003e39c     ai_main.obj
 0003:000013a0       ??_C@_0BE@DGLD@bot_interbreedwrite?$AA@ 2003e3a0     ai_main.obj
 0003:000013b4       ??_C@_0BD@MHOO@bot_interbreedchar?$AA@ 2003e3b4     ai_main.obj
 0003:000013c8       ??_C@_0BK@MPHC@addbot?5?$CFs?54?5free?5?$CFi?5?$CFs?$CFd?6?$AA@ 2003e3c8     ai_main.obj
 0003:000013e4       ??_C@_0BF@KLBA@bot_reloadcharacters?$AA@ 2003e3e4     ai_main.obj
 0003:000013fc       ??_C@_0BP@CGBK@BotAI?3?5client?5?$CFd?5is?5not?5setup?6?$AA@ 2003e3fc     ai_main.obj
 0003:0000141c       ??_C@_0BA@OGON@clientLevelShot?$AA@ 2003e41c     ai_main.obj
 0003:0000142c       ??_C@_06CLLB@scores?$AA@   2003e42c     ai_main.obj
 0003:00001434       ??_C@_05NEJE@tchat?$AA@    2003e434     ai_main.obj
 0003:0000143c       ??_C@_04FLKK@chat?$AA@     2003e43c     ai_main.obj
 0003:00001444       ??_C@_05KCGF@print?$AA@    2003e444     ai_main.obj
 0003:0000144c       ??_C@_02OFOB@cs?$AA@       2003e44c     ai_main.obj
 0003:00001450       ??_C@_03HGPK@cp?5?$AA@     2003e450     ai_main.obj
 0003:00001454       ??_C@_0N@EHJA@botsession?$CFi?$AA@ 2003e454     ai_main.obj
 0003:00001464       ??_C@_0DD@JGJ@?$CFi?5?$CFi?5?$CFi?5?$CFi?5?$CFi?5?$CFi?5?$CFi?5?$CFi?5?$CFf?5?$CFf?5?$CFf@ 2003e464     ai_main.obj
 0003:00001498       ??_C@_0O@KKM@bot_testichat?$AA@ 2003e498     ai_main.obj
 0003:000014a8       ??_C@_0CA@HCCD@couldn?8t?5load?5skill?5?$CFf?5from?5?$CFs?6?$AA@ 2003e4a8     ai_main.obj
 0003:000014c8       ??_C@_0BF@DKHA@AAS?5not?5initialized?6?$AA@ 2003e4c8     ai_main.obj
 0003:000014e0       ??_C@_0CL@CIIC@BotAISetupClient?3?5client?5?$CFd?5alre@ 2003e4e0     ai_main.obj
 0003:0000150c       ??_C@_0O@GOAJ@bot_thinktime?$AA@ 2003e50c     ai_main.obj
 0003:0000151c       ??_C@_03IDPJ@200?$AA@      2003e51c     ai_main.obj
 0003:00001520       ??_C@_0BF@LIBI@bot_saveroutingcache?$AA@ 2003e520     ai_main.obj
 0003:00001538       ??_C@_0BB@BODP@saveroutingcache?$AA@ 2003e538     ai_main.obj
 0003:0000154c       ??_C@_0P@GPE@bot_memorydump?$AA@ 2003e54c     ai_main.obj
 0003:0000155c       ??_C@_0L@HHKE@memorydump?$AA@ 2003e55c     ai_main.obj
 0003:00001568       ??_C@_05NOEM@cddir?$AA@    2003e568     ai_main.obj
 0003:00001570       ??_C@_09MOEB@fs_cdpath?$AA@ 2003e570     ai_main.obj
 0003:0000157c       ??_C@_07MNHC@gamedir?$AA@  2003e57c     ai_main.obj
 0003:00001584       ??_C@_07CCMH@fs_game?$AA@  2003e584     ai_main.obj
 0003:0000158c       ??_C@_07JKBB@basedir?$AA@  2003e58c     ai_main.obj
 0003:00001594       ??_C@_0M@CIA@fs_basepath?$AA@ 2003e594     ai_main.obj
 0003:000015a0       ??_C@_0M@GINN@aasoptimize?$AA@ 2003e5a0     ai_main.obj
 0003:000015ac       ??_C@_0BA@IDKM@bot_aasoptimize?$AA@ 2003e5ac     ai_main.obj
 0003:000015bc       ??_C@_0L@JKLN@forcewrite?$AA@ 2003e5bc     ai_main.obj
 0003:000015c8       ??_C@_0P@OLON@bot_forcewrite?$AA@ 2003e5c8     ai_main.obj
 0003:000015d8       ??_C@_0BC@FEKN@forcereachability?$AA@ 2003e5d8     ai_main.obj
 0003:000015ec       ??_C@_0BG@ICAL@bot_forcereachability?$AA@ 2003e5ec     ai_main.obj
 0003:00001604       ??_C@_0BA@FICF@forceclustering?$AA@ 2003e604     ai_main.obj
 0003:00001614       ??_C@_0BE@HPCF@bot_forceclustering?$AA@ 2003e614     ai_main.obj
 0003:00001628       ??_C@_0BG@MPGF@bot_visualizejumppads?$AA@ 2003e628     ai_main.obj
 0003:00001640       ??_C@_06DLEI@nochat?$AA@   2003e640     ai_main.obj
 0003:00001648       ??_C@_03BGKD@log?$AA@      2003e648     ai_main.obj
 0003:0000164c       ??_C@_0O@POCA@bot_developer?$AA@ 2003e64c     ai_main.obj
 0003:0000165c       ??_C@_0P@GPPK@max_levelitems?$AA@ 2003e65c     ai_main.obj
 0003:0000166c       ??_C@_0N@LKAP@max_aaslinks?$AA@ 2003e66c     ai_main.obj
 0003:0000167c       ??_C@_0P@FLOG@sv_mapChecksum?$AA@ 2003e67c     ai_main.obj
 0003:0000168c       ??_C@_0M@NLOP@maxentities?$AA@ 2003e68c     ai_main.obj
 0003:00001698       ??_C@_0L@IGMM@maxclients?$AA@ 2003e698     ai_main.obj
 0003:000016a4       ??_C@_01KPCI@8?$AA@        2003e6a4     ai_main.obj
 0003:000016a8       ??_C@_0BE@BKHA@bot_interbreedcycle?$AA@ 2003e6a8     ai_main.obj
 0003:000016bc       ??_C@_02GJDO@20?$AA@       2003e6bc     ai_main.obj
 0003:000016c0       ??_C@_0BD@NAOD@bot_interbreedbots?$AA@ 2003e6c0     ai_main.obj
 0003:000016d4       ??_C@_02FCMB@10?$AA@       2003e6d4     ai_main.obj
 0003:000016d8       ??_C@_0BB@HEAB@bot_testclusters?$AA@ 2003e6d8     ai_main.obj
 0003:000016ec       ??_C@_0O@KCDP@bot_testsolid?$AA@ 2003e6ec     ai_main.obj
 0003:000016fc       ??_C@_0L@MCPA@bot_report?$AA@ 2003e6fc     ai_main.obj
 0003:00001708       ??_C@_09EKMD@bot_pause?$AA@ 2003e708     ai_main.obj
 0003:00001714       ??_C@_03HFMC@100?$AA@      2003e714     ai_main.obj
 0003:00001718       ??_C@_0M@DPHC@?$BJ?$CI?$CFs?$BJ?$CJ?$BJ?3?5?$CFs?$AA@ 2003e718     ai_team.obj
 0003:00001724       ??_C@_0L@MJBL@returnflag?$AA@ 2003e724     ai_team.obj
 0003:00001730       ??_C@_07NLAE@getflag?$AA@  2003e730     ai_team.obj
 0003:00001738       ??_C@_0M@DCEB@cmd_getflag?$AA@ 2003e738     ai_team.obj
 0003:00001744       ??_C@_0BC@MPEC@followflagcarrier?$AA@ 2003e744     ai_team.obj
 0003:00001758       ??_C@_0O@CPMP@cmd_accompany?$AA@ 2003e758     ai_team.obj
 0003:00001768       ??_C@_0BA@DHII@cmd_accompanyme?$AA@ 2003e768     ai_team.obj
 0003:00001778       ??_C@_06LLPL@defend?$AA@   2003e778     ai_team.obj
 0003:00001780       ??_C@_0P@KOKO@cmd_defendbase?$AA@ 2003e780     ai_team.obj
 0003:00001790       ??_C@_0M@OJDM@startleader?$AA@ 2003e790     ai_team.obj
 0003:0000179c       ??_C@_0O@IMJL@iamteamleader?$AA@ 2003e79c     ai_team.obj
 0003:000017ac       ??_C@_0BA@IG@whoisteamleader?$AA@ 2003e7ac     ai_team.obj
 0003:000017c0       _voiceCommands             2003e7c0     ai_vcmd.obj
 0003:00001838       ??_C@_0O@JNKM@wantonoffense?$AA@ 2003e838     ai_vcmd.obj
 0003:00001848       ??_C@_0O@CEFP@wantondefense?$AA@ 2003e848     ai_vcmd.obj
 0003:00001858       ??_C@_0M@LDML@whoisleader?$AA@ 2003e858     ai_vcmd.obj
 0003:00001864       ??_C@_0L@NNKC@stopleader?$AA@ 2003e864     ai_vcmd.obj
 0003:00001870       ??_C@_04NMKL@camp?$AA@     2003e870     ai_vcmd.obj
 0003:00001878       ??_C@_06PFHA@patrol?$AA@   2003e878     ai_vcmd.obj
 0003:00001880       ??_C@_0L@OLP@defendflag?$AA@ 2003e880     ai_vcmd.obj
 0003:0000188c       ??_C@_07IKFP@offense?$AA@  2003e88c     ai_vcmd.obj
 0003:00001894       ??_C@_08KGLG@onpatrol?$AA@ 2003e894     ai_vcmd.obj
 0003:000018a0       _bg_itemlist               2003e8a0     bg_misc.obj
 0003:00002024       _bg_numItems               2003f024     bg_misc.obj
 0003:00002028       _eventnames                2003f028     bg_misc.obj
 0003:0000213c       ??_C@_08DFDJ@EV_TAUNT?$AA@ 2003f13c     bg_misc.obj
 0003:00002148       ??_C@_0BE@BDJC@EV_STOPLOOPINGSOUND?$AA@ 2003f148     bg_misc.obj
 0003:0000215c       ??_C@_0O@BDBB@EV_DEBUG_LINE?$AA@ 2003f15c     bg_misc.obj
 0003:0000216c       ??_C@_0N@CDHP@EV_SCOREPLUM?$AA@ 2003f16c     bg_misc.obj
 0003:0000217c       ??_C@_0O@CIDG@EV_GIB_PLAYER?$AA@ 2003f17c     bg_misc.obj
 0003:0000218c       ??_C@_0BB@LKNF@EV_POWERUP_REGEN?$AA@ 2003f18c     bg_misc.obj
 0003:000021a0       ??_C@_0BG@KJJ@EV_POWERUP_BATTLESUIT?$AA@ 2003f1a0     bg_misc.obj
 0003:000021b8       ??_C@_0BA@EMDG@EV_POWERUP_QUAD?$AA@ 2003f1b8     bg_misc.obj
 0003:000021c8       ??_C@_0M@MMOI@EV_OBITUARY?$AA@ 2003f1c8     bg_misc.obj
 0003:000021d4       ??_C@_09EH@EV_DEATH3?$AA@  2003f1d4     bg_misc.obj
 0003:000021e0       ??_C@_09KKNA@EV_DEATH2?$AA@ 2003f1e0     bg_misc.obj
 0003:000021ec       ??_C@_09FFGJ@EV_DEATH1?$AA@ 2003f1ec     bg_misc.obj
 0003:000021f8       ??_C@_07MFPI@EV_PAIN?$AA@  2003f1f8     bg_misc.obj
 0003:00002200       ??_C@_09PBG@EV_BULLET?$AA@ 2003f200     bg_misc.obj
 0003:0000220c       ??_C@_0L@PELA@EV_SHOTGUN?$AA@ 2003f20c     bg_misc.obj
 0003:00002218       ??_C@_0N@FBDJ@EV_RAILTRAIL?$AA@ 2003f218     bg_misc.obj
 0003:00002228       ??_C@_0BG@KLM@EV_MISSILE_MISS_METAL?$AA@ 2003f228     bg_misc.obj
 0003:00002240       ??_C@_0BA@FHCK@EV_MISSILE_MISS?$AA@ 2003f240     bg_misc.obj
 0003:00002250       ??_C@_0P@GMEB@EV_MISSILE_HIT?$AA@ 2003f250     bg_misc.obj
 0003:00002260       ??_C@_0BD@FCGB@EV_BULLET_HIT_WALL?$AA@ 2003f260     bg_misc.obj
 0003:00002274       ??_C@_0BE@OJNL@EV_BULLET_HIT_FLESH?$AA@ 2003f274     bg_misc.obj
 0003:00002288       ??_C@_0BF@GBCB@EV_GLOBAL_TEAM_SOUND?$AA@ 2003f288     bg_misc.obj
 0003:000022a0       ??_C@_0BA@DICP@EV_GLOBAL_SOUND?$AA@ 2003f2a0     bg_misc.obj
 0003:000022b0       ??_C@_0BB@PHBP@EV_GENERAL_SOUND?$AA@ 2003f2b0     bg_misc.obj
 0003:000022c4       ??_C@_0BC@MNAB@EV_GRENADE_BOUNCE?$AA@ 2003f2c4     bg_misc.obj
 0003:000022d8       ??_C@_0BH@CBAJ@EV_PLAYER_TELEPORT_OUT?$AA@ 2003f2d8     bg_misc.obj
 0003:000022f0       ??_C@_0BG@JACO@EV_PLAYER_TELEPORT_IN?$AA@ 2003f2f0     bg_misc.obj
 0003:00002308       ??_C@_0M@FEGJ@EV_ITEM_POP?$AA@ 2003f308     bg_misc.obj
 0003:00002314       ??_C@_0BA@KOE@EV_ITEM_RESPAWN?$AA@ 2003f314     bg_misc.obj
 0003:00002324       ??_C@_0O@PBJJ@EV_USE_ITEM15?$AA@ 2003f324     bg_misc.obj
 0003:00002334       ??_C@_0O@FLAO@EV_USE_ITEM14?$AA@ 2003f334     bg_misc.obj
 0003:00002344       ??_C@_0O@OOL@EV_USE_ITEM13?$AA@ 2003f344     bg_misc.obj
 0003:00002354       ??_C@_0O@KEHM@EV_USE_ITEM12?$AA@ 2003f354     bg_misc.obj
 0003:00002364       ??_C@_0O@FLMF@EV_USE_ITEM11?$AA@ 2003f364     bg_misc.obj
 0003:00002374       ??_C@_0O@PBFC@EV_USE_ITEM10?$AA@ 2003f374     bg_misc.obj
 0003:00002384       ??_C@_0N@JGCE@EV_USE_ITEM9?$AA@ 2003f384     bg_misc.obj
 0003:00002394       ??_C@_0N@DMLD@EV_USE_ITEM8?$AA@ 2003f394     bg_misc.obj
 0003:000023a4       ??_C@_0N@DNOO@EV_USE_ITEM7?$AA@ 2003f3a4     bg_misc.obj
 0003:000023b4       ??_C@_0N@JHHJ@EV_USE_ITEM6?$AA@ 2003f3b4     bg_misc.obj
 0003:000023c4       ??_C@_0N@GIMA@EV_USE_ITEM5?$AA@ 2003f3c4     bg_misc.obj
 0003:000023d4       ??_C@_0N@MCFH@EV_USE_ITEM4?$AA@ 2003f3d4     bg_misc.obj
 0003:000023e4       ??_C@_0N@JHLC@EV_USE_ITEM3?$AA@ 2003f3e4     bg_misc.obj
 0003:000023f4       ??_C@_0N@DNCF@EV_USE_ITEM2?$AA@ 2003f3f4     bg_misc.obj
 0003:00002404       ??_C@_0N@MCJM@EV_USE_ITEM1?$AA@ 2003f404     bg_misc.obj
 0003:00002414       ??_C@_0N@GIAL@EV_USE_ITEM0?$AA@ 2003f414     bg_misc.obj
 0003:00002424       ??_C@_0P@HOLG@EV_FIRE_WEAPON?$AA@ 2003f424     bg_misc.obj
 0003:00002434       ??_C@_0BB@OKAK@EV_CHANGE_WEAPON?$AA@ 2003f434     bg_misc.obj
 0003:00002448       ??_C@_09MIBL@EV_NOAMMO?$AA@ 2003f448     bg_misc.obj
 0003:00002454       ??_C@_0BG@LBJI@EV_GLOBAL_ITEM_PICKUP?$AA@ 2003f454     bg_misc.obj
 0003:0000246c       ??_C@_0P@DDBJ@EV_ITEM_PICKUP?$AA@ 2003f46c     bg_misc.obj
 0003:0000247c       ??_C@_0P@HGEE@EV_WATER_CLEAR?$AA@ 2003f47c     bg_misc.obj
 0003:0000248c       ??_C@_0P@PGNG@EV_WATER_UNDER?$AA@ 2003f48c     bg_misc.obj
 0003:0000249c       ??_C@_0P@KHGF@EV_WATER_LEAVE?$AA@ 2003f49c     bg_misc.obj
 0003:000024ac       ??_C@_0P@NPME@EV_WATER_TOUCH?$AA@ 2003f4ac     bg_misc.obj
 0003:000024bc       ??_C@_07MBMN@EV_JUMP?$AA@  2003f4bc     bg_misc.obj
 0003:000024c4       ??_C@_0M@ONMG@EV_JUMP_PAD?$AA@ 2003f4c4     bg_misc.obj
 0003:000024d0       ??_C@_0M@FCFB@EV_FALL_FAR?$AA@ 2003f4d0     bg_misc.obj
 0003:000024dc       ??_C@_0P@DAAM@EV_FALL_MEDIUM?$AA@ 2003f4dc     bg_misc.obj
 0003:000024ec       ??_C@_0O@MOHH@EV_FALL_SHORT?$AA@ 2003f4ec     bg_misc.obj
 0003:000024fc       ??_C@_0L@BPHB@EV_STEP_16?$AA@ 2003f4fc     bg_misc.obj
 0003:00002508       ??_C@_0L@LFCN@EV_STEP_12?$AA@ 2003f508     bg_misc.obj
 0003:00002514       ??_C@_09GNLK@EV_STEP_8?$AA@ 2003f514     bg_misc.obj
 0003:00002520       ??_C@_09JDFO@EV_STEP_4?$AA@ 2003f520     bg_misc.obj
 0003:0000252c       ??_C@_07JIKK@EV_SWIM?$AA@  2003f52c     bg_misc.obj
 0003:00002534       ??_C@_0M@FIHK@EV_FOOTWADE?$AA@ 2003f534     bg_misc.obj
 0003:00002540       ??_C@_0O@KHFI@EV_FOOTSPLASH?$AA@ 2003f540     bg_misc.obj
 0003:00002550       ??_C@_0BC@OEIA@EV_FOOTSTEP_METAL?$AA@ 2003f550     bg_misc.obj
 0003:00002564       ??_C@_0M@EJAF@EV_FOOTSTEP?$AA@ 2003f564     bg_misc.obj
 0003:00002570       ??_C@_07NDDD@EV_NONE?$AA@  2003f570     bg_misc.obj
 0003:00002578       ??_C@_0BB@NLLL@icons?1iconf_blu1?$AA@ 2003f578     bg_misc.obj
 0003:0000258c       ??_C@_0BI@ILPD@models?1flags?1b_flag?4md3?$AA@ 2003f58c     bg_misc.obj
 0003:000025a4       ??_C@_0BC@GPLF@team_CTF_blueflag?$AA@ 2003f5a4     bg_misc.obj
 0003:000025b8       ??_C@_0BB@DADK@icons?1iconf_red1?$AA@ 2003f5b8     bg_misc.obj
 0003:000025cc       ??_C@_0BI@HHNH@models?1flags?1r_flag?4md3?$AA@ 2003f5cc     bg_misc.obj
 0003:000025e4       ??_C@_0BB@FOCB@team_CTF_redflag?$AA@ 2003f5e4     bg_misc.obj
 0003:000025f8       ??_C@_0N@DFIJ@icons?1flight?$AA@ 2003f5f8     bg_misc.obj
 0003:00002608       ??_C@_0CI@PHJ@models?1powerups?1instant?1flight_r@ 2003f608     bg_misc.obj
 0003:00002630       ??_C@_0CD@MKAO@models?1powerups?1instant?1flight?4m@ 2003f630     bg_misc.obj
 0003:00002654       ??_C@_0BH@FEAN@sound?1items?1flight?4wav?$AA@ 2003f654     bg_misc.obj
 0003:0000266c       ??_C@_0M@NKLB@item_flight?$AA@ 2003f66c     bg_misc.obj
 0003:00002678       ??_C@_0BG@JFPE@sound?1items?1regen?4wav?$AA@ 2003f678     bg_misc.obj
 0003:00002690       ??_C@_0M@KGFF@icons?1regen?$AA@ 2003f690     bg_misc.obj
 0003:0000269c       ??_C@_0CH@LMHA@models?1powerups?1instant?1regen_ri@ 2003f69c     bg_misc.obj
 0003:000026c4       ??_C@_0CC@JDKK@models?1powerups?1instant?1regen?4md@ 2003f6c4     bg_misc.obj
 0003:000026e8       ??_C@_0BN@ELHM@sound?1items?1regeneration?4wav?$AA@ 2003f6e8     bg_misc.obj
 0003:00002708       ??_C@_0L@JOKD@item_regen?$AA@ 2003f708     bg_misc.obj
 0003:00002714       ??_C@_0M@GBKC@icons?1invis?$AA@ 2003f714     bg_misc.obj
 0003:00002720       ??_C@_0CH@FMDJ@models?1powerups?1instant?1invis_ri@ 2003f720     bg_misc.obj
 0003:00002748       ??_C@_0CC@GFDH@models?1powerups?1instant?1invis?4md@ 2003f748     bg_misc.obj
 0003:0000276c       ??_C@_0BN@JBDA@sound?1items?1invisibility?4wav?$AA@ 2003f76c     bg_misc.obj
 0003:0000278c       ??_C@_0L@FJFE@item_invis?$AA@ 2003f78c     bg_misc.obj
 0003:00002798       ??_C@_0M@MOBK@icons?1haste?$AA@ 2003f798     bg_misc.obj
 0003:000027a4       ??_C@_0CH@HLNN@models?1powerups?1instant?1haste_ri@ 2003f7a4     bg_misc.obj
 0003:000027cc       ??_C@_0CC@HMKI@models?1powerups?1instant?1haste?4md@ 2003f7cc     bg_misc.obj
 0003:000027f0       ??_C@_0BG@HKPG@sound?1items?1haste?4wav?$AA@ 2003f7f0     bg_misc.obj
 0003:00002808       ??_C@_0L@PGOM@item_haste?$AA@ 2003f808     bg_misc.obj
 0003:00002814       ??_C@_0DA@KGOL@sound?1items?1airout?4wav?5sound?1ite@ 2003f814     bg_misc.obj
 0003:00002844       ??_C@_0BB@LIEJ@icons?1envirosuit?$AA@ 2003f844     bg_misc.obj
 0003:00002858       ??_C@_0CI@BLEN@models?1powerups?1instant?1enviro_r@ 2003f858     bg_misc.obj
 0003:00002880       ??_C@_0CD@EJAP@models?1powerups?1instant?1enviro?4m@ 2003f880     bg_misc.obj
 0003:000028a4       ??_C@_0BI@LHNB@sound?1items?1protect?4wav?$AA@ 2003f8a4     bg_misc.obj
 0003:000028bc       ??_C@_0M@CNAP@item_enviro?$AA@ 2003f8bc     bg_misc.obj
 0003:000028c8       ??_C@_0DA@MMGJ@sound?1items?1damage2?4wav?5sound?1it@ 2003f8c8     bg_misc.obj
 0003:000028f8       ??_C@_0L@CMEC@icons?1quad?$AA@ 2003f8f8     bg_misc.obj
 0003:00002904       ??_C@_0CG@HCKJ@models?1powerups?1instant?1quad_rin@ 2003f904     bg_misc.obj
 0003:0000292c       ??_C@_0CB@LCDA@models?1powerups?1instant?1quad?4md3@ 2003f92c     bg_misc.obj
 0003:00002950       ??_C@_0BL@FBJD@sound?1items?1quaddamage?4wav?$AA@ 2003f950     bg_misc.obj
 0003:0000296c       ??_C@_09NKAN@item_quad?$AA@ 2003f96c     bg_misc.obj
 0003:00002978       ??_C@_0BL@LIGH@sound?1items?1use_medkit?4wav?$AA@ 2003f978     bg_misc.obj
 0003:00002994       ??_C@_06MJBN@Medkit?$AA@   2003f994     bg_misc.obj
 0003:0000299c       ??_C@_0N@NDKI@icons?1medkit?$AA@ 2003f99c     bg_misc.obj
 0003:000029ac       ??_C@_0CL@EEMI@models?1powerups?1holdable?1medkit_@ 2003f9ac     bg_misc.obj
 0003:000029d8       ??_C@_0CE@BLCG@models?1powerups?1holdable?1medkit?4@ 2003f9d8     bg_misc.obj
 0003:000029fc       ??_C@_0BA@HJCK@holdable_medkit?$AA@ 2003f9fc     bg_misc.obj
 0003:00002a0c       ??_C@_0BE@NHOP@Personal?5Teleporter?$AA@ 2003fa0c     bg_misc.obj
 0003:00002a20       ??_C@_0BB@EOIF@icons?1teleporter?$AA@ 2003fa20     bg_misc.obj
 0003:00002a34       ??_C@_0CI@EJIK@models?1powerups?1holdable?1telepor@ 2003fa34     bg_misc.obj
 0003:00002a5c       ??_C@_0BJ@PMCF@sound?1items?1holdable?4wav?$AA@ 2003fa5c     bg_misc.obj
 0003:00002a78       ??_C@_0BE@EFDD@holdable_teleporter?$AA@ 2003fa78     bg_misc.obj
 0003:00002a8c       ??_C@_08HHBB@Bfg?5Ammo?$AA@ 2003fa8c     bg_misc.obj
 0003:00002a98       ??_C@_0BA@LIKB@icons?1icona_bfg?$AA@ 2003fa98     bg_misc.obj
 0003:00002aa8       ??_C@_0BP@KGME@models?1powerups?1ammo?1bfgam?4md3?$AA@ 2003faa8     bg_misc.obj
 0003:00002ac8       ??_C@_08BHPM@ammo_bfg?$AA@ 2003fac8     bg_misc.obj
 0003:00002ad4       ??_C@_05OJGD@Slugs?$AA@    2003fad4     bg_misc.obj
 0003:00002adc       ??_C@_0BE@KFKB@icons?1icona_railgun?$AA@ 2003fadc     bg_misc.obj
 0003:00002af0       ??_C@_0CD@BHHI@models?1powerups?1ammo?1railgunam?4m@ 2003faf0     bg_misc.obj
 0003:00002b14       ??_C@_0L@PCJD@ammo_slugs?$AA@ 2003fb14     bg_misc.obj
 0003:00002b20       ??_C@_07ONGL@Rockets?$AA@  2003fb20     bg_misc.obj
 0003:00002b28       ??_C@_0BD@NDBD@icons?1icona_rocket?$AA@ 2003fb28     bg_misc.obj
 0003:00002b3c       ??_C@_0CC@JMHP@models?1powerups?1ammo?1rocketam?4md@ 2003fb3c     bg_misc.obj
 0003:00002b60       ??_C@_0N@DEF@ammo_rockets?$AA@ 2003fb60     bg_misc.obj
 0003:00002b70       ??_C@_0L@JGJD@Flame?5Ammo?$AA@ 2003fb70     bg_misc.obj
 0003:00002b7c       ??_C@_0BG@BLCM@icons?1icona_lightning?$AA@ 2003fb7c     bg_misc.obj
 0003:00002b94       ??_C@_0CF@DECD@models?1powerups?1ammo?1lightningam@ 2003fb94     bg_misc.obj
 0003:00002bbc       ??_C@_0P@FNDL@ammo_lightning?$AA@ 2003fbbc     bg_misc.obj
 0003:00002bcc       ??_C@_05IJJG@Cells?$AA@    2003fbcc     bg_misc.obj
 0003:00002bd4       ??_C@_0BD@PPKI@icons?1icona_plasma?$AA@ 2003fbd4     bg_misc.obj
 0003:00002be8       ??_C@_0CC@GNJA@models?1powerups?1ammo?1plasmaam?4md@ 2003fbe8     bg_misc.obj
 0003:00002c0c       ??_C@_0L@JCGG@ammo_cells?$AA@ 2003fc0c     bg_misc.obj
 0003:00002c18       ??_C@_08CFEJ@Grenades?$AA@ 2003fc18     bg_misc.obj
 0003:00002c24       ??_C@_0BE@MMLE@icons?1icona_grenade?$AA@ 2003fc24     bg_misc.obj
 0003:00002c38       ??_C@_0CD@NMEK@models?1powerups?1ammo?1grenadeam?4m@ 2003fc38     bg_misc.obj
 0003:00002c5c       ??_C@_0O@KBKH@ammo_grenades?$AA@ 2003fc5c     bg_misc.obj
 0003:00002c6c       ??_C@_07EDBM@Bullets?$AA@  2003fc6c     bg_misc.obj
 0003:00002c74       ??_C@_0BH@DHGM@icons?1icona_machinegun?$AA@ 2003fc74     bg_misc.obj
 0003:00002c8c       ??_C@_0CG@KHPE@models?1powerups?1ammo?1machineguna@ 2003fc8c     bg_misc.obj
 0003:00002cb4       ??_C@_0N@KNDC@ammo_bullets?$AA@ 2003fcb4     bg_misc.obj
 0003:00002cc4       ??_C@_06OAJC@Shells?$AA@   2003fcc4     bg_misc.obj
 0003:00002ccc       ??_C@_0BE@MPL@icons?1icona_shotgun?$AA@ 2003fccc     bg_misc.obj
 0003:00002ce0       ??_C@_0CD@LJLN@models?1powerups?1ammo?1shotgunam?4m@ 2003fce0     bg_misc.obj
 0003:00002d04       ??_C@_0BH@EMHN@sound?1misc?1am_pkup?4wav?$AA@ 2003fd04     bg_misc.obj
 0003:00002d1c       ??_C@_0M@MOIJ@ammo_shells?$AA@ 2003fd1c     bg_misc.obj
 0003:00002d28       ??_C@_0P@MANM@Grappling?5Hook?$AA@ 2003fd28     bg_misc.obj
 0003:00002d38       ??_C@_0BE@IDGG@icons?1iconw_grapple?$AA@ 2003fd38     bg_misc.obj
 0003:00002d4c       ??_C@_0CE@LPMO@models?1weapons2?1grapple?1grapple?4@ 2003fd4c     bg_misc.obj
 0003:00002d70       ??_C@_0BF@GCPL@weapon_grapplinghook?$AA@ 2003fd70     bg_misc.obj
 0003:00002d88       ??_C@_0BA@HKCL@icons?1iconw_bfg?$AA@ 2003fd88     bg_misc.obj
 0003:00002d98       ??_C@_0BM@MFN@models?1weapons2?1bfg?1bfg?4md3?$AA@ 2003fd98     bg_misc.obj
 0003:00002db4       ??_C@_0L@NOHL@weapon_bfg?$AA@ 2003fdb4     bg_misc.obj
 0003:00002dc0       ??_C@_0L@OMHC@Plasma?5Gun?$AA@ 2003fdc0     bg_misc.obj
 0003:00002dcc       ??_C@_0BD@MNKG@icons?1iconw_plasma?$AA@ 2003fdcc     bg_misc.obj
 0003:00002de0       ??_C@_0CC@DOHF@models?1weapons2?1plasma?1plasma?4md@ 2003fde0     bg_misc.obj
 0003:00002e04       ??_C@_0BB@IMNM@weapon_plasmagun?$AA@ 2003fe04     bg_misc.obj
 0003:00002e18       ??_C@_0BE@MJD@icons?1iconw_railgun?$AA@ 2003fe18     bg_misc.obj
 0003:00002e2c       ??_C@_0CE@GDNL@models?1weapons2?1railgun?1railgun?4@ 2003fe2c     bg_misc.obj
 0003:00002e50       ??_C@_0P@FOOL@weapon_railgun?$AA@ 2003fe50     bg_misc.obj
 0003:00002e60       ??_C@_0BC@CPKI@icons?1iconw_flame?$AA@ 2003fe60     bg_misc.obj
 0003:00002e74       ??_C@_0CO@MPEP@models?1weapons2?1flamethrower?1fla@ 2003fe74     bg_misc.obj
 0003:00002ea4       ??_C@_0BB@GAKO@weapon_lightning?$AA@ 2003fea4     bg_misc.obj
 0003:00002eb8       ??_C@_0BD@OBBN@icons?1iconw_rocket?$AA@ 2003feb8     bg_misc.obj
 0003:00002ecc       ??_C@_0CE@CDMO@models?1weapons2?1rocketl?1rocketl?4@ 2003fecc     bg_misc.obj
 0003:00002ef0       ??_C@_0BG@EKMA@weapon_rocketlauncher?$AA@ 2003fef0     bg_misc.obj
 0003:00002f08       ??_C@_0EG@FCJ@sound?1weapons?1grenade?1hgrenb1a?4w@ 2003ff08     bg_misc.obj
 0003:00002f50       ??_C@_0BE@GFIG@icons?1iconw_grenade?$AA@ 2003ff50     bg_misc.obj
 0003:00002f64       ??_C@_0CG@MONC@models?1weapons2?1grenadel?1grenade@ 2003ff64     bg_misc.obj
 0003:00002f8c       ??_C@_0BH@FDFB@weapon_grenadelauncher?$AA@ 2003ff8c     bg_misc.obj
 0003:00002fa4       ??_C@_0BH@IFLL@icons?1iconw_machinegun?$AA@ 2003ffa4     bg_misc.obj
 0003:00002fbc       ??_C@_0CK@BP@models?1weapons2?1machinegun?1machi@ 2003ffbc     bg_misc.obj
 0003:00002fe8       ??_C@_0BC@JMBH@weapon_machinegun?$AA@ 2003ffe8     bg_misc.obj
 0003:00002ffc       ??_C@_0BE@KFMJ@icons?1iconw_shotgun?$AA@ 2003fffc     bg_misc.obj
 0003:00003010       ??_C@_0CE@FIBC@models?1weapons2?1shotgun?1shotgun?4@ 20040010     bg_misc.obj
 0003:00003034       ??_C@_0P@PHLB@weapon_shotgun?$AA@ 20040034     bg_misc.obj
 0003:00003044       ??_C@_0BF@IKAB@icons?1iconw_gauntlet?$AA@ 20040044     bg_misc.obj
 0003:0000305c       ??_C@_0CG@ENLL@models?1weapons2?1gauntlet?1gauntle@ 2004005c     bg_misc.obj
 0003:00003084       ??_C@_0BG@OBIE@sound?1misc?1w_pkup?4wav?$AA@ 20040084     bg_misc.obj
 0003:0000309c       ??_C@_0BA@NEFD@weapon_gauntlet?$AA@ 2004009c     bg_misc.obj
 0003:000030ac       ??_C@_0M@MPBK@Mega?5Health?$AA@ 200400ac     bg_misc.obj
 0003:000030b8       ??_C@_0BB@FCLL@icons?1iconh_mega?$AA@ 200400b8     bg_misc.obj
 0003:000030cc       ??_C@_0CH@HNCC@models?1powerups?1health?1mega_sphe@ 200400cc     bg_misc.obj
 0003:000030f4       ??_C@_0CG@GJOF@models?1powerups?1health?1mega_cros@ 200400f4     bg_misc.obj
 0003:0000311c       ??_C@_0BJ@GHGJ@sound?1items?1m_health?4wav?$AA@ 2004011c     bg_misc.obj
 0003:00003138       ??_C@_0BB@KJE@item_health_mega?$AA@ 20040138     bg_misc.obj
 0003:0000314c       ??_C@_09DDEP@50?5Health?$AA@ 2004014c     bg_misc.obj
 0003:00003158       ??_C@_0BA@PMIC@icons?1iconh_red?$AA@ 20040158     bg_misc.obj
 0003:00003168       ??_C@_0CI@LKJF@models?1powerups?1health?1large_sph@ 20040168     bg_misc.obj
 0003:00003190       ??_C@_0CH@NOLN@models?1powerups?1health?1large_cro@ 20040190     bg_misc.obj
 0003:000031b8       ??_C@_0BJ@KID@sound?1items?1l_health?4wav?$AA@ 200401b8     bg_misc.obj
 0003:000031d4       ??_C@_0BC@KFF@item_health_large?$AA@ 200401d4     bg_misc.obj
 0003:000031e8       ??_C@_09BECD@25?5Health?$AA@ 200401e8     bg_misc.obj
 0003:000031f4       ??_C@_0BD@IBDP@icons?1iconh_yellow?$AA@ 200401f4     bg_misc.obj
 0003:00003208       ??_C@_0CJ@KCHG@models?1powerups?1health?1medium_sp@ 20040208     bg_misc.obj
 0003:00003234       ??_C@_0CI@DNPD@models?1powerups?1health?1medium_cr@ 20040234     bg_misc.obj
 0003:0000325c       ??_C@_0BJ@NBFG@sound?1items?1n_health?4wav?$AA@ 2004025c     bg_misc.obj
 0003:00003278       ??_C@_0M@DFKC@item_health?$AA@ 20040278     bg_misc.obj
 0003:00003284       ??_C@_08PNDE@5?5Health?$AA@ 20040284     bg_misc.obj
 0003:00003290       ??_C@_0BC@CNMA@icons?1iconh_green?$AA@ 20040290     bg_misc.obj
 0003:000032a4       ??_C@_0CI@MNOG@models?1powerups?1health?1small_sph@ 200402a4     bg_misc.obj
 0003:000032cc       ??_C@_0CH@KNOH@models?1powerups?1health?1small_cro@ 200402cc     bg_misc.obj
 0003:000032f4       ??_C@_0BJ@LKOK@sound?1items?1s_health?4wav?$AA@ 200402f4     bg_misc.obj
 0003:00003310       ??_C@_0BC@HBNN@item_health_small?$AA@ 20040310     bg_misc.obj
 0003:00003324       ??_C@_0BA@LPLH@icons?1iconr_red?$AA@ 20040324     bg_misc.obj
 0003:00003334       ??_C@_0CE@HDBK@models?1powerups?1armor?1armor_red?4@ 20040334     bg_misc.obj
 0003:00003358       ??_C@_0BA@GFMA@item_armor_body?$AA@ 20040358     bg_misc.obj
 0003:00003368       ??_C@_0BD@NCPP@icons?1iconr_yellow?$AA@ 20040368     bg_misc.obj
 0003:0000337c       ??_C@_0CE@HFCD@models?1powerups?1armor?1armor_yel?4@ 2004037c     bg_misc.obj
 0003:000033a0       ??_C@_0BI@BDMK@sound?1misc?1ar2_pkup?4wav?$AA@ 200403a0     bg_misc.obj
 0003:000033b8       ??_C@_0BC@GPNI@item_armor_combat?$AA@ 200403b8     bg_misc.obj
 0003:000033cc       ??_C@_0M@KPGH@Armor?5Shard?$AA@ 200403cc     bg_misc.obj
 0003:000033d8       ??_C@_0BC@BIPJ@icons?1iconr_shard?$AA@ 200403d8     bg_misc.obj
 0003:000033ec       ??_C@_0CH@FIOC@models?1powerups?1armor?1shard_sphe@ 200403ec     bg_misc.obj
 0003:00003414       ??_C@_0CA@DPKE@models?1powerups?1armor?1shard?4md3?$AA@ 20040414     bg_misc.obj
 0003:00003434       ??_C@_0BI@IDIM@sound?1misc?1ar1_pkup?4wav?$AA@ 20040434     bg_misc.obj
 0003:0000344c       ??_C@_0BB@JODA@item_armor_shard?$AA@ 2004044c     bg_misc.obj
 0003:00003460       ??_C@_0CB@NJCB@Couldn?8t?5find?5item?5for?5weapon?5?$CFi@ 20040460     bg_misc.obj
 0003:00003484       ??_C@_0BM@HEIN@BG_CanItemBeGrabbed?3?5IT_BAD?$AA@ 20040484     bg_misc.obj
 0003:000034a0       ??_C@_0CI@DJME@BG_CanItemBeGrabbed?3?5index?5out?5o@ 200404a0     bg_misc.obj
 0003:000034c8       ??_C@_0CK@CFCO@BG_EvaluateTrajectory?3?5unknown?5t@ 200404c8     bg_misc.obj
 0003:000034f4       ??_C@_0CP@HAJH@BG_EvaluateTrajectoryDelta?3?5unkn@ 200404f4     bg_misc.obj
 0003:00003524       _pm_stopspeed              20040524     bg_pmove.obj
 0003:00003528       _pm_duckScale              20040528     bg_pmove.obj
 0003:0000352c       _pm_swimScale              2004052c     bg_pmove.obj
 0003:00003530       _pm_wadeScale              20040530     bg_pmove.obj
 0003:00003534       _pm_ladderScale            20040534     bg_pmove.obj
 0003:00003538       _pm_accelerate             20040538     bg_pmove.obj
 0003:0000353c       _pm_airaccelerate          2004053c     bg_pmove.obj
 0003:00003540       _pm_ladderAccelerate       20040540     bg_pmove.obj
 0003:00003544       _pm_wateraccelerate        20040544     bg_pmove.obj
 0003:00003548       _pm_flyaccelerate          20040548     bg_pmove.obj
 0003:0000354c       _pm_ladderfriction         2004054c     bg_pmove.obj
 0003:00003550       _pm_friction               20040550     bg_pmove.obj
 0003:00003554       _pm_waterfriction          20040554     bg_pmove.obj
 0003:00003558       _pm_flightfriction         20040558     bg_pmove.obj
 0003:0000355c       _pm_spectatorfriction      2004055c     bg_pmove.obj
 0003:00003560       ??_C@_08OEON@?$CFi?3Land?6?$AA@ 20040560     bg_pmove.obj
 0003:0000356c       ??_C@_09KHNP@?$CFi?3steep?6?$AA@ 2004056c     bg_pmove.obj
 0003:00003578       ??_C@_0M@CLKI@?$CFi?3kickoff?6?$AA@ 20040578     bg_pmove.obj
 0003:00003584       ??_C@_0N@LFAC@?$CFi?3allsolid?6?$AA@ 20040584     bg_pmove.obj
 0003:00003594       ??_C@_08DAML@?$CFi?3lift?6?$AA@ 20040594     bg_pmove.obj
 0003:000035a0       ??_C@_0M@CBLA@?$CFi?3stepped?6?$AA@ 200405a0     bg_slidemove.obj
 0003:000035ac       ??_C@_0BE@CFBB@?$CFi?3bend?5can?8t?5step?6?$AA@ 200405ac     bg_slidemove.obj
 0003:000035cc       ??_C@_0BH@NCCD@sound?1player?1gurp2?4wav?$AA@ 200405cc     g_active.obj
 0003:000035e4       ??_C@_0BH@DCEM@sound?1player?1gurp1?4wav?$AA@ 200405e4     g_active.obj
 0003:000035fc       ??_C@_0L@PAPK@?$CKdrown?4wav?$AA@ 200405fc     g_active.obj
 0003:00003608       ??_C@_0CJ@CBHF@cp?5?$CCTen?5seconds?5until?5inactivity@ 20040608     g_active.obj
 0003:00003634       ??_C@_0BK@NHBL@Dropped?5due?5to?5inactivity?$AA@ 20040634     g_active.obj
 0003:00003650       ??_C@_0L@CBI@pmove_msec?$AA@ 20040650     g_active.obj
 0003:0000365c       ??_C@_02IACN@33?$AA@       2004065c     g_active.obj
 0003:00003684       ??_C@_09LKDE@?5?$CFi?5?$CFi?5?$CFi?$AA@ 20040684     g_arenas.obj
 0003:00003690       ??_C@_0CB@FIAF@postgame?5?$CFi?5?$CFi?5?$CFi?5?$CFi?5?$CFi?5?$CFi?5?$CFi?5?$CFi@ 20040690     g_arenas.obj
 0003:000036b4       ??_C@_0BL@IJAP@postgame?5?$CFi?5?$CFi?50?50?50?50?50?50?$AA@ 200406b4     g_arenas.obj
 0003:000036d0       ??_C@_0BL@JCFJ@?$FO1ERROR?3?5out?5of?5gentities?6?$AA@ 200406d0     g_arenas.obj
 0003:000036ec       ??_C@_0N@GCMD@g_podiumDrop?$AA@ 200406ec     g_arenas.obj
 0003:000036fc       ??_C@_0N@KCM@g_podiumDist?$AA@ 200406fc     g_arenas.obj
 0003:0000370c       ??_C@_06HOHP@podium?$AA@   2004070c     g_arenas.obj
 0003:00003714       ??_C@_0CF@DJMI@models?1mapobjects?1podium?1podium4@ 20040714     g_arenas.obj
 0003:0000373c       ??_C@_0BE@NIAP@Max?5infos?5exceeded?6?$AA@ 2004073c     g_bot.obj
 0003:00003750       ??_C@_0BI@FBJM@Missing?5?$HL?5in?5info?5file?6?$AA@ 20040750     g_bot.obj
 0003:00003768       ??_C@_0BN@HAGP@Unexpected?5end?5of?5info?5file?6?$AA@ 20040768     g_bot.obj
 0003:00003788       ??_C@_06CENM@?$DMNULL?$DO?$AA@ 20040788     g_bot.obj
 0003:00003790       ??_C@_01KCD@?$HN?$AA@      20040790     g_bot.obj
 0003:00003794       ??_C@_01PFFB@?$HL?$AA@     20040794     g_bot.obj
 0003:00003798       ??_C@_03HKIL@map?$AA@      20040798     g_bot.obj
 0003:0000379c       ??_C@_0BE@MKAI@addbot?5?$CFs?5?$CFf?5?$CFs?5?$CFi?6?$AA@ 2004079c     g_bot.obj
 0003:000037b0       ??_C@_04OPJK@name?$AA@     200407b0     g_bot.obj
 0003:000037b8       ??_C@_08OJCO@kick?5?$CFs?6?$AA@ 200407b8     g_bot.obj
 0003:000037c4       ??_C@_0CD@MMK@play?5sound?1player?1announce?1?$CFs?4wa@ 200407c4     g_bot.obj
 0003:000037e8       ??_C@_07FMEP@default?$AA@  200407e8     g_bot.obj
 0003:000037f0       ??_C@_0BI@OLAG@BotAISetupClient?5failed?$AA@ 200407f0     g_bot.obj
 0003:00003808       ??_C@_04CJJD@team?$AA@     20040808     g_bot.obj
 0003:00003810       ??_C@_05MIHE@skill?$AA@    20040810     g_bot.obj
 0003:00003818       ??_C@_0O@CGGA@characterfile?$AA@ 20040818     g_bot.obj
 0003:00003828       ??_C@_0N@CAAJ@loaddefered?6?$AA@ 20040828     g_bot.obj
 0003:00003838       ??_C@_0L@DDHE@cl_running?$AA@ 20040838     g_bot.obj
 0003:00003844       ??_C@_0ED@GMAO@Usage?3?5Addbot?5?$DMbotname?$DO?5?$FLskill?51@ 20040844     g_bot.obj
 0003:00003888       ??_C@_0L@MALI@bot_enable?$AA@ 20040888     g_bot.obj
 0003:00003894       ??_C@_05MPII@?$CF5?42f?$AA@ 20040894     g_bot.obj
 0003:0000389c       ??_C@_0FB@BCGI@?$FO1Start?5server?5with?5more?5?8open?8?5@ 2004089c     g_bot.obj
 0003:000038f0       ??_C@_0DE@LGIN@?$FO1Unable?5to?5add?5bot?4?5?5All?5player@ 200408f0     g_bot.obj
 0003:00003924       ??_C@_0CG@IHBJ@?$FO1Error?3?5bot?5has?5no?5aifile?5speci@ 20040924     g_bot.obj
 0003:0000394c       ??_C@_06KGEJ@aifile?$AA@   2004094c     g_bot.obj
 0003:00003954       ??_C@_01PLFL@5?$AA@        20040954     g_bot.obj
 0003:00003958       ??_C@_06DAMC@color2?$AA@   20040958     g_bot.obj
 0003:00003960       ??_C@_01FBMM@4?$AA@        20040960     g_bot.obj
 0003:00003964       ??_C@_06MPHL@color1?$AA@   20040964     g_bot.obj
 0003:0000396c       ??_C@_04JGMG@male?$AA@     2004096c     g_bot.obj
 0003:00003974       ??_C@_06KFDE@gender?$AA@   20040974     g_bot.obj
 0003:0000397c       ??_C@_0P@KCPO@team_headmodel?$AA@ 2004097c     g_bot.obj
 0003:0000398c       ??_C@_09MLPD@headmodel?$AA@ 2004098c     g_bot.obj
 0003:00003998       ??_C@_0L@MKIK@team_model?$AA@ 20040998     g_bot.obj
 0003:000039a4       ??_C@_0O@GFOH@visor?1default?$AA@ 200409a4     g_bot.obj
 0003:000039b4       ??_C@_02OHJF@90?$AA@       200409b4     g_bot.obj
 0003:000039b8       ??_C@_02CFDO@70?$AA@       200409b8     g_bot.obj
 0003:000039bc       ??_C@_08GAKB@handicap?$AA@ 200409bc     g_bot.obj
 0003:000039c8       ??_C@_02IGL@50?$AA@        200409c8     g_bot.obj
 0003:000039cc       ??_C@_05FKMA@?$CF1?42f?$AA@ 200409cc     g_bot.obj
 0003:000039d4       ??_C@_05MFKB@snaps?$AA@    200409d4     g_bot.obj
 0003:000039dc       ??_C@_04MMDE@rate?$AA@     200409dc     g_bot.obj
 0003:000039e4       ??_C@_05COBI@25000?$AA@    200409e4     g_bot.obj
 0003:000039ec       ??_C@_07PGBP@funname?$AA@  200409ec     g_bot.obj
 0003:000039f4       ??_C@_0BP@PHDN@?$FO1Error?3?5Bot?5?8?$CFs?8?5not?5defined?6?$AA@ 200409f4     g_bot.obj
 0003:00003a14       ??_C@_0BJ@NJNI@?$FO3Unable?5to?5delay?5spawn?6?$AA@ 20040a14     g_bot.obj
 0003:00003a30       ??_C@_0BJ@NPEI@?$CF?916s?5?$CF?916s?5?$CF?920s?5?$CF?920s?6?$AA@ 20040a30     g_bot.obj
 0003:00003a4c       ??_C@_0BB@NIIH@bots?1default_c?4c?$AA@ 20040a4c     g_bot.obj
 0003:00003a60       ??_C@_0O@BDEG@UnnamedPlayer?$AA@ 20040a60     g_bot.obj
 0003:00003a70       ??_C@_0EB@GLFE@?$FO1name?5?5?5?5?5?5?5?5?5?5?5?5?5model?5?5?5?5?5?5?5?5@ 20040a70     g_bot.obj
 0003:00003ab4       ??_C@_04LDNF@bots?$AA@     20040ab4     g_bot.obj
 0003:00003abc       ??_C@_08JLCL@training?$AA@ 20040abc     g_bot.obj
 0003:00003ac8       ??_C@_07LCAN@special?$AA@  20040ac8     g_bot.obj
 0003:00003ad0       ??_C@_09GBNJ@timelimit?$AA@ 20040ad0     g_bot.obj
 0003:00003adc       ??_C@_09DPJO@fraglimit?$AA@ 20040adc     g_bot.obj
 0003:00003ae8       ??_C@_0P@LHJF@bot_minplayers?$AA@ 20040ae8     g_bot.obj
 0003:00003af8       ??_C@_03EBLA@num?$AA@      20040af8     g_bot.obj
 0003:00003afc       ??_C@_02JAFN@?$CFi?$AA@    20040afc     g_bot.obj
 0003:00003b00       ??_C@_0BC@LFAD@?$CFi?5arenas?5parsed?6?$AA@ 20040b00     g_bot.obj
 0003:00003b14       ??_C@_08CJIE@scripts?1?$AA@ 20040b14     g_bot.obj
 0003:00003b20       ??_C@_07DJDJ@scripts?$AA@  20040b20     g_bot.obj
 0003:00003b28       ??_C@_06BFIE@?4arena?$AA@  20040b28     g_bot.obj
 0003:00003b30       ??_C@_0BD@HCGB@scripts?1arenas?4txt?$AA@ 20040b30     g_bot.obj
 0003:00003b44       ??_C@_0N@DNGO@g_arenasFile?$AA@ 20040b44     g_bot.obj
 0003:00003b54       ??_C@_0CO@CPGF@?$FO1file?5too?5large?3?5?$CFs?5is?5?$CFi?0?5max?5@ 20040b54     g_bot.obj
 0003:00003b84       ??_C@_0BG@FOLB@?$FO1file?5not?5found?3?5?$CFs?6?$AA@ 20040b84     g_bot.obj
 0003:00003b9c       ??_C@_0BG@CDDP@addbot?5?$CFs?5?$CFf?5free?5?$CFi?6?$AA@ 20040b9c     g_bot.obj
 0003:00003bb4       ??_C@_0BA@PAJG@?$CFi?5bots?5parsed?6?$AA@ 20040bb4     g_bot.obj
 0003:00003bc4       ??_C@_04GDJG@?4bot?$AA@    20040bc4     g_bot.obj
 0003:00003bcc       ??_C@_0BB@CNHD@scripts?1bots?4txt?$AA@ 20040bcc     g_bot.obj
 0003:00003be0       ??_C@_0L@MOAL@g_botsFile?$AA@ 20040be0     g_bot.obj
 0003:00003c04       ??_C@_08IGPL@nohumans?$AA@ 20040c04     g_client.obj
 0003:00003c10       ??_C@_06NDDH@nobots?$AA@   20040c10     g_client.obj
 0003:00003c18       ??_C@_0BH@MKJP@info_player_deathmatch?$AA@ 20040c18     g_client.obj
 0003:00003c30       ??_C@_0BM@DIAH@Couldn?8t?5find?5a?5spawn?5point?$AA@ 20040c30     g_client.obj
 0003:00003c4c       ??_C@_07IAGC@bodyque?$AA@  20040c4c     g_client.obj
 0003:00003c54       ??_C@_0BO@DNJP@ClientUserinfoChanged?3?5?$CFi?5?$CFs?6?$AA@ 20040c54     g_client.obj
 0003:00003c74       ??_C@_0GA@IAGN@n?2?$CFs?2t?2?$CFi?2model?2?$CFs?2hmodel?2?$CFs?2g_r@ 20040c74     g_client.obj
 0003:00003cd4       ??_C@_0EO@GLOF@n?2?$CFs?2t?2?$CFi?2model?2?$CFs?2hmodel?2?$CFs?2c1?2@ 20040cd4     g_client.obj
 0003:00003d24       ??_C@_0L@CKFL@g_blueteam?$AA@ 20040d24     g_client.obj
 0003:00003d30       ??_C@_09NMHP@g_redteam?$AA@ 20040d30     g_client.obj
 0003:00003d3c       ??_C@_0M@FNOC@teamoverlay?$AA@ 20040d3c     g_client.obj
 0003:00003d48       ??_C@_01KCAO@b?$AA@        20040d48     g_client.obj
 0003:00003d4c       ??_C@_01LHO@r?$AA@         20040d4c     g_client.obj
 0003:00003d50       ??_C@_0BM@CJLE@print?5?$CC?$CFs?$FO7?5renamed?5to?5?$CFs?6?$CC?$AA@ 20040d50     g_client.obj
 0003:00003d6c       ??_C@_0L@BGG@scoreboard?$AA@ 20040d6c     g_client.obj
 0003:00003d78       ??_C@_08FHMC@cg_plOut?$AA@ 20040d78     g_client.obj
 0003:00003d84       ??_C@_0O@OHMF@cg_latentCmds?$AA@ 20040d84     g_client.obj
 0003:00003d94       ??_C@_0P@BKBO@cg_latentSnaps?$AA@ 20040d94     g_client.obj
 0003:00003da4       ??_C@_0O@BNGJ@cg_debugDelag?$AA@ 20040da4     g_client.obj
 0003:00003db4       ??_C@_0BA@JBAH@cg_cmdTimeNudge?$AA@ 20040db4     g_client.obj
 0003:00003dc4       ??_C@_08IOE@cg_delag?$AA@  20040dc4     g_client.obj
 0003:00003dd0       ??_C@_0BA@PHDH@cg_predictItems?$AA@ 20040dd0     g_client.obj
 0003:00003de0       ??_C@_09FBHK@localhost?$AA@ 20040de0     g_client.obj
 0003:00003dec       ??_C@_02ICFJ@ip?$AA@       20040dec     g_client.obj
 0003:00003df0       ??_C@_0O@DLDI@?2name?2badinfo?$AA@ 20040df0     g_client.obj
 0003:00003e00       ??_C@_0EA@HAOI@print?5?$CCThis?5server?5is?5Unlagged?3?5@ 20040e00     g_client.obj
 0003:00003e40       ??_C@_0DP@CIEN@print?5?$CCThis?5server?5is?5Unlagged?3?5@ 20040e40     g_client.obj
 0003:00003e80       ??_C@_0BI@NJLD@print?5?$CC?$CFs?$FO7?5connected?6?$CC?$AA@ 20040e80     g_client.obj
 0003:00003e98       ??_C@_0BD@CCFO@ClientConnect?3?5?$CFi?6?$AA@ 20040e98     g_client.obj
 0003:00003eac       ??_C@_0BB@ONCC@BotConnectfailed?$AA@ 20040eac     g_client.obj
 0003:00003ec0       ??_C@_0BB@DGNF@Invalid?5password?$AA@ 20040ec0     g_client.obj
 0003:00003ed4       ??_C@_04KIKH@none?$AA@     20040ed4     g_client.obj
 0003:00003edc       ??_C@_08NPHI@password?$AA@ 20040edc     g_client.obj
 0003:00003ee8       ??_C@_07HHBK@Banned?4?$AA@ 20040ee8     g_client.obj
 0003:00003ef0       ??_C@_0BB@FLOM@ClientBegin?3?5?$CFi?6?$AA@ 20040ef0     g_client.obj
 0003:00003f04       ??_C@_0BP@GFAG@print?5?$CC?$CFs?$FO7?5entered?5the?5game?6?$CC?$AA@ 20040f04     g_client.obj
 0003:00003f24       ??_C@_06MNOE@player?$AA@   20040f24     g_client.obj
 0003:00003f2c       ??_C@_0N@OGHP@disconnected?$AA@ 20040f2c     g_client.obj
 0003:00003f3c       ??_C@_0BG@DJBH@ClientDisconnect?3?5?$CFi?6?$AA@ 20040f3c     g_client.obj
 0003:00003f90       ??_C@_09IBOJ@Harvester?$AA@ 20040f90     g_cmds.obj
 0003:00003f9c       ??_C@_08HLK@Overload?$AA@  20040f9c     g_cmds.obj
 0003:00003fa8       ??_C@_0N@DCK@One?5Flag?5CTF?$AA@ 20040fa8     g_cmds.obj
 0003:00003fb8       ??_C@_0BB@EEMI@Capture?5the?5Flag?$AA@ 20040fb8     g_cmds.obj
 0003:00003fcc       ??_C@_0BA@MBBA@Team?5Deathmatch?$AA@ 20040fcc     g_cmds.obj
 0003:00003fdc       ??_C@_0O@IEE@Single?5Player?$AA@ 20040fdc     g_cmds.obj
 0003:00003fec       ??_C@_0L@MDJG@Tournament?$AA@ 20040fec     g_cmds.obj
 0003:00003ff8       ??_C@_0N@EEDI@Free?5For?5All?$AA@ 20040ff8     g_cmds.obj
 0003:00004008       ??_C@_06OEL@report?$AA@    20041008     g_cmds.obj
 0003:00004010       ??_C@_0BD@FNGG@search?5and?5destroy?$AA@ 20041010     g_cmds.obj
 0003:00004024       ??_C@_0P@PGFP@guard?5location?$AA@ 20041024     g_cmds.obj
 0003:00004034       ??_C@_08BIMD@cover?5me?$AA@ 20041034     g_cmds.obj
 0003:00004040       ??_C@_09GAKN@come?5here?$AA@ 20041040     g_cmds.obj
 0003:0000404c       ??_C@_0BD@ECOF@hold?5this?5position?$AA@ 2004104c     g_cmds.obj
 0003:00004060       ??_C@_0BD@FLK@hold?5your?5position?$AA@ 20041060     g_cmds.obj
 0003:00004074       ??_C@_0BC@FMKL@scores?5?$CFi?5?$CFi?5?$CFi?$CFs?$AA@ 20041074     g_cmds.obj
 0003:00004088       ??_C@_0CL@FGDI@?5?$CFi?5?$CFi?5?$CFi?5?$CFi?5?$CFi?5?$CFi?5?$CFi?5?$CFi?5?$CFi?5?$CFi?5?$CF@ 20041088     g_cmds.obj
 0003:000040b4       ??_C@_0DA@LCNN@print?5?$CCYou?5must?5be?5alive?5to?5use?5@ 200410b4     g_cmds.obj
 0003:000040e4       ??_C@_0DA@HMOL@print?5?$CCCheats?5are?5not?5enabled?5on@ 200410e4     g_cmds.obj
 0003:00004114       ??_C@_0CG@OBDE@print?5?$CCUser?5?$CFs?5is?5not?5on?5the?5ser@ 20041114     g_cmds.obj
 0003:0000413c       ??_C@_0BN@GMGE@print?5?$CCBad?5client?5slot?3?5?$CFi?6?$CC?$AA@ 2004113c     g_cmds.obj
 0003:0000415c       ??_C@_0CB@ELFN@print?5?$CCClient?5?$CFi?5is?5not?5active?6?$CC@ 2004115c     g_cmds.obj
 0003:00004180       ??_C@_06LNAI@assist?$AA@   20041180     g_cmds.obj
 0003:00004188       ??_C@_0O@IAMG@gauntletaward?$AA@ 20041188     g_cmds.obj
 0003:00004198       ??_C@_0L@BAHA@impressive?$AA@ 20041198     g_cmds.obj
 0003:000041a4       ??_C@_09JPPO@excellent?$AA@ 200411a4     g_cmds.obj
 0003:000041b0       ??_C@_05KBJH@armor?$AA@    200411b0     g_cmds.obj
 0003:000041b8       ??_C@_04OGMN@ammo?$AA@     200411b8     g_cmds.obj
 0003:000041c0       ??_C@_07LLGA@weapons?$AA@  200411c0     g_cmds.obj
 0003:000041c8       ??_C@_03MKE@all?$AA@       200411c8     g_cmds.obj
 0003:000041cc       ??_C@_0L@CJPH@print?5?$CC?$CFs?$CC?$AA@ 200411cc     g_cmds.obj
 0003:000041d8       ??_C@_0M@EOGG@godmode?5ON?6?$AA@ 200411d8     g_cmds.obj
 0003:000041e4       ??_C@_0N@JADG@godmode?5OFF?6?$AA@ 200411e4     g_cmds.obj
 0003:000041f4       ??_C@_0N@HPPA@notarget?5ON?6?$AA@ 200411f4     g_cmds.obj
 0003:00004204       ??_C@_0O@EPAH@notarget?5OFF?6?$AA@ 20041204     g_cmds.obj
 0003:00004214       ??_C@_0L@DMHD@noclip?5ON?6?$AA@ 20041214     g_cmds.obj
 0003:00004220       ??_C@_0M@GMEE@noclip?5OFF?6?$AA@ 20041220     g_cmds.obj
 0003:0000422c       ??_C@_0CP@FCGF@print?5?$CCMust?5be?5in?5g_gametype?50?5f@ 2004122c     g_cmds.obj
 0003:0000425c       ??_C@_0BO@NPKI@cp?5?$CC?$CFs?$FO7?5joined?5the?5battle?4?6?$CC?$AA@ 2004125c     g_cmds.obj
 0003:0000427c       ??_C@_0CC@LOIM@cp?5?$CC?$CFs?$FO7?5joined?5the?5spectators?4?6@ 2004127c     g_cmds.obj
 0003:000042a0       ??_C@_0CB@COMJ@cp?5?$CC?$CFs?$FO7?5joined?5the?5blue?5team?4?6?$CC@ 200412a0     g_cmds.obj
 0003:000042c4       ??_C@_0CA@CHBG@cp?5?$CC?$CFs?$FO7?5joined?5the?5red?5team?4?6?$CC?$AA@ 200412c4     g_cmds.obj
 0003:000042e4       ??_C@_0CG@NCAA@cp?5?$CCBlue?5team?5has?5too?5many?5playe@ 200412e4     g_cmds.obj
 0003:0000430c       ??_C@_0CF@DOGO@cp?5?$CCRed?5team?5has?5too?5many?5player@ 2004130c     g_cmds.obj
 0003:00004334       ??_C@_01KBOJ@s?$AA@        20041334     g_cmds.obj
 0003:00004338       ??_C@_09OOFE@spectator?$AA@ 20041338     g_cmds.obj
 0003:00004344       ??_C@_07PHIN@follow2?$AA@  20041344     g_cmds.obj
 0003:0000434c       ??_C@_07IDE@follow1?$AA@   2004134c     g_cmds.obj
 0003:00004354       ??_C@_05FILO@score?$AA@    20041354     g_cmds.obj
 0003:0000435c       ??_C@_0DM@BNDL@print?5?$CCMay?5not?5switch?5teams?5more@ 2004135c     g_cmds.obj
 0003:00004398       ??_C@_0BI@GIKJ@print?5?$CCSpectator?5team?6?$CC?$AA@ 20041398     g_cmds.obj
 0003:000043b0       ??_C@_0BD@NLE@print?5?$CCFree?5team?6?$CC?$AA@ 200413b0     g_cmds.obj
 0003:000043c4       ??_C@_0BC@DIIJ@print?5?$CCRed?5team?6?$CC?$AA@ 200413c4     g_cmds.obj
 0003:000043d8       ??_C@_0BD@CBLC@print?5?$CCBlue?5team?6?$CC?$AA@ 200413d8     g_cmds.obj
 0003:000043ec       ??_C@_0BO@KIAG@Cmd_FollowCycle_f?3?5bad?5dir?5?$CFi?$AA@ 200413ec     g_cmds.obj
 0003:0000440c       ??_C@_05JHKE@?$CFs?$CFs?6?$AA@ 2004140c     g_cmds.obj
 0003:00004414       ??_C@_0O@ILNC@?$BJ?$CI?$CFs?$CFc?$CFc?$BJ?$CJ?$BJ?3?5?$AA@ 20041414     g_cmds.obj
 0003:00004424       ??_C@_0BD@FHAH@?$BJ?$CI?$CFs?$CFc?$CFc?$BJ?$CJ?5?$CI?$CFs?$CJ?$BJ?3?5?$AA@ 20041424     g_cmds.obj
 0003:00004438       ??_C@_0BB@ENGD@sayteam?3?5?$CFs?3?5?$CFs?6?$AA@ 20041438     g_cmds.obj
 0003:0000444c       ??_C@_0O@BKBJ@?$BJ?$FL?$CFs?$CFc?$CFc?$BJ?$FN?$BJ?3?5?$AA@ 2004144c     g_cmds.obj
 0003:0000445c       ??_C@_0BD@HDJN@?$BJ?$FL?$CFs?$CFc?$CFc?$BJ?$FN?5?$CI?$CFs?$CJ?$BJ?3?5?$AA@ 2004145c     g_cmds.obj
 0003:00004470       ??_C@_09NBOC@?$CFs?$CFc?$CFc?$BJ?3?5?$AA@ 20041470     g_cmds.obj
 0003:0000447c       ??_C@_0N@KIKC@say?3?5?$CFs?3?5?$CFs?6?$AA@ 2004147c     g_cmds.obj
 0003:0000448c       ??_C@_0O@BGPA@?$CFs?5?$CC?$CFs?$CFc?$CFc?$CFs?$CC?$AA@ 2004148c     g_cmds.obj
 0003:0000449c       ??_C@_0O@CLOO@voice?3?5?$CFs?5?$CFs?6?$AA@ 2004149c     g_cmds.obj
 0003:000044ac       ??_C@_0P@ELGL@?$CFs?5?$CFd?5?$CFd?5?$CFd?5?$CFs?$AA@ 200414ac     g_cmds.obj
 0003:000044bc       ??_C@_05JENO@vchat?$AA@    200414bc     g_cmds.obj
 0003:000044c4       ??_C@_05LFCE@vtell?$AA@    200414c4     g_cmds.obj
 0003:000044cc       ??_C@_06CPFL@vtchat?$AA@   200414cc     g_cmds.obj
 0003:000044d4       ??_C@_0M@EOB@print?5?$CC?$CFs?6?$CC?$AA@ 200414d4     g_cmds.obj
 0003:000044e0       ??_C@_0KJ@HKA@print?5?$CCVote?5commands?5are?3?5map_re@ 200414e0     g_cmds.obj
 0003:0000458c       ??_C@_0BO@KPBG@print?5?$CCInvalid?5vote?5string?4?6?$CC?$AA@ 2004158c     g_cmds.obj
 0003:000045ac       ??_C@_0BL@GKB@print?5?$CC?$CFs?5called?5a?5vote?4?6?$CC?$AA@ 200415ac     g_cmds.obj
 0003:000045c8       ??_C@_07OLCC@?$CFs?5?$CC?$CFs?$CC?$AA@ 200415c8     g_cmds.obj
 0003:000045d0       ??_C@_0N@BEPM@vstr?5nextmap?$AA@ 200415d0     g_cmds.obj
 0003:000045e0       ??_C@_0BK@KJKO@print?5?$CCnextmap?5not?5set?4?6?$CC?$AA@ 200415e0     g_cmds.obj
 0003:000045fc       ??_C@_0BI@JOGJ@?$CFs?5?$CFs?$DL?5set?5nextmap?5?$CC?$CFs?$CC?$AA@ 200415fc     g_cmds.obj
 0003:00004614       ??_C@_0BL@NPCH@print?5?$CCInvalid?5gametype?4?6?$CC?$AA@ 20041614     g_cmds.obj
 0003:00004630       ??_C@_05JKGE@?$CFs?5?$CFs?$AA@ 20041630     g_cmds.obj
 0003:00004638       ??_C@_05GGPB@?$CFs?5?$CFd?$AA@ 20041638     g_cmds.obj
 0003:00004640       ??_C@_03HHKO@?$CFs?6?$AA@  20041640     g_cmds.obj
 0003:00004644       ??_C@_0L@HEIK@g_doWarmup?$AA@ 20041644     g_cmds.obj
 0003:00004650       ??_C@_0L@JJGG@clientkick?$AA@ 20041650     g_cmds.obj
 0003:0000465c       ??_C@_04KGFE@kick?$AA@     2004165c     g_cmds.obj
 0003:00004664       ??_C@_07LBIF@nextmap?$AA@  20041664     g_cmds.obj
 0003:0000466c       ??_C@_0M@PKCG@map_restart?$AA@ 2004166c     g_cmds.obj
 0003:00004678       ??_C@_0DC@DKGG@print?5?$CCNot?5allowed?5to?5call?5a?5vot@ 20041678     g_cmds.obj
 0003:000046ac       ??_C@_0DG@GOAD@print?5?$CCYou?5have?5called?5the?5maxim@ 200416ac     g_cmds.obj
 0003:000046e4       ??_C@_0CI@CIHN@print?5?$CCA?5vote?5is?5already?5in?5prog@ 200416e4     g_cmds.obj
 0003:0000470c       ??_C@_0CC@NPF@print?5?$CCVoting?5not?5allowed?5here?4?6@ 2004170c     g_cmds.obj
 0003:00004730       ??_C@_0BE@LPI@print?5?$CCVote?5cast?4?6?$CC?$AA@ 20041730     g_cmds.obj
 0003:00004744       ??_C@_0CL@MLAL@print?5?$CCNot?5allowed?5to?5vote?5as?5sp@ 20041744     g_cmds.obj
 0003:00004770       ??_C@_0BM@BODM@print?5?$CCVote?5already?5cast?4?6?$CC?$AA@ 20041770     g_cmds.obj
 0003:0000478c       ??_C@_0BO@BDFP@print?5?$CCNo?5vote?5in?5progress?4?6?$CC?$AA@ 2004178c     g_cmds.obj
 0003:000047ac       ??_C@_0DC@FLGA@print?5?$CCTeam?5vote?5commands?5are?3?5l@ 200417ac     g_cmds.obj
 0003:000047e0       ??_C@_0DA@CNOD@print?5?$CC?$CFs?5is?5not?5a?5valid?5player?5@ 200417e0     g_cmds.obj
 0003:00004810       ??_C@_0CA@CJAK@print?5?$CC?$CFs?5called?5a?5team?5vote?4?6?$CC?$AA@ 20041810     g_cmds.obj
 0003:00004830       ??_C@_06GGPL@leader?$AA@   20041830     g_cmds.obj
 0003:00004838       ??_C@_0DL@ENCM@print?5?$CCYou?5have?5called?5the?5maxim@ 20041838     g_cmds.obj
 0003:00004874       ??_C@_0CN@NICJ@print?5?$CCA?5team?5vote?5is?5already?5in@ 20041874     g_cmds.obj
 0003:000048a4       ??_C@_0BJ@KGDN@print?5?$CCTeam?5vote?5cast?4?6?$CC?$AA@ 200418a4     g_cmds.obj
 0003:000048c0       ??_C@_0CB@INOH@print?5?$CCTeam?5vote?5already?5cast?4?6?$CC@ 200418c0     g_cmds.obj
 0003:000048e4       ??_C@_0CD@JMPF@print?5?$CCNo?5team?5vote?5in?5progress?4@ 200418e4     g_cmds.obj
 0003:00004908       ??_C@_0CF@CJBM@print?5?$CCusage?3?5setviewpos?5x?5y?5z?5y@ 20041908     g_cmds.obj
 0003:00004930       ??_C@_0BI@JKDA@print?5?$CCunknown?5cmd?5?$CFs?6?$CC?$AA@ 20041930     g_cmds.obj
 0003:00004948       ??_C@_05KKBO@stats?$AA@    20041948     g_cmds.obj
 0003:00004950       ??_C@_0L@NFLA@setviewpos?$AA@ 20041950     g_cmds.obj
 0003:0000495c       ??_C@_02BGDL@gc?$AA@       2004195c     g_cmds.obj
 0003:00004960       ??_C@_08PEM@teamvote?$AA@  20041960     g_cmds.obj
 0003:0000496c       ??_C@_0N@OPKJ@callteamvote?$AA@ 2004196c     g_cmds.obj
 0003:0000497c       ??_C@_04CFLO@vote?$AA@     2004197c     g_cmds.obj
 0003:00004984       ??_C@_08BDO@callvote?$AA@  20041984     g_cmds.obj
 0003:00004990       ??_C@_05KJNF@where?$AA@    20041990     g_cmds.obj
 0003:00004998       ??_C@_0L@PFEJ@followprev?$AA@ 20041998     g_cmds.obj
 0003:000049a4       ??_C@_0L@MMM@follownext?$AA@ 200419a4     g_cmds.obj
 0003:000049b0       ??_C@_06DDCP@follow?$AA@   200419b0     g_cmds.obj
 0003:000049b8       ??_C@_09IADL@levelshot?$AA@ 200419b8     g_cmds.obj
 0003:000049c4       ??_C@_06GMBK@noclip?$AA@   200419c4     g_cmds.obj
 0003:000049cc       ??_C@_08BHIO@notarget?$AA@ 200419cc     g_cmds.obj
 0003:000049d8       ??_C@_03IPJE@god?$AA@      200419d8     g_cmds.obj
 0003:000049dc       ??_C@_04JEOP@give?$AA@     200419dc     g_cmds.obj
 0003:000049e4       ??_C@_06ONLB@votell?$AA@   200419e4     g_cmds.obj
 0003:000049ec       ??_C@_0L@KCIN@vosay_team?$AA@ 200419ec     g_cmds.obj
 0003:000049f8       ??_C@_05DIJB@vosay?$AA@    200419f8     g_cmds.obj
 0003:00004a00       ??_C@_09ICHE@vsay_team?$AA@ 20041a00     g_cmds.obj
 0003:00004a0c       ??_C@_04KNAG@vsay?$AA@     20041a0c     g_cmds.obj
 0003:00004a14       ??_C@_04HKFA@tell?$AA@     20041a14     g_cmds.obj
 0003:00004a1c       ??_C@_08PAEI@say_team?$AA@ 20041a1c     g_cmds.obj
 0003:00004a28       ??_C@_03NJAM@say?$AA@      20041a28     g_cmds.obj
 0003:00004a2c       ??_C@_0BE@GMKD@tell?3?5?$CFs?5to?5?$CFs?3?5?$CFs?6?$AA@ 20041a2c     g_cmds.obj
 0003:00004a40       ??_C@_0BF@FLAB@vtell?3?5?$CFs?5to?5?$CFs?3?5?$CFs?6?$AA@ 20041a40     g_cmds.obj
 0003:00004a58       ??_C@_06MOON@praise?$AA@   20041a58     g_cmds.obj
 0003:00004a60       _modNames                  20041a60     g_combat.obj
 0003:00004ac0       ??_C@_0M@KEKF@MOD_GRAPPLE?$AA@ 20041ac0     g_combat.obj
 0003:00004acc       ??_C@_0BB@OGKE@MOD_TRIGGER_HURT?$AA@ 20041acc     g_combat.obj
 0003:00004ae0       ??_C@_0BB@KPAK@MOD_TARGET_LASER?$AA@ 20041ae0     g_combat.obj
 0003:00004af4       ??_C@_0M@HCKJ@MOD_SUICIDE?$AA@ 20041af4     g_combat.obj
 0003:00004b00       ??_C@_0M@DOAD@MOD_FALLING?$AA@ 20041b00     g_combat.obj
 0003:00004b0c       ??_C@_0N@GMKC@MOD_TELEFRAG?$AA@ 20041b0c     g_combat.obj
 0003:00004b1c       ??_C@_09IHFC@MOD_CRUSH?$AA@ 20041b1c     g_combat.obj
 0003:00004b28       ??_C@_08OKHF@MOD_LAVA?$AA@ 20041b28     g_combat.obj
 0003:00004b34       ??_C@_09CAKO@MOD_SLIME?$AA@ 20041b34     g_combat.obj
 0003:00004b40       ??_C@_09NIOD@MOD_WATER?$AA@ 20041b40     g_combat.obj
 0003:00004b4c       ??_C@_0P@BFDC@MOD_BFG_SPLASH?$AA@ 20041b4c     g_combat.obj
 0003:00004b5c       ??_C@_07DMNN@MOD_BFG?$AA@  20041b5c     g_combat.obj
 0003:00004b64       ??_C@_0O@NDNL@MOD_LIGHTNING?$AA@ 20041b64     g_combat.obj
 0003:00004b74       ??_C@_0M@CLFA@MOD_RAILGUN?$AA@ 20041b74     g_combat.obj
 0003:00004b80       ??_C@_0BC@LEOF@MOD_PLASMA_SPLASH?$AA@ 20041b80     g_combat.obj
 0003:00004b94       ??_C@_0L@OOPL@MOD_PLASMA?$AA@ 20041b94     g_combat.obj
 0003:00004ba0       ??_C@_0BC@PBE@MOD_ROCKET_SPLASH?$AA@ 20041ba0     g_combat.obj
 0003:00004bb4       ??_C@_0L@MCEA@MOD_ROCKET?$AA@ 20041bb4     g_combat.obj
 0003:00004bc0       ??_C@_0BD@KNKE@MOD_GRENADE_SPLASH?$AA@ 20041bc0     g_combat.obj
 0003:00004bd4       ??_C@_0M@ECEF@MOD_GRENADE?$AA@ 20041bd4     g_combat.obj
 0003:00004be0       ??_C@_0P@PPEE@MOD_MACHINEGUN?$AA@ 20041be0     g_combat.obj
 0003:00004bf0       ??_C@_0N@EBMG@MOD_GAUNTLET?$AA@ 20041bf0     g_combat.obj
 0003:00004c00       ??_C@_0M@ICAK@MOD_SHOTGUN?$AA@ 20041c00     g_combat.obj
 0003:00004c0c       ??_C@_0M@BANH@MOD_UNKNOWN?$AA@ 20041c0c     g_combat.obj
 0003:00004c18       ??_C@_0P@BLOK@kamikaze?5timer?$AA@ 20041c18     g_combat.obj
 0003:00004c28       ??_C@_0BB@GAHF@team_blueobelisk?$AA@ 20041c28     g_combat.obj
 0003:00004c3c       ??_C@_0BA@IPGA@team_redobelisk?$AA@ 20041c3c     g_combat.obj
 0003:00004c4c       ??_C@_0CE@MOLM@Kill?3?5?$CFi?5?$CFi?5?$CFi?3?5?$CFs?5killed?5?$CFs?5by?5@ 20041c4c     g_combat.obj
 0003:00004c70       ??_C@_0P@OHDF@?$DMbad?5obituary?$DO?$AA@ 20041c70     g_combat.obj
 0003:00004c80       ??_C@_07HMIB@?$DMworld?$DO?$AA@ 20041c80     g_combat.obj
 0003:00004c88       ??_C@_0N@LGML@?$DMnon?9client?$DO?$AA@ 20041c88     g_combat.obj
 0003:00004c98       ??_C@_0CM@DKGG@?$CFi?3?5client?3?$CFi?5health?3?$CFi?5damage?3?$CF@ 20041c98     g_combat.obj
 0003:00004cc4       ??_C@_0CA@OJOE@sound?1items?1kamikazerespawn?4wav?$AA@ 20041cc4     g_items.obj
 0003:00004ce4       ??_C@_0BM@BLNJ@RespawnItem?3?5bad?5teammaster?$AA@ 20041ce4     g_items.obj
 0003:00004d00       ??_C@_0N@LAHO@Item?3?5?$CFi?5?$CFs?6?$AA@ 20041d00     g_items.obj
 0003:00004d10       ??_C@_0CJ@GEBL@FinishSpawningItem?3?5?$CFs?5startsoli@ 20041d10     g_items.obj
 0003:00004d3c       ??_C@_0CH@PIGH@?$FO3WARNING?3?5No?5team_CTF_blueflag?5@ 20041d3c     g_items.obj
 0003:00004d64       ??_C@_0CG@HCJH@?$FO3WARNING?3?5No?5team_CTF_redflag?5i@ 20041d64     g_items.obj
 0003:00004d8c       ??_C@_0BD@HN@RegisterItem?3?5NULL?$AA@ 20041d8c     g_items.obj
 0003:00004da0       ??_C@_0BF@EFMJ@?$CFi?5items?5registered?6?$AA@ 20041da0     g_items.obj
 0003:00004db8       ??_C@_0L@LGAP@disable_?$CFs?$AA@ 20041db8     g_items.obj
 0003:00004dc4       ??_C@_0O@CGJM@noglobalsound?$AA@ 20041dc4     g_items.obj
 0003:00004dd4       ??_C@_04OMDE@wait?$AA@     20041dd4     g_items.obj
 0003:00004ddc       ??_C@_06IMKP@random?$AA@   20041ddc     g_items.obj
 0003:000053a0       ??_C@_0L@MENI@g_instagib?$AA@ 200423a0     g_main.obj
 0003:000053ac       ??_C@_0L@BMKK@g_rankings?$AA@ 200423ac     g_main.obj
 0003:000053b8       ??_C@_06LJKO@sv_fps?$AA@   200423b8     g_main.obj
 0003:000053c0       ??_C@_0BC@JHEB@g_lightningDamage?$AA@ 200423c0     g_main.obj
 0003:000053d4       ??_C@_0L@FAKN@g_truePing?$AA@ 200423d4     g_main.obj
 0003:000053e0       ??_C@_03CLPL@2?40?$AA@     200423e0     g_main.obj
 0003:000053e4       ??_C@_0BC@CFJL@g_unlaggedVersion?$AA@ 200423e4     g_main.obj
 0003:000053f8       ??_C@_0P@BBGG@g_delagHitscan?$AA@ 200423f8     g_main.obj
 0003:00005408       ??_C@_0M@JGEC@pmove_fixed?$AA@ 20042408     g_main.obj
 0003:00005414       ??_C@_0BA@DHGA@g_smoothClients?$AA@ 20042414     g_main.obj
 0003:00005424       ??_C@_0N@INJL@g_listEntity?$AA@ 20042424     g_main.obj
 0003:00005434       ??_C@_0M@MFF@g_allowVote?$AA@ 20042434     g_main.obj
 0003:00005440       ??_C@_02PBDP@80?$AA@       20042440     g_main.obj
 0003:00005444       ??_C@_09NJEO@com_blood?$AA@ 20042444     g_main.obj
 0003:00005450       ??_C@_06MBNC@g_motd?$AA@   20042450     g_main.obj
 0003:00005458       ??_C@_0N@NPJN@g_debugAlloc?$AA@ 20042458     g_main.obj
 0003:00005468       ??_C@_0O@GELE@g_debugDamage?$AA@ 20042468     g_main.obj
 0003:00005478       ??_C@_0M@LOLD@g_debugMove?$AA@ 20042478     g_main.obj
 0003:00005484       ??_C@_0N@BBFG@g_inactivity?$AA@ 20042484     g_main.obj
 0003:00005494       ??_C@_0P@KCDK@g_forcerespawn?$AA@ 20042494     g_main.obj
 0003:000054a4       ??_C@_02HPJE@30?$AA@       200424a4     g_main.obj
 0003:000054a8       ??_C@_0BE@MPMK@g_weaponTeamRespawn?$AA@ 200424a8     g_main.obj
 0003:000054bc       ??_C@_0BA@LIKE@g_weaponrespawn?$AA@ 200424bc     g_main.obj
 0003:000054cc       ??_C@_01ECJ@3?$AA@         200424cc     g_main.obj
 0003:000054d0       ??_C@_0N@FLFA@g_quadfactor?$AA@ 200424d0     g_main.obj
 0003:000054e0       ??_C@_04PNOF@1000?$AA@     200424e0     g_main.obj
 0003:000054e8       ??_C@_0M@LHND@g_knockback?$AA@ 200424e8     g_main.obj
 0003:000054f4       ??_C@_03LHGB@800?$AA@      200424f4     g_main.obj
 0003:000054f8       ??_C@_09IEPK@g_gravity?$AA@ 200424f8     g_main.obj
 0003:00005504       ??_C@_03PMLK@320?$AA@      20042504     g_main.obj
 0003:00005508       ??_C@_07DOME@g_speed?$AA@  20042508     g_main.obj
 0003:00005510       ??_C@_09GLCL@dedicated?$AA@ 20042510     g_main.obj
 0003:0000551c       ??_C@_0L@HDNO@g_needpass?$AA@ 2004251c     g_main.obj
 0003:00005528       ??_C@_0M@FKEL@g_filterBan?$AA@ 20042528     g_main.obj
 0003:00005534       ??_C@_08HAAI@g_banIPs?$AA@ 20042534     g_main.obj
 0003:00005540       ??_C@_0L@JDNM@g_password?$AA@ 20042540     g_main.obj
 0003:0000554c       ??_C@_09BGGJ@g_logSync?$AA@ 2004254c     g_main.obj
 0003:00005558       ??_C@_09PMGJ@games?4log?$AA@ 20042558     g_main.obj
 0003:00005564       ??_C@_05KKCN@g_log?$AA@    20042564     g_main.obj
 0003:0000556c       ??_C@_08GPLH@g_warmup?$AA@ 2004256c     g_main.obj
 0003:00005578       ??_C@_0BD@OGFO@g_teamForceBalance?$AA@ 20042578     g_main.obj
 0003:0000558c       ??_C@_0P@DOOK@g_teamAutoJoin?$AA@ 2004258c     g_main.obj
 0003:0000559c       ??_C@_0P@DIBC@g_friendlyFire?$AA@ 2004259c     g_main.obj
 0003:000055ac       ??_C@_0BF@HEGL@g_synchronousClients?$AA@ 200425ac     g_main.obj
 0003:000055c4       ??_C@_0N@ELFE@capturelimit?$AA@ 200425c4     g_main.obj
 0003:000055d4       ??_C@_07NJLK@dmflags?$AA@  200425d4     g_main.obj
 0003:000055dc       ??_C@_0BB@IINK@g_maxGameClients?$AA@ 200425dc     g_main.obj
 0003:000055f0       ??_C@_0L@BIFK@sv_mapname?$AA@ 200425f0     g_main.obj
 0003:000055fc       ??_C@_0M@BGFJ@g_restarted?$AA@ 200425fc     g_main.obj
 0003:00005608       ??_C@_0M@NOEG@May?514?52006?$AA@ 20042608     g_main.obj
 0003:00005614       ??_C@_08HGGM@gamedate?$AA@ 20042614     g_main.obj
 0003:00005620       ??_C@_0M@EBJE@trepidation?$AA@ 20042620     g_main.obj
 0003:0000562c       ??_C@_08NPAP@gamename?$AA@ 2004262c     g_main.obj
 0003:00005638       ??_C@_09CPMK@sv_cheats?$AA@ 20042638     g_main.obj
 0003:00005644       ??_C@_0BL@KDOE@?$CFi?5teams?5with?5?$CFi?5entities?6?$AA@ 20042644     g_main.obj
 0003:00005660       ??_C@_0DA@LFAN@g_gametype?5?$CFi?5is?5out?5of?5range?0?5d@ 20042660     g_main.obj
 0003:00005690       ??_C@_0CC@KJEE@print?5?$CCServer?3?5?$CFs?5changed?5to?5?$CFs?6@ 20042690     g_main.obj
 0003:000056b4       ??_C@_0BA@ELKM@com_buildScript?$AA@ 200426b4     g_main.obj
 0003:000056c4       ??_C@_0CF@GMCH@?9?9?9?9?9?9?9?9?9?9?9?9?9?9?9?9?9?9?9?9?9?9?9?9?9?9?9?9?9?9?9?9@ 200426c4     g_main.obj
 0003:000056ec       ??_C@_0BG@OGGC@Not?5logging?5to?5disk?4?6?$AA@ 200426ec     g_main.obj
 0003:00005704       ??_C@_0O@ELOI@InitGame?3?5?$CFs?6?$AA@ 20042704     g_main.obj
 0003:00005714       ??_C@_0DO@PGFB@?9?9?9?9?9?9?9?9?9?9?9?9?9?9?9?9?9?9?9?9?9?9?9?9?9?9?9?9?9?9?9?9@ 20042714     g_main.obj
 0003:00005754       ??_C@_0CE@BBND@WARNING?3?5Couldn?8t?5open?5logfile?3?5@ 20042754     g_main.obj
 0003:00005778       ??_C@_0BF@PACI@sound?1player?1fry?4wav?$AA@ 20042778     g_main.obj
 0003:00005790       ??_C@_0O@BPB@gamedate?3?5?$CFs?6?$AA@ 20042790     g_main.obj
 0003:000057a0       ??_C@_0O@CEEC@gamename?3?5?$CFs?6?$AA@ 200427a0     g_main.obj
 0003:000057b0       ??_C@_0CF@PAKE@?9?9?9?9?9?9?9?5Game?5Initialization?5?9?9?9?9@ 200427b0     g_main.obj
 0003:000057d8       ??_C@_0P@KMFJ@ShutdownGame?3?6?$AA@ 200427d8     g_main.obj
 0003:000057e8       ??_C@_0BI@PFML@?$DN?$DN?$DN?$DN?5ShutdownGame?5?$DN?$DN?$DN?$DN?6?$AA@ 200427e8     g_main.obj
 0003:00005800       ??_C@_01IFC@f?$AA@         20042800     g_main.obj
 0003:00005804       ??_C@_0BJ@JMLD@info_player_intermission?$AA@ 20042804     g_main.obj
 0003:00005820       ??_C@_0O@CHIC@vstr?5nextmap?6?$AA@ 20042820     g_main.obj
 0003:00005830       ??_C@_0P@IGLO@map_restart?50?6?$AA@ 20042830     g_main.obj
 0003:00005840       ??_C@_09JLOJ@?$CF3i?3?$CFi?$CFi?5?$AA@ 20042840     g_main.obj
 0003:0000584c       ??_C@_0CE@CBJC@score?3?5?$CFi?5?5ping?3?5?$CFi?5?5client?3?5?$CFi?5@ 2004284c     g_main.obj
 0003:00005870       ??_C@_0BB@GBBB@red?3?$CFi?5?5blue?3?$CFi?6?$AA@ 20042870     g_main.obj
 0003:00005884       ??_C@_09PDJB@Exit?3?5?$CFs?6?$AA@ 20042884     g_main.obj
 0003:00005890       ??_C@_0BC@MOCC@Capturelimit?5hit?4?$AA@ 20042890     g_main.obj
 0003:000058a4       ??_C@_0CE@NGAF@print?5?$CCBlue?5hit?5the?5capturelimit@ 200428a4     g_main.obj
 0003:000058c8       ??_C@_0CD@EPFI@print?5?$CCRed?5hit?5the?5capturelimit?4@ 200428c8     g_main.obj
 0003:000058ec       ??_C@_0CB@LDNE@print?5?$CC?$CFs?$FO7?5hit?5the?5fraglimit?4?6?$CC@ 200428ec     g_main.obj
 0003:00005910       ??_C@_0CB@OAJJ@print?5?$CCBlue?5hit?5the?5fraglimit?4?6?$CC@ 20042910     g_main.obj
 0003:00005934       ??_C@_0P@CBAF@Fraglimit?5hit?4?$AA@ 20042934     g_main.obj
 0003:00005944       ??_C@_0CA@EKHK@print?5?$CCRed?5hit?5the?5fraglimit?4?6?$CC?$AA@ 20042944     g_main.obj
 0003:00005964       ??_C@_0P@HFH@Timelimit?5hit?4?$AA@ 20042964     g_main.obj
 0003:00005974       ??_C@_0BI@PGBD@print?5?$CCTimelimit?5hit?4?6?$CC?$AA@ 20042974     g_main.obj
 0003:0000598c       ??_C@_08HCGC@Warmup?3?6?$AA@ 2004298c     g_main.obj
 0003:00005998       ??_C@_0BG@INA@print?5?$CCVote?5failed?4?6?$CC?$AA@ 20042998     g_main.obj
 0003:000059b0       ??_C@_0BG@HOFN@print?5?$CCVote?5passed?4?6?$CC?$AA@ 200429b0     g_main.obj
 0003:000059c8       ??_C@_0CD@EPAB@print?5?$CC?$CFs?5is?5the?5new?5team?5leader@ 200429c8     g_main.obj
 0003:000059ec       ??_C@_0CH@LJKP@print?5?$CC?$CFs?5is?5not?5on?5the?5team?5any@ 200429ec     g_main.obj
 0003:00005a14       ??_C@_0BN@GKAB@print?5?$CC?$CFs?5is?5not?5connected?6?$CC?$AA@ 20042a14     g_main.obj
 0003:00005a34       ??_C@_0BL@KNMH@print?5?$CCTeam?5vote?5failed?4?6?$CC?$AA@ 20042a34     g_main.obj
 0003:00005a50       ??_C@_0BL@NLEK@print?5?$CCTeam?5vote?5passed?4?6?$CC?$AA@ 20042a50     g_main.obj
 0003:00005a6c       ??_C@_0BA@IHJH@NULL?5ent?9?$DOthink?$AA@ 20042a6c     g_main.obj
 0003:00005a7c       ??_C@_08JCCB@?$CF4i?3?5?$CFs?6?$AA@ 20042a7c     g_main.obj
 0003:00005a88       ??_C@_0CL@CLMF@G_Alloc?3?5failed?5on?5allocation?5of@ 20042a88     g_mem.obj
 0003:00005ab4       ??_C@_0BP@FHDO@G_Alloc?5of?5?$CFi?5bytes?5?$CI?$CFi?5left?$CJ?6?$AA@ 20042ab4     g_mem.obj
 0003:00005ad4       ??_C@_0DC@EKMP@Game?5memory?5status?3?5?$CFi?5out?5of?5?$CFi@ 20042ad4     g_mem.obj
 0003:00005b08       ??_C@_0CO@FHKI@Couldn?8t?5find?5target?5for?5misc_pa@ 20042b08     g_misc.obj
 0003:00005b38       ??_C@_04JBCE@roll?$AA@     20042b38     g_misc.obj
 0003:00005b40       ??_C@_04MKCL@hook?$AA@     20042b40     g_missile.obj
 0003:00005b48       ??_C@_06BKOB@plasma?$AA@   20042b48     g_missile.obj
 0003:00005b50       ??_C@_07HCFB@grenade?$AA@  20042b50     g_missile.obj
 0003:00005b58       ??_C@_05GIBP@flame?$AA@    20042b58     g_missile.obj
 0003:00005b60       ??_C@_03MJJP@bfg?$AA@      20042b60     g_missile.obj
 0003:00005b64       ??_C@_06DGFK@rocket?$AA@   20042b64     g_missile.obj
 0003:00005b6c       ??_C@_0CC@CAB@pushed_p?5?$DO?5?$CGpushed?$FLMAX_GENTITIES@ 20042b6c     g_mover.obj
 0003:00005b90       ??_C@_0CE@FCLG@Reached_BinaryMover?3?5bad?5moverSt@ 20042b90     g_mover.obj
 0003:00005bb4       ??_C@_05HMGA@color?$AA@    20042bb4     g_mover.obj
 0003:00005bbc       ??_C@_05LJGE@1?51?51?$AA@  20042bbc     g_mover.obj
 0003:00005bc4       ??_C@_05DKPF@light?$AA@    20042bc4     g_mover.obj
 0003:00005bcc       ??_C@_05DOHE@noise?$AA@    20042bcc     g_mover.obj
 0003:00005bd4       ??_C@_0N@LBGK@door_trigger?$AA@ 20042bd4     g_mover.obj
 0003:00005be4       ??_C@_03KLED@dmg?$AA@      20042be4     g_mover.obj
 0003:00005be8       ??_C@_0BP@HGJN@sound?1movers?1doors?1dr1_end?4wav?$AA@ 20042be8     g_mover.obj
 0003:00005c08       ??_C@_0CA@MLKC@sound?1movers?1doors?1dr1_strt?4wav?$AA@ 20042c08     g_mover.obj
 0003:00005c28       ??_C@_0N@DENH@plat_trigger?$AA@ 20042c28     g_mover.obj
 0003:00005c38       ??_C@_06OKPG@height?$AA@   20042c38     g_mover.obj
 0003:00005c40       ??_C@_05PHJK@speed?$AA@    20042c40     g_mover.obj
 0003:00005c48       ??_C@_0BP@PPCL@sound?1movers?1plats?1pt1_end?4wav?$AA@ 20042c48     g_mover.obj
 0003:00005c68       ??_C@_0CA@IMCL@sound?1movers?1plats?1pt1_strt?4wav?$AA@ 20042c68     g_mover.obj
 0003:00005c88       ??_C@_0CA@PEIC@sound?1movers?1switches?1butn2?4wav?$AA@ 20042c88     g_mover.obj
 0003:00005ca8       ??_C@_0DB@CBFO@Train?5corner?5at?5?$CFs?5without?5a?5tar@ 20042ca8     g_mover.obj
 0003:00005cdc       ??_C@_0CF@GPIC@Train?5corner?5at?5?$CFs?5without?5a?5tar@ 20042cdc     g_mover.obj
 0003:00005d04       ??_C@_0M@PJIA@path_corner?$AA@ 20042d04     g_mover.obj
 0003:00005d10       ??_C@_0CJ@EPKJ@func_train?5at?5?$CFs?5with?5an?5unfound@ 20042d10     g_mover.obj
 0003:00005d3c       ??_C@_0CG@FPGB@path_corner?5with?5no?5targetname?5a@ 20042d3c     g_mover.obj
 0003:00005d64       ??_C@_0CD@EJHD@func_train?5without?5a?5target?5at?5?$CF@ 20042d64     g_mover.obj
 0003:00005d88       ??_C@_05JHNP@phase?$AA@    20042d88     g_mover.obj
 0003:00005d90       ??_C@_02CKLK@32?$AA@       20042d90     g_mover.obj
 0003:00005d94       ??_C@_09KDJI@session?$CFi?$AA@ 20042d94     g_session.obj
 0003:00005da0       ??_C@_0BF@DPFM@?$CFi?5?$CFi?5?$CFi?5?$CFi?5?$CFi?5?$CFi?5?$CFi?$AA@ 20042da0     g_session.obj
 0003:00005db8       ??_C@_0CK@DPKC@Gametype?5changed?0?5clearing?5sessi@ 20042db8     g_session.obj
 0003:00005de4       ??_C@_07CLAB@session?$AA@  20042de4     g_session.obj
 0003:00005df0       _fields                    20042df0     g_spawn.obj
 0003:00005f40       _spawns                    20042f40     g_spawn.obj
 0003:000060ec       ??_C@_0P@IPDJ@teamtournament?$AA@ 200430ec     g_spawn.obj
 0003:000060fc       ??_C@_09MIOM@harvester?$AA@ 200430fc     g_spawn.obj
 0003:00006108       ??_C@_07CGNJ@obelisk?$AA@  20043108     g_spawn.obj
 0003:00006110       ??_C@_07BODI@oneflag?$AA@  20043110     g_spawn.obj
 0003:00006118       ??_C@_03HGOC@ctf?$AA@      20043118     g_spawn.obj
 0003:0000611c       ??_C@_06IBFJ@single?$AA@   2004311c     g_spawn.obj
 0003:00006124       ??_C@_0L@DLNP@tournament?$AA@ 20043124     g_spawn.obj
 0003:00006130       ??_C@_03HOLH@ffa?$AA@      20043130     g_spawn.obj
 0003:00006134       ??_C@_0N@EBAD@item_botroam?$AA@ 20043134     g_spawn.obj
 0003:00006144       ??_C@_0BD@DPDA@team_CTF_bluespawn?$AA@ 20043144     g_spawn.obj
 0003:00006158       ??_C@_0BC@FJAB@team_CTF_redspawn?$AA@ 20043158     g_spawn.obj
 0003:0000616c       ??_C@_0BE@KACC@team_CTF_blueplayer?$AA@ 2004316c     g_spawn.obj
 0003:00006180       ??_C@_0BD@POEE@team_CTF_redplayer?$AA@ 20043180     g_spawn.obj
 0003:00006194       ??_C@_0P@LABE@shooter_plasma?$AA@ 20043194     g_spawn.obj
 0003:000061a4       ??_C@_0BA@BOPL@shooter_grenade?$AA@ 200431a4     g_spawn.obj
 0003:000061b4       ??_C@_0P@JMKP@shooter_rocket?$AA@ 200431b4     g_spawn.obj
 0003:000061c4       ??_C@_0BD@BBDK@misc_portal_camera?$AA@ 200431c4     g_spawn.obj
 0003:000061d8       ??_C@_0BE@BPFF@misc_portal_surface?$AA@ 200431d8     g_spawn.obj
 0003:000061ec       ??_C@_0L@FNHL@misc_model?$AA@ 200431ec     g_spawn.obj
 0003:000061f8       ??_C@_0BF@HFGF@misc_teleporter_dest?$AA@ 200431f8     g_spawn.obj
 0003:00006210       ??_C@_0M@HJLH@target_push?$AA@ 20043210     g_spawn.obj
 0003:0000621c       ??_C@_0BA@FCBO@target_location?$AA@ 2004321c     g_spawn.obj
 0003:0000622c       ??_C@_0BA@OKBB@target_position?$AA@ 2004322c     g_spawn.obj
 0003:0000623c       ??_C@_0M@IEIB@target_kill?$AA@ 2004323c     g_spawn.obj
 0003:00006248       ??_C@_0BC@JHNF@target_teleporter?$AA@ 20043248     g_spawn.obj
 0003:0000625c       ??_C@_0N@KEBN@target_score?$AA@ 2004325c     g_spawn.obj
 0003:0000626c       ??_C@_0N@IDNA@target_laser?$AA@ 2004326c     g_spawn.obj
 0003:0000627c       ??_C@_0N@FOMG@target_print?$AA@ 2004327c     g_spawn.obj
 0003:0000628c       ??_C@_0P@GCHO@target_speaker?$AA@ 2004328c     g_spawn.obj
 0003:0000629c       ??_C@_0BH@NGMJ@target_remove_powerups?$AA@ 2004329c     g_spawn.obj
 0003:000062b4       ??_C@_0M@DHNO@target_give?$AA@ 200432b4     g_spawn.obj
 0003:000062c0       ??_C@_0N@HKNA@trigger_hurt?$AA@ 200432c0     g_spawn.obj
 0003:000062d0       ??_C@_0BB@EDMK@trigger_teleport?$AA@ 200432d0     g_spawn.obj
 0003:000062e4       ??_C@_0N@EEFP@trigger_push?$AA@ 200432e4     g_spawn.obj
 0003:000062f4       ??_C@_0P@LGNO@trigger_always?$AA@ 200432f4     g_spawn.obj
 0003:00006304       ??_C@_0L@PCLN@func_group?$AA@ 20043304     g_spawn.obj
 0003:00006310       ??_C@_0L@OLKI@func_train?$AA@ 20043310     g_spawn.obj
 0003:0000631c       ??_C@_0O@OIAN@func_pendulum?$AA@ 2004331c     g_spawn.obj
 0003:0000632c       ??_C@_0N@BKKD@func_bobbing?$AA@ 2004332c     g_spawn.obj
 0003:0000633c       ??_C@_0O@HHKP@func_rotating?$AA@ 2004333c     g_spawn.obj
 0003:0000634c       ??_C@_0M@LMAL@func_static?$AA@ 2004334c     g_spawn.obj
 0003:00006358       ??_C@_09HHKD@func_plat?$AA@ 20043358     g_spawn.obj
 0003:00006364       ??_C@_09ELFE@info_camp?$AA@ 20043364     g_spawn.obj
 0003:00006370       ??_C@_0N@BOHL@info_notnull?$AA@ 20043370     g_spawn.obj
 0003:00006380       ??_C@_09PJNA@info_null?$AA@ 20043380     g_spawn.obj
 0003:0000638c       ??_C@_0BC@MCPA@info_player_start?$AA@ 2004338c     g_spawn.obj
 0003:000063a0       ??_C@_0BE@JLFH@targetShaderNewName?$AA@ 200433a0     g_spawn.obj
 0003:000063b4       ??_C@_0BB@FAGH@targetShaderName?$AA@ 200433b4     g_spawn.obj
 0003:000063c8       ??_C@_06MFB@angles?$AA@    200433c8     g_spawn.obj
 0003:000063d0       ??_C@_05HGHB@count?$AA@    200433d0     g_spawn.obj
 0003:000063d8       ??_C@_07NPGL@message?$AA@  200433d8     g_spawn.obj
 0003:000063e0       ??_C@_06FGAJ@model2?$AA@   200433e0     g_spawn.obj
 0003:000063e8       ??_C@_0CC@GHOH@?$CFs?5doesn?8t?5have?5a?5spawn?5function@ 200433e8     g_spawn.obj
 0003:0000640c       ??_C@_0BN@ENGO@G_CallSpawn?3?5NULL?5classname?6?$AA@ 2004340c     g_spawn.obj
 0003:0000642c       ??_C@_08MIDI@gametype?$AA@ 2004342c     g_spawn.obj
 0003:00006438       ??_C@_06DDPM@notq3a?$AA@   20043438     g_spawn.obj
 0003:00006440       ??_C@_07FFFB@notfree?$AA@  20043440     g_spawn.obj
 0003:00006448       ??_C@_07NLMN@notteam?$AA@  20043448     g_spawn.obj
 0003:00006450       ??_C@_09FGLM@notsingle?$AA@ 20043450     g_spawn.obj
 0003:0000645c       ??_C@_0CE@KEJD@G_AddSpawnVarToken?3?5MAX_SPAWN_CH@ 2004345c     g_spawn.obj
 0003:00006480       ??_C@_0CB@KIDB@G_ParseSpawnVars?3?5MAX_SPAWN_VARS@ 20043480     g_spawn.obj
 0003:000064a4       ??_C@_0CN@GGMF@G_ParseSpawnVars?3?5closing?5brace?5@ 200434a4     g_spawn.obj
 0003:000064d4       ??_C@_0CM@FCJP@G_ParseSpawnVars?3?5EOF?5without?5cl@ 200434d4     g_spawn.obj
 0003:00006500       ??_C@_0CM@CKA@G_ParseSpawnVars?3?5found?5?$CFs?5when?5@ 20043500     g_spawn.obj
 0003:0000652c       ??_C@_0P@KELP@g_enableBreath?$AA@ 2004352c     g_spawn.obj
 0003:0000653c       ??_C@_0N@KLLF@enableBreath?$AA@ 2004353c     g_spawn.obj
 0003:0000654c       ??_C@_0N@HBAA@g_enableDust?$AA@ 2004354c     g_spawn.obj
 0003:0000655c       ??_C@_0L@HNLK@enableDust?$AA@ 2004355c     g_spawn.obj
 0003:00006568       ??_C@_07CAPN@gravity?$AA@  20043568     g_spawn.obj
 0003:00006570       ??_C@_05PDCG@music?$AA@    20043570     g_spawn.obj
 0003:00006578       ??_C@_08LEPD@baseq3?91?$AA@ 20043578     g_spawn.obj
 0003:00006584       ??_C@_0DD@DCJO@SP_worldspawn?3?5The?5first?5entity?5@ 20043584     g_spawn.obj
 0003:000065b8       ??_C@_0L@LME@worldspawn?$AA@ 200435b8     g_spawn.obj
 0003:000065c4       ??_C@_0BL@LMED@SpawnEntities?3?5no?5entities?$AA@ 200435c4     g_spawn.obj
 0003:000065e0       ??_C@_0BI@EBJA@IP?5filter?5list?5is?5full?6?$AA@ 200435e0     g_svcmds.obj
 0003:000065f8       ??_C@_0BI@PKEJ@Bad?5filter?5address?3?5?$CFs?6?$AA@ 200435f8     g_svcmds.obj
 0003:00006610       ??_C@_0CO@OJMM@g_banIPs?5overflowed?5at?5MAX_CVAR_@ 20043610     g_svcmds.obj
 0003:00006640       ??_C@_01PJCK@?4?$AA@       20043640     g_svcmds.obj
 0003:00006644       ??_C@_01FDHG@?$CK?$AA@     20043644     g_svcmds.obj
 0003:00006648       ??_C@_0BJ@NFNM@Usage?3?5?5addip?5?$DMip?9mask?$DO?6?$AA@ 20043648     g_svcmds.obj
 0003:00006664       ??_C@_09ECMH@Removed?4?6?$AA@ 20043664     g_svcmds.obj
 0003:00006670       ??_C@_0BB@MKAO@Didn?8t?5find?5?$CFs?4?6?$AA@ 20043670     g_svcmds.obj
 0003:00006684       ??_C@_0BP@DAMB@Usage?3?5?5sv?5removeip?5?$DMip?9mask?$DO?6?$AA@ 20043684     g_svcmds.obj
 0003:000066a4       ??_C@_01BJG@?6?$AA@        200436a4     g_svcmds.obj
 0003:000066a8       ??_C@_0BF@PBDM@?$CF3i?5?5?5?5?5?5?5?5?5?5?5?5?5?5?5?5?5?$AA@ 200436a8     g_svcmds.obj
 0003:000066c0       ??_C@_0BF@OOKC@ET_GRAPPLE?5?5?5?5?5?5?5?5?5?5?$AA@ 200436c0     g_svcmds.obj
 0003:000066d8       ??_C@_0BF@MHAK@ET_INVISIBLE?5?5?5?5?5?5?5?5?$AA@ 200436d8     g_svcmds.obj
 0003:000066f0       ??_C@_0BF@FFFF@ET_TELEPORT_TRIGGER?5?$AA@ 200436f0     g_svcmds.obj
 0003:00006708       ??_C@_0BF@EJBM@ET_PUSH_TRIGGER?5?5?5?5?5?$AA@ 20043708     g_svcmds.obj
 0003:00006720       ??_C@_0BF@MBJA@ET_SPEAKER?5?5?5?5?5?5?5?5?5?5?$AA@ 20043720     g_svcmds.obj
 0003:00006738       ??_C@_0BF@MNAH@ET_PORTAL?5?5?5?5?5?5?5?5?5?5?5?$AA@ 20043738     g_svcmds.obj
 0003:00006750       ??_C@_0BF@NIEH@ET_BEAM?5?5?5?5?5?5?5?5?5?5?5?5?5?$AA@ 20043750     g_svcmds.obj
 0003:00006768       ??_C@_0BF@FPBB@ET_MOVER?5?5?5?5?5?5?5?5?5?5?5?5?$AA@ 20043768     g_svcmds.obj
 0003:00006780       ??_C@_0BF@FEPN@ET_MISSILE?5?5?5?5?5?5?5?5?5?5?$AA@ 20043780     g_svcmds.obj
 0003:00006798       ??_C@_0BF@FCEC@ET_ITEM?5?5?5?5?5?5?5?5?5?5?5?5?5?$AA@ 20043798     g_svcmds.obj
 0003:000067b0       ??_C@_0BF@HJAO@ET_PLAYER?5?5?5?5?5?5?5?5?5?5?5?$AA@ 200437b0     g_svcmds.obj
 0003:000067c8       ??_C@_0BF@MCJK@ET_GENERAL?5?5?5?5?5?5?5?5?5?5?$AA@ 200437c8     g_svcmds.obj
 0003:000067e0       ??_C@_04KJND@?$CF3i?3?$AA@ 200437e0     g_svcmds.obj
 0003:000067e8       ??_C@_0BO@OFML@User?5?$CFs?5is?5not?5on?5the?5server?6?$AA@ 200437e8     g_svcmds.obj
 0003:00006808       ??_C@_0BF@KOCH@Bad?5client?5slot?3?5?$CFi?6?$AA@ 20043808     g_svcmds.obj
 0003:00006820       ??_C@_0BM@GKOB@Client?5?$CFi?5is?5not?5connected?6?$AA@ 20043820     g_svcmds.obj
 0003:0000683c       ??_C@_0BD@CCFJ@print?5?$CCserver?3?5?$CFs?$CC?$AA@ 2004383c     g_svcmds.obj
 0003:00006850       ??_C@_09NLOG@g_banIPs?6?$AA@ 20043850     g_svcmds.obj
 0003:0000685c       ??_C@_06GDHL@listip?$AA@   2004385c     g_svcmds.obj
 0003:00006864       ??_C@_08KLO@removeip?$AA@  20043864     g_svcmds.obj
 0003:00006870       ??_C@_05MLCI@addip?$AA@    20043870     g_svcmds.obj
 0003:00006878       ??_C@_0N@MLJ@abort_podium?$AA@ 20043878     g_svcmds.obj
 0003:00006888       ??_C@_07KCML@botlist?$AA@  20043888     g_svcmds.obj
 0003:00006890       ??_C@_06JDOB@addbot?$AA@   20043890     g_svcmds.obj
 0003:00006898       ??_C@_0M@PPPN@game_memory?$AA@ 20043898     g_svcmds.obj
 0003:000068a4       ??_C@_09EEOJ@forceteam?$AA@ 200438a4     g_svcmds.obj
 0003:000068b0       ??_C@_0L@JNGK@entitylist?$AA@ 200438b0     g_svcmds.obj
 0003:000068c0       ??_C@_05BFAE@delay?$AA@    200438c0     g_target.obj
 0003:000068c8       ??_C@_07BHNH@cp?5?$CC?$CFs?$CC?$AA@ 200438c8     g_target.obj
 0003:000068d0       ??_C@_06FHNF@?$CFs?4wav?$AA@ 200438d0     g_target.obj
 0003:000068d8       ??_C@_04MPDF@?4wav?$AA@    200438d8     g_target.obj
 0003:000068e0       ??_C@_0CJ@NMMJ@target_speaker?5without?5a?5noise?5k@ 200438e0     g_target.obj
 0003:0000690c       ??_C@_07KNAL@NOSOUND?$AA@  2004390c     g_target.obj
 0003:00006914       ??_C@_0BO@BFAL@?$CFs?5at?5?$CFs?3?5?$CFs?5is?5a?5bad?5target?6?$AA@ 20043914     g_target.obj
 0003:00006934       ??_C@_0CG@EAJC@Couldn?8t?5find?5teleporter?5destina@ 20043934     g_target.obj
 0003:0000695c       ??_C@_0BF@ONKA@untargeted?5?$CFs?5at?5?$CFs?6?$AA@ 2004395c     g_target.obj
 0003:00006974       ??_C@_07CAMD@unknown?$AA@  20043974     g_target.obj
 0003:0000698c       ??_C@_04MICK@FREE?$AA@     2004398c     g_team.obj
 0003:00006994       ??_C@_09KPLM@SPECTATOR?$AA@ 20043994     g_team.obj
 0003:000069a0       ??_C@_04GKGD@BLUE?$AA@     200439a0     g_team.obj
 0003:000069a8       ??_C@_03OJNE@RED?$AA@      200439a8     g_team.obj
 0003:000069ac       ??_C@_0BB@MPDE@PrintMsg?5overrun?$AA@ 200439ac     g_team.obj
 0003:000069c0       ??_C@_0CB@DELP@?$CFs?$FO7?5fragged?5?$CFs?8s?5flag?5carrier?$CB?6@ 200439c0     g_team.obj
 0003:000069e4       ??_C@_0BF@KKFJ@team_CTF_neutralflag?$AA@ 200439e4     g_team.obj
 0003:000069fc       ??_C@_0CP@BPBM@Warning?3?5?5NULL?5passed?5to?5Team_Re@ 200439fc     g_team.obj
 0003:00006a2c       ??_C@_0CN@EGAB@Warning?3?5?5NULL?5passed?5to?5Team_Ta@ 20043a2c     g_team.obj
 0003:00006a5c       ??_C@_0DA@KEMJ@Warning?3?5?5NULL?5passed?5to?5Team_Ca@ 20043a5c     g_team.obj
 0003:00006a8c       ??_C@_0BL@IBGD@The?5?$CFs?5flag?5has?5returned?$CB?6?$AA@ 20043a8c     g_team.obj
 0003:00006aa8       ??_C@_0BI@NDAH@The?5flag?5has?5returned?$CB?6?$AA@ 20043aa8     g_team.obj
 0003:00006ac0       ??_C@_0BM@KOJG@?$CFs?$FO7?5captured?5the?5?$CFs?5flag?$CB?6?$AA@ 20043ac0     g_team.obj
 0003:00006adc       ??_C@_0BM@DHLJ@?$CFs?$FO7?5returned?5the?5?$CFs?5flag?$CB?6?$AA@ 20043adc     g_team.obj
 0003:00006af8       ??_C@_0BH@MFCE@?$CFs?$FO7?5got?5the?5?$CFs?5flag?$CB?6?$AA@ 20043af8     g_team.obj
 0003:00006b10       ??_C@_0CG@MPPE@Don?8t?5know?5what?5team?5the?5flag?5is@ 20043b10     g_team.obj
 0003:00006b38       ??_C@_08FFDF@?$CFc?$CFc?$CFs?$FO7?$AA@ 20043b38     g_team.obj
 0003:00006b44       ??_C@_0M@CCED@tinfo?5?$CFi?5?$CFs?$AA@ 20043b44     g_team.obj
 0003:00006b50       ??_C@_0BD@EFOB@?5?$CFi?5?$CFi?5?$CFi?5?$CFi?5?$CFi?5?$CFi?$AA@ 20043b50     g_team.obj
 0003:00006b64       ??_C@_0CF@HHGL@trigger_multiple?5has?5random?5?$DO?$DN?5w@ 20043b64     g_trigger.obj
 0003:00006b8c       ??_C@_03IPBN@0?45?$AA@     20043b8c     g_trigger.obj
 0003:00006b90       ??_C@_0BI@NOB@sound?1world?1jumppad?4wav?$AA@ 20043b90     g_trigger.obj
 0003:00006ba8       ??_C@_0BH@IKPG@sound?1misc?1windfly?4wav?$AA@ 20043ba8     g_trigger.obj
 0003:00006bc0       ??_C@_0BI@DGOO@sound?1world?1electro?4wav?$AA@ 20043bc0     g_trigger.obj
 0003:00006bd8       ??_C@_0CF@NBCN@func_timer?5at?5?$CFs?5has?5random?5?$DO?$DN?5w@ 20043bd8     g_trigger.obj
 0003:00006c00       ??_C@_0ND@DEGD@print?5?$CC?$FO1No?5rec?3?5time?3?5?$CFd?0?5j?3?5?$CFd@ 20043c00     g_unlagged.obj
 0003:00006cd4       ??_C@_0NA@LEBG@print?5?$CC?$FO1Rec?3?5time?3?5?$CFd?0?5j?3?5?$CFd?0?5k@ 20043cd4     g_unlagged.obj
 0003:00006dd4       ??_C@_0N@GICG@?$CFs?$DN?$CFs?3?$CF5?42f?$EA?$AA@ 20043dd4     g_utils.obj
 0003:00006de4       ??_C@_0CC@OEDG@G_FindConfigstringIndex?3?5overflo@ 20043de4     g_utils.obj
 0003:00006e08       ??_C@_0CD@DAPB@G_PickTarget?3?5target?5?$CFs?5not?5foun@ 20043e08     g_utils.obj
 0003:00006e2c       ??_C@_0CK@EMIN@G_PickTarget?5called?5with?5NULL?5ta@ 20043e2c     g_utils.obj
 0003:00006e58       ??_C@_0CI@IBFM@entity?5was?5removed?5while?5using?5t@ 20043e58     g_utils.obj
 0003:00006e80       ??_C@_0BO@BFGM@WARNING?3?5Entity?5used?5itself?4?6?$AA@ 20043e80     g_utils.obj
 0003:00006ea0       ??_C@_0L@IIGH@?$CI?$CFi?5?$CFi?5?$CFi?$CJ?$AA@ 20043ea0     g_utils.obj
 0003:00006eac       ??_C@_07MLMP@noclass?$AA@  20043eac     g_utils.obj
 0003:00006eb4       ??_C@_0BK@LFDO@G_Spawn?3?5no?5free?5entities?$AA@ 20043eb4     g_utils.obj
 0003:00006ed0       ??_C@_05JPNL@freed?$AA@    20043ed0     g_utils.obj
 0003:00006ed8       ??_C@_0L@NBFK@tempEntity?$AA@ 20043ed8     g_utils.obj
 0003:00006ee4       ??_C@_0CM@GOCH@G_AddEvent?3?5zero?5event?5added?5for@ 20043ee4     g_utils.obj
 0003:00006f10       _axisDefault               20043f10     q_math.obj
 0003:00006f34       _colorBlack                20043f34     q_math.obj
 0003:00006f44       _colorRed                  20043f44     q_math.obj
 0003:00006f54       _colorGreen                20043f54     q_math.obj
 0003:00006f64       _colorBlue                 20043f64     q_math.obj
 0003:00006f74       _colorYellow               20043f74     q_math.obj
 0003:00006f84       _colorMagenta              20043f84     q_math.obj
 0003:00006f94       _colorCyan                 20043f94     q_math.obj
 0003:00006fa4       _colorWhite                20043fa4     q_math.obj
 0003:00006fb4       _colorLtGrey               20043fb4     q_math.obj
 0003:00006fc4       _colorMdGrey               20043fc4     q_math.obj
 0003:00006fd4       _colorDkGrey               20043fd4     q_math.obj
 0003:00006fe4       _g_color_table             20043fe4     q_math.obj
 0003:00007064       _bytedirs                  20044064     q_math.obj
 0003:000077fc       ??_C@_0BJ@GDCK@Q_strncpyz?3?5destsize?5?$DM?51?$AA@ 200447fc     q_shared.obj
 0003:00007818       ??_C@_0BF@OBLI@Q_strncpyz?3?5NULL?5src?$AA@ 20044818     q_shared.obj
 0003:00007830       ??_C@_0BG@BANA@Q_strncpyz?3?5NULL?5dest?$AA@ 20044830     q_shared.obj
 0003:00007848       ??_C@_0BN@PKJG@Q_strcat?3?5already?5overflowed?$AA@ 20044848     q_shared.obj
 0003:00007868       ??_C@_0CD@KCEE@Com_sprintf?3?5overflow?5of?5?$CFi?5in?5?$CF@ 20044868     q_shared.obj
 0003:0000788c       ??_C@_0CC@NDC@Com_sprintf?3?5overflowed?5bigbuffe@ 2004488c     q_shared.obj
 0003:000078b0       ??_C@_0CG@FAFH@Info_ValueForKey?3?5oversize?5infos@ 200448b0     q_shared.obj
 0003:000078d8       ??_C@_0CE@CNEE@Info_RemoveKey?3?5oversize?5infostr@ 200448d8     q_shared.obj
 0003:000078fc       ??_C@_0CD@MJE@Can?8t?5use?5keys?5or?5values?5with?5a?5@ 200448fc     q_shared.obj
 0003:00007920       ??_C@_0CL@GPCB@Can?8t?5use?5keys?5or?5values?5with?5a?5@ 20044920     q_shared.obj
 0003:0000794c       ??_C@_0CD@NLGB@Can?8t?5use?5keys?5or?5values?5with?5a?5@ 2004494c     q_shared.obj
 0003:00007970       ??_C@_0BN@DPCF@Info?5string?5length?5exceeded?6?$AA@ 20044970     q_shared.obj
 0003:00007990       ??_C@_06GNBE@?2?$CFs?2?$CFs?$AA@ 20044990     q_shared.obj
 0003:00007998       ??_C@_0CJ@GBHP@Info_SetValueForKey?3?5oversize?5in@ 20044998     q_shared.obj
 0003:000079c8       __fltused                  200449c8     LIBC:fpinit.obj
 0003:000079cc       __ldused                   200449cc     LIBC:fpinit.obj
 0003:000079d0       __FPinit                   200449d0     LIBC:fpinit.obj
 0003:000079d4       __FPmtinit                 200449d4     LIBC:fpinit.obj
 0003:000079d8       __FPmtterm                 200449d8     LIBC:fpinit.obj
 0003:000079e4       __aexit_rtn                200449e4     LIBC:dllcrt0.obj
 0003:000079e8       __pctype                   200449e8     LIBC:ctype.obj
 0003:000079ec       __pwctype                  200449ec     LIBC:ctype.obj
 0003:000079f0       __ctype                    200449f0     LIBC:ctype.obj
 0003:00007bf4       ___mb_cur_max              20044bf4     LIBC:nlsdata1.obj
 0003:00007bf8       ___decimal_point           20044bf8     LIBC:nlsdata1.obj
 0003:00007bfc       ___decimal_point_length    20044bfc     LIBC:nlsdata1.obj
 0003:00007c00       __cfltcvt_tab              20044c00     LIBC:cmiscdat.obj
 0003:00007c2c       ___nullstring              20044c2c     LIBC:output.obj
 0003:00007c30       ___wnullstring             20044c30     LIBC:output.obj
 0003:00007d10       __d_inf                    20044d10     LIBC:util.obj
 0003:00007d18       __d_ind                    20044d18     LIBC:util.obj
 0003:00007d20       __d_max                    20044d20     LIBC:util.obj
 0003:00007d28       __d_min                    20044d28     LIBC:util.obj
 0003:00007d30       __d_mzero                  20044d30     LIBC:util.obj
 0003:00007d50       __amblksiz                 20044d50     LIBC:heapinit.obj
 0003:00007d58       ___badioinfo               20044d58     LIBC:ioinit.obj
 0003:00007e20       __NLG_Destination          20044e20     LIBC:exsup.obj
 0003:00007e30       __iob                      20044e30     LIBC:_file.obj
 0003:000080b0       __matherr_flag             200450b0     LIBC:matherr.obj
 0003:000080b4       ___sbh_threshold           200450b4     LIBC:sbheap.obj
 0003:000081b0       __XcptActTab               200451b0     LIBC:winxfltr.obj
 0003:00008228       __First_FPE_Indx           20045228     LIBC:winxfltr.obj
 0003:0000822c       __Num_FPE                  2004522c     LIBC:winxfltr.obj
 0003:00008230       __XcptActTabCount          20045230     LIBC:winxfltr.obj
 0003:00008234       __fpecode                  20045234     LIBC:winxfltr.obj
 0003:000083a0       __pow10pos                 200453a0     LIBC:constpow.obj
 0003:00008500       __pow10neg                 20045500     LIBC:constpow.obj
 0003:00008758       ??_C@_00A@?$AA@            20045758     ai_chat.obj
 0003:00008788       _c_pmove                   20045788     bg_pmove.obj
 0003:0004dd90       _remapCount                2008ad90     g_utils.obj
 0003:0004de04       _nonansicast               2008ae04     q_math.obj
 0003:0004de08       _vec3_origin               2008ae08     q_math.obj
 0003:00064020       ___fastflag                200a1020     LIBC:fpinit.obj
 0003:00064024       __adjust_fdiv              200a1024     LIBC:fpinit.obj
 0003:0006402c       __aenvptr                  200a102c     LIBC:dllcrt0.obj
 0003:00064030       __wenvptr                  200a1030     LIBC:dllcrt0.obj
 0003:00064034       ___error_mode              200a1034     LIBC:dllcrt0.obj
 0003:00064038       ___app_type                200a1038     LIBC:dllcrt0.obj
 0003:0006406c       ___lc_handle               200a106c     LIBC:nlsdata2.obj
 0003:00064084       ___lc_codepage             200a1084     LIBC:nlsdata2.obj
 0003:00064088       ___lc_collate_cp           200a1088     LIBC:nlsdata2.obj
 0003:0006408c       _errno                     200a108c     LIBC:crt0dat.obj
 0003:00064090       __doserrno                 200a1090     LIBC:crt0dat.obj
 0003:00064094       __umaskval                 200a1094     LIBC:crt0dat.obj
 0003:00064098       __osver                    200a1098     LIBC:crt0dat.obj
 0003:0006409c       __winver                   200a109c     LIBC:crt0dat.obj
 0003:000640a0       __winmajor                 200a10a0     LIBC:crt0dat.obj
 0003:000640a4       __winminor                 200a10a4     LIBC:crt0dat.obj
 0003:000640a8       ___argc                    200a10a8     LIBC:crt0dat.obj
 0003:000640ac       ___argv                    200a10ac     LIBC:crt0dat.obj
 0003:000640b0       ___wargv                   200a10b0     LIBC:crt0dat.obj
 0003:000640b4       __environ                  200a10b4     LIBC:crt0dat.obj
 0003:000640b8       ___initenv                 200a10b8     LIBC:crt0dat.obj
 0003:000640bc       __wenviron                 200a10bc     LIBC:crt0dat.obj
 0003:000640c0       ___winitenv                200a10c0     LIBC:crt0dat.obj
 0003:000640c4       __pgmptr                   200a10c4     LIBC:crt0dat.obj
 0003:000640c8       __wpgmptr                  200a10c8     LIBC:crt0dat.obj
 0003:000640cc       __exitflag                 200a10cc     LIBC:crt0dat.obj
 0003:000640d0       __C_Termination_Done       200a10d0     LIBC:crt0dat.obj
 0003:000640d4       __C_Exit_Done              200a10d4     LIBC:crt0dat.obj
 0003:000641e0       __adbgmsg                  200a11e0     LIBC:crt0msg.obj
 0003:00064218       __cflush                   200a1218     LIBC:_file.obj
 0003:0006422c       __pxcptinfoptrs            200a122c     LIBC:winxfltr.obj
 0003:00064230       __newmode                  200a1230     LIBC:_newmode.obj
 0003:00064234       ?_pnhHeap@@3P6AHI@ZA       200a1234     LIBC:handler.obj
 0003:00064240       _remappedShaders           200a1240     <common>
 0003:00068440       _teamgame                  200a5440     <common>
 0003:00068464       _pushed_p                  200a5464     <common>
 0003:00068480       _pushed                    200a5480     <common>
 0003:00070480       _g_synchronousClients      200ad480     <common>
 0003:000705a0       _g_maxGameClients          200ad5a0     <common>
 0003:000706c0       _g_fraglimit               200ad6c0     <common>
 0003:000707e0       _g_gametype                200ad7e0     <common>
 0003:00070900       _g_lightningDamage         200ad900     <common>
 0003:00070a20       _g_password                200ada20     <common>
 0003:00070b40       _g_delagHitscan            200adb40     <common>
 0003:00070c60       _g_dmflags                 200adc60     <common>
 0003:00070d80       _pmove_msec                200add80     <common>
 0003:00070ea0       _g_cheats                  200adea0     <common>
 0003:00070fc0       _g_capturelimit            200adfc0     <common>
 0003:000710e0       _g_weaponTeamRespawn       200ae0e0     <common>
 0003:00071200       _g_needpass                200ae200     <common>
 0003:00071320       _g_speed                   200ae320     <common>
 0003:00071440       _g_teamForceBalance        200ae440     <common>
 0003:00071560       _g_doWarmup                200ae560     <common>
 0003:00071680       _g_debugDamage             200ae680     <common>
 0003:000717a0       _g_podiumDist              200ae7a0     <common>
 0003:000718c0       _g_banIPs                  200ae8c0     <common>
 0003:000719e0       _pmove_fixed               200ae9e0     <common>
 0003:00071b00       _g_unlaggedVersion         200aeb00     <common>
 0003:00071c20       _g_rankings                200aec20     <common>
 0003:00071d40       _g_knockback               200aed40     <common>
 0003:00071e60       _g_clients                 200aee60     <common>
 0003:000a6060       _g_maxclients              200e3060     <common>
 0003:000a6180       _g_podiumDrop              200e3180     <common>
 0003:000a62a0       _g_instagib                200e32a0     <common>
 0003:000a63c0       _g_timelimit               200e33c0     <common>
 0003:000a64e0       _g_filterBan               200e34e0     <common>
 0003:000a6600       _g_smoothClients           200e3600     <common>
 0003:000a6720       _g_debugAlloc              200e3720     <common>
 0003:000a6840       _g_inactivity              200e3840     <common>
 0003:000a6960       _level                     200e3960     <common>
 0003:000a8d60       _g_restarted               200e5d60     <common>
 0003:000a8e80       _g_teamAutoJoin            200e5e80     <common>
 0003:000a8fa0       _g_blood                   200e5fa0     <common>
 0003:000a90c0       _g_truePing                200e60c0     <common>
 0003:000a91e0       _g_gravity                 200e61e0     <common>
 0003:000a9300       _g_listEntity              200e6300     <common>
 0003:000a9420       _g_allowVote               200e6420     <common>
 0003:000a9540       _g_entities                200e6540     <common>
 0003:00173540       _g_log                     201b0540     <common>
 0003:00173660       _g_friendlyFire            201b0660     <common>
 0003:00173780       _g_weaponRespawn           201b0780     <common>
 0003:001738a0       _g_debugMove               201b08a0     <common>
 0003:001739c0       _g_motd                    201b09c0     <common>
 0003:00173ae0       _g_forcerespawn            201b0ae0     <common>
 0003:00173c00       _g_warmup                  201b0c00     <common>
 0003:00173d20       _g_logSync                 201b0d20     <common>
 0003:00173e40       _sv_fps                    201b0e40     <common>
 0003:00173f60       _g_quadfactor              201b0f60     <common>
 0003:00174080       _g_dedicated               201b1080     <common>
 0003:001741a0       _itemRegistered            201b11a0     <common>
 0003:001745a0       _bot_minplayers            201b15a0     <common>
 0003:001746b0       _g_numArenas               201b16b0     <common>
 0003:001746b4       _podium2                   201b16b4     <common>
 0003:001746b8       _podium3                   201b16b8     <common>
 0003:001746bc       _podium1                   201b16bc     <common>
 0003:001746c0       _pml                       201b16c0     <common>
 0003:00174750       _pm                        201b1750     <common>
 0003:00174760       _ctftaskpreferences        201b1760     <common>
 0003:00175160       _bot_interbreedcycle       201b2160     <common>
 0003:00175270       _numbots                   201b2270     <common>
 0003:00175280       _bot_testsolid             201b2280     <common>
 0003:001753a0       _bot_interbreedwrite       201b23a0     <common>
 0003:001754c0       _bot_developer             201b24c0     <common>
 0003:001755e0       _bot_testclusters          201b25e0     <common>
 0003:001756f0       _bot_interbreedmatchcount  201b26f0     <common>
 0003:00175700       _bot_saveroutingcache      201b2700     <common>
 0003:00175820       _bot_thinktime             201b2820     <common>
 0003:00175940       _botstates                 201b2940     <common>
 0003:00175a40       _regularupdate_time        201b2a40     <common>
 0003:00175a44       _bot_interbreed            201b2a44     <common>
 0003:00175a48       _floattime                 201b2a48     <common>
 0003:00175a60       _bot_pause                 201b2a60     <common>
 0003:00175b80       _bot_interbreedbots        201b2b80     <common>
 0003:00175ca0       _bot_memorydump            201b2ca0     <common>
 0003:00175dc0       _bot_report                201b2dc0     <common>
 0003:00175ee0       _bot_interbreedchar        201b2ee0     <common>
 0003:00175ff0       _lastteleport_origin       201b2ff0     <common>
 0003:00176000       _ctf_blueflag              201b3000     <common>
 0003:00176040       _g_spSkill                 201b3040     <common>
 0003:00176160       _bot_testrchat             201b3160     <common>
 0003:00176270       _gametype                  201b3270     <common>
 0003:00176280       _bot_nochat                201b3280     <common>
 0003:00176390       _max_bspmodelindex         201b3390     <common>
 0003:001763a0       _bot_fastchat              201b33a0     <common>
 0003:001764c0       _bot_rocketjump            201b34c0     <common>
 0003:001765e0       _bot_predictobstacles      201b35e0     <common>
 0003:00176700       _bot_challenge             201b3700     <common>
 0003:00176810       _red_numaltroutegoals      201b3810     <common>
 0003:00176820       _ctf_redflag               201b3820     <common>
 0003:00176858       _botai_freewaypoints       201b3858     <common>
 0003:0017685c       _altroutegoals_setup       201b385c     <common>
 0003:00176860       _lastteleport_time         201b3860     <common>
 0003:00176880       _blue_altroutegoals        201b3880     <common>
 0003:00176b80       _blue_numaltroutegoals     201b3b80     <common>
 0003:00176ba0       _botai_waypoints           201b3ba0     <common>
 0003:00179da0       _bot_grapple               201b6da0     <common>
 0003:00179ec0       _red_altroutegoals         201b6ec0     <common>
 0003:0017a1c0       _maxclients                201b71c0     <common>
 0003:0017a1c4       _numnodeswitches           201b71c4     <common>
 0003:0017a1e0       _nodeswitch                201b71e0     <common>
 0003:0017bea0       _notleader                 201b8ea0     <common>
 0003:0017bfa0       ___mbcodepage              201b8fa0     <common>
 0003:0017bfb0       ___mbulinfo                201b8fb0     <common>
 0003:0017bfbc       ___ismbcodepage            201b8fbc     <common>
 0003:0017bfc0       __mbcasemap                201b8fc0     <common>
 0003:0017c0c0       __mbctype                  201b90c0     <common>
 0003:0017c1c4       ___mblcid                  201b91c4     <common>
 0003:0017c1c8       ___sbh_sizeHeaderList      201b91c8     <common>
 0003:0017c1cc       ___sbh_indGroupDefer       201b91cc     <common>
 0003:0017c1d0       ___sbh_pHeaderScan         201b91d0     <common>
 0003:0017c1d4       ___sbh_pHeaderDefer        201b91d4     <common>
 0003:0017c1d8       ___sbh_cntHeaderList       201b91d8     <common>
 0003:0017c1dc       ___sbh_pHeaderList         201b91dc     <common>
 0003:0017c1e0       ___piob                    201b91e0     <common>
 0003:0017c200       __bufin                    201b9200     <common>
 0003:0017d200       __nstream                  201ba200     <common>
 0003:0017d220       ___pioinfo                 201ba220     <common>
 0003:0017d320       __nhandle                  201ba320     <common>
 0003:0017d324       __crtheap                  201ba324     <common>
 0003:0017d328       ___env_initialized         201ba328     <common>
 0003:0017d32c       ___mbctype_initialized     201ba32c     <common>
 0003:0017d330       ___onexitend               201ba330     <common>
 0003:0017d334       ___onexitbegin             201ba334     <common>
 0003:0017d338       __acmdln                   201ba338     <common>
 0003:0017d33c       __pRawDllMain              201ba33c     <common>

 entry point at        0001:000340cf

 Static symbols

 0001:00032c80       _SkipWhitespace            20033c80 f   q_shared.obj
 0001:0002fc80       _TimeShiftLerp             20030c80 f   g_unlagged.obj
 0001:0002ebc0       _SortClients               2002fbc0 f   g_team.obj
 0001:0002d550       _target_location_linkup    2002e550 f   g_target.obj
 0001:0002afd0       _AddIP                     2002bfd0 f   g_svcmds.obj
 0001:0002b040       _StringToFilter            2002c040 f   g_svcmds.obj
 0001:0002b0f0       _UpdateIPBans              2002c0f0 f   g_svcmds.obj
 0001:000292f0       _Touch_DoorTriggerSpectator 2002a2f0 f   g_mover.obj
 0001:00026b30       _InitShooter_Finish        20027b30 f   g_misc.obj
 0001:00020690       _G_SayTo                   20021690 f   g_cmds.obj
 0001:00020810       _G_VoiceTo                 20021810 f   g_cmds.obj
 0001:00021d50       _Cmd_Say_f                 20022d50 f   g_cmds.obj
 0001:00021d90       _Cmd_Tell_f                20022d90 f   g_cmds.obj
 0001:00021e70       _Cmd_Voice_f               20022e70 f   g_cmds.obj
 0001:00021ec0       _Cmd_VoiceTell_f           20022ec0 f   g_cmds.obj
 0001:00021fb0       _Cmd_VoiceTaunt_f          20022fb0 f   g_cmds.obj
 0001:0001e7d0       _ClientCleanName           2001f7d0 f   g_client.obj
 0001:0001c810       _PlayerIntroSound          2001d810 f   g_bot.obj
 0001:0001cae0       _G_AddBot                  2001dae0 f   g_bot.obj
 0001:0001cea0       _AddBotToSpawnQueue        2001dea0 f   g_bot.obj
 0001:0001d2e0       _G_LoadArenas              2001e2e0 f   g_bot.obj
 0001:0001d430       _G_LoadArenasFromFile      2001e430 f   g_bot.obj
 0001:0001d510       _G_SpawnBots               2001e510 f   g_bot.obj
 0001:0001d640       _G_LoadBots                2001e640 f   g_bot.obj
 0001:0001d770       _G_LoadBotsFromFile        2001e770 f   g_bot.obj
 0001:0001b670       _SpawnModelOnVictoryPad    2001c670 f   g_arenas.obj
 0001:0001b930       _CelebrateStart            2001c930 f   g_arenas.obj
 0001:0001b980       _CelebrateStop             2001c980 f   g_arenas.obj
 0001:0001b9b0       _SpawnPodium               2001c9b0 f   g_arenas.obj
 0001:0001bb10       _PodiumPlacementThink      2001cb10 f   g_arenas.obj
 0001:00016e00       _PM_WaterJumpMove          20017e00 f   bg_pmove.obj
 0001:00016e50       _PM_WaterMove              20017e50 f   bg_pmove.obj
 0001:00017030       _PM_Friction               20018030 f   bg_pmove.obj
 0001:00017180       _PM_Accelerate             20018180 f   bg_pmove.obj
 0001:00017200       _PM_CmdScale               20018200 f   bg_pmove.obj
 0001:00017290       _PM_CheckWaterJump         20018290 f   bg_pmove.obj
 0001:000173f0       _PM_FlyMove                200183f0 f   bg_pmove.obj
 0001:000174d0       _PM_AirMove                200184d0 f   bg_pmove.obj
 0001:000175f0       _PM_SetMovementDir         200185f0 f   bg_pmove.obj
 0001:000176c0       _PM_GrappleMove            200186c0 f   bg_pmove.obj
 0001:00017800       _PM_WalkMove               20018800 f   bg_pmove.obj
 0001:00017b20       _PM_CheckJump              20018b20 f   bg_pmove.obj
 0001:00017be0       _PM_ForceLegsAnim          20018be0 f   bg_pmove.obj
 0001:00017c00       _PM_StartLegsAnim          20018c00 f   bg_pmove.obj
 0001:00017c30       _PM_DeadMove               20018c30 f   bg_pmove.obj
 0001:00017cf0       _PM_NoclipMove             20018cf0 f   bg_pmove.obj
 0001:00017ed0       _PM_GroundTrace            20018ed0 f   bg_pmove.obj
 0001:00018140       _PM_CrashLand              20019140 f   bg_pmove.obj
 0001:000182f0       _PM_FootstepForSurface     200192f0 f   bg_pmove.obj
 0001:00018310       _PM_CorrectAllSolid        20019310 f   bg_pmove.obj
 0001:000184d0       _PM_GroundTraceMissed      200194d0 f   bg_pmove.obj
 0001:000185e0       _PM_SetWaterLevel          200195e0 f   bg_pmove.obj
 0001:00018710       _PM_CheckDuck              20019710 f   bg_pmove.obj
 0001:00018920       _PM_Footsteps              20019920 f   bg_pmove.obj
 0001:00018af0       _PM_ContinueLegsAnim       20019af0 f   bg_pmove.obj
 0001:00018b20       _PM_WaterEvents            20019b20 f   bg_pmove.obj
 0001:00018bb0       _PM_TorsoAnimation         20019bb0 f   bg_pmove.obj
 0001:00018be0       _PM_ContinueTorsoAnim      20019be0 f   bg_pmove.obj
 0001:00018c10       _PM_StartTorsoAnim         20019c10 f   bg_pmove.obj
 0001:00018c40       _PM_Weapon                 20019c40 f   bg_pmove.obj
 0001:00018fc0       _PM_BeginWeaponChange      20019fc0 f   bg_pmove.obj
 0001:00019030       _PM_FinishWeaponChange     2001a030 f   bg_pmove.obj
 0001:00019090       _PM_Animate                2001a090 f   bg_pmove.obj
 0001:000190d0       _PM_DropTimers             2001a0d0 f   bg_pmove.obj
 0001:00019160       _PM_LadderMove             2001a160 f   bg_pmove.obj
 0001:0003a387       _flsall                    2003b387 f   LIBC:fflush.obj
 0001:000394e0       LeadUp1                    2003a4e0 f   LIBC:memcpy.obj
 0001:0003950c       LeadUp2                    2003a50c f   LIBC:memcpy.obj
 0001:00039530       LeadUp3                    2003a530 f   LIBC:memcpy.obj
 0001:000395af       UnwindUp0                  2003a5af f   LIBC:memcpy.obj
 0001:0003959c       UnwindUp1                  2003a59c f   LIBC:memcpy.obj
 0001:00039594       UnwindUp2                  2003a594 f   LIBC:memcpy.obj
 0001:0003958c       UnwindUp3                  2003a58c f   LIBC:memcpy.obj
 0001:00039584       UnwindUp4                  2003a584 f   LIBC:memcpy.obj
 0001:0003957c       UnwindUp5                  2003a57c f   LIBC:memcpy.obj
 0001:00039574       UnwindUp6                  2003a574 f   LIBC:memcpy.obj
 0001:0003956c       UnwindUp7                  2003a56c f   LIBC:memcpy.obj
 0001:000395c8       TrailUp0                   2003a5c8 f   LIBC:memcpy.obj
 0001:000395d0       TrailUp1                   2003a5d0 f   LIBC:memcpy.obj
 0001:000395dc       TrailUp2                   2003a5dc f   LIBC:memcpy.obj
 0001:000395f0       TrailUp3                   2003a5f0 f   LIBC:memcpy.obj
 0001:00039668       LeadDown1                  2003a668 f   LIBC:memcpy.obj
 0001:00039688       LeadDown2                  2003a688 f   LIBC:memcpy.obj
 0001:000396b0       LeadDown3                  2003a6b0 f   LIBC:memcpy.obj
 0001:00039704       UnwindDown7                2003a704 f   LIBC:memcpy.obj
 0001:0003970c       UnwindDown6                2003a70c f   LIBC:memcpy.obj
 0001:00039714       UnwindDown5                2003a714 f   LIBC:memcpy.obj
 0001:0003971c       UnwindDown4                2003a71c f   LIBC:memcpy.obj
 0001:00039724       UnwindDown3                2003a724 f   LIBC:memcpy.obj
 0001:0003972c       UnwindDown2                2003a72c f   LIBC:memcpy.obj
 0001:00039734       UnwindDown1                2003a734 f   LIBC:memcpy.obj
 0001:00039747       UnwindDown0                2003a747 f   LIBC:memcpy.obj
 0001:00039760       TrailDown0                 2003a760 f   LIBC:memcpy.obj
 0001:00039768       TrailDown1                 2003a768 f   LIBC:memcpy.obj
 0001:00039778       TrailDown2                 2003a778 f   LIBC:memcpy.obj
 0001:0003978c       TrailDown3                 2003a78c f   LIBC:memcpy.obj
 0001:0003921d       _getSystemCP               2003a21d f   LIBC:mbctype.obj
 0001:00039267       _CPtoLCID                  2003a267 f   LIBC:mbctype.obj
 0001:0003929a       _setSBCS                   2003a29a f   LIBC:mbctype.obj
 0001:000392c3       _setSBUpLow                2003a2c3 f   LIBC:mbctype.obj
 0001:00038120       _gu_return                 20039120 f   LIBC:exsup.obj
 0001:00038128       __unwind_handler           20039128 f   LIBC:exsup.obj
 0001:000371d2       __abstract_cw              200381d2 f   LIBC:ieee87.obj
 0001:00037264       __hw_cw                    20038264 f   LIBC:ieee87.obj
 0001:00036bac       _parse_cmdline             20037bac f   LIBC:stdargv.obj
 0001:00036728       _doexit                    20037728 f   LIBC:crt0dat.obj
 0001:000367c1       __initterm                 200377c1 f   LIBC:crt0dat.obj
 0001:0003649d       __get_fname                2003749d f   LIBC:fpexcept.obj
 0001:00035d71       _write_char                20036d71 f   LIBC:output.obj
 0001:00035da6       _write_multi_char          20036da6 f   LIBC:output.obj
 0001:00035dd7       _write_string              20036dd7 f   LIBC:output.obj
 0001:00035e0f       _get_int_arg               20036e0f f   LIBC:output.obj
 0001:00035e1c       _get_int64_arg             20036e1c f   LIBC:output.obj
 0001:00035e2c       _get_short_arg             20036e2c f   LIBC:output.obj
 0001:000354f0       _strncnt                   200364f0 f   LIBC:a_map.obj
 0001:00035240       __hextodec                 20036240 f   LIBC:input.obj
 0001:00035277       __inc                      20036277 f   LIBC:input.obj
 0001:00035291       __un_inc                   20036291 f   LIBC:input.obj
 0001:000352a8       __whiteout                 200362a8 f   LIBC:input.obj
 0001:00034648       __cftoe_g                  20035648 f   LIBC:cvt.obj
 0001:0003466f       __cftof_g                  2003566f f   LIBC:cvt.obj
 0001:000346e3       __shift                    200356e3 f   LIBC:cvt.obj
 0001:00033f9d       _shortsort                 20034f9d f   LIBC:qsort.obj
 0001:00033feb       _swap                      20034feb f   LIBC:qsort.obj
 0001:00033800       LeadUp1                    20034800 f   LIBC:memmove.obj
 0001:0003382c       LeadUp2                    2003482c f   LIBC:memmove.obj
 0001:00033850       LeadUp3                    20034850 f   LIBC:memmove.obj
 0001:000338cf       UnwindUp0                  200348cf f   LIBC:memmove.obj
 0001:000338bc       UnwindUp1                  200348bc f   LIBC:memmove.obj
 0001:000338b4       UnwindUp2                  200348b4 f   LIBC:memmove.obj
 0001:000338ac       UnwindUp3                  200348ac f   LIBC:memmove.obj
 0001:000338a4       UnwindUp4                  200348a4 f   LIBC:memmove.obj
 0001:0003389c       UnwindUp5                  2003489c f   LIBC:memmove.obj
 0001:00033894       UnwindUp6                  20034894 f   LIBC:memmove.obj
 0001:0003388c       UnwindUp7                  2003488c f   LIBC:memmove.obj
 0001:000338e8       TrailUp0                   200348e8 f   LIBC:memmove.obj
 0001:000338f0       TrailUp1                   200348f0 f   LIBC:memmove.obj
 0001:000338fc       TrailUp2                   200348fc f   LIBC:memmove.obj
 0001:00033910       TrailUp3                   20034910 f   LIBC:memmove.obj
 0001:00033988       LeadDown1                  20034988 f   LIBC:memmove.obj
 0001:000339a8       LeadDown2                  200349a8 f   LIBC:memmove.obj
 0001:000339d0       LeadDown3                  200349d0 f   LIBC:memmove.obj
 0001:00033a24       UnwindDown7                20034a24 f   LIBC:memmove.obj
 0001:00033a2c       UnwindDown6                20034a2c f   LIBC:memmove.obj
 0001:00033a34       UnwindDown5                20034a34 f   LIBC:memmove.obj
 0001:00033a3c       UnwindDown4                20034a3c f   LIBC:memmove.obj
 0001:00033a44       UnwindDown3                20034a44 f   LIBC:memmove.obj
 0001:00033a4c       UnwindDown2                20034a4c f   LIBC:memmove.obj
 0001:00033a54       UnwindDown1                20034a54 f   LIBC:memmove.obj
 0001:00033a67       UnwindDown0                20034a67 f   LIBC:memmove.obj
 0001:00033a80       TrailDown0                 20034a80 f   LIBC:memmove.obj
 0001:00033a88       TrailDown1                 20034a88 f   LIBC:memmove.obj
 0001:00033a98       TrailDown2                 20034a98 f   LIBC:memmove.obj
 0001:00033aac       TrailDown3                 20034aac f   LIBC:memmove.obj

 384 bytes saved through ICF

